ARM GAS  C:\Users\OEBN\AppData\Local\Temp\cc9eYuCT.s 			page 1


   1              		.cpu cortex-m0
   2              		.fpu softvfp
   3              		.eabi_attribute 20, 1
   4              		.eabi_attribute 21, 1
   5              		.eabi_attribute 23, 3
   6              		.eabi_attribute 24, 1
   7              		.eabi_attribute 25, 1
   8              		.eabi_attribute 26, 1
   9              		.eabi_attribute 30, 6
  10              		.eabi_attribute 34, 0
  11              		.eabi_attribute 18, 4
  12              		.code	16
  13              		.file	"isr_pwm.c"
  14              		.text
  15              	.Ltext0:
  16              		.cfi_sections	.debug_frame
  17              		.global	counter_pwm
  18              		.bss
  19              		.type	counter_pwm, %object
  20              		.size	counter_pwm, 1
  21              	counter_pwm:
  22 0000 00       		.space	1
  23              		.section	.text.isr_pwm_Start,"ax",%progbits
  24              		.align	2
  25              		.global	isr_pwm_Start
  26              		.code	16
  27              		.thumb_func
  28              		.type	isr_pwm_Start, %function
  29              	isr_pwm_Start:
  30              	.LFB0:
  31              		.file 1 ".\\Generated_Source\\PSoC4\\isr_pwm.c"
   1:.\Generated_Source\PSoC4/isr_pwm.c **** /*******************************************************************************
   2:.\Generated_Source\PSoC4/isr_pwm.c **** * File Name: isr_pwm.c  
   3:.\Generated_Source\PSoC4/isr_pwm.c **** * Version 1.70
   4:.\Generated_Source\PSoC4/isr_pwm.c **** *
   5:.\Generated_Source\PSoC4/isr_pwm.c **** *  Description:
   6:.\Generated_Source\PSoC4/isr_pwm.c **** *   API for controlling the state of an interrupt.
   7:.\Generated_Source\PSoC4/isr_pwm.c **** *
   8:.\Generated_Source\PSoC4/isr_pwm.c **** *
   9:.\Generated_Source\PSoC4/isr_pwm.c **** *  Note:
  10:.\Generated_Source\PSoC4/isr_pwm.c **** *
  11:.\Generated_Source\PSoC4/isr_pwm.c **** ********************************************************************************
  12:.\Generated_Source\PSoC4/isr_pwm.c **** * Copyright 2008-2012, Cypress Semiconductor Corporation.  All rights reserved.
  13:.\Generated_Source\PSoC4/isr_pwm.c **** * You may use this file only in accordance with the license, terms, conditions, 
  14:.\Generated_Source\PSoC4/isr_pwm.c **** * disclaimers, and limitations in the end user license agreement accompanying 
  15:.\Generated_Source\PSoC4/isr_pwm.c **** * the software package with which this file was provided.
  16:.\Generated_Source\PSoC4/isr_pwm.c **** *******************************************************************************/
  17:.\Generated_Source\PSoC4/isr_pwm.c **** 
  18:.\Generated_Source\PSoC4/isr_pwm.c **** 
  19:.\Generated_Source\PSoC4/isr_pwm.c **** #include <cydevice_trm.h>
  20:.\Generated_Source\PSoC4/isr_pwm.c **** #include <CyLib.h>
  21:.\Generated_Source\PSoC4/isr_pwm.c **** #include <isr_pwm.h>
  22:.\Generated_Source\PSoC4/isr_pwm.c **** 
  23:.\Generated_Source\PSoC4/isr_pwm.c **** #if !defined(isr_pwm__REMOVED) /* Check for removal by optimization */
  24:.\Generated_Source\PSoC4/isr_pwm.c **** 
  25:.\Generated_Source\PSoC4/isr_pwm.c **** /*******************************************************************************
  26:.\Generated_Source\PSoC4/isr_pwm.c **** *  Place your includes, defines and code here 
ARM GAS  C:\Users\OEBN\AppData\Local\Temp\cc9eYuCT.s 			page 2


  27:.\Generated_Source\PSoC4/isr_pwm.c **** ********************************************************************************/
  28:.\Generated_Source\PSoC4/isr_pwm.c **** /* `#START isr_pwm_intc` */
  29:.\Generated_Source\PSoC4/isr_pwm.c **** #include <isr_blink.h>
  30:.\Generated_Source\PSoC4/isr_pwm.c **** #include <PWM_Timer.h>    
  31:.\Generated_Source\PSoC4/isr_pwm.c **** #include <uart_2_spi_uart.h>
  32:.\Generated_Source\PSoC4/isr_pwm.c **** #include <CollisionLight.h>
  33:.\Generated_Source\PSoC4/isr_pwm.c **** #include <LandingLight.h>
  34:.\Generated_Source\PSoC4/isr_pwm.c **** #include <NavLight.h>
  35:.\Generated_Source\PSoC4/isr_pwm.c **** #include <StrobeLight.h>
  36:.\Generated_Source\PSoC4/isr_pwm.c **** 
  37:.\Generated_Source\PSoC4/isr_pwm.c **** enum lights {strobe = 0, collision, navigation, landing};
  38:.\Generated_Source\PSoC4/isr_pwm.c **** 
  39:.\Generated_Source\PSoC4/isr_pwm.c **** extern  uint8_t pwm_light[4];
  40:.\Generated_Source\PSoC4/isr_pwm.c ****     
  41:.\Generated_Source\PSoC4/isr_pwm.c **** uint8_t counter_pwm = 0;
  42:.\Generated_Source\PSoC4/isr_pwm.c **** 
  43:.\Generated_Source\PSoC4/isr_pwm.c **** /* `#END` */
  44:.\Generated_Source\PSoC4/isr_pwm.c **** 
  45:.\Generated_Source\PSoC4/isr_pwm.c **** extern cyisraddress CyRamVectors[CYINT_IRQ_BASE + CY_NUM_INTERRUPTS];
  46:.\Generated_Source\PSoC4/isr_pwm.c **** 
  47:.\Generated_Source\PSoC4/isr_pwm.c **** /* Declared in startup, used to set unused interrupts to. */
  48:.\Generated_Source\PSoC4/isr_pwm.c **** CY_ISR_PROTO(IntDefaultHandler);
  49:.\Generated_Source\PSoC4/isr_pwm.c **** 
  50:.\Generated_Source\PSoC4/isr_pwm.c **** 
  51:.\Generated_Source\PSoC4/isr_pwm.c **** /*******************************************************************************
  52:.\Generated_Source\PSoC4/isr_pwm.c **** * Function Name: isr_pwm_Start
  53:.\Generated_Source\PSoC4/isr_pwm.c **** ********************************************************************************
  54:.\Generated_Source\PSoC4/isr_pwm.c **** *
  55:.\Generated_Source\PSoC4/isr_pwm.c **** * Summary:
  56:.\Generated_Source\PSoC4/isr_pwm.c **** *  Set up the interrupt and enable it.
  57:.\Generated_Source\PSoC4/isr_pwm.c **** *
  58:.\Generated_Source\PSoC4/isr_pwm.c **** * Parameters:  
  59:.\Generated_Source\PSoC4/isr_pwm.c **** *   None
  60:.\Generated_Source\PSoC4/isr_pwm.c **** *
  61:.\Generated_Source\PSoC4/isr_pwm.c **** * Return:
  62:.\Generated_Source\PSoC4/isr_pwm.c **** *   None
  63:.\Generated_Source\PSoC4/isr_pwm.c **** *
  64:.\Generated_Source\PSoC4/isr_pwm.c **** *******************************************************************************/
  65:.\Generated_Source\PSoC4/isr_pwm.c **** void isr_pwm_Start(void)
  66:.\Generated_Source\PSoC4/isr_pwm.c **** {
  32              		.loc 1 66 0
  33              		.cfi_startproc
  34 0000 80B5     		push	{r7, lr}
  35              	.LCFI0:
  36              		.cfi_def_cfa_offset 8
  37              		.cfi_offset 7, -8
  38              		.cfi_offset 14, -4
  39 0002 00AF     		add	r7, sp, #0
  40              	.LCFI1:
  41              		.cfi_def_cfa_register 7
  67:.\Generated_Source\PSoC4/isr_pwm.c ****     /* For all we know the interrupt is active. */
  68:.\Generated_Source\PSoC4/isr_pwm.c ****     isr_pwm_Disable();
  42              		.loc 1 68 0
  43 0004 FFF7FEFF 		bl	isr_pwm_Disable
  69:.\Generated_Source\PSoC4/isr_pwm.c **** 
  70:.\Generated_Source\PSoC4/isr_pwm.c ****     /* Set the ISR to point to the isr_pwm Interrupt. */
  71:.\Generated_Source\PSoC4/isr_pwm.c ****     isr_pwm_SetVector(&isr_pwm_Interrupt);
ARM GAS  C:\Users\OEBN\AppData\Local\Temp\cc9eYuCT.s 			page 3


  44              		.loc 1 71 0
  45 0008 054B     		ldr	r3, .L2
  46 000a 181C     		mov	r0, r3
  47 000c FFF7FEFF 		bl	isr_pwm_SetVector
  72:.\Generated_Source\PSoC4/isr_pwm.c **** 
  73:.\Generated_Source\PSoC4/isr_pwm.c ****     /* Set the priority. */
  74:.\Generated_Source\PSoC4/isr_pwm.c ****     isr_pwm_SetPriority((uint8)isr_pwm_INTC_PRIOR_NUMBER);
  48              		.loc 1 74 0
  49 0010 0320     		mov	r0, #3
  50 0012 FFF7FEFF 		bl	isr_pwm_SetPriority
  75:.\Generated_Source\PSoC4/isr_pwm.c **** 
  76:.\Generated_Source\PSoC4/isr_pwm.c ****     /* Enable it. */
  77:.\Generated_Source\PSoC4/isr_pwm.c ****     isr_pwm_Enable();
  51              		.loc 1 77 0
  52 0016 FFF7FEFF 		bl	isr_pwm_Enable
  78:.\Generated_Source\PSoC4/isr_pwm.c **** }
  53              		.loc 1 78 0
  54 001a BD46     		mov	sp, r7
  55              		@ sp needed for prologue
  56 001c 80BD     		pop	{r7, pc}
  57              	.L3:
  58 001e C046     		.align	2
  59              	.L2:
  60 0020 00000000 		.word	isr_pwm_Interrupt
  61              		.cfi_endproc
  62              	.LFE0:
  63              		.size	isr_pwm_Start, .-isr_pwm_Start
  64              		.section	.text.isr_pwm_StartEx,"ax",%progbits
  65              		.align	2
  66              		.global	isr_pwm_StartEx
  67              		.code	16
  68              		.thumb_func
  69              		.type	isr_pwm_StartEx, %function
  70              	isr_pwm_StartEx:
  71              	.LFB1:
  79:.\Generated_Source\PSoC4/isr_pwm.c **** 
  80:.\Generated_Source\PSoC4/isr_pwm.c **** 
  81:.\Generated_Source\PSoC4/isr_pwm.c **** /*******************************************************************************
  82:.\Generated_Source\PSoC4/isr_pwm.c **** * Function Name: isr_pwm_StartEx
  83:.\Generated_Source\PSoC4/isr_pwm.c **** ********************************************************************************
  84:.\Generated_Source\PSoC4/isr_pwm.c **** *
  85:.\Generated_Source\PSoC4/isr_pwm.c **** * Summary:
  86:.\Generated_Source\PSoC4/isr_pwm.c **** *  Set up the interrupt and enable it.
  87:.\Generated_Source\PSoC4/isr_pwm.c **** *
  88:.\Generated_Source\PSoC4/isr_pwm.c **** * Parameters:  
  89:.\Generated_Source\PSoC4/isr_pwm.c **** *   address: Address of the ISR to set in the interrupt vector table.
  90:.\Generated_Source\PSoC4/isr_pwm.c **** *
  91:.\Generated_Source\PSoC4/isr_pwm.c **** * Return:
  92:.\Generated_Source\PSoC4/isr_pwm.c **** *   None
  93:.\Generated_Source\PSoC4/isr_pwm.c **** *
  94:.\Generated_Source\PSoC4/isr_pwm.c **** *******************************************************************************/
  95:.\Generated_Source\PSoC4/isr_pwm.c **** void isr_pwm_StartEx(cyisraddress address)
  96:.\Generated_Source\PSoC4/isr_pwm.c **** {
  72              		.loc 1 96 0
  73              		.cfi_startproc
  74 0000 80B5     		push	{r7, lr}
  75              	.LCFI2:
ARM GAS  C:\Users\OEBN\AppData\Local\Temp\cc9eYuCT.s 			page 4


  76              		.cfi_def_cfa_offset 8
  77              		.cfi_offset 7, -8
  78              		.cfi_offset 14, -4
  79 0002 82B0     		sub	sp, sp, #8
  80              	.LCFI3:
  81              		.cfi_def_cfa_offset 16
  82 0004 00AF     		add	r7, sp, #0
  83              	.LCFI4:
  84              		.cfi_def_cfa_register 7
  85 0006 7860     		str	r0, [r7, #4]
  97:.\Generated_Source\PSoC4/isr_pwm.c ****     /* For all we know the interrupt is active. */
  98:.\Generated_Source\PSoC4/isr_pwm.c ****     isr_pwm_Disable();
  86              		.loc 1 98 0
  87 0008 FFF7FEFF 		bl	isr_pwm_Disable
  99:.\Generated_Source\PSoC4/isr_pwm.c **** 
 100:.\Generated_Source\PSoC4/isr_pwm.c ****     /* Set the ISR to point to the isr_pwm Interrupt. */
 101:.\Generated_Source\PSoC4/isr_pwm.c ****     isr_pwm_SetVector(address);
  88              		.loc 1 101 0
  89 000c 7B68     		ldr	r3, [r7, #4]
  90 000e 181C     		mov	r0, r3
  91 0010 FFF7FEFF 		bl	isr_pwm_SetVector
 102:.\Generated_Source\PSoC4/isr_pwm.c **** 
 103:.\Generated_Source\PSoC4/isr_pwm.c ****     /* Set the priority. */
 104:.\Generated_Source\PSoC4/isr_pwm.c ****     isr_pwm_SetPriority((uint8)isr_pwm_INTC_PRIOR_NUMBER);
  92              		.loc 1 104 0
  93 0014 0320     		mov	r0, #3
  94 0016 FFF7FEFF 		bl	isr_pwm_SetPriority
 105:.\Generated_Source\PSoC4/isr_pwm.c **** 
 106:.\Generated_Source\PSoC4/isr_pwm.c ****     /* Enable it. */
 107:.\Generated_Source\PSoC4/isr_pwm.c ****     isr_pwm_Enable();
  95              		.loc 1 107 0
  96 001a FFF7FEFF 		bl	isr_pwm_Enable
 108:.\Generated_Source\PSoC4/isr_pwm.c **** }
  97              		.loc 1 108 0
  98 001e BD46     		mov	sp, r7
  99 0020 02B0     		add	sp, sp, #8
 100              		@ sp needed for prologue
 101 0022 80BD     		pop	{r7, pc}
 102              		.cfi_endproc
 103              	.LFE1:
 104              		.size	isr_pwm_StartEx, .-isr_pwm_StartEx
 105              		.section	.text.isr_pwm_Stop,"ax",%progbits
 106              		.align	2
 107              		.global	isr_pwm_Stop
 108              		.code	16
 109              		.thumb_func
 110              		.type	isr_pwm_Stop, %function
 111              	isr_pwm_Stop:
 112              	.LFB2:
 109:.\Generated_Source\PSoC4/isr_pwm.c **** 
 110:.\Generated_Source\PSoC4/isr_pwm.c **** 
 111:.\Generated_Source\PSoC4/isr_pwm.c **** /*******************************************************************************
 112:.\Generated_Source\PSoC4/isr_pwm.c **** * Function Name: isr_pwm_Stop
 113:.\Generated_Source\PSoC4/isr_pwm.c **** ********************************************************************************
 114:.\Generated_Source\PSoC4/isr_pwm.c **** *
 115:.\Generated_Source\PSoC4/isr_pwm.c **** * Summary:
 116:.\Generated_Source\PSoC4/isr_pwm.c **** *   Disables and removes the interrupt.
ARM GAS  C:\Users\OEBN\AppData\Local\Temp\cc9eYuCT.s 			page 5


 117:.\Generated_Source\PSoC4/isr_pwm.c **** *
 118:.\Generated_Source\PSoC4/isr_pwm.c **** * Parameters:  
 119:.\Generated_Source\PSoC4/isr_pwm.c **** *
 120:.\Generated_Source\PSoC4/isr_pwm.c **** * Return:
 121:.\Generated_Source\PSoC4/isr_pwm.c **** *   None
 122:.\Generated_Source\PSoC4/isr_pwm.c **** *
 123:.\Generated_Source\PSoC4/isr_pwm.c **** *******************************************************************************/
 124:.\Generated_Source\PSoC4/isr_pwm.c **** void isr_pwm_Stop(void)
 125:.\Generated_Source\PSoC4/isr_pwm.c **** {
 113              		.loc 1 125 0
 114              		.cfi_startproc
 115 0000 80B5     		push	{r7, lr}
 116              	.LCFI5:
 117              		.cfi_def_cfa_offset 8
 118              		.cfi_offset 7, -8
 119              		.cfi_offset 14, -4
 120 0002 00AF     		add	r7, sp, #0
 121              	.LCFI6:
 122              		.cfi_def_cfa_register 7
 126:.\Generated_Source\PSoC4/isr_pwm.c ****     /* Disable this interrupt. */
 127:.\Generated_Source\PSoC4/isr_pwm.c ****     isr_pwm_Disable();
 123              		.loc 1 127 0
 124 0004 FFF7FEFF 		bl	isr_pwm_Disable
 128:.\Generated_Source\PSoC4/isr_pwm.c **** 
 129:.\Generated_Source\PSoC4/isr_pwm.c ****     /* Set the ISR to point to the passive one. */
 130:.\Generated_Source\PSoC4/isr_pwm.c ****     isr_pwm_SetVector(&IntDefaultHandler);
 125              		.loc 1 130 0
 126 0008 024B     		ldr	r3, .L6
 127 000a 181C     		mov	r0, r3
 128 000c FFF7FEFF 		bl	isr_pwm_SetVector
 131:.\Generated_Source\PSoC4/isr_pwm.c **** }
 129              		.loc 1 131 0
 130 0010 BD46     		mov	sp, r7
 131              		@ sp needed for prologue
 132 0012 80BD     		pop	{r7, pc}
 133              	.L7:
 134              		.align	2
 135              	.L6:
 136 0014 00000000 		.word	IntDefaultHandler
 137              		.cfi_endproc
 138              	.LFE2:
 139              		.size	isr_pwm_Stop, .-isr_pwm_Stop
 140              		.section	.text.isr_pwm_Interrupt,"ax",%progbits
 141              		.align	2
 142              		.global	isr_pwm_Interrupt
 143              		.code	16
 144              		.thumb_func
 145              		.type	isr_pwm_Interrupt, %function
 146              	isr_pwm_Interrupt:
 147              	.LFB3:
 132:.\Generated_Source\PSoC4/isr_pwm.c **** 
 133:.\Generated_Source\PSoC4/isr_pwm.c **** 
 134:.\Generated_Source\PSoC4/isr_pwm.c **** /*******************************************************************************
 135:.\Generated_Source\PSoC4/isr_pwm.c **** * Function Name: isr_pwm_Interrupt
 136:.\Generated_Source\PSoC4/isr_pwm.c **** ********************************************************************************
 137:.\Generated_Source\PSoC4/isr_pwm.c **** *
 138:.\Generated_Source\PSoC4/isr_pwm.c **** * Summary:
ARM GAS  C:\Users\OEBN\AppData\Local\Temp\cc9eYuCT.s 			page 6


 139:.\Generated_Source\PSoC4/isr_pwm.c **** *   The default Interrupt Service Routine for isr_pwm.
 140:.\Generated_Source\PSoC4/isr_pwm.c **** *
 141:.\Generated_Source\PSoC4/isr_pwm.c **** *   Add custom code between the coments to keep the next version of this file
 142:.\Generated_Source\PSoC4/isr_pwm.c **** *   from over writting your code.
 143:.\Generated_Source\PSoC4/isr_pwm.c **** *
 144:.\Generated_Source\PSoC4/isr_pwm.c **** * Parameters:  
 145:.\Generated_Source\PSoC4/isr_pwm.c **** *   None
 146:.\Generated_Source\PSoC4/isr_pwm.c **** *
 147:.\Generated_Source\PSoC4/isr_pwm.c **** * Return:
 148:.\Generated_Source\PSoC4/isr_pwm.c **** *   None
 149:.\Generated_Source\PSoC4/isr_pwm.c **** *
 150:.\Generated_Source\PSoC4/isr_pwm.c **** *******************************************************************************/
 151:.\Generated_Source\PSoC4/isr_pwm.c **** CY_ISR(isr_pwm_Interrupt)
 152:.\Generated_Source\PSoC4/isr_pwm.c **** {
 148              		.loc 1 152 0
 149              		.cfi_startproc
 150 0000 80B5     		push	{r7, lr}
 151              	.LCFI7:
 152              		.cfi_def_cfa_offset 8
 153              		.cfi_offset 7, -8
 154              		.cfi_offset 14, -4
 155 0002 00AF     		add	r7, sp, #0
 156              	.LCFI8:
 157              		.cfi_def_cfa_register 7
 153:.\Generated_Source\PSoC4/isr_pwm.c ****     /*  Place your Interrupt code here. */
 154:.\Generated_Source\PSoC4/isr_pwm.c ****     /* `#START isr_pwm_Interrupt` */
 155:.\Generated_Source\PSoC4/isr_pwm.c ****     isr_pwm_ClearPending();
 158              		.loc 1 155 0
 159 0004 FFF7FEFF 		bl	isr_pwm_ClearPending
 156:.\Generated_Source\PSoC4/isr_pwm.c ****     PWM_Timer_ClearInterrupt(PWM_Timer_INTR_MASK_TC);
 160              		.loc 1 156 0
 161 0008 0120     		mov	r0, #1
 162 000a FFF7FEFF 		bl	PWM_Timer_ClearInterrupt
 157:.\Generated_Source\PSoC4/isr_pwm.c ****     if (counter_pwm == 0 &&  pwm_light[landing] != 0)      //PWM frame start
 163              		.loc 1 157 0
 164 000e 2C4B     		ldr	r3, .L17
 165 0010 1B78     		ldrb	r3, [r3]
 166 0012 002B     		cmp	r3, #0
 167 0014 06D1     		bne	.L9
 168              		.loc 1 157 0 is_stmt 0 discriminator 1
 169 0016 2B4B     		ldr	r3, .L17+4
 170 0018 DB78     		ldrb	r3, [r3, #3]
 171 001a 002B     		cmp	r3, #0
 172 001c 02D0     		beq	.L9
 158:.\Generated_Source\PSoC4/isr_pwm.c ****     {
 159:.\Generated_Source\PSoC4/isr_pwm.c ****         LandingLight_Write(0xFF);
 173              		.loc 1 159 0 is_stmt 1
 174 001e FF20     		mov	r0, #255
 175 0020 FFF7FEFF 		bl	LandingLight_Write
 176              	.L9:
 160:.\Generated_Source\PSoC4/isr_pwm.c ****     }
 161:.\Generated_Source\PSoC4/isr_pwm.c ****     if (counter_pwm == 0 &&  pwm_light[navigation] != 0)      //PWM frame start
 177              		.loc 1 161 0
 178 0024 264B     		ldr	r3, .L17
 179 0026 1B78     		ldrb	r3, [r3]
 180 0028 002B     		cmp	r3, #0
 181 002a 06D1     		bne	.L10
ARM GAS  C:\Users\OEBN\AppData\Local\Temp\cc9eYuCT.s 			page 7


 182              		.loc 1 161 0 is_stmt 0 discriminator 1
 183 002c 254B     		ldr	r3, .L17+4
 184 002e 9B78     		ldrb	r3, [r3, #2]
 185 0030 002B     		cmp	r3, #0
 186 0032 02D0     		beq	.L10
 162:.\Generated_Source\PSoC4/isr_pwm.c ****     {
 163:.\Generated_Source\PSoC4/isr_pwm.c ****         NavLight_Write(0xFF);
 187              		.loc 1 163 0 is_stmt 1
 188 0034 FF20     		mov	r0, #255
 189 0036 FFF7FEFF 		bl	NavLight_Write
 190              	.L10:
 164:.\Generated_Source\PSoC4/isr_pwm.c ****     }
 165:.\Generated_Source\PSoC4/isr_pwm.c ****     if (counter_pwm == 0 &&  pwm_light[strobe] != 0)      //PWM frame start
 191              		.loc 1 165 0
 192 003a 214B     		ldr	r3, .L17
 193 003c 1B78     		ldrb	r3, [r3]
 194 003e 002B     		cmp	r3, #0
 195 0040 06D1     		bne	.L11
 196              		.loc 1 165 0 is_stmt 0 discriminator 1
 197 0042 204B     		ldr	r3, .L17+4
 198 0044 1B78     		ldrb	r3, [r3]
 199 0046 002B     		cmp	r3, #0
 200 0048 02D0     		beq	.L11
 166:.\Generated_Source\PSoC4/isr_pwm.c ****     {
 167:.\Generated_Source\PSoC4/isr_pwm.c ****         StrobeLight_Write(0xFF);
 201              		.loc 1 167 0 is_stmt 1
 202 004a FF20     		mov	r0, #255
 203 004c FFF7FEFF 		bl	StrobeLight_Write
 204              	.L11:
 168:.\Generated_Source\PSoC4/isr_pwm.c ****     }
 169:.\Generated_Source\PSoC4/isr_pwm.c ****     if (counter_pwm == 0 &&  pwm_light[collision] != 0)      //PWM frame start
 205              		.loc 1 169 0
 206 0050 1B4B     		ldr	r3, .L17
 207 0052 1B78     		ldrb	r3, [r3]
 208 0054 002B     		cmp	r3, #0
 209 0056 06D1     		bne	.L12
 210              		.loc 1 169 0 is_stmt 0 discriminator 1
 211 0058 1A4B     		ldr	r3, .L17+4
 212 005a 5B78     		ldrb	r3, [r3, #1]
 213 005c 002B     		cmp	r3, #0
 214 005e 02D0     		beq	.L12
 170:.\Generated_Source\PSoC4/isr_pwm.c ****     {
 171:.\Generated_Source\PSoC4/isr_pwm.c ****         CollisionLight_Write(0xFF);
 215              		.loc 1 171 0 is_stmt 1
 216 0060 FF20     		mov	r0, #255
 217 0062 FFF7FEFF 		bl	CollisionLight_Write
 218              	.L12:
 172:.\Generated_Source\PSoC4/isr_pwm.c ****     }
 173:.\Generated_Source\PSoC4/isr_pwm.c ****     if (counter_pwm ==  pwm_light[landing]) LandingLight_Write(0x00);      //PWM turn LandingLight 
 219              		.loc 1 173 0
 220 0066 174B     		ldr	r3, .L17+4
 221 0068 DA78     		ldrb	r2, [r3, #3]
 222 006a 154B     		ldr	r3, .L17
 223 006c 1B78     		ldrb	r3, [r3]
 224 006e 9A42     		cmp	r2, r3
 225 0070 02D1     		bne	.L13
 226              		.loc 1 173 0 is_stmt 0 discriminator 1
ARM GAS  C:\Users\OEBN\AppData\Local\Temp\cc9eYuCT.s 			page 8


 227 0072 0020     		mov	r0, #0
 228 0074 FFF7FEFF 		bl	LandingLight_Write
 229              	.L13:
 174:.\Generated_Source\PSoC4/isr_pwm.c ****     if (counter_pwm ==  pwm_light[navigation]) NavLight_Write(0x00);              //PWM turn Landin
 230              		.loc 1 174 0 is_stmt 1
 231 0078 124B     		ldr	r3, .L17+4
 232 007a 9A78     		ldrb	r2, [r3, #2]
 233 007c 104B     		ldr	r3, .L17
 234 007e 1B78     		ldrb	r3, [r3]
 235 0080 9A42     		cmp	r2, r3
 236 0082 02D1     		bne	.L14
 237              		.loc 1 174 0 is_stmt 0 discriminator 1
 238 0084 0020     		mov	r0, #0
 239 0086 FFF7FEFF 		bl	NavLight_Write
 240              	.L14:
 175:.\Generated_Source\PSoC4/isr_pwm.c ****     if (counter_pwm ==  pwm_light[strobe]) StrobeLight_Write(0x00);        //PWM turn LandingLight 
 241              		.loc 1 175 0 is_stmt 1
 242 008a 0E4B     		ldr	r3, .L17+4
 243 008c 1A78     		ldrb	r2, [r3]
 244 008e 0C4B     		ldr	r3, .L17
 245 0090 1B78     		ldrb	r3, [r3]
 246 0092 9A42     		cmp	r2, r3
 247 0094 02D1     		bne	.L15
 248              		.loc 1 175 0 is_stmt 0 discriminator 1
 249 0096 0020     		mov	r0, #0
 250 0098 FFF7FEFF 		bl	StrobeLight_Write
 251              	.L15:
 176:.\Generated_Source\PSoC4/isr_pwm.c ****     if (counter_pwm ==  pwm_light[collision]) CollisionLight_Write(0x00);  //PWM turn LandingLight 
 252              		.loc 1 176 0 is_stmt 1
 253 009c 094B     		ldr	r3, .L17+4
 254 009e 5A78     		ldrb	r2, [r3, #1]
 255 00a0 074B     		ldr	r3, .L17
 256 00a2 1B78     		ldrb	r3, [r3]
 257 00a4 9A42     		cmp	r2, r3
 258 00a6 02D1     		bne	.L16
 259              		.loc 1 176 0 is_stmt 0 discriminator 1
 260 00a8 0020     		mov	r0, #0
 261 00aa FFF7FEFF 		bl	CollisionLight_Write
 262              	.L16:
 177:.\Generated_Source\PSoC4/isr_pwm.c ****         
 178:.\Generated_Source\PSoC4/isr_pwm.c ****     
 179:.\Generated_Source\PSoC4/isr_pwm.c ****     counter_pwm++;
 263              		.loc 1 179 0 is_stmt 1
 264 00ae 044B     		ldr	r3, .L17
 265 00b0 1B78     		ldrb	r3, [r3]
 266 00b2 0133     		add	r3, r3, #1
 267 00b4 DAB2     		uxtb	r2, r3
 268 00b6 024B     		ldr	r3, .L17
 269 00b8 1A70     		strb	r2, [r3]
 180:.\Generated_Source\PSoC4/isr_pwm.c ****     
 181:.\Generated_Source\PSoC4/isr_pwm.c ****     /* `#END` */
 182:.\Generated_Source\PSoC4/isr_pwm.c **** }
 270              		.loc 1 182 0
 271 00ba BD46     		mov	sp, r7
 272              		@ sp needed for prologue
 273 00bc 80BD     		pop	{r7, pc}
 274              	.L18:
ARM GAS  C:\Users\OEBN\AppData\Local\Temp\cc9eYuCT.s 			page 9


 275 00be C046     		.align	2
 276              	.L17:
 277 00c0 00000000 		.word	counter_pwm
 278 00c4 00000000 		.word	pwm_light
 279              		.cfi_endproc
 280              	.LFE3:
 281              		.size	isr_pwm_Interrupt, .-isr_pwm_Interrupt
 282              		.section	.text.isr_pwm_SetVector,"ax",%progbits
 283              		.align	2
 284              		.global	isr_pwm_SetVector
 285              		.code	16
 286              		.thumb_func
 287              		.type	isr_pwm_SetVector, %function
 288              	isr_pwm_SetVector:
 289              	.LFB4:
 183:.\Generated_Source\PSoC4/isr_pwm.c **** 
 184:.\Generated_Source\PSoC4/isr_pwm.c **** 
 185:.\Generated_Source\PSoC4/isr_pwm.c **** /*******************************************************************************
 186:.\Generated_Source\PSoC4/isr_pwm.c **** * Function Name: isr_pwm_SetVector
 187:.\Generated_Source\PSoC4/isr_pwm.c **** ********************************************************************************
 188:.\Generated_Source\PSoC4/isr_pwm.c **** *
 189:.\Generated_Source\PSoC4/isr_pwm.c **** * Summary:
 190:.\Generated_Source\PSoC4/isr_pwm.c **** *   Change the ISR vector for the Interrupt. Note calling isr_pwm_Start
 191:.\Generated_Source\PSoC4/isr_pwm.c **** *   will override any effect this method would have had. To set the vector 
 192:.\Generated_Source\PSoC4/isr_pwm.c **** *   before the component has been started use isr_pwm_StartEx instead.
 193:.\Generated_Source\PSoC4/isr_pwm.c **** *
 194:.\Generated_Source\PSoC4/isr_pwm.c **** * Parameters:
 195:.\Generated_Source\PSoC4/isr_pwm.c **** *   address: Address of the ISR to set in the interrupt vector table.
 196:.\Generated_Source\PSoC4/isr_pwm.c **** *
 197:.\Generated_Source\PSoC4/isr_pwm.c **** * Return:
 198:.\Generated_Source\PSoC4/isr_pwm.c **** *   None
 199:.\Generated_Source\PSoC4/isr_pwm.c **** *
 200:.\Generated_Source\PSoC4/isr_pwm.c **** *******************************************************************************/
 201:.\Generated_Source\PSoC4/isr_pwm.c **** void isr_pwm_SetVector(cyisraddress address)
 202:.\Generated_Source\PSoC4/isr_pwm.c **** {
 290              		.loc 1 202 0
 291              		.cfi_startproc
 292 0000 80B5     		push	{r7, lr}
 293              	.LCFI9:
 294              		.cfi_def_cfa_offset 8
 295              		.cfi_offset 7, -8
 296              		.cfi_offset 14, -4
 297 0002 82B0     		sub	sp, sp, #8
 298              	.LCFI10:
 299              		.cfi_def_cfa_offset 16
 300 0004 00AF     		add	r7, sp, #0
 301              	.LCFI11:
 302              		.cfi_def_cfa_register 7
 303 0006 7860     		str	r0, [r7, #4]
 203:.\Generated_Source\PSoC4/isr_pwm.c ****     CyRamVectors[CYINT_IRQ_BASE + isr_pwm__INTC_NUMBER] = address;
 304              		.loc 1 203 0
 305 0008 034A     		ldr	r2, .L20
 306 000a 8023     		mov	r3, #128
 307 000c 7968     		ldr	r1, [r7, #4]
 308 000e D150     		str	r1, [r2, r3]
 204:.\Generated_Source\PSoC4/isr_pwm.c **** }
 309              		.loc 1 204 0
ARM GAS  C:\Users\OEBN\AppData\Local\Temp\cc9eYuCT.s 			page 10


 310 0010 BD46     		mov	sp, r7
 311 0012 02B0     		add	sp, sp, #8
 312              		@ sp needed for prologue
 313 0014 80BD     		pop	{r7, pc}
 314              	.L21:
 315 0016 C046     		.align	2
 316              	.L20:
 317 0018 00000000 		.word	CyRamVectors
 318              		.cfi_endproc
 319              	.LFE4:
 320              		.size	isr_pwm_SetVector, .-isr_pwm_SetVector
 321              		.section	.text.isr_pwm_GetVector,"ax",%progbits
 322              		.align	2
 323              		.global	isr_pwm_GetVector
 324              		.code	16
 325              		.thumb_func
 326              		.type	isr_pwm_GetVector, %function
 327              	isr_pwm_GetVector:
 328              	.LFB5:
 205:.\Generated_Source\PSoC4/isr_pwm.c **** 
 206:.\Generated_Source\PSoC4/isr_pwm.c **** 
 207:.\Generated_Source\PSoC4/isr_pwm.c **** /*******************************************************************************
 208:.\Generated_Source\PSoC4/isr_pwm.c **** * Function Name: isr_pwm_GetVector
 209:.\Generated_Source\PSoC4/isr_pwm.c **** ********************************************************************************
 210:.\Generated_Source\PSoC4/isr_pwm.c **** *
 211:.\Generated_Source\PSoC4/isr_pwm.c **** * Summary:
 212:.\Generated_Source\PSoC4/isr_pwm.c **** *   Gets the "address" of the current ISR vector for the Interrupt.
 213:.\Generated_Source\PSoC4/isr_pwm.c **** *
 214:.\Generated_Source\PSoC4/isr_pwm.c **** * Parameters:
 215:.\Generated_Source\PSoC4/isr_pwm.c **** *   None
 216:.\Generated_Source\PSoC4/isr_pwm.c **** *
 217:.\Generated_Source\PSoC4/isr_pwm.c **** * Return:
 218:.\Generated_Source\PSoC4/isr_pwm.c **** *   Address of the ISR in the interrupt vector table.
 219:.\Generated_Source\PSoC4/isr_pwm.c **** *
 220:.\Generated_Source\PSoC4/isr_pwm.c **** *******************************************************************************/
 221:.\Generated_Source\PSoC4/isr_pwm.c **** cyisraddress isr_pwm_GetVector(void)
 222:.\Generated_Source\PSoC4/isr_pwm.c **** {
 329              		.loc 1 222 0
 330              		.cfi_startproc
 331 0000 80B5     		push	{r7, lr}
 332              	.LCFI12:
 333              		.cfi_def_cfa_offset 8
 334              		.cfi_offset 7, -8
 335              		.cfi_offset 14, -4
 336 0002 00AF     		add	r7, sp, #0
 337              	.LCFI13:
 338              		.cfi_def_cfa_register 7
 223:.\Generated_Source\PSoC4/isr_pwm.c ****     return CyRamVectors[CYINT_IRQ_BASE + isr_pwm__INTC_NUMBER];
 339              		.loc 1 223 0
 340 0004 024A     		ldr	r2, .L24
 341 0006 8023     		mov	r3, #128
 342 0008 D358     		ldr	r3, [r2, r3]
 224:.\Generated_Source\PSoC4/isr_pwm.c **** }
 343              		.loc 1 224 0
 344 000a 181C     		mov	r0, r3
 345 000c BD46     		mov	sp, r7
 346              		@ sp needed for prologue
ARM GAS  C:\Users\OEBN\AppData\Local\Temp\cc9eYuCT.s 			page 11


 347 000e 80BD     		pop	{r7, pc}
 348              	.L25:
 349              		.align	2
 350              	.L24:
 351 0010 00000000 		.word	CyRamVectors
 352              		.cfi_endproc
 353              	.LFE5:
 354              		.size	isr_pwm_GetVector, .-isr_pwm_GetVector
 355              		.section	.text.isr_pwm_SetPriority,"ax",%progbits
 356              		.align	2
 357              		.global	isr_pwm_SetPriority
 358              		.code	16
 359              		.thumb_func
 360              		.type	isr_pwm_SetPriority, %function
 361              	isr_pwm_SetPriority:
 362              	.LFB6:
 225:.\Generated_Source\PSoC4/isr_pwm.c **** 
 226:.\Generated_Source\PSoC4/isr_pwm.c **** 
 227:.\Generated_Source\PSoC4/isr_pwm.c **** /*******************************************************************************
 228:.\Generated_Source\PSoC4/isr_pwm.c **** * Function Name: isr_pwm_SetPriority
 229:.\Generated_Source\PSoC4/isr_pwm.c **** ********************************************************************************
 230:.\Generated_Source\PSoC4/isr_pwm.c **** *
 231:.\Generated_Source\PSoC4/isr_pwm.c **** * Summary:
 232:.\Generated_Source\PSoC4/isr_pwm.c **** *   Sets the Priority of the Interrupt. Note calling isr_pwm_Start
 233:.\Generated_Source\PSoC4/isr_pwm.c **** *   or isr_pwm_StartEx will override any effect this method would 
 234:.\Generated_Source\PSoC4/isr_pwm.c **** *   have had. This method should only be called after isr_pwm_Start or 
 235:.\Generated_Source\PSoC4/isr_pwm.c **** *   isr_pwm_StartEx has been called. To set the initial
 236:.\Generated_Source\PSoC4/isr_pwm.c **** *   priority for the component use the cydwr file in the tool.
 237:.\Generated_Source\PSoC4/isr_pwm.c **** *
 238:.\Generated_Source\PSoC4/isr_pwm.c **** * Parameters:
 239:.\Generated_Source\PSoC4/isr_pwm.c **** *   priority: Priority of the interrupt. 0 - 3, 0 being the highest.
 240:.\Generated_Source\PSoC4/isr_pwm.c **** *
 241:.\Generated_Source\PSoC4/isr_pwm.c **** * Return:
 242:.\Generated_Source\PSoC4/isr_pwm.c **** *   None
 243:.\Generated_Source\PSoC4/isr_pwm.c **** *
 244:.\Generated_Source\PSoC4/isr_pwm.c **** *******************************************************************************/
 245:.\Generated_Source\PSoC4/isr_pwm.c **** void isr_pwm_SetPriority(uint8 priority)
 246:.\Generated_Source\PSoC4/isr_pwm.c **** {
 363              		.loc 1 246 0
 364              		.cfi_startproc
 365 0000 90B5     		push	{r4, r7, lr}
 366              	.LCFI14:
 367              		.cfi_def_cfa_offset 12
 368              		.cfi_offset 4, -12
 369              		.cfi_offset 7, -8
 370              		.cfi_offset 14, -4
 371 0002 85B0     		sub	sp, sp, #20
 372              	.LCFI15:
 373              		.cfi_def_cfa_offset 32
 374 0004 00AF     		add	r7, sp, #0
 375              	.LCFI16:
 376              		.cfi_def_cfa_register 7
 377 0006 021C     		mov	r2, r0
 378 0008 FB1D     		add	r3, r7, #7
 379 000a 1A70     		strb	r2, [r3]
 247:.\Generated_Source\PSoC4/isr_pwm.c **** 	uint8 interruptState;
 248:.\Generated_Source\PSoC4/isr_pwm.c ****     uint32 priorityOffset = ((isr_pwm__INTC_NUMBER % 4u) * 8u) + 6u;
ARM GAS  C:\Users\OEBN\AppData\Local\Temp\cc9eYuCT.s 			page 12


 380              		.loc 1 248 0
 381 000c 0623     		mov	r3, #6
 382 000e FB60     		str	r3, [r7, #12]
 249:.\Generated_Source\PSoC4/isr_pwm.c ****     
 250:.\Generated_Source\PSoC4/isr_pwm.c **** 	interruptState = CyEnterCriticalSection();
 383              		.loc 1 250 0
 384 0010 3C1C     		mov	r4, r7
 385 0012 0B34     		add	r4, r4, #11
 386 0014 FFF7FEFF 		bl	CyEnterCriticalSection
 387 0018 031C     		mov	r3, r0
 388 001a 2370     		strb	r3, [r4]
 251:.\Generated_Source\PSoC4/isr_pwm.c ****     *isr_pwm_INTC_PRIOR = (*isr_pwm_INTC_PRIOR & (uint32)(~isr_pwm__INTC_PRIOR_MASK)) |
 389              		.loc 1 251 0
 390 001c 0B4B     		ldr	r3, .L27
 391 001e 0B4A     		ldr	r2, .L27
 392 0020 1268     		ldr	r2, [r2]
 393 0022 C021     		mov	r1, #192
 394 0024 101C     		mov	r0, r2
 395 0026 8843     		bic	r0, r1
 396 0028 011C     		mov	r1, r0
 252:.\Generated_Source\PSoC4/isr_pwm.c ****                                     ((uint32)priority << priorityOffset);
 397              		.loc 1 252 0
 398 002a FA1D     		add	r2, r7, #7
 399 002c 1078     		ldrb	r0, [r2]
 400 002e FA68     		ldr	r2, [r7, #12]
 401 0030 041C     		mov	r4, r0
 402 0032 9440     		lsl	r4, r4, r2
 403 0034 221C     		mov	r2, r4
 251:.\Generated_Source\PSoC4/isr_pwm.c ****     *isr_pwm_INTC_PRIOR = (*isr_pwm_INTC_PRIOR & (uint32)(~isr_pwm__INTC_PRIOR_MASK)) |
 404              		.loc 1 251 0
 405 0036 0A43     		orr	r2, r1
 406 0038 1A60     		str	r2, [r3]
 253:.\Generated_Source\PSoC4/isr_pwm.c **** 	CyExitCriticalSection(interruptState);
 407              		.loc 1 253 0
 408 003a 3B1C     		mov	r3, r7
 409 003c 0B33     		add	r3, r3, #11
 410 003e 1B78     		ldrb	r3, [r3]
 411 0040 181C     		mov	r0, r3
 412 0042 FFF7FEFF 		bl	CyExitCriticalSection
 254:.\Generated_Source\PSoC4/isr_pwm.c **** }
 413              		.loc 1 254 0
 414 0046 BD46     		mov	sp, r7
 415 0048 05B0     		add	sp, sp, #20
 416              		@ sp needed for prologue
 417 004a 90BD     		pop	{r4, r7, pc}
 418              	.L28:
 419              		.align	2
 420              	.L27:
 421 004c 10E400E0 		.word	-536812528
 422              		.cfi_endproc
 423              	.LFE6:
 424              		.size	isr_pwm_SetPriority, .-isr_pwm_SetPriority
 425              		.section	.text.isr_pwm_GetPriority,"ax",%progbits
 426              		.align	2
 427              		.global	isr_pwm_GetPriority
 428              		.code	16
 429              		.thumb_func
ARM GAS  C:\Users\OEBN\AppData\Local\Temp\cc9eYuCT.s 			page 13


 430              		.type	isr_pwm_GetPriority, %function
 431              	isr_pwm_GetPriority:
 432              	.LFB7:
 255:.\Generated_Source\PSoC4/isr_pwm.c **** 
 256:.\Generated_Source\PSoC4/isr_pwm.c **** 
 257:.\Generated_Source\PSoC4/isr_pwm.c **** /*******************************************************************************
 258:.\Generated_Source\PSoC4/isr_pwm.c **** * Function Name: isr_pwm_GetPriority
 259:.\Generated_Source\PSoC4/isr_pwm.c **** ********************************************************************************
 260:.\Generated_Source\PSoC4/isr_pwm.c **** *
 261:.\Generated_Source\PSoC4/isr_pwm.c **** * Summary:
 262:.\Generated_Source\PSoC4/isr_pwm.c **** *   Gets the Priority of the Interrupt.
 263:.\Generated_Source\PSoC4/isr_pwm.c **** *
 264:.\Generated_Source\PSoC4/isr_pwm.c **** * Parameters:
 265:.\Generated_Source\PSoC4/isr_pwm.c **** *   None
 266:.\Generated_Source\PSoC4/isr_pwm.c **** *
 267:.\Generated_Source\PSoC4/isr_pwm.c **** * Return:
 268:.\Generated_Source\PSoC4/isr_pwm.c **** *   Priority of the interrupt. 0 - 3, 0 being the highest.
 269:.\Generated_Source\PSoC4/isr_pwm.c **** *
 270:.\Generated_Source\PSoC4/isr_pwm.c **** *******************************************************************************/
 271:.\Generated_Source\PSoC4/isr_pwm.c **** uint8 isr_pwm_GetPriority(void)
 272:.\Generated_Source\PSoC4/isr_pwm.c **** {
 433              		.loc 1 272 0
 434              		.cfi_startproc
 435 0000 80B5     		push	{r7, lr}
 436              	.LCFI17:
 437              		.cfi_def_cfa_offset 8
 438              		.cfi_offset 7, -8
 439              		.cfi_offset 14, -4
 440 0002 82B0     		sub	sp, sp, #8
 441              	.LCFI18:
 442              		.cfi_def_cfa_offset 16
 443 0004 00AF     		add	r7, sp, #0
 444              	.LCFI19:
 445              		.cfi_def_cfa_register 7
 273:.\Generated_Source\PSoC4/isr_pwm.c ****     uint32 priority;
 274:.\Generated_Source\PSoC4/isr_pwm.c **** 	uint32 priorityOffset = ((isr_pwm__INTC_NUMBER % 4u) * 8u) + 6u;
 446              		.loc 1 274 0
 447 0006 0623     		mov	r3, #6
 448 0008 7B60     		str	r3, [r7, #4]
 275:.\Generated_Source\PSoC4/isr_pwm.c **** 
 276:.\Generated_Source\PSoC4/isr_pwm.c ****     priority = (*isr_pwm_INTC_PRIOR & isr_pwm__INTC_PRIOR_MASK) >> priorityOffset;
 449              		.loc 1 276 0
 450 000a 074B     		ldr	r3, .L31
 451 000c 1A68     		ldr	r2, [r3]
 452 000e C023     		mov	r3, #192
 453 0010 1A40     		and	r2, r3
 454 0012 7B68     		ldr	r3, [r7, #4]
 455 0014 111C     		mov	r1, r2
 456 0016 D940     		lsr	r1, r1, r3
 457 0018 0B1C     		mov	r3, r1
 458 001a 3B60     		str	r3, [r7]
 277:.\Generated_Source\PSoC4/isr_pwm.c **** 
 278:.\Generated_Source\PSoC4/isr_pwm.c ****     return (uint8)priority;
 459              		.loc 1 278 0
 460 001c 3B68     		ldr	r3, [r7]
 461 001e DBB2     		uxtb	r3, r3
 279:.\Generated_Source\PSoC4/isr_pwm.c **** }
ARM GAS  C:\Users\OEBN\AppData\Local\Temp\cc9eYuCT.s 			page 14


 462              		.loc 1 279 0
 463 0020 181C     		mov	r0, r3
 464 0022 BD46     		mov	sp, r7
 465 0024 02B0     		add	sp, sp, #8
 466              		@ sp needed for prologue
 467 0026 80BD     		pop	{r7, pc}
 468              	.L32:
 469              		.align	2
 470              	.L31:
 471 0028 10E400E0 		.word	-536812528
 472              		.cfi_endproc
 473              	.LFE7:
 474              		.size	isr_pwm_GetPriority, .-isr_pwm_GetPriority
 475              		.section	.text.isr_pwm_Enable,"ax",%progbits
 476              		.align	2
 477              		.global	isr_pwm_Enable
 478              		.code	16
 479              		.thumb_func
 480              		.type	isr_pwm_Enable, %function
 481              	isr_pwm_Enable:
 482              	.LFB8:
 280:.\Generated_Source\PSoC4/isr_pwm.c **** 
 281:.\Generated_Source\PSoC4/isr_pwm.c **** 
 282:.\Generated_Source\PSoC4/isr_pwm.c **** /*******************************************************************************
 283:.\Generated_Source\PSoC4/isr_pwm.c **** * Function Name: isr_pwm_Enable
 284:.\Generated_Source\PSoC4/isr_pwm.c **** ********************************************************************************
 285:.\Generated_Source\PSoC4/isr_pwm.c **** *
 286:.\Generated_Source\PSoC4/isr_pwm.c **** * Summary:
 287:.\Generated_Source\PSoC4/isr_pwm.c **** *   Enables the interrupt.
 288:.\Generated_Source\PSoC4/isr_pwm.c **** *
 289:.\Generated_Source\PSoC4/isr_pwm.c **** * Parameters:
 290:.\Generated_Source\PSoC4/isr_pwm.c **** *   None
 291:.\Generated_Source\PSoC4/isr_pwm.c **** *
 292:.\Generated_Source\PSoC4/isr_pwm.c **** * Return:
 293:.\Generated_Source\PSoC4/isr_pwm.c **** *   None
 294:.\Generated_Source\PSoC4/isr_pwm.c **** *
 295:.\Generated_Source\PSoC4/isr_pwm.c **** *******************************************************************************/
 296:.\Generated_Source\PSoC4/isr_pwm.c **** void isr_pwm_Enable(void)
 297:.\Generated_Source\PSoC4/isr_pwm.c **** {
 483              		.loc 1 297 0
 484              		.cfi_startproc
 485 0000 80B5     		push	{r7, lr}
 486              	.LCFI20:
 487              		.cfi_def_cfa_offset 8
 488              		.cfi_offset 7, -8
 489              		.cfi_offset 14, -4
 490 0002 00AF     		add	r7, sp, #0
 491              	.LCFI21:
 492              		.cfi_def_cfa_register 7
 298:.\Generated_Source\PSoC4/isr_pwm.c ****     /* Enable the general interrupt. */
 299:.\Generated_Source\PSoC4/isr_pwm.c ****     *isr_pwm_INTC_SET_EN = isr_pwm__INTC_MASK;
 493              		.loc 1 299 0
 494 0004 024B     		ldr	r3, .L34
 495 0006 8022     		mov	r2, #128
 496 0008 5202     		lsl	r2, r2, #9
 497 000a 1A60     		str	r2, [r3]
 300:.\Generated_Source\PSoC4/isr_pwm.c **** }
ARM GAS  C:\Users\OEBN\AppData\Local\Temp\cc9eYuCT.s 			page 15


 498              		.loc 1 300 0
 499 000c BD46     		mov	sp, r7
 500              		@ sp needed for prologue
 501 000e 80BD     		pop	{r7, pc}
 502              	.L35:
 503              		.align	2
 504              	.L34:
 505 0010 00E100E0 		.word	-536813312
 506              		.cfi_endproc
 507              	.LFE8:
 508              		.size	isr_pwm_Enable, .-isr_pwm_Enable
 509              		.section	.text.isr_pwm_GetState,"ax",%progbits
 510              		.align	2
 511              		.global	isr_pwm_GetState
 512              		.code	16
 513              		.thumb_func
 514              		.type	isr_pwm_GetState, %function
 515              	isr_pwm_GetState:
 516              	.LFB9:
 301:.\Generated_Source\PSoC4/isr_pwm.c **** 
 302:.\Generated_Source\PSoC4/isr_pwm.c **** 
 303:.\Generated_Source\PSoC4/isr_pwm.c **** /*******************************************************************************
 304:.\Generated_Source\PSoC4/isr_pwm.c **** * Function Name: isr_pwm_GetState
 305:.\Generated_Source\PSoC4/isr_pwm.c **** ********************************************************************************
 306:.\Generated_Source\PSoC4/isr_pwm.c **** *
 307:.\Generated_Source\PSoC4/isr_pwm.c **** * Summary:
 308:.\Generated_Source\PSoC4/isr_pwm.c **** *   Gets the state (enabled, disabled) of the Interrupt.
 309:.\Generated_Source\PSoC4/isr_pwm.c **** *
 310:.\Generated_Source\PSoC4/isr_pwm.c **** * Parameters:
 311:.\Generated_Source\PSoC4/isr_pwm.c **** *   None
 312:.\Generated_Source\PSoC4/isr_pwm.c **** *
 313:.\Generated_Source\PSoC4/isr_pwm.c **** * Return:
 314:.\Generated_Source\PSoC4/isr_pwm.c **** *   1 if enabled, 0 if disabled.
 315:.\Generated_Source\PSoC4/isr_pwm.c **** *
 316:.\Generated_Source\PSoC4/isr_pwm.c **** *******************************************************************************/
 317:.\Generated_Source\PSoC4/isr_pwm.c **** uint8 isr_pwm_GetState(void)
 318:.\Generated_Source\PSoC4/isr_pwm.c **** {
 517              		.loc 1 318 0
 518              		.cfi_startproc
 519 0000 80B5     		push	{r7, lr}
 520              	.LCFI22:
 521              		.cfi_def_cfa_offset 8
 522              		.cfi_offset 7, -8
 523              		.cfi_offset 14, -4
 524 0002 00AF     		add	r7, sp, #0
 525              	.LCFI23:
 526              		.cfi_def_cfa_register 7
 319:.\Generated_Source\PSoC4/isr_pwm.c ****     /* Get the state of the general interrupt. */
 320:.\Generated_Source\PSoC4/isr_pwm.c ****     return ((*isr_pwm_INTC_SET_EN & (uint32)isr_pwm__INTC_MASK) != 0u) ? 1u:0u;
 527              		.loc 1 320 0
 528 0004 054B     		ldr	r3, .L40
 529 0006 1A68     		ldr	r2, [r3]
 530 0008 8023     		mov	r3, #128
 531 000a 5B02     		lsl	r3, r3, #9
 532 000c 1340     		and	r3, r2
 533 000e 01D0     		beq	.L37
 534              		.loc 1 320 0 is_stmt 0 discriminator 1
ARM GAS  C:\Users\OEBN\AppData\Local\Temp\cc9eYuCT.s 			page 16


 535 0010 0123     		mov	r3, #1
 536 0012 00E0     		b	.L38
 537              	.L37:
 538              		.loc 1 320 0 discriminator 2
 539 0014 0023     		mov	r3, #0
 540              	.L38:
 321:.\Generated_Source\PSoC4/isr_pwm.c **** }
 541              		.loc 1 321 0 is_stmt 1 discriminator 3
 542 0016 181C     		mov	r0, r3
 543 0018 BD46     		mov	sp, r7
 544              		@ sp needed for prologue
 545 001a 80BD     		pop	{r7, pc}
 546              	.L41:
 547              		.align	2
 548              	.L40:
 549 001c 00E100E0 		.word	-536813312
 550              		.cfi_endproc
 551              	.LFE9:
 552              		.size	isr_pwm_GetState, .-isr_pwm_GetState
 553              		.section	.text.isr_pwm_Disable,"ax",%progbits
 554              		.align	2
 555              		.global	isr_pwm_Disable
 556              		.code	16
 557              		.thumb_func
 558              		.type	isr_pwm_Disable, %function
 559              	isr_pwm_Disable:
 560              	.LFB10:
 322:.\Generated_Source\PSoC4/isr_pwm.c **** 
 323:.\Generated_Source\PSoC4/isr_pwm.c **** 
 324:.\Generated_Source\PSoC4/isr_pwm.c **** /*******************************************************************************
 325:.\Generated_Source\PSoC4/isr_pwm.c **** * Function Name: isr_pwm_Disable
 326:.\Generated_Source\PSoC4/isr_pwm.c **** ********************************************************************************
 327:.\Generated_Source\PSoC4/isr_pwm.c **** *
 328:.\Generated_Source\PSoC4/isr_pwm.c **** * Summary:
 329:.\Generated_Source\PSoC4/isr_pwm.c **** *   Disables the Interrupt.
 330:.\Generated_Source\PSoC4/isr_pwm.c **** *
 331:.\Generated_Source\PSoC4/isr_pwm.c **** * Parameters:
 332:.\Generated_Source\PSoC4/isr_pwm.c **** *   None
 333:.\Generated_Source\PSoC4/isr_pwm.c **** *
 334:.\Generated_Source\PSoC4/isr_pwm.c **** * Return:
 335:.\Generated_Source\PSoC4/isr_pwm.c **** *   None
 336:.\Generated_Source\PSoC4/isr_pwm.c **** *
 337:.\Generated_Source\PSoC4/isr_pwm.c **** *******************************************************************************/
 338:.\Generated_Source\PSoC4/isr_pwm.c **** void isr_pwm_Disable(void)
 339:.\Generated_Source\PSoC4/isr_pwm.c **** {
 561              		.loc 1 339 0
 562              		.cfi_startproc
 563 0000 80B5     		push	{r7, lr}
 564              	.LCFI24:
 565              		.cfi_def_cfa_offset 8
 566              		.cfi_offset 7, -8
 567              		.cfi_offset 14, -4
 568 0002 00AF     		add	r7, sp, #0
 569              	.LCFI25:
 570              		.cfi_def_cfa_register 7
 340:.\Generated_Source\PSoC4/isr_pwm.c ****     /* Disable the general interrupt. */
 341:.\Generated_Source\PSoC4/isr_pwm.c ****     *isr_pwm_INTC_CLR_EN = isr_pwm__INTC_MASK;
ARM GAS  C:\Users\OEBN\AppData\Local\Temp\cc9eYuCT.s 			page 17


 571              		.loc 1 341 0
 572 0004 024B     		ldr	r3, .L43
 573 0006 8022     		mov	r2, #128
 574 0008 5202     		lsl	r2, r2, #9
 575 000a 1A60     		str	r2, [r3]
 342:.\Generated_Source\PSoC4/isr_pwm.c **** }
 576              		.loc 1 342 0
 577 000c BD46     		mov	sp, r7
 578              		@ sp needed for prologue
 579 000e 80BD     		pop	{r7, pc}
 580              	.L44:
 581              		.align	2
 582              	.L43:
 583 0010 80E100E0 		.word	-536813184
 584              		.cfi_endproc
 585              	.LFE10:
 586              		.size	isr_pwm_Disable, .-isr_pwm_Disable
 587              		.section	.text.isr_pwm_SetPending,"ax",%progbits
 588              		.align	2
 589              		.global	isr_pwm_SetPending
 590              		.code	16
 591              		.thumb_func
 592              		.type	isr_pwm_SetPending, %function
 593              	isr_pwm_SetPending:
 594              	.LFB11:
 343:.\Generated_Source\PSoC4/isr_pwm.c **** 
 344:.\Generated_Source\PSoC4/isr_pwm.c **** 
 345:.\Generated_Source\PSoC4/isr_pwm.c **** /*******************************************************************************
 346:.\Generated_Source\PSoC4/isr_pwm.c **** * Function Name: isr_pwm_SetPending
 347:.\Generated_Source\PSoC4/isr_pwm.c **** ********************************************************************************
 348:.\Generated_Source\PSoC4/isr_pwm.c **** *
 349:.\Generated_Source\PSoC4/isr_pwm.c **** * Summary:
 350:.\Generated_Source\PSoC4/isr_pwm.c **** *   Causes the Interrupt to enter the pending state, a software method of
 351:.\Generated_Source\PSoC4/isr_pwm.c **** *   generating the interrupt.
 352:.\Generated_Source\PSoC4/isr_pwm.c **** *
 353:.\Generated_Source\PSoC4/isr_pwm.c **** * Parameters:
 354:.\Generated_Source\PSoC4/isr_pwm.c **** *   None
 355:.\Generated_Source\PSoC4/isr_pwm.c **** *
 356:.\Generated_Source\PSoC4/isr_pwm.c **** * Return:
 357:.\Generated_Source\PSoC4/isr_pwm.c **** *   None
 358:.\Generated_Source\PSoC4/isr_pwm.c **** *
 359:.\Generated_Source\PSoC4/isr_pwm.c **** *******************************************************************************/
 360:.\Generated_Source\PSoC4/isr_pwm.c **** void isr_pwm_SetPending(void)
 361:.\Generated_Source\PSoC4/isr_pwm.c **** {
 595              		.loc 1 361 0
 596              		.cfi_startproc
 597 0000 80B5     		push	{r7, lr}
 598              	.LCFI26:
 599              		.cfi_def_cfa_offset 8
 600              		.cfi_offset 7, -8
 601              		.cfi_offset 14, -4
 602 0002 00AF     		add	r7, sp, #0
 603              	.LCFI27:
 604              		.cfi_def_cfa_register 7
 362:.\Generated_Source\PSoC4/isr_pwm.c ****     *isr_pwm_INTC_SET_PD = isr_pwm__INTC_MASK;
 605              		.loc 1 362 0
 606 0004 024B     		ldr	r3, .L46
ARM GAS  C:\Users\OEBN\AppData\Local\Temp\cc9eYuCT.s 			page 18


 607 0006 8022     		mov	r2, #128
 608 0008 5202     		lsl	r2, r2, #9
 609 000a 1A60     		str	r2, [r3]
 363:.\Generated_Source\PSoC4/isr_pwm.c **** }
 610              		.loc 1 363 0
 611 000c BD46     		mov	sp, r7
 612              		@ sp needed for prologue
 613 000e 80BD     		pop	{r7, pc}
 614              	.L47:
 615              		.align	2
 616              	.L46:
 617 0010 00E200E0 		.word	-536813056
 618              		.cfi_endproc
 619              	.LFE11:
 620              		.size	isr_pwm_SetPending, .-isr_pwm_SetPending
 621              		.section	.text.isr_pwm_ClearPending,"ax",%progbits
 622              		.align	2
 623              		.global	isr_pwm_ClearPending
 624              		.code	16
 625              		.thumb_func
 626              		.type	isr_pwm_ClearPending, %function
 627              	isr_pwm_ClearPending:
 628              	.LFB12:
 364:.\Generated_Source\PSoC4/isr_pwm.c **** 
 365:.\Generated_Source\PSoC4/isr_pwm.c **** 
 366:.\Generated_Source\PSoC4/isr_pwm.c **** /*******************************************************************************
 367:.\Generated_Source\PSoC4/isr_pwm.c **** * Function Name: isr_pwm_ClearPending
 368:.\Generated_Source\PSoC4/isr_pwm.c **** ********************************************************************************
 369:.\Generated_Source\PSoC4/isr_pwm.c **** *
 370:.\Generated_Source\PSoC4/isr_pwm.c **** * Summary:
 371:.\Generated_Source\PSoC4/isr_pwm.c **** *   Clears a pending interrupt.
 372:.\Generated_Source\PSoC4/isr_pwm.c **** *
 373:.\Generated_Source\PSoC4/isr_pwm.c **** * Parameters:
 374:.\Generated_Source\PSoC4/isr_pwm.c **** *   None
 375:.\Generated_Source\PSoC4/isr_pwm.c **** *
 376:.\Generated_Source\PSoC4/isr_pwm.c **** * Return:
 377:.\Generated_Source\PSoC4/isr_pwm.c **** *   None
 378:.\Generated_Source\PSoC4/isr_pwm.c **** *
 379:.\Generated_Source\PSoC4/isr_pwm.c **** *******************************************************************************/
 380:.\Generated_Source\PSoC4/isr_pwm.c **** void isr_pwm_ClearPending(void)
 381:.\Generated_Source\PSoC4/isr_pwm.c **** {
 629              		.loc 1 381 0
 630              		.cfi_startproc
 631 0000 80B5     		push	{r7, lr}
 632              	.LCFI28:
 633              		.cfi_def_cfa_offset 8
 634              		.cfi_offset 7, -8
 635              		.cfi_offset 14, -4
 636 0002 00AF     		add	r7, sp, #0
 637              	.LCFI29:
 638              		.cfi_def_cfa_register 7
 382:.\Generated_Source\PSoC4/isr_pwm.c ****     *isr_pwm_INTC_CLR_PD = isr_pwm__INTC_MASK;
 639              		.loc 1 382 0
 640 0004 024B     		ldr	r3, .L49
 641 0006 8022     		mov	r2, #128
 642 0008 5202     		lsl	r2, r2, #9
 643 000a 1A60     		str	r2, [r3]
ARM GAS  C:\Users\OEBN\AppData\Local\Temp\cc9eYuCT.s 			page 19


 383:.\Generated_Source\PSoC4/isr_pwm.c **** }
 644              		.loc 1 383 0
 645 000c BD46     		mov	sp, r7
 646              		@ sp needed for prologue
 647 000e 80BD     		pop	{r7, pc}
 648              	.L50:
 649              		.align	2
 650              	.L49:
 651 0010 80E200E0 		.word	-536812928
 652              		.cfi_endproc
 653              	.LFE12:
 654              		.size	isr_pwm_ClearPending, .-isr_pwm_ClearPending
 655              		.text
 656              	.Letext0:
 657              		.file 2 "c:\\program files (x86)\\cypress\\psoc creator\\3.0\\psoc creator\\import\\gnu_cs\\arm\\4
 658              		.file 3 "./Generated_Source/PSoC4/cytypes.h"