ARM GAS  C:\Users\OEBN\AppData\Local\Temp\ccqGCQsF.s 			page 1


   1              		.cpu cortex-m0
   2              		.fpu softvfp
   3              		.eabi_attribute 20, 1
   4              		.eabi_attribute 21, 1
   5              		.eabi_attribute 23, 3
   6              		.eabi_attribute 24, 1
   7              		.eabi_attribute 25, 1
   8              		.eabi_attribute 26, 1
   9              		.eabi_attribute 30, 6
  10              		.eabi_attribute 34, 0
  11              		.eabi_attribute 18, 4
  12              		.code	16
  13              		.file	"isr_uart.c"
  14              		.text
  15              	.Ltext0:
  16              		.cfi_sections	.debug_frame
  17              		.global	frameStart
  18              		.bss
  19              		.type	frameStart, %object
  20              		.size	frameStart, 1
  21              	frameStart:
  22 0000 00       		.space	1
  23              		.global	senderID
  24              		.type	senderID, %object
  25              		.size	senderID, 1
  26              	senderID:
  27 0001 00       		.space	1
  28              		.global	senderClass
  29              		.type	senderClass, %object
  30              		.size	senderClass, 1
  31              	senderClass:
  32 0002 00       		.space	1
  33              		.global	frameID
  34              		.type	frameID, %object
  35              		.size	frameID, 1
  36              	frameID:
  37 0003 00       		.space	1
  38              		.global	count
  39              		.align	2
  40              		.type	count, %object
  41              		.size	count, 4
  42              	count:
  43 0004 00000000 		.space	4
  44              		.global	tempcount
  45              		.align	2
  46              		.type	tempcount, %object
  47              		.size	tempcount, 4
  48              	tempcount:
  49 0008 00000000 		.space	4
  50              		.global	byteCount
  51              		.type	byteCount, %object
  52              		.size	byteCount, 1
  53              	byteCount:
  54 000c 00       		.space	1
  55              		.global	channelTime
  56 000d 000000   		.align	2
  57              		.type	channelTime, %object
ARM GAS  C:\Users\OEBN\AppData\Local\Temp\ccqGCQsF.s 			page 2


  58              		.size	channelTime, 16
  59              	channelTime:
  60 0010 00000000 		.space	16
  60      00000000 
  60      00000000 
  60      00000000 
  61              		.section	.text.isr_uart_Start,"ax",%progbits
  62              		.align	2
  63              		.global	isr_uart_Start
  64              		.code	16
  65              		.thumb_func
  66              		.type	isr_uart_Start, %function
  67              	isr_uart_Start:
  68              	.LFB0:
  69              		.file 1 ".\\Generated_Source\\PSoC4\\isr_uart.c"
   1:.\Generated_Source\PSoC4/isr_uart.c **** /*******************************************************************************
   2:.\Generated_Source\PSoC4/isr_uart.c **** * File Name: isr_uart.c  
   3:.\Generated_Source\PSoC4/isr_uart.c **** * Version 1.70
   4:.\Generated_Source\PSoC4/isr_uart.c **** *
   5:.\Generated_Source\PSoC4/isr_uart.c **** *  Description:
   6:.\Generated_Source\PSoC4/isr_uart.c **** *   API for controlling the state of an interrupt.
   7:.\Generated_Source\PSoC4/isr_uart.c **** *
   8:.\Generated_Source\PSoC4/isr_uart.c **** *
   9:.\Generated_Source\PSoC4/isr_uart.c **** *  Note:
  10:.\Generated_Source\PSoC4/isr_uart.c **** *
  11:.\Generated_Source\PSoC4/isr_uart.c **** ********************************************************************************
  12:.\Generated_Source\PSoC4/isr_uart.c **** * Copyright 2008-2012, Cypress Semiconductor Corporation.  All rights reserved.
  13:.\Generated_Source\PSoC4/isr_uart.c **** * You may use this file only in accordance with the license, terms, conditions, 
  14:.\Generated_Source\PSoC4/isr_uart.c **** * disclaimers, and limitations in the end user license agreement accompanying 
  15:.\Generated_Source\PSoC4/isr_uart.c **** * the software package with which this file was provided.
  16:.\Generated_Source\PSoC4/isr_uart.c **** *******************************************************************************/
  17:.\Generated_Source\PSoC4/isr_uart.c **** 
  18:.\Generated_Source\PSoC4/isr_uart.c **** 
  19:.\Generated_Source\PSoC4/isr_uart.c **** #include <cydevice_trm.h>
  20:.\Generated_Source\PSoC4/isr_uart.c **** #include <CyLib.h>
  21:.\Generated_Source\PSoC4/isr_uart.c **** #include <isr_uart.h>
  22:.\Generated_Source\PSoC4/isr_uart.c **** 
  23:.\Generated_Source\PSoC4/isr_uart.c **** #if !defined(isr_uart__REMOVED) /* Check for removal by optimization */
  24:.\Generated_Source\PSoC4/isr_uart.c **** 
  25:.\Generated_Source\PSoC4/isr_uart.c **** /*******************************************************************************
  26:.\Generated_Source\PSoC4/isr_uart.c **** *  Place your includes, defines and code here 
  27:.\Generated_Source\PSoC4/isr_uart.c **** ********************************************************************************/
  28:.\Generated_Source\PSoC4/isr_uart.c **** /* `#START isr_uart_intc` */
  29:.\Generated_Source\PSoC4/isr_uart.c ****     #include <UART_1_spi_uart.h>
  30:.\Generated_Source\PSoC4/isr_uart.c ****     #include <UART_1.h>
  31:.\Generated_Source\PSoC4/isr_uart.c ****     #include <UART_2_spi_uart.h>
  32:.\Generated_Source\PSoC4/isr_uart.c ****     #include <UART_2.h>
  33:.\Generated_Source\PSoC4/isr_uart.c ****     int8_t frameStart = 0;
  34:.\Generated_Source\PSoC4/isr_uart.c ****     int8_t senderID = 0;
  35:.\Generated_Source\PSoC4/isr_uart.c ****     int8_t senderClass = 0;
  36:.\Generated_Source\PSoC4/isr_uart.c ****     int8_t frameID = 0;
  37:.\Generated_Source\PSoC4/isr_uart.c ****     int32_t count = 0;
  38:.\Generated_Source\PSoC4/isr_uart.c ****     int32_t tempcount = 0;
  39:.\Generated_Source\PSoC4/isr_uart.c ****     int8_t byteCount = 0;
  40:.\Generated_Source\PSoC4/isr_uart.c ****     int16_t channelTime[8] = {0,0,0,0,0,0,0,0};
  41:.\Generated_Source\PSoC4/isr_uart.c ****     
  42:.\Generated_Source\PSoC4/isr_uart.c ****     extern uint8_t pwm_light_adj[4];
ARM GAS  C:\Users\OEBN\AppData\Local\Temp\ccqGCQsF.s 			page 3


  43:.\Generated_Source\PSoC4/isr_uart.c ****     
  44:.\Generated_Source\PSoC4/isr_uart.c **** /* `#END` */
  45:.\Generated_Source\PSoC4/isr_uart.c **** 
  46:.\Generated_Source\PSoC4/isr_uart.c **** extern cyisraddress CyRamVectors[CYINT_IRQ_BASE + CY_NUM_INTERRUPTS];
  47:.\Generated_Source\PSoC4/isr_uart.c **** 
  48:.\Generated_Source\PSoC4/isr_uart.c **** /* Declared in startup, used to set unused interrupts to. */
  49:.\Generated_Source\PSoC4/isr_uart.c **** CY_ISR_PROTO(IntDefaultHandler);
  50:.\Generated_Source\PSoC4/isr_uart.c **** 
  51:.\Generated_Source\PSoC4/isr_uart.c **** 
  52:.\Generated_Source\PSoC4/isr_uart.c **** /*******************************************************************************
  53:.\Generated_Source\PSoC4/isr_uart.c **** * Function Name: isr_uart_Start
  54:.\Generated_Source\PSoC4/isr_uart.c **** ********************************************************************************
  55:.\Generated_Source\PSoC4/isr_uart.c **** *
  56:.\Generated_Source\PSoC4/isr_uart.c **** * Summary:
  57:.\Generated_Source\PSoC4/isr_uart.c **** *  Set up the interrupt and enable it.
  58:.\Generated_Source\PSoC4/isr_uart.c **** *
  59:.\Generated_Source\PSoC4/isr_uart.c **** * Parameters:  
  60:.\Generated_Source\PSoC4/isr_uart.c **** *   None
  61:.\Generated_Source\PSoC4/isr_uart.c **** *
  62:.\Generated_Source\PSoC4/isr_uart.c **** * Return:
  63:.\Generated_Source\PSoC4/isr_uart.c **** *   None
  64:.\Generated_Source\PSoC4/isr_uart.c **** *
  65:.\Generated_Source\PSoC4/isr_uart.c **** *******************************************************************************/
  66:.\Generated_Source\PSoC4/isr_uart.c **** void isr_uart_Start(void)
  67:.\Generated_Source\PSoC4/isr_uart.c **** {
  70              		.loc 1 67 0
  71              		.cfi_startproc
  72 0000 80B5     		push	{r7, lr}
  73              	.LCFI0:
  74              		.cfi_def_cfa_offset 8
  75              		.cfi_offset 7, -8
  76              		.cfi_offset 14, -4
  77 0002 00AF     		add	r7, sp, #0
  78              	.LCFI1:
  79              		.cfi_def_cfa_register 7
  68:.\Generated_Source\PSoC4/isr_uart.c ****     /* For all we know the interrupt is active. */
  69:.\Generated_Source\PSoC4/isr_uart.c ****     isr_uart_Disable();
  80              		.loc 1 69 0
  81 0004 FFF7FEFF 		bl	isr_uart_Disable
  70:.\Generated_Source\PSoC4/isr_uart.c **** 
  71:.\Generated_Source\PSoC4/isr_uart.c ****     /* Set the ISR to point to the isr_uart Interrupt. */
  72:.\Generated_Source\PSoC4/isr_uart.c ****     isr_uart_SetVector(&isr_uart_Interrupt);
  82              		.loc 1 72 0
  83 0008 054B     		ldr	r3, .L2
  84 000a 181C     		mov	r0, r3
  85 000c FFF7FEFF 		bl	isr_uart_SetVector
  73:.\Generated_Source\PSoC4/isr_uart.c **** 
  74:.\Generated_Source\PSoC4/isr_uart.c ****     /* Set the priority. */
  75:.\Generated_Source\PSoC4/isr_uart.c ****     isr_uart_SetPriority((uint8)isr_uart_INTC_PRIOR_NUMBER);
  86              		.loc 1 75 0
  87 0010 0320     		mov	r0, #3
  88 0012 FFF7FEFF 		bl	isr_uart_SetPriority
  76:.\Generated_Source\PSoC4/isr_uart.c **** 
  77:.\Generated_Source\PSoC4/isr_uart.c ****     /* Enable it. */
  78:.\Generated_Source\PSoC4/isr_uart.c ****     isr_uart_Enable();
  89              		.loc 1 78 0
  90 0016 FFF7FEFF 		bl	isr_uart_Enable
ARM GAS  C:\Users\OEBN\AppData\Local\Temp\ccqGCQsF.s 			page 4


  79:.\Generated_Source\PSoC4/isr_uart.c **** }
  91              		.loc 1 79 0
  92 001a BD46     		mov	sp, r7
  93              		@ sp needed for prologue
  94 001c 80BD     		pop	{r7, pc}
  95              	.L3:
  96 001e C046     		.align	2
  97              	.L2:
  98 0020 00000000 		.word	isr_uart_Interrupt
  99              		.cfi_endproc
 100              	.LFE0:
 101              		.size	isr_uart_Start, .-isr_uart_Start
 102              		.section	.text.isr_uart_StartEx,"ax",%progbits
 103              		.align	2
 104              		.global	isr_uart_StartEx
 105              		.code	16
 106              		.thumb_func
 107              		.type	isr_uart_StartEx, %function
 108              	isr_uart_StartEx:
 109              	.LFB1:
  80:.\Generated_Source\PSoC4/isr_uart.c **** 
  81:.\Generated_Source\PSoC4/isr_uart.c **** 
  82:.\Generated_Source\PSoC4/isr_uart.c **** /*******************************************************************************
  83:.\Generated_Source\PSoC4/isr_uart.c **** * Function Name: isr_uart_StartEx
  84:.\Generated_Source\PSoC4/isr_uart.c **** ********************************************************************************
  85:.\Generated_Source\PSoC4/isr_uart.c **** *
  86:.\Generated_Source\PSoC4/isr_uart.c **** * Summary:
  87:.\Generated_Source\PSoC4/isr_uart.c **** *  Set up the interrupt and enable it.
  88:.\Generated_Source\PSoC4/isr_uart.c **** *
  89:.\Generated_Source\PSoC4/isr_uart.c **** * Parameters:  
  90:.\Generated_Source\PSoC4/isr_uart.c **** *   address: Address of the ISR to set in the interrupt vector table.
  91:.\Generated_Source\PSoC4/isr_uart.c **** *
  92:.\Generated_Source\PSoC4/isr_uart.c **** * Return:
  93:.\Generated_Source\PSoC4/isr_uart.c **** *   None
  94:.\Generated_Source\PSoC4/isr_uart.c **** *
  95:.\Generated_Source\PSoC4/isr_uart.c **** *******************************************************************************/
  96:.\Generated_Source\PSoC4/isr_uart.c **** void isr_uart_StartEx(cyisraddress address)
  97:.\Generated_Source\PSoC4/isr_uart.c **** {
 110              		.loc 1 97 0
 111              		.cfi_startproc
 112 0000 80B5     		push	{r7, lr}
 113              	.LCFI2:
 114              		.cfi_def_cfa_offset 8
 115              		.cfi_offset 7, -8
 116              		.cfi_offset 14, -4
 117 0002 82B0     		sub	sp, sp, #8
 118              	.LCFI3:
 119              		.cfi_def_cfa_offset 16
 120 0004 00AF     		add	r7, sp, #0
 121              	.LCFI4:
 122              		.cfi_def_cfa_register 7
 123 0006 7860     		str	r0, [r7, #4]
  98:.\Generated_Source\PSoC4/isr_uart.c ****     /* For all we know the interrupt is active. */
  99:.\Generated_Source\PSoC4/isr_uart.c ****     isr_uart_Disable();
 124              		.loc 1 99 0
 125 0008 FFF7FEFF 		bl	isr_uart_Disable
 100:.\Generated_Source\PSoC4/isr_uart.c **** 
ARM GAS  C:\Users\OEBN\AppData\Local\Temp\ccqGCQsF.s 			page 5


 101:.\Generated_Source\PSoC4/isr_uart.c ****     /* Set the ISR to point to the isr_uart Interrupt. */
 102:.\Generated_Source\PSoC4/isr_uart.c ****     isr_uart_SetVector(address);
 126              		.loc 1 102 0
 127 000c 7B68     		ldr	r3, [r7, #4]
 128 000e 181C     		mov	r0, r3
 129 0010 FFF7FEFF 		bl	isr_uart_SetVector
 103:.\Generated_Source\PSoC4/isr_uart.c **** 
 104:.\Generated_Source\PSoC4/isr_uart.c ****     /* Set the priority. */
 105:.\Generated_Source\PSoC4/isr_uart.c ****     isr_uart_SetPriority((uint8)isr_uart_INTC_PRIOR_NUMBER);
 130              		.loc 1 105 0
 131 0014 0320     		mov	r0, #3
 132 0016 FFF7FEFF 		bl	isr_uart_SetPriority
 106:.\Generated_Source\PSoC4/isr_uart.c **** 
 107:.\Generated_Source\PSoC4/isr_uart.c ****     /* Enable it. */
 108:.\Generated_Source\PSoC4/isr_uart.c ****     isr_uart_Enable();
 133              		.loc 1 108 0
 134 001a FFF7FEFF 		bl	isr_uart_Enable
 109:.\Generated_Source\PSoC4/isr_uart.c **** }
 135              		.loc 1 109 0
 136 001e BD46     		mov	sp, r7
 137 0020 02B0     		add	sp, sp, #8
 138              		@ sp needed for prologue
 139 0022 80BD     		pop	{r7, pc}
 140              		.cfi_endproc
 141              	.LFE1:
 142              		.size	isr_uart_StartEx, .-isr_uart_StartEx
 143              		.section	.text.isr_uart_Stop,"ax",%progbits
 144              		.align	2
 145              		.global	isr_uart_Stop
 146              		.code	16
 147              		.thumb_func
 148              		.type	isr_uart_Stop, %function
 149              	isr_uart_Stop:
 150              	.LFB2:
 110:.\Generated_Source\PSoC4/isr_uart.c **** 
 111:.\Generated_Source\PSoC4/isr_uart.c **** 
 112:.\Generated_Source\PSoC4/isr_uart.c **** /*******************************************************************************
 113:.\Generated_Source\PSoC4/isr_uart.c **** * Function Name: isr_uart_Stop
 114:.\Generated_Source\PSoC4/isr_uart.c **** ********************************************************************************
 115:.\Generated_Source\PSoC4/isr_uart.c **** *
 116:.\Generated_Source\PSoC4/isr_uart.c **** * Summary:
 117:.\Generated_Source\PSoC4/isr_uart.c **** *   Disables and removes the interrupt.
 118:.\Generated_Source\PSoC4/isr_uart.c **** *
 119:.\Generated_Source\PSoC4/isr_uart.c **** * Parameters:  
 120:.\Generated_Source\PSoC4/isr_uart.c **** *
 121:.\Generated_Source\PSoC4/isr_uart.c **** * Return:
 122:.\Generated_Source\PSoC4/isr_uart.c **** *   None
 123:.\Generated_Source\PSoC4/isr_uart.c **** *
 124:.\Generated_Source\PSoC4/isr_uart.c **** *******************************************************************************/
 125:.\Generated_Source\PSoC4/isr_uart.c **** void isr_uart_Stop(void)
 126:.\Generated_Source\PSoC4/isr_uart.c **** {
 151              		.loc 1 126 0
 152              		.cfi_startproc
 153 0000 80B5     		push	{r7, lr}
 154              	.LCFI5:
 155              		.cfi_def_cfa_offset 8
 156              		.cfi_offset 7, -8
ARM GAS  C:\Users\OEBN\AppData\Local\Temp\ccqGCQsF.s 			page 6


 157              		.cfi_offset 14, -4
 158 0002 00AF     		add	r7, sp, #0
 159              	.LCFI6:
 160              		.cfi_def_cfa_register 7
 127:.\Generated_Source\PSoC4/isr_uart.c ****     /* Disable this interrupt. */
 128:.\Generated_Source\PSoC4/isr_uart.c ****     isr_uart_Disable();
 161              		.loc 1 128 0
 162 0004 FFF7FEFF 		bl	isr_uart_Disable
 129:.\Generated_Source\PSoC4/isr_uart.c **** 
 130:.\Generated_Source\PSoC4/isr_uart.c ****     /* Set the ISR to point to the passive one. */
 131:.\Generated_Source\PSoC4/isr_uart.c ****     isr_uart_SetVector(&IntDefaultHandler);
 163              		.loc 1 131 0
 164 0008 024B     		ldr	r3, .L6
 165 000a 181C     		mov	r0, r3
 166 000c FFF7FEFF 		bl	isr_uart_SetVector
 132:.\Generated_Source\PSoC4/isr_uart.c **** }
 167              		.loc 1 132 0
 168 0010 BD46     		mov	sp, r7
 169              		@ sp needed for prologue
 170 0012 80BD     		pop	{r7, pc}
 171              	.L7:
 172              		.align	2
 173              	.L6:
 174 0014 00000000 		.word	IntDefaultHandler
 175              		.cfi_endproc
 176              	.LFE2:
 177              		.size	isr_uart_Stop, .-isr_uart_Stop
 178              		.global	__aeabi_idiv
 179              		.section	.text.isr_uart_Interrupt,"ax",%progbits
 180              		.align	2
 181              		.global	isr_uart_Interrupt
 182              		.code	16
 183              		.thumb_func
 184              		.type	isr_uart_Interrupt, %function
 185              	isr_uart_Interrupt:
 186              	.LFB3:
 133:.\Generated_Source\PSoC4/isr_uart.c **** 
 134:.\Generated_Source\PSoC4/isr_uart.c **** 
 135:.\Generated_Source\PSoC4/isr_uart.c **** /*******************************************************************************
 136:.\Generated_Source\PSoC4/isr_uart.c **** * Function Name: isr_uart_Interrupt
 137:.\Generated_Source\PSoC4/isr_uart.c **** ********************************************************************************
 138:.\Generated_Source\PSoC4/isr_uart.c **** *
 139:.\Generated_Source\PSoC4/isr_uart.c **** * Summary:
 140:.\Generated_Source\PSoC4/isr_uart.c **** *   The default Interrupt Service Routine for isr_uart.
 141:.\Generated_Source\PSoC4/isr_uart.c **** *
 142:.\Generated_Source\PSoC4/isr_uart.c **** *   Add custom code between the coments to keep the next version of this file
 143:.\Generated_Source\PSoC4/isr_uart.c **** *   from over writting your code.
 144:.\Generated_Source\PSoC4/isr_uart.c **** *
 145:.\Generated_Source\PSoC4/isr_uart.c **** * Parameters:  
 146:.\Generated_Source\PSoC4/isr_uart.c **** *   None
 147:.\Generated_Source\PSoC4/isr_uart.c **** *
 148:.\Generated_Source\PSoC4/isr_uart.c **** * Return:
 149:.\Generated_Source\PSoC4/isr_uart.c **** *   None
 150:.\Generated_Source\PSoC4/isr_uart.c **** *
 151:.\Generated_Source\PSoC4/isr_uart.c **** *******************************************************************************/
 152:.\Generated_Source\PSoC4/isr_uart.c **** CY_ISR(isr_uart_Interrupt)
 153:.\Generated_Source\PSoC4/isr_uart.c **** {
ARM GAS  C:\Users\OEBN\AppData\Local\Temp\ccqGCQsF.s 			page 7


 187              		.loc 1 153 0
 188              		.cfi_startproc
 189 0000 90B5     		push	{r4, r7, lr}
 190              	.LCFI7:
 191              		.cfi_def_cfa_offset 12
 192              		.cfi_offset 4, -12
 193              		.cfi_offset 7, -8
 194              		.cfi_offset 14, -4
 195 0002 83B0     		sub	sp, sp, #12
 196              	.LCFI8:
 197              		.cfi_def_cfa_offset 24
 198 0004 00AF     		add	r7, sp, #0
 199              	.LCFI9:
 200              		.cfi_def_cfa_register 7
 154:.\Generated_Source\PSoC4/isr_uart.c ****     /*  Place your Interrupt code here. */
 155:.\Generated_Source\PSoC4/isr_uart.c ****     /* `#START isr_uart_Interrupt` */
 156:.\Generated_Source\PSoC4/isr_uart.c ****     uint32 rxdata;
 157:.\Generated_Source\PSoC4/isr_uart.c ****     uint8_t i;
 158:.\Generated_Source\PSoC4/isr_uart.c ****     //rxdata = UART_1_STATUS_REG;
 159:.\Generated_Source\PSoC4/isr_uart.c ****     
 160:.\Generated_Source\PSoC4/isr_uart.c ****     //PWM_WriteCompare(20);
 161:.\Generated_Source\PSoC4/isr_uart.c ****     //UART_2_UartPutChar(0x11);
 162:.\Generated_Source\PSoC4/isr_uart.c ****     rxdata = UART_1_UartGetChar();
 201              		.loc 1 162 0
 202 0006 FFF7FEFF 		bl	UART_1_UartGetChar
 203 000a 031C     		mov	r3, r0
 204 000c 3B60     		str	r3, [r7]
 163:.\Generated_Source\PSoC4/isr_uart.c ****     isr_uart_ClearPending();
 205              		.loc 1 163 0
 206 000e FFF7FEFF 		bl	isr_uart_ClearPending
 164:.\Generated_Source\PSoC4/isr_uart.c ****     UART_1_ClearRxInterruptSource(UART_1_INTR_RX_ALL);
 207              		.loc 1 164 0
 208 0012 D54B     		ldr	r3, .L33
 209 0014 D54A     		ldr	r2, .L33+4
 210 0016 1A60     		str	r2, [r3]
 165:.\Generated_Source\PSoC4/isr_uart.c ****     count++;
 211              		.loc 1 165 0
 212 0018 D54B     		ldr	r3, .L33+8
 213 001a 1B68     		ldr	r3, [r3]
 214 001c 5A1C     		add	r2, r3, #1
 215 001e D44B     		ldr	r3, .L33+8
 216 0020 1A60     		str	r2, [r3]
 166:.\Generated_Source\PSoC4/isr_uart.c ****     if (rxdata == 0xFE)
 217              		.loc 1 166 0
 218 0022 3B68     		ldr	r3, [r7]
 219 0024 FE2B     		cmp	r3, #254
 220 0026 13D1     		bne	.L9
 167:.\Generated_Source\PSoC4/isr_uart.c ****     {
 168:.\Generated_Source\PSoC4/isr_uart.c ****         tempcount = count;
 221              		.loc 1 168 0
 222 0028 D14B     		ldr	r3, .L33+8
 223 002a 1A68     		ldr	r2, [r3]
 224 002c D14B     		ldr	r3, .L33+12
 225 002e 1A60     		str	r2, [r3]
 169:.\Generated_Source\PSoC4/isr_uart.c ****         frameStart = 1;
 226              		.loc 1 169 0
 227 0030 D14B     		ldr	r3, .L33+16
ARM GAS  C:\Users\OEBN\AppData\Local\Temp\ccqGCQsF.s 			page 8


 228 0032 0122     		mov	r2, #1
 229 0034 1A70     		strb	r2, [r3]
 170:.\Generated_Source\PSoC4/isr_uart.c ****         senderID = 0;
 230              		.loc 1 170 0
 231 0036 D14B     		ldr	r3, .L33+20
 232 0038 0022     		mov	r2, #0
 233 003a 1A70     		strb	r2, [r3]
 171:.\Generated_Source\PSoC4/isr_uart.c ****         senderClass=0;
 234              		.loc 1 171 0
 235 003c D04B     		ldr	r3, .L33+24
 236 003e 0022     		mov	r2, #0
 237 0040 1A70     		strb	r2, [r3]
 172:.\Generated_Source\PSoC4/isr_uart.c ****         frameID = 0;
 238              		.loc 1 172 0
 239 0042 D04B     		ldr	r3, .L33+28
 240 0044 0022     		mov	r2, #0
 241 0046 1A70     		strb	r2, [r3]
 173:.\Generated_Source\PSoC4/isr_uart.c ****         byteCount = 0;
 242              		.loc 1 173 0
 243 0048 CF4B     		ldr	r3, .L33+32
 244 004a 0022     		mov	r2, #0
 245 004c 1A70     		strb	r2, [r3]
 246 004e F3E1     		b	.L10
 247              	.L9:
 174:.\Generated_Source\PSoC4/isr_uart.c ****         //UART_2_UartPutChar('1');
 175:.\Generated_Source\PSoC4/isr_uart.c ****     }else  if (rxdata == 0x01 && frameStart == 1 && senderID == 0 && count == tempcount + 3)
 248              		.loc 1 175 0
 249 0050 3B68     		ldr	r3, [r7]
 250 0052 012B     		cmp	r3, #1
 251 0054 19D1     		bne	.L11
 252              		.loc 1 175 0 is_stmt 0 discriminator 1
 253 0056 C84B     		ldr	r3, .L33+16
 254 0058 1B78     		ldrb	r3, [r3]
 255 005a 5BB2     		sxtb	r3, r3
 256 005c 012B     		cmp	r3, #1
 257 005e 14D1     		bne	.L11
 258 0060 C64B     		ldr	r3, .L33+20
 259 0062 1B78     		ldrb	r3, [r3]
 260 0064 002B     		cmp	r3, #0
 261 0066 10D1     		bne	.L11
 262 0068 C24B     		ldr	r3, .L33+12
 263 006a 1B68     		ldr	r3, [r3]
 264 006c DA1C     		add	r2, r3, #3
 265 006e C04B     		ldr	r3, .L33+8
 266 0070 1B68     		ldr	r3, [r3]
 267 0072 9A42     		cmp	r2, r3
 268 0074 09D1     		bne	.L11
 176:.\Generated_Source\PSoC4/isr_uart.c ****     {
 177:.\Generated_Source\PSoC4/isr_uart.c ****         senderID = 1;
 269              		.loc 1 177 0 is_stmt 1
 270 0076 C14B     		ldr	r3, .L33+20
 271 0078 0122     		mov	r2, #1
 272 007a 1A70     		strb	r2, [r3]
 178:.\Generated_Source\PSoC4/isr_uart.c ****         senderClass=0;
 273              		.loc 1 178 0
 274 007c C04B     		ldr	r3, .L33+24
 275 007e 0022     		mov	r2, #0
ARM GAS  C:\Users\OEBN\AppData\Local\Temp\ccqGCQsF.s 			page 9


 276 0080 1A70     		strb	r2, [r3]
 179:.\Generated_Source\PSoC4/isr_uart.c ****         frameID = 0;
 277              		.loc 1 179 0
 278 0082 C04B     		ldr	r3, .L33+28
 279 0084 0022     		mov	r2, #0
 280 0086 1A70     		strb	r2, [r3]
 281 0088 D6E1     		b	.L10
 282              	.L11:
 180:.\Generated_Source\PSoC4/isr_uart.c ****         //UART_2_UartPutChar('2');
 181:.\Generated_Source\PSoC4/isr_uart.c ****     }else  if (rxdata == 0x01 && frameStart == 1 && senderID == 1 && senderClass == 0 && count == t
 283              		.loc 1 181 0
 284 008a 3B68     		ldr	r3, [r7]
 285 008c 012B     		cmp	r3, #1
 286 008e 1BD1     		bne	.L12
 287              		.loc 1 181 0 is_stmt 0 discriminator 1
 288 0090 B94B     		ldr	r3, .L33+16
 289 0092 1B78     		ldrb	r3, [r3]
 290 0094 5BB2     		sxtb	r3, r3
 291 0096 012B     		cmp	r3, #1
 292 0098 16D1     		bne	.L12
 293 009a B84B     		ldr	r3, .L33+20
 294 009c 1B78     		ldrb	r3, [r3]
 295 009e 5BB2     		sxtb	r3, r3
 296 00a0 012B     		cmp	r3, #1
 297 00a2 11D1     		bne	.L12
 298 00a4 B64B     		ldr	r3, .L33+24
 299 00a6 1B78     		ldrb	r3, [r3]
 300 00a8 002B     		cmp	r3, #0
 301 00aa 0DD1     		bne	.L12
 302 00ac B14B     		ldr	r3, .L33+12
 303 00ae 1B68     		ldr	r3, [r3]
 304 00b0 1A1D     		add	r2, r3, #4
 305 00b2 AF4B     		ldr	r3, .L33+8
 306 00b4 1B68     		ldr	r3, [r3]
 307 00b6 9A42     		cmp	r2, r3
 308 00b8 06D1     		bne	.L12
 182:.\Generated_Source\PSoC4/isr_uart.c ****     {
 183:.\Generated_Source\PSoC4/isr_uart.c ****         senderClass=1;
 309              		.loc 1 183 0 is_stmt 1
 310 00ba B14B     		ldr	r3, .L33+24
 311 00bc 0122     		mov	r2, #1
 312 00be 1A70     		strb	r2, [r3]
 184:.\Generated_Source\PSoC4/isr_uart.c ****         frameID = 0;
 313              		.loc 1 184 0
 314 00c0 B04B     		ldr	r3, .L33+28
 315 00c2 0022     		mov	r2, #0
 316 00c4 1A70     		strb	r2, [r3]
 317 00c6 B7E1     		b	.L10
 318              	.L12:
 185:.\Generated_Source\PSoC4/isr_uart.c ****         //UART_2_UartPutChar('3');
 186:.\Generated_Source\PSoC4/isr_uart.c ****     }else  if (rxdata == 0x23 && frameStart == 1 && senderID == 1 && senderClass == 1 && frameID ==
 319              		.loc 1 186 0
 320 00c8 3B68     		ldr	r3, [r7]
 321 00ca 232B     		cmp	r3, #35
 322 00cc 1DD1     		bne	.L13
 323              		.loc 1 186 0 is_stmt 0 discriminator 1
 324 00ce AA4B     		ldr	r3, .L33+16
ARM GAS  C:\Users\OEBN\AppData\Local\Temp\ccqGCQsF.s 			page 10


 325 00d0 1B78     		ldrb	r3, [r3]
 326 00d2 5BB2     		sxtb	r3, r3
 327 00d4 012B     		cmp	r3, #1
 328 00d6 18D1     		bne	.L13
 329 00d8 A84B     		ldr	r3, .L33+20
 330 00da 1B78     		ldrb	r3, [r3]
 331 00dc 5BB2     		sxtb	r3, r3
 332 00de 012B     		cmp	r3, #1
 333 00e0 13D1     		bne	.L13
 334 00e2 A74B     		ldr	r3, .L33+24
 335 00e4 1B78     		ldrb	r3, [r3]
 336 00e6 5BB2     		sxtb	r3, r3
 337 00e8 012B     		cmp	r3, #1
 338 00ea 0ED1     		bne	.L13
 339 00ec A54B     		ldr	r3, .L33+28
 340 00ee 1B78     		ldrb	r3, [r3]
 341 00f0 002B     		cmp	r3, #0
 342 00f2 0AD1     		bne	.L13
 343 00f4 9F4B     		ldr	r3, .L33+12
 344 00f6 1B68     		ldr	r3, [r3]
 345 00f8 5A1D     		add	r2, r3, #5
 346 00fa 9D4B     		ldr	r3, .L33+8
 347 00fc 1B68     		ldr	r3, [r3]
 348 00fe 9A42     		cmp	r2, r3
 349 0100 03D1     		bne	.L13
 187:.\Generated_Source\PSoC4/isr_uart.c ****     {
 188:.\Generated_Source\PSoC4/isr_uart.c ****         frameID = 1;
 350              		.loc 1 188 0 is_stmt 1
 351 0102 A04B     		ldr	r3, .L33+28
 352 0104 0122     		mov	r2, #1
 353 0106 1A70     		strb	r2, [r3]
 354 0108 96E1     		b	.L10
 355              	.L13:
 189:.\Generated_Source\PSoC4/isr_uart.c ****         //UART_2_UartPutChar('4');
 190:.\Generated_Source\PSoC4/isr_uart.c ****     }else  if (frameStart == 1 && senderID == 1 && senderClass == 1 && frameID == 1 && count >= tem
 356              		.loc 1 190 0
 357 010a 9B4B     		ldr	r3, .L33+16
 358 010c 1B78     		ldrb	r3, [r3]
 359 010e 5BB2     		sxtb	r3, r3
 360 0110 012B     		cmp	r3, #1
 361 0112 00D0     		beq	.LCB253
 362 0114 90E1     		b	.L10	@long jump
 363              	.LCB253:
 364              		.loc 1 190 0 is_stmt 0 discriminator 1
 365 0116 994B     		ldr	r3, .L33+20
 366 0118 1B78     		ldrb	r3, [r3]
 367 011a 5BB2     		sxtb	r3, r3
 368 011c 012B     		cmp	r3, #1
 369 011e 00D0     		beq	.LCB258
 370 0120 8AE1     		b	.L10	@long jump
 371              	.LCB258:
 372 0122 974B     		ldr	r3, .L33+24
 373 0124 1B78     		ldrb	r3, [r3]
 374 0126 5BB2     		sxtb	r3, r3
 375 0128 012B     		cmp	r3, #1
 376 012a 00D0     		beq	.LCB263
 377 012c 84E1     		b	.L10	@long jump
ARM GAS  C:\Users\OEBN\AppData\Local\Temp\ccqGCQsF.s 			page 11


 378              	.LCB263:
 379 012e 954B     		ldr	r3, .L33+28
 380 0130 1B78     		ldrb	r3, [r3]
 381 0132 5BB2     		sxtb	r3, r3
 382 0134 012B     		cmp	r3, #1
 383 0136 00D0     		beq	.LCB268
 384 0138 7EE1     		b	.L10	@long jump
 385              	.LCB268:
 386 013a 8E4B     		ldr	r3, .L33+12
 387 013c 1B68     		ldr	r3, [r3]
 388 013e 1A1C     		mov	r2, r3
 389 0140 0A32     		add	r2, r2, #10
 390 0142 8B4B     		ldr	r3, .L33+8
 391 0144 1B68     		ldr	r3, [r3]
 392 0146 9A42     		cmp	r2, r3
 393 0148 00DD     		ble	.LCB276
 394 014a 75E1     		b	.L10	@long jump
 395              	.LCB276:
 191:.\Generated_Source\PSoC4/isr_uart.c ****     {
 192:.\Generated_Source\PSoC4/isr_uart.c ****         byteCount++;
 396              		.loc 1 192 0 is_stmt 1
 397 014c 8E4B     		ldr	r3, .L33+32
 398 014e 1B78     		ldrb	r3, [r3]
 399 0150 0133     		add	r3, r3, #1
 400 0152 DAB2     		uxtb	r2, r3
 401 0154 8C4B     		ldr	r3, .L33+32
 402 0156 1A70     		strb	r2, [r3]
 193:.\Generated_Source\PSoC4/isr_uart.c ****         //UART_1_UartPutChar(byteCount);
 194:.\Generated_Source\PSoC4/isr_uart.c ****         switch (byteCount)
 403              		.loc 1 194 0
 404 0158 8B4B     		ldr	r3, .L33+32
 405 015a 1B78     		ldrb	r3, [r3]
 406 015c 5BB2     		sxtb	r3, r3
 407 015e 102B     		cmp	r3, #16
 408 0160 00D9     		bls	.LCB287
 409 0162 69E1     		b	.L10	@long jump
 410              	.LCB287:
 411 0164 9A00     		lsl	r2, r3, #2
 412 0166 894B     		ldr	r3, .L33+36
 413 0168 D318     		add	r3, r2, r3
 414 016a 1B68     		ldr	r3, [r3]
 415 016c 9F46     		mov	pc, r3
 416              		.section	.rodata
 417              		.align	2
 418              	.L30:
 419 0000 38040000 		.word	.L10
 420 0004 6E010000 		.word	.L14
 421 0008 78010000 		.word	.L15
 422 000c B6010000 		.word	.L16
 423 0010 C0010000 		.word	.L17
 424 0014 FE010000 		.word	.L18
 425 0018 08020000 		.word	.L19
 426 001c 46020000 		.word	.L20
 427 0020 50020000 		.word	.L21
 428 0024 8E020000 		.word	.L22
 429 0028 98020000 		.word	.L23
 430 002c D6020000 		.word	.L24
ARM GAS  C:\Users\OEBN\AppData\Local\Temp\ccqGCQsF.s 			page 12


 431 0030 E0020000 		.word	.L25
 432 0034 1E030000 		.word	.L26
 433 0038 28030000 		.word	.L27
 434 003c 94030000 		.word	.L28
 435 0040 9E030000 		.word	.L29
 436              		.section	.text.isr_uart_Interrupt
 437              	.L14:
 195:.\Generated_Source\PSoC4/isr_uart.c ****         {
 196:.\Generated_Source\PSoC4/isr_uart.c ****             case 1:
 197:.\Generated_Source\PSoC4/isr_uart.c ****                 channelTime[0] = rxdata;
 438              		.loc 1 197 0
 439 016e 3B68     		ldr	r3, [r7]
 440 0170 9AB2     		uxth	r2, r3
 441 0172 874B     		ldr	r3, .L33+40
 442 0174 1A80     		strh	r2, [r3]
 198:.\Generated_Source\PSoC4/isr_uart.c ****                 break;
 443              		.loc 1 198 0
 444 0176 5FE1     		b	.L10
 445              	.L15:
 199:.\Generated_Source\PSoC4/isr_uart.c ****             
 200:.\Generated_Source\PSoC4/isr_uart.c ****             case 2:
 201:.\Generated_Source\PSoC4/isr_uart.c ****                 channelTime[0] |= rxdata << 8;
 446              		.loc 1 201 0
 447 0178 854B     		ldr	r3, .L33+40
 448 017a 1B88     		ldrh	r3, [r3]
 449 017c 9AB2     		uxth	r2, r3
 450 017e 3B68     		ldr	r3, [r7]
 451 0180 9BB2     		uxth	r3, r3
 452 0182 1B02     		lsl	r3, r3, #8
 453 0184 9BB2     		uxth	r3, r3
 454 0186 1343     		orr	r3, r2
 455 0188 9BB2     		uxth	r3, r3
 456 018a 9AB2     		uxth	r2, r3
 457 018c 804B     		ldr	r3, .L33+40
 458 018e 1A80     		strh	r2, [r3]
 202:.\Generated_Source\PSoC4/isr_uart.c ****                 UART_2_UartPutChar('1');
 459              		.loc 1 202 0
 460 0190 3120     		mov	r0, #49
 461 0192 FFF7FEFF 		bl	UART_2_SpiUartWriteTxData
 203:.\Generated_Source\PSoC4/isr_uart.c ****                 UART_2_UartPutChar((uint8_t) (channelTime[0]>>8));
 462              		.loc 1 203 0
 463 0196 7E4B     		ldr	r3, .L33+40
 464 0198 1B88     		ldrh	r3, [r3]
 465 019a 1BB2     		sxth	r3, r3
 466 019c 1B12     		asr	r3, r3, #8
 467 019e 9BB2     		uxth	r3, r3
 468 01a0 DBB2     		uxtb	r3, r3
 469 01a2 181C     		mov	r0, r3
 470 01a4 FFF7FEFF 		bl	UART_2_SpiUartWriteTxData
 204:.\Generated_Source\PSoC4/isr_uart.c ****                 UART_2_UartPutChar((uint8_t) channelTime[0]);
 471              		.loc 1 204 0
 472 01a8 794B     		ldr	r3, .L33+40
 473 01aa 1B88     		ldrh	r3, [r3]
 474 01ac DBB2     		uxtb	r3, r3
 475 01ae 181C     		mov	r0, r3
 476 01b0 FFF7FEFF 		bl	UART_2_SpiUartWriteTxData
 205:.\Generated_Source\PSoC4/isr_uart.c ****                 break;
ARM GAS  C:\Users\OEBN\AppData\Local\Temp\ccqGCQsF.s 			page 13


 477              		.loc 1 205 0
 478 01b4 40E1     		b	.L10
 479              	.L16:
 206:.\Generated_Source\PSoC4/isr_uart.c ****             case 3:
 207:.\Generated_Source\PSoC4/isr_uart.c ****                 channelTime[1] = rxdata;
 480              		.loc 1 207 0
 481 01b6 3B68     		ldr	r3, [r7]
 482 01b8 9AB2     		uxth	r2, r3
 483 01ba 754B     		ldr	r3, .L33+40
 484 01bc 5A80     		strh	r2, [r3, #2]
 208:.\Generated_Source\PSoC4/isr_uart.c ****                 break;
 485              		.loc 1 208 0
 486 01be 3BE1     		b	.L10
 487              	.L17:
 209:.\Generated_Source\PSoC4/isr_uart.c ****             
 210:.\Generated_Source\PSoC4/isr_uart.c ****             case 4:
 211:.\Generated_Source\PSoC4/isr_uart.c ****                 channelTime[1] |= rxdata << 8;
 488              		.loc 1 211 0
 489 01c0 734B     		ldr	r3, .L33+40
 490 01c2 5B88     		ldrh	r3, [r3, #2]
 491 01c4 9AB2     		uxth	r2, r3
 492 01c6 3B68     		ldr	r3, [r7]
 493 01c8 9BB2     		uxth	r3, r3
 494 01ca 1B02     		lsl	r3, r3, #8
 495 01cc 9BB2     		uxth	r3, r3
 496 01ce 1343     		orr	r3, r2
 497 01d0 9BB2     		uxth	r3, r3
 498 01d2 9AB2     		uxth	r2, r3
 499 01d4 6E4B     		ldr	r3, .L33+40
 500 01d6 5A80     		strh	r2, [r3, #2]
 212:.\Generated_Source\PSoC4/isr_uart.c ****                 UART_2_UartPutChar('2');
 501              		.loc 1 212 0
 502 01d8 3220     		mov	r0, #50
 503 01da FFF7FEFF 		bl	UART_2_SpiUartWriteTxData
 213:.\Generated_Source\PSoC4/isr_uart.c ****                 UART_2_UartPutChar((uint8_t) (channelTime[1]>>8));
 504              		.loc 1 213 0
 505 01de 6C4B     		ldr	r3, .L33+40
 506 01e0 5B88     		ldrh	r3, [r3, #2]
 507 01e2 1BB2     		sxth	r3, r3
 508 01e4 1B12     		asr	r3, r3, #8
 509 01e6 9BB2     		uxth	r3, r3
 510 01e8 DBB2     		uxtb	r3, r3
 511 01ea 181C     		mov	r0, r3
 512 01ec FFF7FEFF 		bl	UART_2_SpiUartWriteTxData
 214:.\Generated_Source\PSoC4/isr_uart.c ****                 UART_2_UartPutChar((uint8_t) channelTime[1]);
 513              		.loc 1 214 0
 514 01f0 674B     		ldr	r3, .L33+40
 515 01f2 5B88     		ldrh	r3, [r3, #2]
 516 01f4 DBB2     		uxtb	r3, r3
 517 01f6 181C     		mov	r0, r3
 518 01f8 FFF7FEFF 		bl	UART_2_SpiUartWriteTxData
 215:.\Generated_Source\PSoC4/isr_uart.c ****                 break;
 519              		.loc 1 215 0
 520 01fc 1CE1     		b	.L10
 521              	.L18:
 216:.\Generated_Source\PSoC4/isr_uart.c ****             case 5:
 217:.\Generated_Source\PSoC4/isr_uart.c ****                 channelTime[2] = rxdata;
ARM GAS  C:\Users\OEBN\AppData\Local\Temp\ccqGCQsF.s 			page 14


 522              		.loc 1 217 0
 523 01fe 3B68     		ldr	r3, [r7]
 524 0200 9AB2     		uxth	r2, r3
 525 0202 634B     		ldr	r3, .L33+40
 526 0204 9A80     		strh	r2, [r3, #4]
 218:.\Generated_Source\PSoC4/isr_uart.c ****                 break;
 527              		.loc 1 218 0
 528 0206 17E1     		b	.L10
 529              	.L19:
 219:.\Generated_Source\PSoC4/isr_uart.c ****             
 220:.\Generated_Source\PSoC4/isr_uart.c ****             case 6:
 221:.\Generated_Source\PSoC4/isr_uart.c ****                 channelTime[2] |= rxdata << 8;
 530              		.loc 1 221 0
 531 0208 614B     		ldr	r3, .L33+40
 532 020a 9B88     		ldrh	r3, [r3, #4]
 533 020c 9AB2     		uxth	r2, r3
 534 020e 3B68     		ldr	r3, [r7]
 535 0210 9BB2     		uxth	r3, r3
 536 0212 1B02     		lsl	r3, r3, #8
 537 0214 9BB2     		uxth	r3, r3
 538 0216 1343     		orr	r3, r2
 539 0218 9BB2     		uxth	r3, r3
 540 021a 9AB2     		uxth	r2, r3
 541 021c 5C4B     		ldr	r3, .L33+40
 542 021e 9A80     		strh	r2, [r3, #4]
 222:.\Generated_Source\PSoC4/isr_uart.c ****                 UART_2_UartPutChar('3');
 543              		.loc 1 222 0
 544 0220 3320     		mov	r0, #51
 545 0222 FFF7FEFF 		bl	UART_2_SpiUartWriteTxData
 223:.\Generated_Source\PSoC4/isr_uart.c ****                 UART_2_UartPutChar((uint8_t) (channelTime[2]>>8));
 546              		.loc 1 223 0
 547 0226 5A4B     		ldr	r3, .L33+40
 548 0228 9B88     		ldrh	r3, [r3, #4]
 549 022a 1BB2     		sxth	r3, r3
 550 022c 1B12     		asr	r3, r3, #8
 551 022e 9BB2     		uxth	r3, r3
 552 0230 DBB2     		uxtb	r3, r3
 553 0232 181C     		mov	r0, r3
 554 0234 FFF7FEFF 		bl	UART_2_SpiUartWriteTxData
 224:.\Generated_Source\PSoC4/isr_uart.c ****                 UART_2_UartPutChar((uint8_t) channelTime[2]);
 555              		.loc 1 224 0
 556 0238 554B     		ldr	r3, .L33+40
 557 023a 9B88     		ldrh	r3, [r3, #4]
 558 023c DBB2     		uxtb	r3, r3
 559 023e 181C     		mov	r0, r3
 560 0240 FFF7FEFF 		bl	UART_2_SpiUartWriteTxData
 225:.\Generated_Source\PSoC4/isr_uart.c ****                 break;
 561              		.loc 1 225 0
 562 0244 F8E0     		b	.L10
 563              	.L20:
 226:.\Generated_Source\PSoC4/isr_uart.c ****             case 7:
 227:.\Generated_Source\PSoC4/isr_uart.c ****                 channelTime[3] = rxdata;
 564              		.loc 1 227 0
 565 0246 3B68     		ldr	r3, [r7]
 566 0248 9AB2     		uxth	r2, r3
 567 024a 514B     		ldr	r3, .L33+40
 568 024c DA80     		strh	r2, [r3, #6]
ARM GAS  C:\Users\OEBN\AppData\Local\Temp\ccqGCQsF.s 			page 15


 228:.\Generated_Source\PSoC4/isr_uart.c ****                 break;
 569              		.loc 1 228 0
 570 024e F3E0     		b	.L10
 571              	.L21:
 229:.\Generated_Source\PSoC4/isr_uart.c ****             
 230:.\Generated_Source\PSoC4/isr_uart.c ****             case 8:
 231:.\Generated_Source\PSoC4/isr_uart.c ****                 channelTime[3] |= rxdata << 8;
 572              		.loc 1 231 0
 573 0250 4F4B     		ldr	r3, .L33+40
 574 0252 DB88     		ldrh	r3, [r3, #6]
 575 0254 9AB2     		uxth	r2, r3
 576 0256 3B68     		ldr	r3, [r7]
 577 0258 9BB2     		uxth	r3, r3
 578 025a 1B02     		lsl	r3, r3, #8
 579 025c 9BB2     		uxth	r3, r3
 580 025e 1343     		orr	r3, r2
 581 0260 9BB2     		uxth	r3, r3
 582 0262 9AB2     		uxth	r2, r3
 583 0264 4A4B     		ldr	r3, .L33+40
 584 0266 DA80     		strh	r2, [r3, #6]
 232:.\Generated_Source\PSoC4/isr_uart.c ****                 UART_2_UartPutChar('4');
 585              		.loc 1 232 0
 586 0268 3420     		mov	r0, #52
 587 026a FFF7FEFF 		bl	UART_2_SpiUartWriteTxData
 233:.\Generated_Source\PSoC4/isr_uart.c ****                 UART_2_UartPutChar((uint8_t) (channelTime[3]>>8));
 588              		.loc 1 233 0
 589 026e 484B     		ldr	r3, .L33+40
 590 0270 DB88     		ldrh	r3, [r3, #6]
 591 0272 1BB2     		sxth	r3, r3
 592 0274 1B12     		asr	r3, r3, #8
 593 0276 9BB2     		uxth	r3, r3
 594 0278 DBB2     		uxtb	r3, r3
 595 027a 181C     		mov	r0, r3
 596 027c FFF7FEFF 		bl	UART_2_SpiUartWriteTxData
 234:.\Generated_Source\PSoC4/isr_uart.c ****                 UART_2_UartPutChar((uint8_t) channelTime[3]);
 597              		.loc 1 234 0
 598 0280 434B     		ldr	r3, .L33+40
 599 0282 DB88     		ldrh	r3, [r3, #6]
 600 0284 DBB2     		uxtb	r3, r3
 601 0286 181C     		mov	r0, r3
 602 0288 FFF7FEFF 		bl	UART_2_SpiUartWriteTxData
 235:.\Generated_Source\PSoC4/isr_uart.c ****                 break;
 603              		.loc 1 235 0
 604 028c D4E0     		b	.L10
 605              	.L22:
 236:.\Generated_Source\PSoC4/isr_uart.c ****             case 9:
 237:.\Generated_Source\PSoC4/isr_uart.c ****                 channelTime[4] = rxdata;
 606              		.loc 1 237 0
 607 028e 3B68     		ldr	r3, [r7]
 608 0290 9AB2     		uxth	r2, r3
 609 0292 3F4B     		ldr	r3, .L33+40
 610 0294 1A81     		strh	r2, [r3, #8]
 238:.\Generated_Source\PSoC4/isr_uart.c ****                 break;
 611              		.loc 1 238 0
 612 0296 CFE0     		b	.L10
 613              	.L23:
 239:.\Generated_Source\PSoC4/isr_uart.c ****             
ARM GAS  C:\Users\OEBN\AppData\Local\Temp\ccqGCQsF.s 			page 16


 240:.\Generated_Source\PSoC4/isr_uart.c ****             case 10:
 241:.\Generated_Source\PSoC4/isr_uart.c ****                 channelTime[4] |= rxdata << 8;
 614              		.loc 1 241 0
 615 0298 3D4B     		ldr	r3, .L33+40
 616 029a 1B89     		ldrh	r3, [r3, #8]
 617 029c 9AB2     		uxth	r2, r3
 618 029e 3B68     		ldr	r3, [r7]
 619 02a0 9BB2     		uxth	r3, r3
 620 02a2 1B02     		lsl	r3, r3, #8
 621 02a4 9BB2     		uxth	r3, r3
 622 02a6 1343     		orr	r3, r2
 623 02a8 9BB2     		uxth	r3, r3
 624 02aa 9AB2     		uxth	r2, r3
 625 02ac 384B     		ldr	r3, .L33+40
 626 02ae 1A81     		strh	r2, [r3, #8]
 242:.\Generated_Source\PSoC4/isr_uart.c ****                 UART_2_UartPutChar('5');
 627              		.loc 1 242 0
 628 02b0 3520     		mov	r0, #53
 629 02b2 FFF7FEFF 		bl	UART_2_SpiUartWriteTxData
 243:.\Generated_Source\PSoC4/isr_uart.c ****                 UART_2_UartPutChar((uint8_t) (channelTime[4]>>8));
 630              		.loc 1 243 0
 631 02b6 364B     		ldr	r3, .L33+40
 632 02b8 1B89     		ldrh	r3, [r3, #8]
 633 02ba 1BB2     		sxth	r3, r3
 634 02bc 1B12     		asr	r3, r3, #8
 635 02be 9BB2     		uxth	r3, r3
 636 02c0 DBB2     		uxtb	r3, r3
 637 02c2 181C     		mov	r0, r3
 638 02c4 FFF7FEFF 		bl	UART_2_SpiUartWriteTxData
 244:.\Generated_Source\PSoC4/isr_uart.c ****                 UART_2_UartPutChar((uint8_t) channelTime[4]);
 639              		.loc 1 244 0
 640 02c8 314B     		ldr	r3, .L33+40
 641 02ca 1B89     		ldrh	r3, [r3, #8]
 642 02cc DBB2     		uxtb	r3, r3
 643 02ce 181C     		mov	r0, r3
 644 02d0 FFF7FEFF 		bl	UART_2_SpiUartWriteTxData
 245:.\Generated_Source\PSoC4/isr_uart.c ****                 break;
 645              		.loc 1 245 0
 646 02d4 B0E0     		b	.L10
 647              	.L24:
 246:.\Generated_Source\PSoC4/isr_uart.c ****             case 11:
 247:.\Generated_Source\PSoC4/isr_uart.c ****                 channelTime[5] = rxdata;
 648              		.loc 1 247 0
 649 02d6 3B68     		ldr	r3, [r7]
 650 02d8 9AB2     		uxth	r2, r3
 651 02da 2D4B     		ldr	r3, .L33+40
 652 02dc 5A81     		strh	r2, [r3, #10]
 248:.\Generated_Source\PSoC4/isr_uart.c ****                 break;
 653              		.loc 1 248 0
 654 02de ABE0     		b	.L10
 655              	.L25:
 249:.\Generated_Source\PSoC4/isr_uart.c ****             
 250:.\Generated_Source\PSoC4/isr_uart.c ****             case 12:
 251:.\Generated_Source\PSoC4/isr_uart.c ****                 channelTime[5] |= rxdata << 8;
 656              		.loc 1 251 0
 657 02e0 2B4B     		ldr	r3, .L33+40
 658 02e2 5B89     		ldrh	r3, [r3, #10]
ARM GAS  C:\Users\OEBN\AppData\Local\Temp\ccqGCQsF.s 			page 17


 659 02e4 9AB2     		uxth	r2, r3
 660 02e6 3B68     		ldr	r3, [r7]
 661 02e8 9BB2     		uxth	r3, r3
 662 02ea 1B02     		lsl	r3, r3, #8
 663 02ec 9BB2     		uxth	r3, r3
 664 02ee 1343     		orr	r3, r2
 665 02f0 9BB2     		uxth	r3, r3
 666 02f2 9AB2     		uxth	r2, r3
 667 02f4 264B     		ldr	r3, .L33+40
 668 02f6 5A81     		strh	r2, [r3, #10]
 252:.\Generated_Source\PSoC4/isr_uart.c ****                 UART_2_UartPutChar('6');
 669              		.loc 1 252 0
 670 02f8 3620     		mov	r0, #54
 671 02fa FFF7FEFF 		bl	UART_2_SpiUartWriteTxData
 253:.\Generated_Source\PSoC4/isr_uart.c ****                 UART_2_UartPutChar((uint8_t) (channelTime[5]>>8));
 672              		.loc 1 253 0
 673 02fe 244B     		ldr	r3, .L33+40
 674 0300 5B89     		ldrh	r3, [r3, #10]
 675 0302 1BB2     		sxth	r3, r3
 676 0304 1B12     		asr	r3, r3, #8
 677 0306 9BB2     		uxth	r3, r3
 678 0308 DBB2     		uxtb	r3, r3
 679 030a 181C     		mov	r0, r3
 680 030c FFF7FEFF 		bl	UART_2_SpiUartWriteTxData
 254:.\Generated_Source\PSoC4/isr_uart.c ****                 UART_2_UartPutChar((uint8_t) channelTime[5]);
 681              		.loc 1 254 0
 682 0310 1F4B     		ldr	r3, .L33+40
 683 0312 5B89     		ldrh	r3, [r3, #10]
 684 0314 DBB2     		uxtb	r3, r3
 685 0316 181C     		mov	r0, r3
 686 0318 FFF7FEFF 		bl	UART_2_SpiUartWriteTxData
 255:.\Generated_Source\PSoC4/isr_uart.c ****                 break;
 687              		.loc 1 255 0
 688 031c 8CE0     		b	.L10
 689              	.L26:
 256:.\Generated_Source\PSoC4/isr_uart.c ****             case 13:
 257:.\Generated_Source\PSoC4/isr_uart.c ****                 channelTime[6] = rxdata;
 690              		.loc 1 257 0
 691 031e 3B68     		ldr	r3, [r7]
 692 0320 9AB2     		uxth	r2, r3
 693 0322 1B4B     		ldr	r3, .L33+40
 694 0324 9A81     		strh	r2, [r3, #12]
 258:.\Generated_Source\PSoC4/isr_uart.c ****                 break;
 695              		.loc 1 258 0
 696 0326 87E0     		b	.L10
 697              	.L27:
 259:.\Generated_Source\PSoC4/isr_uart.c ****             
 260:.\Generated_Source\PSoC4/isr_uart.c ****             case 14:
 261:.\Generated_Source\PSoC4/isr_uart.c ****                 channelTime[6] |= rxdata << 8;
 698              		.loc 1 261 0
 699 0328 194B     		ldr	r3, .L33+40
 700 032a 9B89     		ldrh	r3, [r3, #12]
 701 032c 9AB2     		uxth	r2, r3
 702 032e 3B68     		ldr	r3, [r7]
 703 0330 9BB2     		uxth	r3, r3
 704 0332 1B02     		lsl	r3, r3, #8
 705 0334 9BB2     		uxth	r3, r3
ARM GAS  C:\Users\OEBN\AppData\Local\Temp\ccqGCQsF.s 			page 18


 706 0336 1343     		orr	r3, r2
 707 0338 9BB2     		uxth	r3, r3
 708 033a 9AB2     		uxth	r2, r3
 709 033c 144B     		ldr	r3, .L33+40
 710 033e 9A81     		strh	r2, [r3, #12]
 262:.\Generated_Source\PSoC4/isr_uart.c ****                 UART_2_UartPutChar('7');
 711              		.loc 1 262 0
 712 0340 3720     		mov	r0, #55
 713 0342 FFF7FEFF 		bl	UART_2_SpiUartWriteTxData
 263:.\Generated_Source\PSoC4/isr_uart.c ****                 UART_2_UartPutChar((uint8_t) (channelTime[6]>>8));
 714              		.loc 1 263 0
 715 0346 124B     		ldr	r3, .L33+40
 716 0348 9B89     		ldrh	r3, [r3, #12]
 717 034a 1BB2     		sxth	r3, r3
 718 034c 1B12     		asr	r3, r3, #8
 719 034e 9BB2     		uxth	r3, r3
 720 0350 DBB2     		uxtb	r3, r3
 721 0352 181C     		mov	r0, r3
 722 0354 FFF7FEFF 		bl	UART_2_SpiUartWriteTxData
 264:.\Generated_Source\PSoC4/isr_uart.c ****                 UART_2_UartPutChar((uint8_t) channelTime[6]);
 723              		.loc 1 264 0
 724 0358 0D4B     		ldr	r3, .L33+40
 725 035a 9B89     		ldrh	r3, [r3, #12]
 726 035c DBB2     		uxtb	r3, r3
 727 035e 181C     		mov	r0, r3
 728 0360 FFF7FEFF 		bl	UART_2_SpiUartWriteTxData
 265:.\Generated_Source\PSoC4/isr_uart.c ****                 break;
 729              		.loc 1 265 0
 730 0364 68E0     		b	.L10
 731              	.L34:
 732 0366 C046     		.align	2
 733              	.L33:
 734 0368 C00F0740 		.word	1074204608
 735 036c ED0F0000 		.word	4077
 736 0370 00000000 		.word	count
 737 0374 00000000 		.word	tempcount
 738 0378 00000000 		.word	frameStart
 739 037c 00000000 		.word	senderID
 740 0380 00000000 		.word	senderClass
 741 0384 00000000 		.word	frameID
 742 0388 00000000 		.word	byteCount
 743 038c 00000000 		.word	.L30
 744 0390 00000000 		.word	channelTime
 745              	.L28:
 266:.\Generated_Source\PSoC4/isr_uart.c ****             case 15:
 267:.\Generated_Source\PSoC4/isr_uart.c ****                 channelTime[7] = rxdata;
 746              		.loc 1 267 0
 747 0394 3B68     		ldr	r3, [r7]
 748 0396 9AB2     		uxth	r2, r3
 749 0398 2A4B     		ldr	r3, .L35
 750 039a DA81     		strh	r2, [r3, #14]
 268:.\Generated_Source\PSoC4/isr_uart.c ****                 break;
 751              		.loc 1 268 0
 752 039c 4CE0     		b	.L10
 753              	.L29:
 269:.\Generated_Source\PSoC4/isr_uart.c ****             
 270:.\Generated_Source\PSoC4/isr_uart.c ****             case 16:
ARM GAS  C:\Users\OEBN\AppData\Local\Temp\ccqGCQsF.s 			page 19


 271:.\Generated_Source\PSoC4/isr_uart.c ****                 channelTime[7] |= rxdata << 8;
 754              		.loc 1 271 0
 755 039e 294B     		ldr	r3, .L35
 756 03a0 DB89     		ldrh	r3, [r3, #14]
 757 03a2 9AB2     		uxth	r2, r3
 758 03a4 3B68     		ldr	r3, [r7]
 759 03a6 9BB2     		uxth	r3, r3
 760 03a8 1B02     		lsl	r3, r3, #8
 761 03aa 9BB2     		uxth	r3, r3
 762 03ac 1343     		orr	r3, r2
 763 03ae 9BB2     		uxth	r3, r3
 764 03b0 9AB2     		uxth	r2, r3
 765 03b2 244B     		ldr	r3, .L35
 766 03b4 DA81     		strh	r2, [r3, #14]
 272:.\Generated_Source\PSoC4/isr_uart.c ****                 UART_2_UartPutChar('8');
 767              		.loc 1 272 0
 768 03b6 3820     		mov	r0, #56
 769 03b8 FFF7FEFF 		bl	UART_2_SpiUartWriteTxData
 273:.\Generated_Source\PSoC4/isr_uart.c ****                 UART_2_UartPutChar((uint8_t) (channelTime[7]>>8));
 770              		.loc 1 273 0
 771 03bc 214B     		ldr	r3, .L35
 772 03be DB89     		ldrh	r3, [r3, #14]
 773 03c0 1BB2     		sxth	r3, r3
 774 03c2 1B12     		asr	r3, r3, #8
 775 03c4 9BB2     		uxth	r3, r3
 776 03c6 DBB2     		uxtb	r3, r3
 777 03c8 181C     		mov	r0, r3
 778 03ca FFF7FEFF 		bl	UART_2_SpiUartWriteTxData
 274:.\Generated_Source\PSoC4/isr_uart.c ****                 UART_2_UartPutChar((uint8_t) channelTime[7]);
 779              		.loc 1 274 0
 780 03ce 1D4B     		ldr	r3, .L35
 781 03d0 DB89     		ldrh	r3, [r3, #14]
 782 03d2 DBB2     		uxtb	r3, r3
 783 03d4 181C     		mov	r0, r3
 784 03d6 FFF7FEFF 		bl	UART_2_SpiUartWriteTxData
 275:.\Generated_Source\PSoC4/isr_uart.c ****                 frameStart = 0;
 785              		.loc 1 275 0
 786 03da 1B4B     		ldr	r3, .L35+4
 787 03dc 0022     		mov	r2, #0
 788 03de 1A70     		strb	r2, [r3]
 276:.\Generated_Source\PSoC4/isr_uart.c ****                 senderID = 0;
 789              		.loc 1 276 0
 790 03e0 1A4B     		ldr	r3, .L35+8
 791 03e2 0022     		mov	r2, #0
 792 03e4 1A70     		strb	r2, [r3]
 277:.\Generated_Source\PSoC4/isr_uart.c ****                 senderClass=0;
 793              		.loc 1 277 0
 794 03e6 1A4B     		ldr	r3, .L35+12
 795 03e8 0022     		mov	r2, #0
 796 03ea 1A70     		strb	r2, [r3]
 278:.\Generated_Source\PSoC4/isr_uart.c ****                 frameID = 0;
 797              		.loc 1 278 0
 798 03ec 194B     		ldr	r3, .L35+16
 799 03ee 0022     		mov	r2, #0
 800 03f0 1A70     		strb	r2, [r3]
 279:.\Generated_Source\PSoC4/isr_uart.c ****                 byteCount = 0;
 801              		.loc 1 279 0
ARM GAS  C:\Users\OEBN\AppData\Local\Temp\ccqGCQsF.s 			page 20


 802 03f2 194B     		ldr	r3, .L35+20
 803 03f4 0022     		mov	r2, #0
 804 03f6 1A70     		strb	r2, [r3]
 280:.\Generated_Source\PSoC4/isr_uart.c ****                 count = 0;
 805              		.loc 1 280 0
 806 03f8 184B     		ldr	r3, .L35+24
 807 03fa 0022     		mov	r2, #0
 808 03fc 1A60     		str	r2, [r3]
 281:.\Generated_Source\PSoC4/isr_uart.c ****                 for (i=0;i<4;i++)
 809              		.loc 1 281 0
 810 03fe FB1D     		add	r3, r7, #7
 811 0400 0022     		mov	r2, #0
 812 0402 1A70     		strb	r2, [r3]
 813 0404 13E0     		b	.L31
 814              	.L32:
 282:.\Generated_Source\PSoC4/isr_uart.c ****                     pwm_light_adj[i] = (channelTime[7] - 980) / 5;
 815              		.loc 1 282 0 discriminator 2
 816 0406 FB1D     		add	r3, r7, #7
 817 0408 1C78     		ldrb	r4, [r3]
 818 040a 0E4B     		ldr	r3, .L35
 819 040c DB89     		ldrh	r3, [r3, #14]
 820 040e 1BB2     		sxth	r3, r3
 821 0410 134A     		ldr	r2, .L35+28
 822 0412 9B18     		add	r3, r3, r2
 823 0414 181C     		mov	r0, r3
 824 0416 0521     		mov	r1, #5
 825 0418 FFF7FEFF 		bl	__aeabi_idiv
 826 041c 031C     		mov	r3, r0
 827 041e DAB2     		uxtb	r2, r3
 828 0420 104B     		ldr	r3, .L35+32
 829 0422 1A55     		strb	r2, [r3, r4]
 281:.\Generated_Source\PSoC4/isr_uart.c ****                 for (i=0;i<4;i++)
 830              		.loc 1 281 0 discriminator 2
 831 0424 FB1D     		add	r3, r7, #7
 832 0426 FA1D     		add	r2, r7, #7
 833 0428 1278     		ldrb	r2, [r2]
 834 042a 0132     		add	r2, r2, #1
 835 042c 1A70     		strb	r2, [r3]
 836              	.L31:
 281:.\Generated_Source\PSoC4/isr_uart.c ****                 for (i=0;i<4;i++)
 837              		.loc 1 281 0 is_stmt 0 discriminator 1
 838 042e FB1D     		add	r3, r7, #7
 839 0430 1B78     		ldrb	r3, [r3]
 840 0432 032B     		cmp	r3, #3
 841 0434 E7D9     		bls	.L32
 283:.\Generated_Source\PSoC4/isr_uart.c ****                 break;
 842              		.loc 1 283 0 is_stmt 1
 843 0436 C046     		mov	r8, r8
 844              	.L10:
 284:.\Generated_Source\PSoC4/isr_uart.c ****         }
 285:.\Generated_Source\PSoC4/isr_uart.c ****         /*
 286:.\Generated_Source\PSoC4/isr_uart.c ****         if (byteCount == 1)
 287:.\Generated_Source\PSoC4/isr_uart.c ****         {
 288:.\Generated_Source\PSoC4/isr_uart.c ****             channelTime[1] = rxdata;
 289:.\Generated_Source\PSoC4/isr_uart.c **** 
 290:.\Generated_Source\PSoC4/isr_uart.c ****         }else if (byteCount == 2)
 291:.\Generated_Source\PSoC4/isr_uart.c ****         {
ARM GAS  C:\Users\OEBN\AppData\Local\Temp\ccqGCQsF.s 			page 21


 292:.\Generated_Source\PSoC4/isr_uart.c ****             channelTime[1] |= rxdata << 8;
 293:.\Generated_Source\PSoC4/isr_uart.c ****             UART_2_UartPutChar((uint8_t) (channelTime[1]>>8));
 294:.\Generated_Source\PSoC4/isr_uart.c ****             UART_2_UartPutChar((uint8_t) channelTime[1]);
 295:.\Generated_Source\PSoC4/isr_uart.c ****             frameStart = 0;
 296:.\Generated_Source\PSoC4/isr_uart.c ****             senderID = 0;
 297:.\Generated_Source\PSoC4/isr_uart.c ****             senderClass=0;
 298:.\Generated_Source\PSoC4/isr_uart.c ****             frameID = 0;
 299:.\Generated_Source\PSoC4/isr_uart.c ****             byteCount = 0;
 300:.\Generated_Source\PSoC4/isr_uart.c ****             count = 0;
 301:.\Generated_Source\PSoC4/isr_uart.c ****         }
 302:.\Generated_Source\PSoC4/isr_uart.c ****         */
 303:.\Generated_Source\PSoC4/isr_uart.c ****     }
 304:.\Generated_Source\PSoC4/isr_uart.c ****     UART_1_ClearRxInterruptSource(UART_1_INTR_RX_ALL);
 845              		.loc 1 304 0
 846 0438 0B4B     		ldr	r3, .L35+36
 847 043a 0C4A     		ldr	r2, .L35+40
 848 043c 1A60     		str	r2, [r3]
 305:.\Generated_Source\PSoC4/isr_uart.c ****     /* `#END` */
 306:.\Generated_Source\PSoC4/isr_uart.c **** }
 849              		.loc 1 306 0
 850 043e BD46     		mov	sp, r7
 851 0440 03B0     		add	sp, sp, #12
 852              		@ sp needed for prologue
 853 0442 90BD     		pop	{r4, r7, pc}
 854              	.L36:
 855              		.align	2
 856              	.L35:
 857 0444 00000000 		.word	channelTime
 858 0448 00000000 		.word	frameStart
 859 044c 00000000 		.word	senderID
 860 0450 00000000 		.word	senderClass
 861 0454 00000000 		.word	frameID
 862 0458 00000000 		.word	byteCount
 863 045c 00000000 		.word	count
 864 0460 2CFCFFFF 		.word	-980
 865 0464 00000000 		.word	pwm_light_adj
 866 0468 C00F0740 		.word	1074204608
 867 046c ED0F0000 		.word	4077
 868              		.cfi_endproc
 869              	.LFE3:
 870              		.size	isr_uart_Interrupt, .-isr_uart_Interrupt
 871              		.section	.text.isr_uart_SetVector,"ax",%progbits
 872              		.align	2
 873              		.global	isr_uart_SetVector
 874              		.code	16
 875              		.thumb_func
 876              		.type	isr_uart_SetVector, %function
 877              	isr_uart_SetVector:
 878              	.LFB4:
 307:.\Generated_Source\PSoC4/isr_uart.c **** 
 308:.\Generated_Source\PSoC4/isr_uart.c **** 
 309:.\Generated_Source\PSoC4/isr_uart.c **** /*******************************************************************************
 310:.\Generated_Source\PSoC4/isr_uart.c **** * Function Name: isr_uart_SetVector
 311:.\Generated_Source\PSoC4/isr_uart.c **** ********************************************************************************
 312:.\Generated_Source\PSoC4/isr_uart.c **** *
 313:.\Generated_Source\PSoC4/isr_uart.c **** * Summary:
 314:.\Generated_Source\PSoC4/isr_uart.c **** *   Change the ISR vector for the Interrupt. Note calling isr_uart_Start
ARM GAS  C:\Users\OEBN\AppData\Local\Temp\ccqGCQsF.s 			page 22


 315:.\Generated_Source\PSoC4/isr_uart.c **** *   will override any effect this method would have had. To set the vector 
 316:.\Generated_Source\PSoC4/isr_uart.c **** *   before the component has been started use isr_uart_StartEx instead.
 317:.\Generated_Source\PSoC4/isr_uart.c **** *
 318:.\Generated_Source\PSoC4/isr_uart.c **** * Parameters:
 319:.\Generated_Source\PSoC4/isr_uart.c **** *   address: Address of the ISR to set in the interrupt vector table.
 320:.\Generated_Source\PSoC4/isr_uart.c **** *
 321:.\Generated_Source\PSoC4/isr_uart.c **** * Return:
 322:.\Generated_Source\PSoC4/isr_uart.c **** *   None
 323:.\Generated_Source\PSoC4/isr_uart.c **** *
 324:.\Generated_Source\PSoC4/isr_uart.c **** *******************************************************************************/
 325:.\Generated_Source\PSoC4/isr_uart.c **** void isr_uart_SetVector(cyisraddress address)
 326:.\Generated_Source\PSoC4/isr_uart.c **** {
 879              		.loc 1 326 0
 880              		.cfi_startproc
 881 0000 80B5     		push	{r7, lr}
 882              	.LCFI10:
 883              		.cfi_def_cfa_offset 8
 884              		.cfi_offset 7, -8
 885              		.cfi_offset 14, -4
 886 0002 82B0     		sub	sp, sp, #8
 887              	.LCFI11:
 888              		.cfi_def_cfa_offset 16
 889 0004 00AF     		add	r7, sp, #0
 890              	.LCFI12:
 891              		.cfi_def_cfa_register 7
 892 0006 7860     		str	r0, [r7, #4]
 327:.\Generated_Source\PSoC4/isr_uart.c ****     CyRamVectors[CYINT_IRQ_BASE + isr_uart__INTC_NUMBER] = address;
 893              		.loc 1 327 0
 894 0008 024B     		ldr	r3, .L38
 895 000a 7A68     		ldr	r2, [r7, #4]
 896 000c DA66     		str	r2, [r3, #108]
 328:.\Generated_Source\PSoC4/isr_uart.c **** }
 897              		.loc 1 328 0
 898 000e BD46     		mov	sp, r7
 899 0010 02B0     		add	sp, sp, #8
 900              		@ sp needed for prologue
 901 0012 80BD     		pop	{r7, pc}
 902              	.L39:
 903              		.align	2
 904              	.L38:
 905 0014 00000000 		.word	CyRamVectors
 906              		.cfi_endproc
 907              	.LFE4:
 908              		.size	isr_uart_SetVector, .-isr_uart_SetVector
 909              		.section	.text.isr_uart_GetVector,"ax",%progbits
 910              		.align	2
 911              		.global	isr_uart_GetVector
 912              		.code	16
 913              		.thumb_func
 914              		.type	isr_uart_GetVector, %function
 915              	isr_uart_GetVector:
 916              	.LFB5:
 329:.\Generated_Source\PSoC4/isr_uart.c **** 
 330:.\Generated_Source\PSoC4/isr_uart.c **** 
 331:.\Generated_Source\PSoC4/isr_uart.c **** /*******************************************************************************
 332:.\Generated_Source\PSoC4/isr_uart.c **** * Function Name: isr_uart_GetVector
 333:.\Generated_Source\PSoC4/isr_uart.c **** ********************************************************************************
ARM GAS  C:\Users\OEBN\AppData\Local\Temp\ccqGCQsF.s 			page 23


 334:.\Generated_Source\PSoC4/isr_uart.c **** *
 335:.\Generated_Source\PSoC4/isr_uart.c **** * Summary:
 336:.\Generated_Source\PSoC4/isr_uart.c **** *   Gets the "address" of the current ISR vector for the Interrupt.
 337:.\Generated_Source\PSoC4/isr_uart.c **** *
 338:.\Generated_Source\PSoC4/isr_uart.c **** * Parameters:
 339:.\Generated_Source\PSoC4/isr_uart.c **** *   None
 340:.\Generated_Source\PSoC4/isr_uart.c **** *
 341:.\Generated_Source\PSoC4/isr_uart.c **** * Return:
 342:.\Generated_Source\PSoC4/isr_uart.c **** *   Address of the ISR in the interrupt vector table.
 343:.\Generated_Source\PSoC4/isr_uart.c **** *
 344:.\Generated_Source\PSoC4/isr_uart.c **** *******************************************************************************/
 345:.\Generated_Source\PSoC4/isr_uart.c **** cyisraddress isr_uart_GetVector(void)
 346:.\Generated_Source\PSoC4/isr_uart.c **** {
 917              		.loc 1 346 0
 918              		.cfi_startproc
 919 0000 80B5     		push	{r7, lr}
 920              	.LCFI13:
 921              		.cfi_def_cfa_offset 8
 922              		.cfi_offset 7, -8
 923              		.cfi_offset 14, -4
 924 0002 00AF     		add	r7, sp, #0
 925              	.LCFI14:
 926              		.cfi_def_cfa_register 7
 347:.\Generated_Source\PSoC4/isr_uart.c ****     return CyRamVectors[CYINT_IRQ_BASE + isr_uart__INTC_NUMBER];
 927              		.loc 1 347 0
 928 0004 024B     		ldr	r3, .L42
 929 0006 DB6E     		ldr	r3, [r3, #108]
 348:.\Generated_Source\PSoC4/isr_uart.c **** }
 930              		.loc 1 348 0
 931 0008 181C     		mov	r0, r3
 932 000a BD46     		mov	sp, r7
 933              		@ sp needed for prologue
 934 000c 80BD     		pop	{r7, pc}
 935              	.L43:
 936 000e C046     		.align	2
 937              	.L42:
 938 0010 00000000 		.word	CyRamVectors
 939              		.cfi_endproc
 940              	.LFE5:
 941              		.size	isr_uart_GetVector, .-isr_uart_GetVector
 942              		.section	.text.isr_uart_SetPriority,"ax",%progbits
 943              		.align	2
 944              		.global	isr_uart_SetPriority
 945              		.code	16
 946              		.thumb_func
 947              		.type	isr_uart_SetPriority, %function
 948              	isr_uart_SetPriority:
 949              	.LFB6:
 349:.\Generated_Source\PSoC4/isr_uart.c **** 
 350:.\Generated_Source\PSoC4/isr_uart.c **** 
 351:.\Generated_Source\PSoC4/isr_uart.c **** /*******************************************************************************
 352:.\Generated_Source\PSoC4/isr_uart.c **** * Function Name: isr_uart_SetPriority
 353:.\Generated_Source\PSoC4/isr_uart.c **** ********************************************************************************
 354:.\Generated_Source\PSoC4/isr_uart.c **** *
 355:.\Generated_Source\PSoC4/isr_uart.c **** * Summary:
 356:.\Generated_Source\PSoC4/isr_uart.c **** *   Sets the Priority of the Interrupt. Note calling isr_uart_Start
 357:.\Generated_Source\PSoC4/isr_uart.c **** *   or isr_uart_StartEx will override any effect this method would 
ARM GAS  C:\Users\OEBN\AppData\Local\Temp\ccqGCQsF.s 			page 24


 358:.\Generated_Source\PSoC4/isr_uart.c **** *   have had. This method should only be called after isr_uart_Start or 
 359:.\Generated_Source\PSoC4/isr_uart.c **** *   isr_uart_StartEx has been called. To set the initial
 360:.\Generated_Source\PSoC4/isr_uart.c **** *   priority for the component use the cydwr file in the tool.
 361:.\Generated_Source\PSoC4/isr_uart.c **** *
 362:.\Generated_Source\PSoC4/isr_uart.c **** * Parameters:
 363:.\Generated_Source\PSoC4/isr_uart.c **** *   priority: Priority of the interrupt. 0 - 3, 0 being the highest.
 364:.\Generated_Source\PSoC4/isr_uart.c **** *
 365:.\Generated_Source\PSoC4/isr_uart.c **** * Return:
 366:.\Generated_Source\PSoC4/isr_uart.c **** *   None
 367:.\Generated_Source\PSoC4/isr_uart.c **** *
 368:.\Generated_Source\PSoC4/isr_uart.c **** *******************************************************************************/
 369:.\Generated_Source\PSoC4/isr_uart.c **** void isr_uart_SetPriority(uint8 priority)
 370:.\Generated_Source\PSoC4/isr_uart.c **** {
 950              		.loc 1 370 0
 951              		.cfi_startproc
 952 0000 90B5     		push	{r4, r7, lr}
 953              	.LCFI15:
 954              		.cfi_def_cfa_offset 12
 955              		.cfi_offset 4, -12
 956              		.cfi_offset 7, -8
 957              		.cfi_offset 14, -4
 958 0002 85B0     		sub	sp, sp, #20
 959              	.LCFI16:
 960              		.cfi_def_cfa_offset 32
 961 0004 00AF     		add	r7, sp, #0
 962              	.LCFI17:
 963              		.cfi_def_cfa_register 7
 964 0006 021C     		mov	r2, r0
 965 0008 FB1D     		add	r3, r7, #7
 966 000a 1A70     		strb	r2, [r3]
 371:.\Generated_Source\PSoC4/isr_uart.c **** 	uint8 interruptState;
 372:.\Generated_Source\PSoC4/isr_uart.c ****     uint32 priorityOffset = ((isr_uart__INTC_NUMBER % 4u) * 8u) + 6u;
 967              		.loc 1 372 0
 968 000c 1E23     		mov	r3, #30
 969 000e FB60     		str	r3, [r7, #12]
 373:.\Generated_Source\PSoC4/isr_uart.c ****     
 374:.\Generated_Source\PSoC4/isr_uart.c **** 	interruptState = CyEnterCriticalSection();
 970              		.loc 1 374 0
 971 0010 3C1C     		mov	r4, r7
 972 0012 0B34     		add	r4, r4, #11
 973 0014 FFF7FEFF 		bl	CyEnterCriticalSection
 974 0018 031C     		mov	r3, r0
 975 001a 2370     		strb	r3, [r4]
 375:.\Generated_Source\PSoC4/isr_uart.c ****     *isr_uart_INTC_PRIOR = (*isr_uart_INTC_PRIOR & (uint32)(~isr_uart__INTC_PRIOR_MASK)) |
 976              		.loc 1 375 0
 977 001c 0A4B     		ldr	r3, .L45
 978 001e 0A4A     		ldr	r2, .L45
 979 0020 1268     		ldr	r2, [r2]
 980 0022 9200     		lsl	r2, r2, #2
 981 0024 9108     		lsr	r1, r2, #2
 376:.\Generated_Source\PSoC4/isr_uart.c ****                                     ((uint32)priority << priorityOffset);
 982              		.loc 1 376 0
 983 0026 FA1D     		add	r2, r7, #7
 984 0028 1078     		ldrb	r0, [r2]
 985 002a FA68     		ldr	r2, [r7, #12]
 986 002c 041C     		mov	r4, r0
 987 002e 9440     		lsl	r4, r4, r2
ARM GAS  C:\Users\OEBN\AppData\Local\Temp\ccqGCQsF.s 			page 25


 988 0030 221C     		mov	r2, r4
 375:.\Generated_Source\PSoC4/isr_uart.c ****     *isr_uart_INTC_PRIOR = (*isr_uart_INTC_PRIOR & (uint32)(~isr_uart__INTC_PRIOR_MASK)) |
 989              		.loc 1 375 0
 990 0032 0A43     		orr	r2, r1
 991 0034 1A60     		str	r2, [r3]
 377:.\Generated_Source\PSoC4/isr_uart.c **** 	CyExitCriticalSection(interruptState);
 992              		.loc 1 377 0
 993 0036 3B1C     		mov	r3, r7
 994 0038 0B33     		add	r3, r3, #11
 995 003a 1B78     		ldrb	r3, [r3]
 996 003c 181C     		mov	r0, r3
 997 003e FFF7FEFF 		bl	CyExitCriticalSection
 378:.\Generated_Source\PSoC4/isr_uart.c **** }
 998              		.loc 1 378 0
 999 0042 BD46     		mov	sp, r7
 1000 0044 05B0     		add	sp, sp, #20
 1001              		@ sp needed for prologue
 1002 0046 90BD     		pop	{r4, r7, pc}
 1003              	.L46:
 1004              		.align	2
 1005              	.L45:
 1006 0048 08E400E0 		.word	-536812536
 1007              		.cfi_endproc
 1008              	.LFE6:
 1009              		.size	isr_uart_SetPriority, .-isr_uart_SetPriority
 1010              		.section	.text.isr_uart_GetPriority,"ax",%progbits
 1011              		.align	2
 1012              		.global	isr_uart_GetPriority
 1013              		.code	16
 1014              		.thumb_func
 1015              		.type	isr_uart_GetPriority, %function
 1016              	isr_uart_GetPriority:
 1017              	.LFB7:
 379:.\Generated_Source\PSoC4/isr_uart.c **** 
 380:.\Generated_Source\PSoC4/isr_uart.c **** 
 381:.\Generated_Source\PSoC4/isr_uart.c **** /*******************************************************************************
 382:.\Generated_Source\PSoC4/isr_uart.c **** * Function Name: isr_uart_GetPriority
 383:.\Generated_Source\PSoC4/isr_uart.c **** ********************************************************************************
 384:.\Generated_Source\PSoC4/isr_uart.c **** *
 385:.\Generated_Source\PSoC4/isr_uart.c **** * Summary:
 386:.\Generated_Source\PSoC4/isr_uart.c **** *   Gets the Priority of the Interrupt.
 387:.\Generated_Source\PSoC4/isr_uart.c **** *
 388:.\Generated_Source\PSoC4/isr_uart.c **** * Parameters:
 389:.\Generated_Source\PSoC4/isr_uart.c **** *   None
 390:.\Generated_Source\PSoC4/isr_uart.c **** *
 391:.\Generated_Source\PSoC4/isr_uart.c **** * Return:
 392:.\Generated_Source\PSoC4/isr_uart.c **** *   Priority of the interrupt. 0 - 3, 0 being the highest.
 393:.\Generated_Source\PSoC4/isr_uart.c **** *
 394:.\Generated_Source\PSoC4/isr_uart.c **** *******************************************************************************/
 395:.\Generated_Source\PSoC4/isr_uart.c **** uint8 isr_uart_GetPriority(void)
 396:.\Generated_Source\PSoC4/isr_uart.c **** {
 1018              		.loc 1 396 0
 1019              		.cfi_startproc
 1020 0000 80B5     		push	{r7, lr}
 1021              	.LCFI18:
 1022              		.cfi_def_cfa_offset 8
 1023              		.cfi_offset 7, -8
ARM GAS  C:\Users\OEBN\AppData\Local\Temp\ccqGCQsF.s 			page 26


 1024              		.cfi_offset 14, -4
 1025 0002 82B0     		sub	sp, sp, #8
 1026              	.LCFI19:
 1027              		.cfi_def_cfa_offset 16
 1028 0004 00AF     		add	r7, sp, #0
 1029              	.LCFI20:
 1030              		.cfi_def_cfa_register 7
 397:.\Generated_Source\PSoC4/isr_uart.c ****     uint32 priority;
 398:.\Generated_Source\PSoC4/isr_uart.c **** 	uint32 priorityOffset = ((isr_uart__INTC_NUMBER % 4u) * 8u) + 6u;
 1031              		.loc 1 398 0
 1032 0006 1E23     		mov	r3, #30
 1033 0008 7B60     		str	r3, [r7, #4]
 399:.\Generated_Source\PSoC4/isr_uart.c **** 
 400:.\Generated_Source\PSoC4/isr_uart.c ****     priority = (*isr_uart_INTC_PRIOR & isr_uart__INTC_PRIOR_MASK) >> priorityOffset;
 1034              		.loc 1 400 0
 1035 000a 074B     		ldr	r3, .L49
 1036 000c 1B68     		ldr	r3, [r3]
 1037 000e 9B0F     		lsr	r3, r3, #30
 1038 0010 9A07     		lsl	r2, r3, #30
 1039 0012 7B68     		ldr	r3, [r7, #4]
 1040 0014 111C     		mov	r1, r2
 1041 0016 D940     		lsr	r1, r1, r3
 1042 0018 0B1C     		mov	r3, r1
 1043 001a 3B60     		str	r3, [r7]
 401:.\Generated_Source\PSoC4/isr_uart.c **** 
 402:.\Generated_Source\PSoC4/isr_uart.c ****     return (uint8)priority;
 1044              		.loc 1 402 0
 1045 001c 3B68     		ldr	r3, [r7]
 1046 001e DBB2     		uxtb	r3, r3
 403:.\Generated_Source\PSoC4/isr_uart.c **** }
 1047              		.loc 1 403 0
 1048 0020 181C     		mov	r0, r3
 1049 0022 BD46     		mov	sp, r7
 1050 0024 02B0     		add	sp, sp, #8
 1051              		@ sp needed for prologue
 1052 0026 80BD     		pop	{r7, pc}
 1053              	.L50:
 1054              		.align	2
 1055              	.L49:
 1056 0028 08E400E0 		.word	-536812536
 1057              		.cfi_endproc
 1058              	.LFE7:
 1059              		.size	isr_uart_GetPriority, .-isr_uart_GetPriority
 1060              		.section	.text.isr_uart_Enable,"ax",%progbits
 1061              		.align	2
 1062              		.global	isr_uart_Enable
 1063              		.code	16
 1064              		.thumb_func
 1065              		.type	isr_uart_Enable, %function
 1066              	isr_uart_Enable:
 1067              	.LFB8:
 404:.\Generated_Source\PSoC4/isr_uart.c **** 
 405:.\Generated_Source\PSoC4/isr_uart.c **** 
 406:.\Generated_Source\PSoC4/isr_uart.c **** /*******************************************************************************
 407:.\Generated_Source\PSoC4/isr_uart.c **** * Function Name: isr_uart_Enable
 408:.\Generated_Source\PSoC4/isr_uart.c **** ********************************************************************************
 409:.\Generated_Source\PSoC4/isr_uart.c **** *
ARM GAS  C:\Users\OEBN\AppData\Local\Temp\ccqGCQsF.s 			page 27


 410:.\Generated_Source\PSoC4/isr_uart.c **** * Summary:
 411:.\Generated_Source\PSoC4/isr_uart.c **** *   Enables the interrupt.
 412:.\Generated_Source\PSoC4/isr_uart.c **** *
 413:.\Generated_Source\PSoC4/isr_uart.c **** * Parameters:
 414:.\Generated_Source\PSoC4/isr_uart.c **** *   None
 415:.\Generated_Source\PSoC4/isr_uart.c **** *
 416:.\Generated_Source\PSoC4/isr_uart.c **** * Return:
 417:.\Generated_Source\PSoC4/isr_uart.c **** *   None
 418:.\Generated_Source\PSoC4/isr_uart.c **** *
 419:.\Generated_Source\PSoC4/isr_uart.c **** *******************************************************************************/
 420:.\Generated_Source\PSoC4/isr_uart.c **** void isr_uart_Enable(void)
 421:.\Generated_Source\PSoC4/isr_uart.c **** {
 1068              		.loc 1 421 0
 1069              		.cfi_startproc
 1070 0000 80B5     		push	{r7, lr}
 1071              	.LCFI21:
 1072              		.cfi_def_cfa_offset 8
 1073              		.cfi_offset 7, -8
 1074              		.cfi_offset 14, -4
 1075 0002 00AF     		add	r7, sp, #0
 1076              	.LCFI22:
 1077              		.cfi_def_cfa_register 7
 422:.\Generated_Source\PSoC4/isr_uart.c ****     /* Enable the general interrupt. */
 423:.\Generated_Source\PSoC4/isr_uart.c ****     *isr_uart_INTC_SET_EN = isr_uart__INTC_MASK;
 1078              		.loc 1 423 0
 1079 0004 024B     		ldr	r3, .L52
 1080 0006 8022     		mov	r2, #128
 1081 0008 1201     		lsl	r2, r2, #4
 1082 000a 1A60     		str	r2, [r3]
 424:.\Generated_Source\PSoC4/isr_uart.c **** }
 1083              		.loc 1 424 0
 1084 000c BD46     		mov	sp, r7
 1085              		@ sp needed for prologue
 1086 000e 80BD     		pop	{r7, pc}
 1087              	.L53:
 1088              		.align	2
 1089              	.L52:
 1090 0010 00E100E0 		.word	-536813312
 1091              		.cfi_endproc
 1092              	.LFE8:
 1093              		.size	isr_uart_Enable, .-isr_uart_Enable
 1094              		.section	.text.isr_uart_GetState,"ax",%progbits
 1095              		.align	2
 1096              		.global	isr_uart_GetState
 1097              		.code	16
 1098              		.thumb_func
 1099              		.type	isr_uart_GetState, %function
 1100              	isr_uart_GetState:
 1101              	.LFB9:
 425:.\Generated_Source\PSoC4/isr_uart.c **** 
 426:.\Generated_Source\PSoC4/isr_uart.c **** 
 427:.\Generated_Source\PSoC4/isr_uart.c **** /*******************************************************************************
 428:.\Generated_Source\PSoC4/isr_uart.c **** * Function Name: isr_uart_GetState
 429:.\Generated_Source\PSoC4/isr_uart.c **** ********************************************************************************
 430:.\Generated_Source\PSoC4/isr_uart.c **** *
 431:.\Generated_Source\PSoC4/isr_uart.c **** * Summary:
 432:.\Generated_Source\PSoC4/isr_uart.c **** *   Gets the state (enabled, disabled) of the Interrupt.
ARM GAS  C:\Users\OEBN\AppData\Local\Temp\ccqGCQsF.s 			page 28


 433:.\Generated_Source\PSoC4/isr_uart.c **** *
 434:.\Generated_Source\PSoC4/isr_uart.c **** * Parameters:
 435:.\Generated_Source\PSoC4/isr_uart.c **** *   None
 436:.\Generated_Source\PSoC4/isr_uart.c **** *
 437:.\Generated_Source\PSoC4/isr_uart.c **** * Return:
 438:.\Generated_Source\PSoC4/isr_uart.c **** *   1 if enabled, 0 if disabled.
 439:.\Generated_Source\PSoC4/isr_uart.c **** *
 440:.\Generated_Source\PSoC4/isr_uart.c **** *******************************************************************************/
 441:.\Generated_Source\PSoC4/isr_uart.c **** uint8 isr_uart_GetState(void)
 442:.\Generated_Source\PSoC4/isr_uart.c **** {
 1102              		.loc 1 442 0
 1103              		.cfi_startproc
 1104 0000 80B5     		push	{r7, lr}
 1105              	.LCFI23:
 1106              		.cfi_def_cfa_offset 8
 1107              		.cfi_offset 7, -8
 1108              		.cfi_offset 14, -4
 1109 0002 00AF     		add	r7, sp, #0
 1110              	.LCFI24:
 1111              		.cfi_def_cfa_register 7
 443:.\Generated_Source\PSoC4/isr_uart.c ****     /* Get the state of the general interrupt. */
 444:.\Generated_Source\PSoC4/isr_uart.c ****     return ((*isr_uart_INTC_SET_EN & (uint32)isr_uart__INTC_MASK) != 0u) ? 1u:0u;
 1112              		.loc 1 444 0
 1113 0004 054B     		ldr	r3, .L58
 1114 0006 1A68     		ldr	r2, [r3]
 1115 0008 8023     		mov	r3, #128
 1116 000a 1B01     		lsl	r3, r3, #4
 1117 000c 1340     		and	r3, r2
 1118 000e 01D0     		beq	.L55
 1119              		.loc 1 444 0 is_stmt 0 discriminator 1
 1120 0010 0123     		mov	r3, #1
 1121 0012 00E0     		b	.L56
 1122              	.L55:
 1123              		.loc 1 444 0 discriminator 2
 1124 0014 0023     		mov	r3, #0
 1125              	.L56:
 445:.\Generated_Source\PSoC4/isr_uart.c **** }
 1126              		.loc 1 445 0 is_stmt 1 discriminator 3
 1127 0016 181C     		mov	r0, r3
 1128 0018 BD46     		mov	sp, r7
 1129              		@ sp needed for prologue
 1130 001a 80BD     		pop	{r7, pc}
 1131              	.L59:
 1132              		.align	2
 1133              	.L58:
 1134 001c 00E100E0 		.word	-536813312
 1135              		.cfi_endproc
 1136              	.LFE9:
 1137              		.size	isr_uart_GetState, .-isr_uart_GetState
 1138              		.section	.text.isr_uart_Disable,"ax",%progbits
 1139              		.align	2
 1140              		.global	isr_uart_Disable
 1141              		.code	16
 1142              		.thumb_func
 1143              		.type	isr_uart_Disable, %function
 1144              	isr_uart_Disable:
 1145              	.LFB10:
ARM GAS  C:\Users\OEBN\AppData\Local\Temp\ccqGCQsF.s 			page 29


 446:.\Generated_Source\PSoC4/isr_uart.c **** 
 447:.\Generated_Source\PSoC4/isr_uart.c **** 
 448:.\Generated_Source\PSoC4/isr_uart.c **** /*******************************************************************************
 449:.\Generated_Source\PSoC4/isr_uart.c **** * Function Name: isr_uart_Disable
 450:.\Generated_Source\PSoC4/isr_uart.c **** ********************************************************************************
 451:.\Generated_Source\PSoC4/isr_uart.c **** *
 452:.\Generated_Source\PSoC4/isr_uart.c **** * Summary:
 453:.\Generated_Source\PSoC4/isr_uart.c **** *   Disables the Interrupt.
 454:.\Generated_Source\PSoC4/isr_uart.c **** *
 455:.\Generated_Source\PSoC4/isr_uart.c **** * Parameters:
 456:.\Generated_Source\PSoC4/isr_uart.c **** *   None
 457:.\Generated_Source\PSoC4/isr_uart.c **** *
 458:.\Generated_Source\PSoC4/isr_uart.c **** * Return:
 459:.\Generated_Source\PSoC4/isr_uart.c **** *   None
 460:.\Generated_Source\PSoC4/isr_uart.c **** *
 461:.\Generated_Source\PSoC4/isr_uart.c **** *******************************************************************************/
 462:.\Generated_Source\PSoC4/isr_uart.c **** void isr_uart_Disable(void)
 463:.\Generated_Source\PSoC4/isr_uart.c **** {
 1146              		.loc 1 463 0
 1147              		.cfi_startproc
 1148 0000 80B5     		push	{r7, lr}
 1149              	.LCFI25:
 1150              		.cfi_def_cfa_offset 8
 1151              		.cfi_offset 7, -8
 1152              		.cfi_offset 14, -4
 1153 0002 00AF     		add	r7, sp, #0
 1154              	.LCFI26:
 1155              		.cfi_def_cfa_register 7
 464:.\Generated_Source\PSoC4/isr_uart.c ****     /* Disable the general interrupt. */
 465:.\Generated_Source\PSoC4/isr_uart.c ****     *isr_uart_INTC_CLR_EN = isr_uart__INTC_MASK;
 1156              		.loc 1 465 0
 1157 0004 024B     		ldr	r3, .L61
 1158 0006 8022     		mov	r2, #128
 1159 0008 1201     		lsl	r2, r2, #4
 1160 000a 1A60     		str	r2, [r3]
 466:.\Generated_Source\PSoC4/isr_uart.c **** }
 1161              		.loc 1 466 0
 1162 000c BD46     		mov	sp, r7
 1163              		@ sp needed for prologue
 1164 000e 80BD     		pop	{r7, pc}
 1165              	.L62:
 1166              		.align	2
 1167              	.L61:
 1168 0010 80E100E0 		.word	-536813184
 1169              		.cfi_endproc
 1170              	.LFE10:
 1171              		.size	isr_uart_Disable, .-isr_uart_Disable
 1172              		.section	.text.isr_uart_SetPending,"ax",%progbits
 1173              		.align	2
 1174              		.global	isr_uart_SetPending
 1175              		.code	16
 1176              		.thumb_func
 1177              		.type	isr_uart_SetPending, %function
 1178              	isr_uart_SetPending:
 1179              	.LFB11:
 467:.\Generated_Source\PSoC4/isr_uart.c **** 
 468:.\Generated_Source\PSoC4/isr_uart.c **** 
ARM GAS  C:\Users\OEBN\AppData\Local\Temp\ccqGCQsF.s 			page 30


 469:.\Generated_Source\PSoC4/isr_uart.c **** /*******************************************************************************
 470:.\Generated_Source\PSoC4/isr_uart.c **** * Function Name: isr_uart_SetPending
 471:.\Generated_Source\PSoC4/isr_uart.c **** ********************************************************************************
 472:.\Generated_Source\PSoC4/isr_uart.c **** *
 473:.\Generated_Source\PSoC4/isr_uart.c **** * Summary:
 474:.\Generated_Source\PSoC4/isr_uart.c **** *   Causes the Interrupt to enter the pending state, a software method of
 475:.\Generated_Source\PSoC4/isr_uart.c **** *   generating the interrupt.
 476:.\Generated_Source\PSoC4/isr_uart.c **** *
 477:.\Generated_Source\PSoC4/isr_uart.c **** * Parameters:
 478:.\Generated_Source\PSoC4/isr_uart.c **** *   None
 479:.\Generated_Source\PSoC4/isr_uart.c **** *
 480:.\Generated_Source\PSoC4/isr_uart.c **** * Return:
 481:.\Generated_Source\PSoC4/isr_uart.c **** *   None
 482:.\Generated_Source\PSoC4/isr_uart.c **** *
 483:.\Generated_Source\PSoC4/isr_uart.c **** *******************************************************************************/
 484:.\Generated_Source\PSoC4/isr_uart.c **** void isr_uart_SetPending(void)
 485:.\Generated_Source\PSoC4/isr_uart.c **** {
 1180              		.loc 1 485 0
 1181              		.cfi_startproc
 1182 0000 80B5     		push	{r7, lr}
 1183              	.LCFI27:
 1184              		.cfi_def_cfa_offset 8
 1185              		.cfi_offset 7, -8
 1186              		.cfi_offset 14, -4
 1187 0002 00AF     		add	r7, sp, #0
 1188              	.LCFI28:
 1189              		.cfi_def_cfa_register 7
 486:.\Generated_Source\PSoC4/isr_uart.c ****     *isr_uart_INTC_SET_PD = isr_uart__INTC_MASK;
 1190              		.loc 1 486 0
 1191 0004 024B     		ldr	r3, .L64
 1192 0006 8022     		mov	r2, #128
 1193 0008 1201     		lsl	r2, r2, #4
 1194 000a 1A60     		str	r2, [r3]
 487:.\Generated_Source\PSoC4/isr_uart.c **** }
 1195              		.loc 1 487 0
 1196 000c BD46     		mov	sp, r7
 1197              		@ sp needed for prologue
 1198 000e 80BD     		pop	{r7, pc}
 1199              	.L65:
 1200              		.align	2
 1201              	.L64:
 1202 0010 00E200E0 		.word	-536813056
 1203              		.cfi_endproc
 1204              	.LFE11:
 1205              		.size	isr_uart_SetPending, .-isr_uart_SetPending
 1206              		.section	.text.isr_uart_ClearPending,"ax",%progbits
 1207              		.align	2
 1208              		.global	isr_uart_ClearPending
 1209              		.code	16
 1210              		.thumb_func
 1211              		.type	isr_uart_ClearPending, %function
 1212              	isr_uart_ClearPending:
 1213              	.LFB12:
 488:.\Generated_Source\PSoC4/isr_uart.c **** 
 489:.\Generated_Source\PSoC4/isr_uart.c **** 
 490:.\Generated_Source\PSoC4/isr_uart.c **** /*******************************************************************************
 491:.\Generated_Source\PSoC4/isr_uart.c **** * Function Name: isr_uart_ClearPending
ARM GAS  C:\Users\OEBN\AppData\Local\Temp\ccqGCQsF.s 			page 31


 492:.\Generated_Source\PSoC4/isr_uart.c **** ********************************************************************************
 493:.\Generated_Source\PSoC4/isr_uart.c **** *
 494:.\Generated_Source\PSoC4/isr_uart.c **** * Summary:
 495:.\Generated_Source\PSoC4/isr_uart.c **** *   Clears a pending interrupt.
 496:.\Generated_Source\PSoC4/isr_uart.c **** *
 497:.\Generated_Source\PSoC4/isr_uart.c **** * Parameters:
 498:.\Generated_Source\PSoC4/isr_uart.c **** *   None
 499:.\Generated_Source\PSoC4/isr_uart.c **** *
 500:.\Generated_Source\PSoC4/isr_uart.c **** * Return:
 501:.\Generated_Source\PSoC4/isr_uart.c **** *   None
 502:.\Generated_Source\PSoC4/isr_uart.c **** *
 503:.\Generated_Source\PSoC4/isr_uart.c **** *******************************************************************************/
 504:.\Generated_Source\PSoC4/isr_uart.c **** void isr_uart_ClearPending(void)
 505:.\Generated_Source\PSoC4/isr_uart.c **** {
 1214              		.loc 1 505 0
 1215              		.cfi_startproc
 1216 0000 80B5     		push	{r7, lr}
 1217              	.LCFI29:
 1218              		.cfi_def_cfa_offset 8
 1219              		.cfi_offset 7, -8
 1220              		.cfi_offset 14, -4
 1221 0002 00AF     		add	r7, sp, #0
 1222              	.LCFI30:
 1223              		.cfi_def_cfa_register 7
 506:.\Generated_Source\PSoC4/isr_uart.c ****     *isr_uart_INTC_CLR_PD = isr_uart__INTC_MASK;
 1224              		.loc 1 506 0
 1225 0004 024B     		ldr	r3, .L67
 1226 0006 8022     		mov	r2, #128
 1227 0008 1201     		lsl	r2, r2, #4
 1228 000a 1A60     		str	r2, [r3]
 507:.\Generated_Source\PSoC4/isr_uart.c **** }
 1229              		.loc 1 507 0
 1230 000c BD46     		mov	sp, r7
 1231              		@ sp needed for prologue
 1232 000e 80BD     		pop	{r7, pc}
 1233              	.L68:
 1234              		.align	2
 1235              	.L67:
 1236 0010 80E200E0 		.word	-536812928
 1237              		.cfi_endproc
 1238              	.LFE12:
 1239              		.size	isr_uart_ClearPending, .-isr_uart_ClearPending
 1240              		.text
 1241              	.Letext0:
 1242              		.file 2 "c:\\program files (x86)\\cypress\\psoc creator\\3.0\\psoc creator\\import\\gnu_cs\\arm\\4
 1243              		.file 3 "./Generated_Source/PSoC4/cytypes.h"