ARM GAS  C:\Users\OEBN\AppData\Local\Temp\ccqGCQsF.s 			page 1


   1              		.cpu cortex-m0
   2              		.fpu softvfp
   3              		.eabi_attribute 20, 1
   4              		.eabi_attribute 21, 1
   5              		.eabi_attribute 23, 3
   6              		.eabi_attribute 24, 1
   7              		.eabi_attribute 25, 1
   8              		.eabi_attribute 26, 1
   9              		.eabi_attribute 30, 6
  10              		.eabi_attribute 34, 0
  11              		.eabi_attribute 18, 4
  12              		.code	16
  13              		.file	"isr_uart.c"
  14              		.text
  15              	.Ltext0:
  16              		.cfi_sections	.debug_frame
  17              		.global	frameStart
  18              		.bss
  19              		.type	frameStart, %object
  20              		.size	frameStart, 1
  21              	frameStart:
  22 0000 00       		.space	1
  23              		.global	senderID
  24              		.type	senderID, %object
  25              		.size	senderID, 1
  26              	senderID:
  27 0001 00       		.space	1
  28              		.global	senderClass
  29              		.type	senderClass, %object
  30              		.size	senderClass, 1
  31              	senderClass:
  32 0002 00       		.space	1
  33              		.global	frameID
  34              		.type	frameID, %object
  35              		.size	frameID, 1
  36              	frameID:
  37 0003 00       		.space	1
  38              		.global	count
  39              		.align	2
  40              		.type	count, %object
  41              		.size	count, 4
  42              	count:
  43 0004 00000000 		.space	4
  44              		.global	tempcount
  45              		.align	2
  46              		.type	tempcount, %object
  47              		.size	tempcount, 4
  48              	tempcount:
  49 0008 00000000 		.space	4
  50              		.global	byteCount
  51              		.type	byteCount, %object
  52              		.size	byteCount, 1
  53              	byteCount:
  54 000c 00       		.space	1
  55              		.global	channelTime
  56 000d 000000   		.align	2
  57              		.type	channelTime, %object
ARM GAS  C:\Users\OEBN\AppData\Local\Temp\ccqGCQsF.s 			page 2


  58              		.size	channelTime, 16
  59              	channelTime:
  60 0010 00000000 		.space	16
  60      00000000 
  60      00000000 
  60      00000000 
  61              		.section	.text.isr_uart_Start,"ax",%progbits
  62              		.align	2
  63              		.global	isr_uart_Start
  64              		.code	16
  65              		.thumb_func
  66              		.type	isr_uart_Start, %function
  67              	isr_uart_Start:
  68              	.LFB0:
  69              		.file 1 ".\\Generated_Source\\PSoC4\\isr_uart.c"
   1:.\Generated_Source\PSoC4/isr_uart.c **** /*******************************************************************************
   2:.\Generated_Source\PSoC4/isr_uart.c **** * File Name: isr_uart.c  
   3:.\Generated_Source\PSoC4/isr_uart.c **** * Version 1.70
   4:.\Generated_Source\PSoC4/isr_uart.c **** *
   5:.\Generated_Source\PSoC4/isr_uart.c **** *  Description:
   6:.\Generated_Source\PSoC4/isr_uart.c **** *   API for controlling the state of an interrupt.
   7:.\Generated_Source\PSoC4/isr_uart.c **** *
   8:.\Generated_Source\PSoC4/isr_uart.c **** *
   9:.\Generated_Source\PSoC4/isr_uart.c **** *  Note:
  10:.\Generated_Source\PSoC4/isr_uart.c **** *
  11:.\Generated_Source\PSoC4/isr_uart.c **** ********************************************************************************
  12:.\Generated_Source\PSoC4/isr_uart.c **** * Copyright 2008-2012, Cypress Semiconductor Corporation.  All rights reserved.
  13:.\Generated_Source\PSoC4/isr_uart.c **** * You may use this file only in accordance with the license, terms, conditions, 
  14:.\Generated_Source\PSoC4/isr_uart.c **** * disclaimers, and limitations in the end user license agreement accompanying 
  15:.\Generated_Source\PSoC4/isr_uart.c **** * the software package with which this file was provided.
  16:.\Generated_Source\PSoC4/isr_uart.c **** *******************************************************************************/
  17:.\Generated_Source\PSoC4/isr_uart.c **** 
  18:.\Generated_Source\PSoC4/isr_uart.c **** 
  19:.\Generated_Source\PSoC4/isr_uart.c **** #include <cydevice_trm.h>
  20:.\Generated_Source\PSoC4/isr_uart.c **** #include <CyLib.h>
  21:.\Generated_Source\PSoC4/isr_uart.c **** #include <isr_uart.h>
  22:.\Generated_Source\PSoC4/isr_uart.c **** 
  23:.\Generated_Source\PSoC4/isr_uart.c **** #if !defined(isr_uart__REMOVED) /* Check for removal by optimization */
  24:.\Generated_Source\PSoC4/isr_uart.c **** 
  25:.\Generated_Source\PSoC4/isr_uart.c **** /*******************************************************************************
  26:.\Generated_Source\PSoC4/isr_uart.c **** *  Place your includes, defines and code here 
  27:.\Generated_Source\PSoC4/isr_uart.c **** ********************************************************************************/
  28:.\Generated_Source\PSoC4/isr_uart.c **** /* `#START isr_uart_intc` */
  29:.\Generated_Source\PSoC4/isr_uart.c ****     #include <UART_1_spi_uart.h>
  30:.\Generated_Source\PSoC4/isr_uart.c ****     #include <UART_1.h>
  31:.\Generated_Source\PSoC4/isr_uart.c ****     #include <UART_2_spi_uart.h>
  32:.\Generated_Source\PSoC4/isr_uart.c ****     #include <UART_2.h>
  33:.\Generated_Source\PSoC4/isr_uart.c ****     int8_t frameStart = 0;
  34:.\Generated_Source\PSoC4/isr_uart.c ****     int8_t senderID = 0;
  35:.\Generated_Source\PSoC4/isr_uart.c ****     int8_t senderClass = 0;
  36:.\Generated_Source\PSoC4/isr_uart.c ****     int8_t frameID = 0;
  37:.\Generated_Source\PSoC4/isr_uart.c ****     int32_t count = 0;
  38:.\Generated_Source\PSoC4/isr_uart.c ****     int32_t tempcount = 0;
  39:.\Generated_Source\PSoC4/isr_uart.c ****     int8_t byteCount = 0;
  40:.\Generated_Source\PSoC4/isr_uart.c ****     int16_t channelTime[8] = {0,0,0,0,0,0,0,0};
  41:.\Generated_Source\PSoC4/isr_uart.c ****     
  42:.\Generated_Source\PSoC4/isr_uart.c ****     extern uint8_t pwm_light_adj[4];
ARM GAS  C:\Users\OEBN\AppData\Local\Temp\ccqGCQsF.s 			page 3


  43:.\Generated_Source\PSoC4/isr_uart.c ****     
  44:.\Generated_Source\PSoC4/isr_uart.c **** /* `#END` */
  45:.\Generated_Source\PSoC4/isr_uart.c **** 
  46:.\Generated_Source\PSoC4/isr_uart.c **** extern cyisraddress CyRamVectors[CYINT_IRQ_BASE + CY_NUM_INTERRUPTS];
  47:.\Generated_Source\PSoC4/isr_uart.c **** 
  48:.\Generated_Source\PSoC4/isr_uart.c **** /* Declared in startup, used to set unused interrupts to. */
  49:.\Generated_Source\PSoC4/isr_uart.c **** CY_ISR_PROTO(IntDefaultHandler);
  50:.\Generated_Source\PSoC4/isr_uart.c **** 
  51:.\Generated_Source\PSoC4/isr_uart.c **** 
  52:.\Generated_Source\PSoC4/isr_uart.c **** /*******************************************************************************
  53:.\Generated_Source\PSoC4/isr_uart.c **** * Function Name: isr_uart_Start
  54:.\Generated_Source\PSoC4/isr_uart.c **** ********************************************************************************
  55:.\Generated_Source\PSoC4/isr_uart.c **** *
  56:.\Generated_Source\PSoC4/isr_uart.c **** * Summary:
  57:.\Generated_Source\PSoC4/isr_uart.c **** *  Set up the interrupt and enable it.
  58:.\Generated_Source\PSoC4/isr_uart.c **** *
  59:.\Generated_Source\PSoC4/isr_uart.c **** * Parameters:  
  60:.\Generated_Source\PSoC4/isr_uart.c **** *   None
  61:.\Generated_Source\PSoC4/isr_uart.c **** *
  62:.\Generated_Source\PSoC4/isr_uart.c **** * Return:
  63:.\Generated_Source\PSoC4/isr_uart.c **** *   None
  64:.\Generated_Source\PSoC4/isr_uart.c **** *
  65:.\Generated_Source\PSoC4/isr_uart.c **** *******************************************************************************/
  66:.\Generated_Source\PSoC4/isr_uart.c **** void isr_uart_Start(void)
  67:.\Generated_Source\PSoC4/isr_uart.c **** {
  70              		.loc 1 67 0
  71              		.cfi_startproc
  72 0000 80B5     		push	{r7, lr}
  73              	.LCFI0:
  74              		.cfi_def_cfa_offset 8
  75              		.cfi_offset 7, -8
  76              		.cfi_offset 14, -4
  77 0002 00AF     		add	r7, sp, #0
  78              	.LCFI1:
  79              		.cfi_def_cfa_register 7
  68:.\Generated_Source\PSoC4/isr_uart.c ****     /* For all we know the interrupt is active. */
  69:.\Generated_Source\PSoC4/isr_uart.c ****     isr_uart_Disable();
  80              		.loc 1 69 0
  81 0004 FFF7FEFF 		bl	isr_uart_Disable
  70:.\Generated_Source\PSoC4/isr_uart.c **** 
  71:.\Generated_Source\PSoC4/isr_uart.c ****     /* Set the ISR to point to the isr_uart Interrupt. */
  72:.\Generated_Source\PSoC4/isr_uart.c ****     isr_uart_SetVector(&isr_uart_Interrupt);
  82              		.loc 1 72 0
  83 0008 054B     		ldr	r3, .L2
  84 000a 181C     		mov	r0, r3
  85 000c FFF7FEFF 		bl	isr_uart_SetVector
  73:.\Generated_Source\PSoC4/isr_uart.c **** 
  74:.\Generated_Source\PSoC4/isr_uart.c ****     /* Set the priority. */
  75:.\Generated_Source\PSoC4/isr_uart.c ****     isr_uart_SetPriority((uint8)isr_uart_INTC_PRIOR_NUMBER);
  86              		.loc 1 75 0
  87 0010 0320     		mov	r0, #3
  88 0012 FFF7FEFF 		bl	isr_uart_SetPriority
  76:.\Generated_Source\PSoC4/isr_uart.c **** 
  77:.\Generated_Source\PSoC4/isr_uart.c ****     /* Enable it. */
  78:.\Generated_Source\PSoC4/isr_uart.c ****     isr_uart_Enable();
  89              		.loc 1 78 0
  90 0016 FFF7FEFF 		bl	isr_uart_Enable
ARM GAS  C:\Users\OEBN\AppData\Local\Temp\ccqGCQsF.s 			page 4


  79:.\Generated_Source\PSoC4/isr_uart.c **** }
  91              		.loc 1 79 0
  92 001a BD46     		mov	sp, r7
  93              		@ sp needed for prologue
  94 001c 80BD     		pop	{r7, pc}
  95              	.L3:
  96 001e C046     		.align	2
  97              	.L2:
  98 0020 00000000 		.word	isr_uart_Interrupt
  99              		.cfi_endproc
 100              	.LFE0:
 101              		.size	isr_uart_Start, .-isr_uart_Start
 102              		.section	.text.isr_uart_StartEx,"ax",%progbits
 103              		.align	2
 104              		.global	isr_uart_StartEx
 105              		.code	16
 106              		.thumb_func
 107              		.type	isr_uart_StartEx, %function
 108              	isr_uart_StartEx:
 109              	.LFB1:
  80:.\Generated_Source\PSoC4/isr_uart.c **** 
  81:.\Generated_Source\PSoC4/isr_uart.c **** 
  82:.\Generated_Source\PSoC4/isr_uart.c **** /*******************************************************************************
  83:.\Generated_Source\PSoC4/isr_uart.c **** * Function Name: isr_uart_StartEx
  84:.\Generated_Source\PSoC4/isr_uart.c **** ********************************************************************************
  85:.\Generated_Source\PSoC4/isr_uart.c **** *
  86:.\Generated_Source\PSoC4/isr_uart.c **** * Summary:
  87:.\Generated_Source\PSoC4/isr_uart.c **** *  Set up the interrupt and enable it.
  88:.\Generated_Source\PSoC4/isr_uart.c **** *
  89:.\Generated_Source\PSoC4/isr_uart.c **** * Parameters:  
  90:.\Generated_Source\PSoC4/isr_uart.c **** *   address: Address of the ISR to set in the interrupt vector table.
  91:.\Generated_Source\PSoC4/isr_uart.c **** *
  92:.\Generated_Source\PSoC4/isr_uart.c **** * Return:
  93:.\Generated_Source\PSoC4/isr_uart.c **** *   None
  94:.\Generated_Source\PSoC4/isr_uart.c **** *
  95:.\Generated_Source\PSoC4/isr_uart.c **** *******************************************************************************/
  96:.\Generated_Source\PSoC4/isr_uart.c **** void isr_uart_StartEx(cyisraddress address)
  97:.\Generated_Source\PSoC4/isr_uart.c **** {
 110              		.loc 1 97 0
 111              		.cfi_startproc
 112 0000 80B5     		push	{r7, lr}
 113              	.LCFI2:
 114              		.cfi_def_cfa_offset 8
 115              		.cfi_offset 7, -8
 116              		.cfi_offset 14, -4
 117 0002 82B0     		sub	sp, sp, #8
 118              	.LCFI3:
 119              		.cfi_def_cfa_offset 16
 120 0004 00AF     		add	r7, sp, #0
 121              	.LCFI4:
 122              		.cfi_def_cfa_register 7
 123 0006 7860     		str	r0, [r7, #4]
  98:.\Generated_Source\PSoC4/isr_uart.c ****     /* For all we know the interrupt is active. */
  99:.\Generated_Source\PSoC4/isr_uart.c ****     isr_uart_Disable();
 124              		.loc 1 99 0
 125 0008 FFF7FEFF 		bl	isr_uart_Disable
 100:.\Generated_Source\PSoC4/isr_uart.c **** 
ARM GAS  C:\Users\OEBN\AppData\Local\Temp\ccqGCQsF.s 			page 5


 101:.\Generated_Source\PSoC4/isr_uart.c ****     /* Set the ISR to point to the isr_uart Interrupt. */
 102:.\Generated_Source\PSoC4/isr_uart.c ****     isr_uart_SetVector(address);
 126              		.loc 1 102 0
 127 000c 7B68     		ldr	r3, [r7, #4]
 128 000e 181C     		mov	r0, r3
 129 0010 FFF7FEFF 		bl	isr_uart_SetVector
 103:.\Generated_Source\PSoC4/isr_uart.c **** 
 104:.\Generated_Source\PSoC4/isr_uart.c ****     /* Set the priority. */
 105:.\Generated_Source\PSoC4/isr_uart.c ****     isr_uart_SetPriority((uint8)isr_uart_INTC_PRIOR_NUMBER);
 130              		.loc 1 105 0
 131 0014 0320     		mov	r0, #3
 132 0016 FFF7FEFF 		bl	isr_uart_SetPriority
 106:.\Generated_Source\PSoC4/isr_uart.c **** 
 107:.\Generated_Source\PSoC4/isr_uart.c ****     /* Enable it. */
 108:.\Generated_Source\PSoC4/isr_uart.c ****     isr_uart_Enable();
 133              		.loc 1 108 0
 134 001a FFF7FEFF 		bl	isr_uart_Enable
 109:.\Generated_Source\PSoC4/isr_uart.c **** }
 135              		.loc 1 109 0
 136 001e BD46     		mov	sp, r7
 137 0020 02B0     		add	sp, sp, #8
 138              		@ sp needed for prologue
 139 0022 80BD     		pop	{r7, pc}
 140              		.cfi_endproc
 141              	.LFE1:
 142              		.size	isr_uart_StartEx, .-isr_uart_StartEx
 143              		.section	.text.isr_uart_Stop,"ax",%progbits
 144              		.align	2
 145              		.global	isr_uart_Stop
 146              		.code	16
 147              		.thumb_func
 148              		.type	isr_uart_Stop, %function
 149              	isr_uart_Stop:
 150              	.LFB2:
 110:.\Generated_Source\PSoC4/isr_uart.c **** 
 111:.\Generated_Source\PSoC4/isr_uart.c **** 
 112:.\Generated_Source\PSoC4/isr_uart.c **** /*******************************************************************************
 113:.\Generated_Source\PSoC4/isr_uart.c **** * Function Name: isr_uart_Stop
 114:.\Generated_Source\PSoC4/isr_uart.c **** ********************************************************************************
 115:.\Generated_Source\PSoC4/isr_uart.c **** *
 116:.\Generated_Source\PSoC4/isr_uart.c **** * Summary:
 117:.\Generated_Source\PSoC4/isr_uart.c **** *   Disables and removes the interrupt.
 118:.\Generated_Source\PSoC4/isr_uart.c **** *
 119:.\Generated_Source\PSoC4/isr_uart.c **** * Parameters:  
 120:.\Generated_Source\PSoC4/isr_uart.c **** *
 121:.\Generated_Source\PSoC4/isr_uart.c **** * Return:
 122:.\Generated_Source\PSoC4/isr_uart.c **** *   None
 123:.\Generated_Source\PSoC4/isr_uart.c **** *
 124:.\Generated_Source\PSoC4/isr_uart.c **** *******************************************************************************/
 125:.\Generated_Source\PSoC4/isr_uart.c **** void isr_uart_Stop(void)
 126:.\Generated_Source\PSoC4/isr_uart.c **** {
 151              		.loc 1 126 0
 152              		.cfi_startproc
 153 0000 80B5     		push	{r7, lr}
 154              	.LCFI5:
 155              		.cfi_def_cfa_offset 8
 156              		.cfi_offset 7, -8
ARM GAS  C:\Users\OEBN\AppData\Local\Temp\ccqGCQsF.s 			page 6


 157              		.cfi_offset 14, -4
 158 0002 00AF     		add	r7, sp, #0
 159              	.LCFI6:
 160              		.cfi_def_cfa_register 7
 127:.\Generated_Source\PSoC4/isr_uart.c ****     /* Disable this interrupt. */
 128:.\Generated_Source\PSoC4/isr_uart.c ****     isr_uart_Disable();
 161              		.loc 1 128 0
 162 0004 FFF7FEFF 		bl	isr_uart_Disable
 129:.\Generated_Source\PSoC4/isr_uart.c **** 
 130:.\Generated_Source\PSoC4/isr_uart.c ****     /* Set the ISR to point to the passive one. */
 131:.\Generated_Source\PSoC4/isr_uart.c ****     isr_uart_SetVector(&IntDefaultHandler);
 163              		.loc 1 131 0
 164 0008 024B     		ldr	r3, .L6
 165 000a 181C     		mov	r0, r3
 166 000c FFF7FEFF 		bl	isr_uart_SetVector
 132:.\Generated_Source\PSoC4/isr_uart.c **** }
 167              		.loc 1 132 0
 168 0010 BD46     		mov	sp, r7
 169              		@ sp needed for prologue
 170 0012 80BD     		pop	{r7, pc}
 171              	.L7:
 172              		.align	2
 173              	.L6:
 174 0014 00000000 		.word	IntDefaultHandler
 175              		.cfi_endproc
 176              	.LFE2:
 177              		.size	isr_uart_Stop, .-isr_uart_Stop
 178              		.global	__aeabi_idiv
 179              		.section	.text.isr_uart_Interrupt,"ax",%progbits
 180              		.align	2
 181              		.global	isr_uart_Interrupt
 182              		.code	16
 183              		.thumb_func
 184              		.type	isr_uart_Interrupt, %function
 185              	isr_uart_Interrupt:
 186              	.LFB3:
 133:.\Generated_Source\PSoC4/isr_uart.c **** 
 134:.\Generated_Source\PSoC4/isr_uart.c **** 
 135:.\Generated_Source\PSoC4/isr_uart.c **** /*******************************************************************************
 136:.\Generated_Source\PSoC4/isr_uart.c **** * Function Name: isr_uart_Interrupt
 137:.\Generated_Source\PSoC4/isr_uart.c **** ********************************************************************************
 138:.\Generated_Source\PSoC4/isr_uart.c **** *
 139:.\Generated_Source\PSoC4/isr_uart.c **** * Summary:
 140:.\Generated_Source\PSoC4/isr_uart.c **** *   The default Interrupt Service Routine for isr_uart.
 141:.\Generated_Source\PSoC4/isr_uart.c **** *
 142:.\Generated_Source\PSoC4/isr_uart.c **** *   Add custom code between the coments to keep the next version of this file
 143:.\Generated_Source\PSoC4/isr_uart.c **** *   from over writting your code.
 144:.\Generated_Source\PSoC4/isr_uart.c **** *
 145:.\Generated_Source\PSoC4/isr_uart.c **** * Parameters:  
 146:.\Generated_Source\PSoC4/isr_uart.c **** *   None
 147:.\Generated_Source\PSoC4/isr_uart.c **** *
 148:.\Generated_Source\PSoC4/isr_uart.c **** * Return:
 149:.\Generated_Source\PSoC4/isr_uart.c **** *   None
 150:.\Generated_Source\PSoC4/isr_uart.c **** *
 151:.\Generated_Source\PSoC4/isr_uart.c **** *******************************************************************************/
 152:.\Generated_Source\PSoC4/isr_uart.c **** CY_ISR(isr_uart_Interrupt)
 153:.\Generated_Source\PSoC4/isr_uart.c **** {
ARM GAS  C:\Users\OEBN\AppData\Local\Temp\ccqGCQsF.s 			page 7


 187              		.loc 1 153 0
 188              		.cfi_startproc
 189 0000 90B5     		push	{r4, r7, lr}
 190              	.LCFI7:
 191              		.cfi_def_cfa_offset 12
 192              		.cfi_offset 4, -12
 193              		.cfi_offset 7, -8
 194              		.cfi_offset 14, -4
 195 0002 83B0     		sub	sp, sp, #12
 196              	.LCFI8:
 197              		.cfi_def_cfa_offset 24
 198 0004 00AF     		add	r7, sp, #0
 199              	.LCFI9:
 200              		.cfi_def_cfa_register 7
 154:.\Generated_Source\PSoC4/isr_uart.c ****     /*  Place your Interrupt code here. */
 155:.\Generated_Source\PSoC4/isr_uart.c ****     /* `#START isr_uart_Interrupt` */
 156:.\Generated_Source\PSoC4/isr_uart.c ****     uint32 rxdata;
 157:.\Generated_Source\PSoC4/isr_uart.c ****     uint8_t i;
 158:.\Generated_Source\PSoC4/isr_uart.c ****     //rxdata = UART_1_STATUS_REG;
 159:.\Generated_Source\PSoC4/isr_uart.c ****     
 160:.\Generated_Source\PSoC4/isr_uart.c ****     //PWM_WriteCompare(20);
 161:.\Generated_Source\PSoC4/isr_uart.c ****     //UART_2_UartPutChar(0x11);
 162:.\Generated_Source\PSoC4/isr_uart.c ****     rxdata = UART_1_UartGetChar();
 201              		.loc 1 162 0
 202 0006 FFF7FEFF 		bl	UART_1_UartGetChar
 203 000a 031C     		mov	r3, r0
 204 000c 3B60     		str	r3, [r7]
 163:.\Generated_Source\PSoC4/isr_uart.c ****     isr_uart_ClearPending();
 205              		.loc 1 163 0
 206 000e FFF7FEFF 		bl	isr_uart_ClearPending
 164:.\Generated_Source\PSoC4/isr_uart.c ****     UART_1_ClearRxInterruptSource(UART_1_INTR_RX_ALL);
 207              		.loc 1 164 0
 208 0012 D54B     		ldr	r3, .L33
 209 0014 D54A     		ldr	r2, .L33+4
 210 0016 1A60     		str	r2, [r3]
 165:.\Generated_Source\PSoC4/isr_uart.c ****     count++;
 211              		.loc 1 165 0
 212 0018 D54B     		ldr	r3, .L33+8
 213 001a 1B68     		ldr	r3, [r3]
 214 001c 5A1C     		add	r2, r3, #1
 215 001e D44B     		ldr	r3, .L33+8
 216 0020 1A60     		str	r2, [r3]
 166:.\Generated_Source\PSoC4/isr_uart.c ****     if (rxdata == 0xFE)
 217              		.loc 1 166 0
 218 0022 3B68     		ldr	r3, [r7]
 219 0024 FE2B     		cmp	r3, #254
 220 0026 13D1     		bne	.L9
 167:.\Generated_Source\PSoC4/isr_uart.c ****     {
 168:.\Generated_Source\PSoC4/isr_uart.c ****         tempcount = count;
 221              		.loc 1 168 0
 222 0028 D14B     		ldr	r3, .L33+8
 223 002a 1A68     		ldr	r2, [r3]
 224 002c D14B     		ldr	r3, .L33+12
 225 002e 1A60     		str	r2, [r3]
 169:.\Generated_Source\PSoC4/isr_uart.c ****         frameStart = 1;
 226              		.loc 1 169 0
 227 0030 D14B     		ldr	r3, .L33+16
ARM GAS  C:\Users\OEBN\AppData\Local\Temp\ccqGCQsF.s 			page 8


 228 0032 0122     		mov	r2, #1
 229 0034 1A70     		strb	r2, [r3]
 170:.\Generated_Source\PSoC4/isr_uart.c ****         senderID = 0;
 230              		.loc 1 170 0
 231 0036 D14B     		ldr	r3, .L33+20
 232 0038 0022     		mov	r2, #0
 233 003a 1A70     		strb	r2, [r3]
 171:.\Generated_Source\PSoC4/isr_uart.c ****         senderClass=0;
 234              		.loc 1 171 0
 235 003c D04B     		ldr	r3, .L33+24
 236 003e 0022     		mov	r2, #0
 237 0040 1A70     		strb	r2, [r3]
 172:.\Generated_Source\PSoC4/isr_uart.c ****         frameID = 0;
 238              		.loc 1 172 0
 239 0042 D04B     		ldr	r3, .L33+28
 240 0044 0022     		mov	r2, #0
 241 0046 1A70     		strb	r2, [r3]
 173:.\Generated_Source\PSoC4/isr_uart.c ****         byteCount = 0;
 242              		.loc 1 173 0
 243 0048 CF4B     		ldr	r3, .L33+32
 244 004a 0022     		mov	r2, #0
 245 004c 1A70     		strb	r2, [r3]
 246 004e F3E1     		b	.L10
 247              	.L9:
 174:.\Generated_Source\PSoC4/isr_uart.c ****         //UART_2_UartPutChar('1');
 175:.\Generated_Source\PSoC4/isr_uart.c ****     }else  if (rxdata == 0x01 && frameStart == 1 && senderID == 0 && count == tempcount + 3)
 248              		.loc 1 175 0
 249 0050 3B68     		ldr	r3, [r7]
 250 0052 012B     		cmp	r3, #1
 251 0054 19D1     		bne	.L11
 252              		.loc 1 175 0 is_stmt 0 discriminator 1
 253 0056 C84B     		ldr	r3, .L33+16
 254 0058 1B78     		ldrb	r3, [r3]
 255 005a 5BB2     		sxtb	r3, r3
 256 005c 012B     		cmp	r3, #1
 257 005e 14D1     		bne	.L11
 258 0060 C64B     		ldr	r3, .L33+20
 259 0062 1B78     		ldrb	r3, [r3]
 260 0064 002B     		cmp	r3, #0
 261 0066 10D1     		bne	.L11
 262 0068 C24B     		ldr	r3, .L33+12
 263 006a 1B68     		ldr	r3, [r3]
 264 006c DA1C     		add	r2, r3, #3
 265 006e C04B     		ldr	r3, .L33+8
 266 0070 1B68     		ldr	r3, [r3]
 267 0072 9A42     		cmp	r2, r3
 268 0074 09D1     		bne	.L11
 176:.\Generated_Source\PSoC4/isr_uart.c ****     {
 177:.\Generated_Source\PSoC4/isr_uart.c ****         senderID = 1;
 269              		.loc 1 177 0 is_stmt 1
 270 0076 C14B     		ldr	r3, .L33+20
 271 0078 0122     		mov	r2, #1
 272 007a 1A70     		strb	r2, [r3]
 178:.\Generated_Source\PSoC4/isr_uart.c ****         senderClass=0;
 273              		.loc 1 178 0
 274 007c C04B     		ldr	r3, .L33+24
 275 007e 0022     		mov	r2, #0
ARM GAS  C:\Users\OEBN\AppData\Local\Temp\ccqGCQsF.s 			page 9


 276 0080 1A70     		strb	r2, [r3]
 179:.\Generated_Source\PSoC4/isr_uart.c ****         frameID = 0;
 277              		.loc 1 179 0
 278 0082 C04B     		ldr	r3, .L33+28
 279 0084 0022     		mov	r2, #0
 280 0086 1A70     		strb	r2, [r3]
 281 0088 D6E1     		b	.L10
 282              	.L11:
 180:.\Generated_Source\PSoC4/isr_uart.c ****         //UART_2_UartPutChar('2');
 181:.\Generated_Source\PSoC4/isr_uart.c ****     }else  if (rxdata == 0x01 && frameStart == 1 && senderID == 1 && senderClass == 0 && count == t
 283              		.loc 1 181 0
 284 008a 3B68     		ldr	r3, [r7]
 285 008c 012B     		cmp	r3, #1
 286 008e 1BD1     		bne	.L12
 287              		.loc 1 181 0 is_stmt 0 discriminator 1
 288 0090 B94B     		ldr	r3, .L33+16
 289 0092 1B78     		ldrb	r3, [r3]
 290 0094 5BB2     		sxtb	r3, r3
 291 0096 012B     		cmp	r3, #1
 292 0098 16D1     		bne	.L12
 293 009a B84B     		ldr	r3, .L33+20
 294 009c 1B78     		ldrb	r3, [r3]
 295 009e 5BB2     		sxtb	r3, r3
 296 00a0 012B     		cmp	r3, #1
 297 00a2 11D1     		bne	.L12
 298 00a4 B64B     		ldr	r3, .L33+24
 299 00a6 1B78     		ldrb	r3, [r3]
 300 00a8 002B     		cmp	r3, #0
 301 00aa 0DD1     		bne	.L12
 302 00ac B14B     		ldr	r3, .L33+12
 303 00ae 1B68     		ldr	r3, [r3]
 304 00b0 1A1D     		add	r2, r3, #4
 305 00b2 AF4B     		ldr	r3, .L33+8
 306 00b4 1B68     		ldr	r3, [r3]
 307 00b6 9A42     		cmp	r2, r3
 308 00b8 06D1     		bne	.L12
 182:.\Generated_Source\PSoC4/isr_uart.c ****     {
 183:.\Generated_Source\PSoC4/isr_uart.c ****         senderClass=1;
 309              		.loc 1 183 0 is_stmt 1
 310 00ba B14B     		ldr	r3, .L33+24
 311 00bc 0122     		mov	r2, #1
 312 00be 1A70     		strb	r2, [r3]
 184:.\Generated_Source\PSoC4/isr_uart.c ****         frameID = 0;
 313              		.loc 1 184 0
 314 00c0 B04B     		ldr	r3, .L33+28
 315 00c2 0022     		mov	r2, #0
 316 00c4 1A70     		strb	r2, [r3]
 317 00c6 B7E1     		b	.L10
 318              	.L12:
 185:.\Generated_Source\PSoC4/isr_uart.c ****         //UART_2_UartPutChar('3');
 186:.\Generated_Source\PSoC4/isr_uart.c ****     }else  if (rxdata == 0x23 && frameStart == 1 && senderID == 1 && senderClass == 1 && frameID ==
 319              		.loc 1 186 0
 320 00c8 3B68     		ldr	r3, [r7]
 321 00ca 232B     		cmp	r3, #35
 322 00cc 1DD1     		bne	.L13
 323              		.loc 1 186 0 is_stmt 0 discriminator 1
 324 00ce AA4B     		ldr	r3, .L33+16
ARM GAS  C:\Users\OEBN\AppData\Local\Temp\ccqGCQsF.s 			page 10


 325 00d0 1B78     		ldrb	r3, [r3]
 326 00d2 5BB2     		sxtb	r3, r3
 327 00d4 012B     		cmp	r3, #1
 328 00d6 18D1     		bne	.L13
 329 00d8 A84B     		ldr	r3, .L33+20
 330 00da 1B78     		ldrb	r3, [r3]
 331 00dc 5BB2     		sxtb	r3, r3
 332 00de 012B     		cmp	r3, #1
 333 00e0 13D1     		bne	.L13
 334 00e2 A74B     		ldr	r3, .L33+24
 335 00e4 1B78     		ldrb	r3, [r3]
 336 00e6 5BB2     		sxtb	r3, r3
 337 00e8 012B     		cmp	r3, #1
 338 00ea 0ED1     		bne	.L13
 339 00ec A54B     		ldr	r3, .L33+28
 340 00ee 1B78     		ldrb	r3, [r3]
 341 00f0 002B     		cmp	r3, #0
 342 00f2 0AD1     		bne	.L13
 343 00f4 9F4B     		ldr	r3, .L33+12
 344 00f6 1B68     		ldr	r3, [r3]
 345 00f8 5A1D     		add	r2, r3, #5
 346 00fa 9D4B     		ldr	r3, .L33+8
 347 00fc 1B68     		ldr	r3, [r3]
 348 00fe 9A42     		cmp	r2, r3
 349 0100 03D1     		bne	.L13
 187:.\Generated_Source\PSoC4/isr_uart.c ****     {
 188:.\Generated_Source\PSoC4/isr_uart.c ****         frameID = 1;
 350              		.loc 1 188 0 is_stmt 1
 351 0102 A04B     		ldr	r3, .L33+28
 352 0104 0122     		mov	r2, #1
 353 0106 1A70     		strb	r2, [r3]
 354 0108 96E1     		b	.L10
 355              	.L13:
 189:.\Generated_Source\PSoC4/isr_uart.c ****         //UART_2_UartPutChar('4');
 190:.\Generated_Source\PSoC4/isr_uart.c ****     }else  if (frameStart == 1 && senderID == 1 && senderClass == 1 && frameID == 1 && count >= tem
 356              		.loc 1 190 0
 357 010a 9B4B     		ldr	r3, .L33+16
 358 010c 1B78     		ldrb	r3, [r3]
 359 010e 5BB2     		sxtb	r3, r3
 360 0110 012B     		cmp	r3, #1
 361 0112 00D0     		beq	.LCB253
 362 0114 90E1     		b	.L10	@long jump
 363              	.LCB253:
 364              		.loc 1 190 0 is_stmt 0 discriminator 1
 365 0116 994B     		ldr	r3, .L33+20
 366 0118 1B78     		ldrb	r3, [r3]
 367 011a 5BB2     		sxtb	r3, r3
 368 011c 012B     		cmp	r3, #1
 369 011e 00D0     		beq	.LCB258
 370 0120 8AE1     		b	.L10	@long jump
 371              	.LCB258:
 372 0122 974B     		ldr	r3, .L33+24
 373 0124 1B78     		ldrb	r3, [r3]
 374 0126 5BB2     		sxtb	r3, r3
 375 0128 012B     		cmp	r3, #1
 376 012a 00D0     		beq	.LCB263
 377 012c 84E1     		b	.L10	@long jump
ARM GAS  C:\Users\OEBN\AppData\Local\Temp\ccqGCQsF.s 			page 11


 378              	.LCB263:
 379 012e 954B     		ldr	r3, .L33+28
 380 0130 1B78     		ldrb	r3, [r3]
 381 0132 5BB2     		sxtb	r3, r3
 382 0134 012B     		cmp	r3, #1
 383 0136 00D0     		beq	.LCB268
 384 0138 7EE1     		b	.L10	@long jump
 385              	.LCB268:
 386 013a 8E4B     		ldr	r3, .L33+12
 387 013c 1B68     		ldr	r3, [r3]
 388 013e 1A1C     		mov	r2, r3
 389 0140 0A32     		add	r2, r2, #10
 390 0142 8B4B     		ldr	r3, .L33+8
 391 0144 1B68     		ldr	r3, [r3]
 392 0146 9A42     		cmp	r2, r3
 393 0148 00DD     		ble	.LCB276
 394 014a 75E1     		b	.L10	@long jump
 395              	.LCB276:
 191:.\Generated_Source\PSoC4/isr_uart.c ****     {
 192:.\Generated_Source\PSoC4/isr_uart.c ****         byteCount++;
 396              		.loc 1 192 0 is_stmt 1
 397 014c 8E4B     		ldr	r3, .L33+32
 398 014e 1B78     		ldrb	r3, [r3]
 399 0150 0133     		add	r3, r3, #1
 400 0152 DAB2     		uxtb	r2, r3
 401 0154 8C4B     		ldr	r3, .L33+32
 402 0156 1A70     		strb	r2, [r3]
 193:.\Generated_Source\PSoC4/isr_uart.c ****         //UART_1_UartPutChar(byteCount);
 194:.\Generated_Source\PSoC4/isr_uart.c ****         switch (byteCount)
 403              		.loc 1 194 0
 404 0158 8B4B     		ldr	r3, .L33+32
 405 015a 1B78     		ldrb	r3, [r3]
 406 015c 5BB2     		sxtb	r3, r3
 407 015e 102B     		cmp	r3, #16
 408 0160 00D9     		bls	.LCB287
 409 0162 69E1     		b	.L10	@long jump
 410              	.LCB287:
 411 0164 9A00     		lsl	r2, r3, #2
 412 0166 894B     		ldr	r3, .L33+36
 413 0168 D318     		add	r3, r2, r3
 414 016a 1B68     		ldr	r3, [r3]
 415 016c 9F46     		mov	pc, r3
 416              		.section	.rodata
 417              		.align	2
 418              	.L30:
 419 0000 38040000 		.word	.L10
 420 0004 6E010000 		.word	.L14
 421 0008 78010000 		.word	.L15
 422 000c B6010000 		.word	.L16
 423 0010 C0010000 		.word	.L17
 424 0014 FE010000 		.word	.L18
 425 0018 08020000 		.word	.L19
 426 001c 46020000 		.word	.L20
 427 0020 50020000 		.word	.L21
 428 0024 8E020000 		.word	.L22
 429 0028 98020000 		.word	.L23
 430 002c D6020000 		.word	.L24
ARM GAS  C:\Users\OEBN\AppData\Local\Temp\ccqGCQsF.s 			page 12


 431 0030 E0020000 		.word	.L25
 432 0034 1E030000 		.word	.L26
 433 0038 28030000 		.word	.L27
 434 003c 94030000 		.word	.L28
 435 0040 9E030000 		.word	.L29
 436              		.section	.text.isr_uart_Interrupt
 437              	.L14:
 195:.\Generated_Source\PSoC4/isr_uart.c ****         {
 196:.\Generated_Source\PSoC4/isr_uart.c ****             case 1:
 197:.\Generated_Source\PSoC4/isr_uart.c ****                 channelTime[0] = rxdata;
 438              		.loc 1 197 0
 439 016e 3B68     		ldr	r3, [r7]
 440 0170 9AB2     		uxth	r2, r3
 441 0172 874B     		ldr	r3, .L33+40
 442 0174 1A80     		strh	r2, [r3]
 198:.\Generated_Source\PSoC4/isr_uart.c ****                 break;
 443              		.loc 1 198 0
 444 0176 5FE1     		b	.L10
 445              	.L15:
 199:.\Generated_Source\PSoC4/isr_uart.c ****             
 200:.\Generated_Source\PSoC4/isr_uart.c ****             case 2:
 201:.\Generated_Source\PSoC4/isr_uart.c ****                 channelTime[0] |= rxdata << 8;
 446              		.loc 1 201 0
 447 0178 854B     		ldr	r3, .L33+40
 448 017a 1B88     		ldrh	r3, [r3]
 449 017c 9AB2     		uxth	r2, r3
 450 017e 3B68     		ldr	r3, [r7]
 451 0180 9BB2     		uxth	r3, r3
 452 0182 1B02     		lsl	r3, r3, #8
 453 0184 9BB2     		uxth	r3, r3
 454 0186 1343     		orr	r3, r2
 455 0188 9BB2     		uxth	r3, r3
 456 018a 9AB2     		uxth	r2, r3
 457 018c 804B     		ldr	r3, .L33+40
 458 018e 1A80     		strh	r2, [r3]
 202:.\Generated_Source\PSoC4/isr_uart.c ****                 UART_2_UartPutChar('1');
 459              		.loc 1 202 0
 460 0190 3120     		mov	r0, #49
 461 0192 FFF7FEFF 		bl	UART_2_SpiUartWriteTxData
 203:.\Generated_Source\PSoC4/isr_uart.c ****                 UART_2_UartPutChar((uint8_t) (channelTime[0]>>8));
 462              		.loc 1 203 0
 463 0196 7E4B     		ldr	r3, .L33+40
 464 0198 1B88     		ldrh	r3, [r3]
 465 019a 1BB2     		sxth	r3, r3
 466 019c 1B12     		asr	r3, r3, #8
 467 019e 9BB2     		uxth	r3, r3
 468 01a0 DBB2     		uxtb	r3, r3
 469 01a2 181C     		mov	r0, r3
 470 01a4 FFF7FEFF 		bl	UART_2_SpiUartWriteTxData
 204:.\Generated_Source\PSoC4/isr_uart.c ****                 UART_2_UartPutChar((uint8_t) channelTime[0]);
 471              		.loc 1 204 0
 472 01a8 794B     		ldr	r3, .L33+40
 473 01aa 1B88     		ldrh	r3, [r3]
 474 01ac DBB2     		uxtb	r3, r3
 475 01ae 181C     		mov	r0, r3
 476 01b0 FFF7FEFF 		bl	UART_2_SpiUartWriteTxData
 205:.\Generated_Source\PSoC4/isr_uart.c ****                 break;
ARM GAS  C:\Users\OEBN\AppData\Local\Temp\ccqGCQsF.s 			page 13


 477              		.loc 1 205 0
 478 01b4 40E1     		b	.L10
 479              	.L16:
 206:.\Generated_Source\PSoC4/isr_uart.c ****             case 3:
 207:.\Generated_Source\PSoC4/isr_uart.c ****                 channelTime[1] = rxdata;
 480              		.loc 1 207 0
 481 01b6 3B68     		ldr	r3, [r7]
 482 01b8 9AB2     		uxth	r2, r3
 483 01ba 754B     		ldr	r3, .L33+40
 484 01bc 5A80     		strh	r2, [r3, #2]
 208:.\Generated_Source\PSoC4/isr_uart.c ****                 break;
 485              		.loc 1 208 0
 486 01be 3BE1     		b	.L10
 487              	.L17:
 209:.\Generated_Source\PSoC4/isr_uart.c ****             
 210:.\Generated_Source\PSoC4/isr_uart.c ****             case 4:
 211:.\Generated_Source\PSoC4/isr_uart.c ****                 channelTime[1] |= rxdata << 8;
 488              		.loc 1 211 0
 489 01c0 734B     		ldr	r3, .L33+40
 490 01c2 5B88     		ldrh	r3, [r3, #2]
 491 01c4 9AB2     		uxth	r2, r3
 492 01c6 3B68     		ldr	r3, [r7]
 493 01c8 9BB2     		uxth	r3, r3
 494 01ca 1B02     		lsl	r3, r3, #8
 495 01cc 9BB2     		uxth	r3, r3
 496 01ce 1343     		orr	r3, r2
 497 01d0 9BB2     		uxth	r3, r3
 498 01d2 9AB2     		uxth	r2, r3
 499 01d4 6E4B     		ldr	r3, .L33+40
 500 01d6 5A80     		strh	r2, [r3, #2]
 212:.\Generated_Source\PSoC4/isr_uart.c ****                 UART_2_UartPutChar('2');
 501              		.loc 1 212 0
 502 01d8 3220     		mov	r0, #50
 503 01da FFF7FEFF 		bl	UART_2_SpiUartWriteTxData
 213:.\Generated_Source\PSoC4/isr_uart.c ****                 UART_2_UartPutChar((uint8_t) (channelTime[1]>>8));
 504              		.loc 1 213 0
 505 01de 6C4B     		ldr	r3, .L33+40
 506 01e0 5B88     		ldrh	r3, [r3, #2]
 507 01e2 1BB2     		sxth	r3, r3
 508 01e4 1B12     		asr	r3, r3, #8
 509 01e6 9BB2     		uxth	r3, r3
 510 01e8 DBB2     		uxtb	r3, r3
 511 01ea 181C     		mov	r0, r3
 512 01ec FFF7FEFF 		bl	UART_2_SpiUartWriteTxData
 214:.\Generated_Source\PSoC4/isr_uart.c ****                 UART_2_UartPutChar((uint8_t) channelTime[1]);
 513              		.loc 1 214 0
 514 01f0 674B     		ldr	r3, .L33+40
 515 01f2 5B88     		ldrh	r3, [r3, #2]
 516 01f4 DBB2     		uxtb	r3, r3
 517 01f6 181C     		mov	r0, r3
 518 01f8 FFF7FEFF 		bl	UART_2_SpiUartWriteTxData
 215:.\Generated_Source\PSoC4/isr_uart.c ****                 break;
 519              		.loc 1 215 0
 520 01fc 1CE1     		b	.L10
 521              	.L18:
 216:.\Generated_Source\PSoC4/isr_uart.c ****             case 5:
 217:.\Generated_Source\PSoC4/isr_uart.c ****                 channelTime[2] = rxdata;
ARM GAS  C:\Users\OEBN\AppData\Local\Temp\ccqGCQsF.s 			page 14


 522              		.loc 1 217 0
 523 01fe 3B68     		ldr	r3, [r7]
 524 0200 9AB2     		uxth	r2, r3
 525 0202 634B     		ldr	r3, .L33+40
 526 0204 9A80     		strh	r2, [r3, #4]
 218:.\Generated_Source\PSoC4/isr_uart.c ****                 break;
 527              		.loc 1 218 0
 528 0206 17E1     		b	.L10
 529              	.L19:
 219:.\Generated_Source\PSoC4/isr_uart.c ****             
 220:.\Generated_Source\PSoC4/isr_uart.c ****             case 6:
 221:.\Generated_Source\PSoC4/isr_uart.c ****                 channelTime[2] |= rxdata << 8;
 530              		.loc 1 221 0
 531 0208 614B     		ldr	r3, .L33+40
 532 020a 9B88     		ldrh	r3, [r3, #4]
 533 020c 9AB2     		uxth	r2, r3
 534 020e 3B68     		ldr	r3, [r7]
 535 0210 9BB2     		uxth	r3, r3
 536 0212 1B02     		lsl	r3, r3, #8
 537 0214 9BB2     		uxth	r3, r3
 538 0216 1343     		orr	r3, r2
 539 0218 9BB2     		uxth	r3, r3
 540 021a 9AB2     		uxth	r2, r3
 541 021c 5C4B     		ldr	r3, .L33+40
 542 021e 9A80     		strh	r2, [r3, #4]
 222:.\Generated_Source\PSoC4/isr_uart.c ****                 UART_2_UartPutChar('3');
 543              		.loc 1 222 0
 544 0220 3320     		mov	r0, #51
 545 0222 FFF7FEFF 		bl	UART_2_SpiUartWriteTxData
 223:.\Generated_Source\PSoC4/isr_uart.c ****                 UART_2_UartPutChar((uint8_t) (channelTime[2]>>8));
 546              		.loc 1 223 0
 547 0226 5A4B     		ldr	r3, .L33+40
 548 0228 9B88     		ldrh	r3, [r3, #4]
 549 022a 1BB2     		sxth	r3, r3
 550 022c 1B12     		asr	r3, r3, #8
 551 022e 9BB2     		uxth	r3, r3
 552 0230 DBB2     		uxtb	r3, r3
 553 0232 181C     		mov	r0, r3
 554 0234 FFF7FEFF 		bl	UART_2_SpiUartWriteTxData
 224:.\Generated_Source\PSoC4/isr_uart.c ****                 UART_2_UartPutChar((uint8_t) channelTime[2]);
 555              		.loc 1 224 0
 556 0238 554B     		ldr	r3, .L33+40
 557 023a 9B88     		ldrh	r3, [r3, #4]
 558 023c DBB2     		uxtb	r3, r3
 559 023e 181C     		mov	r0, r3
 560 0240 FFF7FEFF 		bl	UART_2_SpiUartWriteTxData
 225:.\Generated_Source\PSoC4/isr_uart.c ****                 break;
 561              		.loc 1 225 0
 562 0244 F8E0     		b	.L10
 563              	.L20:
 226:.\Generated_Source\PSoC4/isr_uart.c ****             case 7:
 227:.\Generated_Source\PSoC4/isr_uart.c ****                 channelTime[3] = rxdata;
 564              		.loc 1 227 0
 565 0246 3B68     		ldr	r3, [r7]
 566 0248 9AB2     		uxth	r2, r3
 567 024a 514B     		ldr	r3, .L33+40
 568 024c DA80     		strh	r2, [r3, #6]
ARM GAS  C:\Users\OEBN\AppData\Local\Temp\ccqGCQsF.s 			page 15


 228:.\Generated_Source\PSoC4/isr_uart.c ****                 break;
 569              		.loc 1 228 0
 570 024e F3E0     		b	.L10
 571              	.L21:
 229:.\Generated_Source\PSoC4/isr_uart.c ****             
 230:.\Generated_Source\PSoC4/isr_uart.c ****             case 8:
 231:.\Generated_Source\PSoC4/isr_uart.c ****                 channelTime[3] |= rxdata << 8;
 572              		.loc 1 231 0
 573 0250 4F4B     		ldr	r3, .L33+40
 574 0252 DB88     		ldrh	r3, [r3, #6]
 575 0254 9AB2     		uxth	r2, r3
 576 0256 3B68     		ldr	r3, [r7]
 577 0258 9BB2     		uxth	r3, r3
 578 025a 1B02     		lsl	r3, r3, #8
 579 025c 9BB2     		uxth	r3, r3
 580 025e 1343     		orr	r3, r2
 581 0260 9BB2     		uxth	r3, r3
 582 0262 9AB2     		uxth	r2, r3
 583 0264 4A4B     		ldr	r3, .L33+40
 584 0266 DA80     		strh	r2, [r3, #6]
 232:.\Generated_Source\PSoC4/isr_uart.c ****                 UART_2_UartPutChar('4');
 585              		.loc 1 232 0
 586 0268 3420     		mov	r0, #52
 587 026a FFF7FEFF 		bl	UART_2_SpiUartWriteTxData
 233:.\Generated_Source\PSoC4/isr_uart.c ****                 UART_2_UartPutChar((uint8_t) (channelTime[3]>>8));
 588              		.loc 1 233 0
 589 026e 484B     		ldr	r3, .L33+40
 590 0270 DB88     		ldrh	r3, [r3, #6]
 591 0272 1BB2     		sxth	r3, r3
 592 0274 1B12     		asr	r3, r3, #8
 593 0276 9BB2     		uxth	r3, r3
 594 0278 DBB2     		uxtb	r3, r3
 595 027a 181C     		mov	r0, r3
 596 027c FFF7FEFF 		bl	UART_2_SpiUartWriteTxData
 234:.\Generated_Source\PSoC4/isr_uart.c ****                 UART_2_UartPutChar((uint8_t) channelTime[3]);
 597              		.loc 1 234 0
 598 0280 434B     		ldr	r3, .L33+40
 599 0282 DB88     		ldrh	r3, [r3, #6]
 600 0284 DBB2     		uxtb	r3, r3
 601 0286 181C     		mov	r0, r3
 602 0288 FFF7FEFF 		bl	UART_2_SpiUartWriteTxData
 235:.\Generated_Source\PSoC4/isr_uart.c ****                 break;
 603              		.loc 1 235 0
 604 028c D4E0     		b	.L10
 605              	.L22:
 236:.\Generated_Source\PSoC4/isr_uart.c ****             case 9:
 237:.\Generated_Source\PSoC4/isr_uart.c ****                 channelTime[4] = rxdata;
 606              		.loc 1 237 0
 607 028e 3B68     		ldr	r3, [r7]
 608 0290 9AB2     		uxth	r2, r3
 609 0292 3F4B     		ldr	r3, .L33+40
 610 0294 1A81     		strh	r2, [r3, #8]
 238:.\Generated_Source\PSoC4/isr_uart.c ****                 break;
 611              		.loc 1 238 0
 612 0296 CFE0     		b	.L10
 613              	.L23:
 239:.\Generated_Source\PSoC4/isr_uart.c ****             
ARM GAS  C:\Users\OEBN\AppData\Local\Temp\ccqGCQsF.s 			page 16


 240:.\Generated_Source\PSoC4/isr_uart.c ****             case 10:
 241:.\Generated_Source\PSoC4/isr_uart.c ****                 channelTime[4] |= rxdata << 8;
 614              		.loc 1 241 0
 615 0298 3D4B     		ldr	r3, .L33+40
 616 029a 1B89     		ldrh	r3, [r3, #8]
 617 029c 9AB2     		uxth	r2, r3
 618 029e 3B68     		ldr	r3, [r7]
 619 02a0 9BB2     		uxth	r3, r3
 620 02a2 1B02     		lsl	r3, r3, #8
 621 02a4 9BB2     		uxth	r3, r3
 622 02a6 1343     		orr	r3, r2
 623 02a8 9BB2     		uxth	r3, r3
 624 02aa 9AB2     		uxth	r2, r3
 625 02ac 384B     		ldr	r3, .L33+40
 626 02ae 1A81     		strh	r2, [r3, #8]
 242:.\Generated_Source\PSoC4/isr_uart.c ****                 UART_2_UartPutChar('5');
 627              		.loc 1 242 0
 628 02b0 3520     		mov	r0, #53
 629 02b2 FFF7FEFF 		bl	UART_2_SpiUartWriteTxData
 243:.\Generated_Source\PSoC4/isr_uart.c ****                 UART_2_UartPutChar((uint8_t) (channelTime[4]>>8));
 630              		.loc 1 243 0
 631 02b6 364B     		ldr	r3, .L33+40
 632 02b8 1B89     		ldrh	r3, [r3, #8]
 633 02ba 1BB2     		sxth	r3, r3
 634 02bc 1B12     		asr	r3, r3, #8
 635 02be 9BB2     		uxth	r3, r3
 636 02c0 DBB2     		uxtb	r3, r3
 637 02c2 181C     		mov	r0, r3
 638 02c4 FFF7FEFF 		bl	UART_2_SpiUartWriteTxData
 244:.\Generated_Source\PSoC4/isr_uart.c ****                 UART_2_UartPutChar((uint8_t) channelTime[4]);
 639              		.loc 1 244 0
 640 02c8 314B     		ldr	r3, .L33+40
 641 02ca 1B89     		ldrh	r3, [r3, #8]
 642 02cc DBB2     		uxtb	r3, r3
 643 02ce 181C     		mov	r0, r3
 644 02d0 FFF7FEFF 		bl	UART_2_SpiUartWriteTxData
 245:.\Generated_Source\PSoC4/isr_uart.c ****                 break;
 645              		.loc 1 245 0
 646 02d4 B0E0     		b	.L10
 647              	.L24:
 246:.\Generated_Source\PSoC4/isr_uart.c ****             case 11:
 247:.\Generated_Source\PSoC4/isr_uart.c ****                 channelTime[5] = rxdata;
 648              		.loc 1 247 0
 649 02d6 3B68     		ldr	r3, [r7]
 650 02d8 9AB2     		uxth	r2, r3
 651 02da 2D4B     		ldr	r3, .L33+40
 652 02dc 5A81     		strh	r2, [r3, #10]
 248:.\Generated_Source\PSoC4/isr_uart.c ****                 break;
 653              		.loc 1 248 0
 654 02de ABE0     		b	.L10
 655              	.L25:
 249:.\Generated_Source\PSoC4/isr_uart.c ****             
 250:.\Generated_Source\PSoC4/isr_uart.c ****             case 12:
 251:.\Generated_Source\PSoC4/isr_uart.c ****                 channelTime[5] |= rxdata << 8;
 656              		.loc 1 251 0
 657 02e0 2B4B     		ldr	r3, .L33+40
 658 02e2 5B89     		ldrh	r3, [r3, #10]
ARM GAS  C:\Users\OEBN\AppData\Local\Temp\ccqGCQsF.s 			page 17


 659 02e4 9AB2     		uxth	r2, r3
 660 02e6 3B68     		ldr	r3, [r7]
 661 02e8 9BB2     		uxth	r3, r3
 662 02ea 1B02     		lsl	r3, r3, #8
 663 02ec 9BB2     		uxth	r3, r3
 664 02ee 1343     		orr	r3, r2
 665 02f0 9BB2     		uxth	r3, r3
 666 02f2 9AB2     		uxth	r2, r3
 667 02f4 264B     		ldr	r3, .L33+40
 668 02f6 5A81     		strh	r2, [r3, #10]
 252:.\Generated_Source\PSoC4/isr_uart.c ****                 UART_2_UartPutChar('6');
 669              		.loc 1 252 0
 670 02f8 3620     		mov	r0, #54
 671 02fa FFF7FEFF 		bl	UART_2_SpiUartWriteTxData
 253:.\Generated_Source\PSoC4/isr_uart.c ****                 UART_2_UartPutChar((uint8_t) (channelTime[5]>>8));
 672              		.loc 1 253 0
 673 02fe 244B     		ldr	r3, .L33+40
 674 0300 5B89     		ldrh	r3, [r3, #10]
 675 0302 1BB2     		sxth	r3, r3
 676 0304 1B12     		asr	r3, r3, #8
 677 0306 9BB2     		uxth	r3, r3
 678 0308 DBB2     		uxtb	r3, r3
 679 030a 181C     		mov	r0, r3
 680 030c FFF7FEFF 		bl	UART_2_SpiUartWriteTxData
 254:.\Generated_Source\PSoC4/isr_uart.c ****                 UART_2_UartPutChar((uint8_t) channelTime[5]);
 681              		.loc 1 254 0
 682 0310 1F4B     		ldr	r3, .L33+40
 683 0312 5B89     		ldrh	r3, [r3, #10]
 684 0314 DBB2     		uxtb	r3, r3
 685 0316 181C     		mov	r0, r3
 686 0318 FFF7FEFF 		bl	UART_2_SpiUartWriteTxData
 255:.\Generated_Source\PSoC4/isr_uart.c ****                 break;
 687              		.loc 1 255 0
 688 031c 8CE0     		b	.L10
 689              	.L26:
 256:.\Generated_Source\PSoC4/isr_uart.c ****             case 13:
 257:.\Generated_Source\PSoC4/isr_uart.c ****                 channelTime[6] = rxdata;
 690              		.loc 1 257 0
 691 031e 3B68     		ldr	r3, [r7]
 692 0320 9AB2     		uxth	r2, r3
 693 0322 1B4B     		ldr	r3, .L33+40
 694 0324 9A81     		strh	r2, [r3, #12]
 258:.\Generated_Source\PSoC4/isr_uart.c ****                 break;
 695              		.loc 1 258 0
 696 0326 87E0     		b	.L10
 697              	.L27:
 259:.\Generated_Source\PSoC4/isr_uart.c ****             
 260:.\Generated_Source\PSoC4/isr_uart.c ****             case 14:
 261:.\Generated_Source\PSoC4/isr_uart.c ****                 channelTime[6] |= rxdata << 8;
 698              		.loc 1 261 0
 699 0328 194B     		ldr	r3, .L33+40
 700 032a 9B89     		ldrh	r3, [r3, #12]
 701 032c 9AB2     		uxth	r2, r3
 702 032e 3B68     		ldr	r3, [r7]
 703 0330 9BB2     		uxth	r3, r3
 704 0332 1B02     		lsl	r3, r3, #8
 705 0334 9BB2     		uxth	r3, r3
ARM GAS  C:\Users\OEBN\AppData\Local\Temp\ccqGCQsF.s 			page 18


 706 0336 1343     		orr	r3, r2
 707 0338 9BB2     		uxth	r3, r3
 708 033a 9AB2     		uxth	r2, r3
 709 033c 144B     		ldr	r3, .L33+40
 710 033e 9A81     		strh	r2, [r3, #12]
 262:.\Generated_Source\PSoC4/isr_uart.c ****                 UART_2_UartPutChar('7');
 711              		.loc 1 262 0
 712 0340 3720     		mov	r0, #55
 713 0342 FFF7FEFF 		bl	UART_2_SpiUartWriteTxData
 263:.\Generated_Source\PSoC4/isr_uart.c ****                 UART_2_UartPutChar((uint8_t) (channelTime[6]>>8));
 714              		.loc 1 263 0
 715 0346 124B     		ldr	r3, .L33+40
 716 0348 9B89     		ldrh	r3, [r3, #12]
 717 034a 1BB2     		sxth	r3, r3
 718 034c 1B12     		asr	r3, r3, #8
 719 034e 9BB2     		uxth	r3, r3
 720 0350 DBB2     		uxtb	r3, r3
 721 0352 181C     		mov	r0, r3
 722 0354 FFF7FEFF 		bl	UART_2_SpiUartWriteTxData
 264:.\Generated_Source\PSoC4/isr_uart.c ****                 UART_2_UartPutChar((uint8_t) channelTime[6]);
 723              		.loc 1 264 0
 724 0358 0D4B     		ldr	r3, .L33+40
 725 035a 9B89     		ldrh	r3, [r3, #12]
 726 035c DBB2     		uxtb	r3, r3
 727 035e 181C     		mov	r0, r3
 728 0360 FFF7FEFF 		bl	UART_2_SpiUartWriteTxData
 265:.\Generated_Source\PSoC4/isr_uart.c ****                 break;
 729              		.loc 1 265 0
 730 0364 68E0     		b	.L10
 731              	.L34:
 732 0366 C046     		.align	2
 733              	.L33:
 734 0368 C00F0740 		.word	1074204608
 735 036c ED0F0000 		.word	4077
 736 0370 00000000 		.word	count
 737 0374 00000000 		.word	tempcount
 738 0378 00000000 		.word	frameStart
 739 037c 00000000 		.word	senderID
 740 0380 00000000 		.word	senderClass
 741 0384 00000000 		.word	frameID
 742 0388 00000000 		.word	byteCount
 743 038c 00000000 		.word	.L30
 744 0390 00000000 		.word	channelTime
 745              	.L28:
 266:.\Generated_Source\PSoC4/isr_uart.c ****             case 15:
 267:.\Generated_Source\PSoC4/isr_uart.c ****                 channelTime[7] = rxdata;
 746              		.loc 1 267 0
 747 0394 3B68     		ldr	r3, [r7]
 748 0396 9AB2     		uxth	r2, r3
 749 0398 2A4B     		ldr	r3, .L35
 750 039a DA81     		strh	r2, [r3, #14]
 268:.\Generated_Source\PSoC4/isr_uart.c ****                 break;
 751              		.loc 1 268 0
 752 039c 4CE0     		b	.L10
 753              	.L29:
 269:.\Generated_Source\PSoC4/isr_uart.c ****             
 270:.\Generated_Source\PSoC4/isr_uart.c ****             case 16:
ARM GAS  C:\Users\OEBN\AppData\Local\Temp\ccqGCQsF.s 			page 19


 271:.\Generated_Source\PSoC4/isr_uart.c ****                 channelTime[7] |= rxdata << 8;
 754              		.loc 1 271 0
 755 039e 294B     		ldr	r3, .L35
 756 03a0 DB89     		ldrh	r3, [r3, #14]
 757 03a2 9AB2     		uxth	r2, r3
 758 03a4 3B68     		ldr	r3, [r7]
 759 03a6 9BB2     		uxth	r3, r3
 760 03a8 1B02     		lsl	r3, r3, #8
 761 03aa 9BB2     		uxth	r3, r3
 762 03ac 1343     		orr	r3, r2
 763 03ae 9BB2     		uxth	r3, r3
 764 03b0 9AB2     		uxth	r2, r3
 765 03b2 244B     		ldr	r3, .L35
 766 03b4 DA81     		strh	r2, [r3, #14]
 272:.\Generated_Source\PSoC4/isr_uart.c ****                 UART_2_UartPutChar('8');
 767              		.loc 1 272 0
 768 03b6 3820     		mov	r0, #56
 769 03b8 FFF7FEFF 		bl	UART_2_SpiUartWriteTxData
 273:.\Generated_Source\PSoC4/isr_uart.c ****                 UART_2_UartPutChar((uint8_t) (channelTime[7]>>8));
 770              		.loc 1 273 0
 771 03bc 214B     		ldr	r3, .L35
 772 03be DB89     		ldrh	r3, [r3, #14]
 773 03c0 1BB2     		sxth	r3, r3
 774 03c2 1B12     		asr	r3, r3, #8
 775 03c4 9BB2     		uxth	r3, r3
 776 03c6 DBB2     		uxtb	r3, r3
 777 03c8 181C     		mov	r0, r3
 778 03ca FFF7FEFF 		bl	UART_2_SpiUartWriteTxData
 274:.\Generated_Source\PSoC4/isr_uart.c ****                 UART_2_UartPutChar((uint8_t) channelTime[7]);
 779              		.loc 1 274 0
 780 03ce 1D4B     		ldr	r3, .L35
 781 03d0 DB89     		ldrh	r3, [r3, #14]
 782 03d2 DBB2     		uxtb	r3, r3
 783 03d4 181C     		mov	r0, r3
 784 03d6 FFF7FEFF 		bl	UART_2_SpiUartWriteTxData
 275:.\Generated_Source\PSoC4/isr_uart.c ****                 frameStart = 0;
 785              		.loc 1 275 0
 786 03da 1B4B     		ldr	r3, .L35+4
 787 03dc 0022     		mov	r2, #0
 788 03de 1A70     		strb	r2, [r3]
 276:.\Generated_Source\PSoC4/isr_uart.c ****                 senderID = 0;
 789              		.loc 1 276 0
 790 03e0 1A4B     		ldr	r3, .L35+8
 791 03e2 0022     		mov	r2, #0
 792 03e4 1A70     		strb	r2, [r3]
 277:.\Generated_Source\PSoC4/isr_uart.c ****                 senderClass=0;
 793              		.loc 1 277 0
 794 03e6 1A4B     		ldr	r3, .L35+12
 795 03e8 0022     		mov	r2, #0
 796 03ea 1A70     		strb	r2, [r3]
 278:.\Generated_Source\PSoC4/isr_uart.c ****                 frameID = 0;
 797              		.loc 1 278 0
 798 03ec 194B     		ldr	r3, .L35+16
 799 03ee 0022     		mov	r2, #0
 800 03f0 1A70     		strb	r2, [r3]
 279:.\Generated_Source\PSoC4/isr_uart.c ****                 byteCount = 0;
 801              		.loc 1 279 0
ARM GAS  C:\Users\OEBN\AppData\Local\Temp\ccqGCQsF.s 			page 20


 802 03f2 194B     		ldr	r3, .L35+20
 803 03f4 0022     		mov	r2, #0
 804 03f6 1A70     		strb	r2, [r3]
 280:.\Generated_Source\PSoC4/isr_uart.c ****                 count = 0;
 805              		.loc 1 280 0
 806 03f8 184B     		ldr	r3, .L35+24
 807 03fa 0022     		mov	r2, #0
 808 03fc 1A60     		str	r2, [r3]
 281:.\Generated_Source\PSoC4/isr_uart.c ****                 for (i=0;i<4;i++)
 809              		.loc 1 281 0
 810 03fe FB1D     		add	r3, r7, #7
 811 0400 0022     		mov	r2, #0
 812 0402 1A70     		strb	r2, [r3]
 813 0404 13E0     		b	.L31
 814              	.L32:
 282:.\Generated_Source\PSoC4/isr_uart.c ****                     pwm_light_adj[i] = (channelTime[7] - 980) / 5;
 815              		.loc 1 282 0 discriminator 2
 816 0406 FB1D     		add	r3, r7, #7
 817 0408 1C78     		ldrb	r4, [r3]
 818 040a 0E4B     		ldr	r3, .L35
 819 040c DB89     		ldrh	r3, [r3, #14]
 820 040e 1BB2     		sxth	r3, r3
 821 0410 134A     		ldr	r2, .L35+28
 822 0412 9B18     		add	r3, r3, r2
 823 0414 181C     		mov	r0, r3
 824 0416 0521     		mov	r1, #5
 825 0418 FFF7FEFF 		bl	__aeabi_idiv
 826 041c 031C     		mov	r3, r0
 827 041e DAB2     		uxtb	r2, r3
 828 0420 104B     		ldr	r3, .L35+32
 829 0422 1A55     		strb	r2, [r3, r4]
 281:.\Generated_Source\PSoC4/isr_uart.c ****                 for (i=0;i<4;i++)
 830              		.loc 1 281 0 discriminator 2
 831 0424 FB1D     		add	r3, r7, #7
 832 0426 FA1D     		add	r2, r7, #7
 833 0428 1278     		ldrb	r2, [r2]
 834 042a 0132     		add	r2, r2, #1
 835 042c 1A70     		strb	r2, [r3]
 836              	.L31:
 281:.\Generated_Source\PSoC4/isr_uart.c ****                 for (i=0;i<4;i++)
 837              		.loc 1 281 0 is_stmt 0 discriminator 1
 838 042e FB1D     		add	r3, r7, #7
 839 0430 1B78     		ldrb	r3, [r3]
 840 0432 032B     		cmp	r3, #3
 841 0434 E7D9     		bls	.L32
 283:.\Generated_Source\PSoC4/isr_uart.c ****                 break;
 842              		.loc 1 283 0 is_stmt 1
 843 0436 C046     		mov	r8, r8
 844              	.L10:
 284:.\Generated_Source\PSoC4/isr_uart.c ****         }
 285:.\Generated_Source\PSoC4/isr_uart.c ****         /*
 286:.\Generated_Source\PSoC4/isr_uart.c ****         if (byteCount == 1)
 287:.\Generated_Source\PSoC4/isr_uart.c ****         {
 288:.\Generated_Source\PSoC4/isr_uart.c ****             channelTime[1] = rxdata;
 289:.\Generated_Source\PSoC4/isr_uart.c **** 
 290:.\Generated_Source\PSoC4/isr_uart.c ****         }else if (byteCount == 2)
 291:.\Generated_Source\PSoC4/isr_uart.c ****         {
ARM GAS  C:\Users\OEBN\AppData\Local\Temp\ccqGCQsF.s 			page 21


 292:.\Generated_Source\PSoC4/isr_uart.c ****             channelTime[1] |= rxdata << 8;
 293:.\Generated_Source\PSoC4/isr_uart.c ****             UART_2_UartPutChar((uint8_t) (channelTime[1]>>8));
 294:.\Generated_Source\PSoC4/isr_uart.c ****             UART_2_UartPutChar((uint8_t) channelTime[1]);
 295:.\Generated_Source\PSoC4/isr_uart.c ****             frameStart = 0;
 296:.\Generated_Source\PSoC4/isr_uart.c ****             senderID = 0;
 297:.\Generated_Source\PSoC4/isr_uart.c ****             senderClass=0;
 298:.\Generated_Source\PSoC4/isr_uart.c ****             frameID = 0;
 299:.\Generated_Source\PSoC4/isr_uart.c ****             byteCount = 0;
 300:.\Generated_Source\PSoC4/isr_uart.c ****             count = 0;
 301:.\Generated_Source\PSoC4/isr_uart.c ****         }
 302:.\Generated_Source\PSoC4/isr_uart.c ****         */
 303:.\Generated_Source\PSoC4/isr_uart.c ****     }
 304:.\Generated_Source\PSoC4/isr_uart.c ****     UART_1_ClearRxInterruptSource(UART_1_INTR_RX_ALL);
 845              		.loc 1 304 0
 846 0438 0B4B     		ldr	r3, .L35+36
 847 043a 0C4A     		ldr	r2, .L35+40
 848 043c 1A60     		str	r2, [r3]
 305:.\Generated_Source\PSoC4/isr_uart.c ****     /* `#END` */
 306:.\Generated_Source\PSoC4/isr_uart.c **** }
 849              		.loc 1 306 0
 850 043e BD46     		mov	sp, r7
 851 0440 03B0     		add	sp, sp, #12
 852              		@ sp needed for prologue
 853 0442 90BD     		pop	{r4, r7, pc}
 854              	.L36:
 855              		.align	2
 856              	.L35:
 857 0444 00000000 		.word	channelTime
 858 0448 00000000 		.word	frameStart
 859 044c 00000000 		.word	senderID
 860 0450 00000000 		.word	senderClass
 861 0454 00000000 		.word	frameID
 862 0458 00000000 		.word	byteCount
 863 045c 00000000 		.word	count
 864 0460 2CFCFFFF 		.word	-980
 865 0464 00000000 		.word	pwm_light_adj
 866 0468 C00F0740 		.word	1074204608
 867 046c ED0F0000 		.word	4077
 868              		.cfi_endproc
 869              	.LFE3:
 870              		.size	isr_uart_Interrupt, .-isr_uart_Interrupt
 871              		.section	.text.isr_uart_SetVector,"ax",%progbits
 872              		.align	2
 873              		.global	isr_uart_SetVector
 874              		.code	16
 875              		.thumb_func
 876              		.type	isr_uart_SetVector, %function
 877              	isr_uart_SetVector:
 878              	.LFB4:
 307:.\Generated_Source\PSoC4/isr_uart.c **** 
 308:.\Generated_Source\PSoC4/isr_uart.c **** 
 309:.\Generated_Source\PSoC4/isr_uart.c **** /*******************************************************************************
 310:.\Generated_Source\PSoC4/isr_uart.c **** * Function Name: isr_uart_SetVector
 311:.\Generated_Source\PSoC4/isr_uart.c **** ********************************************************************************
 312:.\Generated_Source\PSoC4/isr_uart.c **** *
 313:.\Generated_Source\PSoC4/isr_uart.c **** * Summary:
 314:.\Generated_Source\PSoC4/isr_uart.c **** *   Change the ISR vector for the Interrupt. Note calling isr_uart_Start
ARM GAS  C:\Users\OEBN\AppData\Local\Temp\ccqGCQsF.s 			page 22


 315:.\Generated_Source\PSoC4/isr_uart.c **** *   will override any effect this method would have had. To set the vector 
 316:.\Generated_Source\PSoC4/isr_uart.c **** *   before the component has been started use isr_uart_StartEx instead.
 317:.\Generated_Source\PSoC4/isr_uart.c **** *
 318:.\Generated_Source\PSoC4/isr_uart.c **** * Parameters:
 319:.\Generated_Source\PSoC4/isr_uart.c **** *   address: Address of the ISR to set in the interrupt vector table.
 320:.\Generated_Source\PSoC4/isr_uart.c **** *
 321:.\Generated_Source\PSoC4/isr_uart.c **** * Return:
 322:.\Generated_Source\PSoC4/isr_uart.c **** *   None
 323:.\Generated_Source\PSoC4/isr_uart.c **** *
 324:.\Generated_Source\PSoC4/isr_uart.c **** *******************************************************************************/
 325:.\Generated_Source\PSoC4/isr_uart.c **** void isr_uart_SetVector(cyisraddress address)
 326:.\Generated_Source\PSoC4/isr_uart.c **** {
 879              		.loc 1 326 0
 880              		.cfi_startproc
 881 0000 80B5     		push	{r7, lr}
 882              	.LCFI10:
 883              		.cfi_def_cfa_offset 8
 884              		.cfi_offset 7, -8
 885              		.cfi_offset 14, -4
 886 0002 82B0     		sub	sp, sp, #8
 887              	.LCFI11:
 888              		.cfi_def_cfa_offset 16
 889 0004 00AF     		add	r7, sp, #0
 890              	.LCFI12:
 891              		.cfi_def_cfa_register 7
 892 0006 7860     		str	r0, [r7, #4]
 327:.\Generated_Source\PSoC4/isr_uart.c ****     CyRamVectors[CYINT_IRQ_BASE + isr_uart__INTC_NUMBER] = address;
 893              		.loc 1 327 0
 894 0008 024B     		ldr	r3, .L38
 895 000a 7A68     		ldr	r2, [r7, #4]
 896 000c DA66     		str	r2, [r3, #108]
 328:.\Generated_Source\PSoC4/isr_uart.c **** }
 897              		.loc 1 328 0
 898 000e BD46     		mov	sp, r7
 899 0010 02B0     		add	sp, sp, #8
 900              		@ sp needed for prologue
 901 0012 80BD     		pop	{r7, pc}
 902              	.L39:
 903              		.align	2
 904              	.L38:
 905 0014 00000000 		.word	CyRamVectors
 906              		.cfi_endproc
 907              	.LFE4:
 908              		.size	isr_uart_SetVector, .-isr_uart_SetVector
 909              		.section	.text.isr_uart_GetVector,"ax",%progbits
 910              		.align	2
 911              		.global	isr_uart_GetVector
 912              		.code	16
 913              		.thumb_func
 914              		.type	isr_uart_GetVector, %function
 915              	isr_uart_GetVector:
 916              	.LFB5:
 329:.\Generated_Source\PSoC4/isr_uart.c **** 
 330:.\Generated_Source\PSoC4/isr_uart.c **** 
 331:.\Generated_Source\PSoC4/isr_uart.c **** /*******************************************************************************
 332:.\Generated_Source\PSoC4/isr_uart.c **** * Function Name: isr_uart_GetVector
 333:.\Generated_Source\PSoC4/isr_uart.c **** ********************************************************************************
ARM GAS  C:\Users\OEBN\AppData\Local\Temp\ccqGCQsF.s 			page 23


 334:.\Generated_Source\PSoC4/isr_uart.c **** *
 335:.\Generated_Source\PSoC4/isr_uart.c **** * Summary:
 336:.\Generated_Source\PSoC4/isr_uart.c **** *   Gets the "address" of the current ISR vector for the Interrupt.
 337:.\Generated_Source\PSoC4/isr_uart.c **** *
 338:.\Generated_Source\PSoC4/isr_uart.c **** * Parameters:
 339:.\Generated_Source\PSoC4/isr_uart.c **** *   None
 340:.\Generated_Source\PSoC4/isr_uart.c **** *
 341:.\Generated_Source\PSoC4/isr_uart.c **** * Return:
 342:.\Generated_Source\PSoC4/isr_uart.c **** *   Address of the ISR in the interrupt vector table.
 343:.\Generated_Source\PSoC4/isr_uart.c **** *
 344:.\Generated_Source\PSoC4/isr_uart.c **** *******************************************************************************/
 345:.\Generated_Source\PSoC4/isr_uart.c **** cyisraddress isr_uart_GetVector(void)
 346:.\Generated_Source\PSoC4/isr_uart.c **** {
 917              		.loc 1 346 0
 918              		.cfi_startproc
 919 0000 80B5     		push	{r7, lr}
 920              	.LCFI13:
 921              		.cfi_def_cfa_offset 8
 922              		.cfi_offset 7, -8
 923              		.cfi_offset 14, -4
 924 0002 00AF     		add	r7, sp, #0
 925              	.LCFI14:
 926              		.cfi_def_cfa_register 7
 347:.\Generated_Source\PSoC4/isr_uart.c ****     return CyRamVectors[CYINT_IRQ_BASE + isr_uart__INTC_NUMBER];
 927              		.loc 1 347 0
 928 0004 024B     		ldr	r3, .L42
 929 0006 DB6E     		ldr	r3, [r3, #108]
 348:.\Generated_Source\PSoC4/isr_uart.c **** }
 930              		.loc 1 348 0
 931 0008 181C     		mov	r0, r3
 932 000a BD46     		mov	sp, r7
 933              		@ sp needed for prologue
 934 000c 80BD     		pop	{r7, pc}
 935              	.L43:
 936 000e C046     		.align	2
 937              	.L42:
 938 0010 00000000 		.word	CyRamVectors
 939              		.cfi_endproc
 940              	.LFE5:
 941              		.size	isr_uart_GetVector, .-isr_uart_GetVector
 942              		.section	.text.isr_uart_SetPriority,"ax",%progbits
 943              		.align	2
 944              		.global	isr_uart_SetPriority
 945              		.code	16
 946              		.thumb_func
 947              		.type	isr_uart_SetPriority, %function
 948              	isr_uart_SetPriority:
 949              	.LFB6:
 349:.\Generated_Source\PSoC4/isr_uart.c **** 
 350:.\Generated_Source\PSoC4/isr_uart.c **** 
 351:.\Generated_Source\PSoC4/isr_uart.c **** /*******************************************************************************
 352:.\Generated_Source\PSoC4/isr_uart.c **** * Function Name: isr_uart_SetPriority
 353:.\Generated_Source\PSoC4/isr_uart.c **** ********************************************************************************
 354:.\Generated_Source\PSoC4/isr_uart.c **** *
 355:.\Generated_Source\PSoC4/isr_uart.c **** * Summary:
 356:.\Generated_Source\PSoC4/isr_uart.c **** *   Sets the Priority of the Interrupt. Note calling isr_uart_Start
 357:.\Generated_Source\PSoC4/isr_uart.c **** *   or isr_uart_StartEx will override any effect this method would 
ARM GAS  C:\Users\OEBN\AppData\Local\Temp\ccqGCQsF.s 			page 24


 358:.\Generated_Source\PSoC4/isr_uart.c **** *   have had. This method should only be called after isr_uart_Start or 
 359:.\Generated_Source\PSoC4/isr_uart.c **** *   isr_uart_StartEx has been called. To set the initial
 360:.\Generated_Source\PSoC4/isr_uart.c **** *   priority for the component use the cydwr file in the tool.
 361:.\Generated_Source\PSoC4/isr_uart.c **** *
 362:.\Generated_Source\PSoC4/isr_uart.c **** * Parameters:
 363:.\Generated_Source\PSoC4/isr_uart.c **** *   priority: Priority of the interrupt. 0 - 3, 0 being the highest.
 364:.\Generated_Source\PSoC4/isr_uart.c **** *
 365:.\Generated_Source\PSoC4/isr_uart.c **** * Return:
 366:.\Generated_Source\PSoC4/isr_uart.c **** *   None
 367:.\Generated_Source\PSoC4/isr_uart.c **** *
 368:.\Generated_Source\PSoC4/isr_uart.c **** *******************************************************************************/
 369:.\Generated_Source\PSoC4/isr_uart.c **** void isr_uart_SetPriority(uint8 priority)
 370:.\Generated_Source\PSoC4/isr_uart.c **** {
 950              		.loc 1 370 0
 951              		.cfi_startproc
 952 0000 90B5     		push	{r4, r7, lr}
 953              	.LCFI15:
 954              		.cfi_def_cfa_offset 12
 955              		.cfi_offset 4, -12
 956              		.cfi_offset 7, -8
 957              		.cfi_offset 14, -4
 958 0002 85B0     		sub	sp, sp, #20
 959              	.LCFI16:
 960              		.cfi_def_cfa_offset 32
 961 0004 00AF     		add	r7, sp, #0
 962              	.LCFI17:
 963              		.cfi_def_cfa_register 7
 964 0006 021C     		mov	r2, r0
 965 0008 FB1D     		add	r3, r7, #7
 966 000a 1A70     		strb	r2, [r3]
 371:.\Generated_Source\PSoC4/isr_uart.c **** 	uint8 interruptState;
 372:.\Generated_Source\PSoC4/isr_uart.c ****     uint32 priorityOffset = ((isr_uart__INTC_NUMBER % 4u) * 8u) + 6u;
 967              		.loc 1 372 0
 968 000c 1E23     		mov	r3, #30
 969 000e FB60     		str	r3, [r7, #12]
 373:.\Generated_Source\PSoC4/isr_uart.c ****     
 374:.\Generated_Source\PSoC4/isr_uart.c **** 	interruptState = CyEnterCriticalSection();
 970              		.loc 1 374 0
 971 0010 3C1C     		mov	r4, r7
 972 0012 0B34     		add	r4, r4, #11
 973 0014 FFF7FEFF 		bl	CyEnterCriticalSection
 974 0018 031C     		mov	r3, r0
 975 001a 2370     		strb	r3, [r4]
 375:.\Generated_Source\PSoC4/isr_uart.c ****     *isr_uart_INTC_PRIOR = (*isr_uart_INTC_PRIOR & (uint32)(~isr_uart__INTC_PRIOR_MASK)) |
 976              		.loc 1 375 0
 977 001c 0A4B     		ldr	r3, .L45
 978 001e 0A4A     		ldr	r2, .L45
 979 0020 1268     		ldr	r2, [r2]
 980 0022 9200     		lsl	r2, r2, #2
 981 0024 9108     		lsr	r1, r2, #2
 376:.\Generated_Source\PSoC4/isr_uart.c ****                                     ((uint32)priority << priorityOffset);
 982              		.loc 1 376 0
 983 0026 FA1D     		add	r2, r7, #7
 984 0028 1078     		ldrb	r0, [r2]
 985 002a FA68     		ldr	r2, [r7, #12]
 986 002c 041C     		mov	r4, r0
 987 002e 9440     		lsl	r4, r4, r2
ARM GAS  C:\Users\OEBN\AppData\Local\Temp\ccqGCQsF.s 			page 25


 988 0030 221C     		mov	r2, r4
 375:.\Generated_Source\PSoC4/isr_uart.c ****     *isr_uart_INTC_PRIOR = (*isr_uart_INTC_PRIOR & (uint32)(~isr_uart__INTC_PRIOR_MASK)) |
 989              		.loc 1 375 0
 990 0032 0A43     		orr	r2, r1
 991 0034 1A60     		str	r2, [r3]
 377:.\Generated_Source\PSoC4/isr_uart.c **** 	CyExitCriticalSection(interruptState);
 992              		.loc 1 377 0
 993 0036 3B1C     		mov	r3, r7
 994 0038 0B33     		add	r3, r3, #11
 995 003a 1B78     		ldrb	r3, [r3]
 996 003c 181C     		mov	r0, r3
 997 003e FFF7FEFF 		bl	CyExitCriticalSection
 378:.\Generated_Source\PSoC4/isr_uart.c **** }
 998              		.loc 1 378 0
 999 0042 BD46     		mov	sp, r7
 1000 0044 05B0     		add	sp, sp, #20
 1001              		@ sp needed for prologue
 1002 0046 90BD     		pop	{r4, r7, pc}
 1003              	.L46:
 1004              		.align	2
 1005              	.L45:
 1006 0048 08E400E0 		.word	-536812536
 1007              		.cfi_endproc
 1008              	.LFE6:
 1009              		.size	isr_uart_SetPriority, .-isr_uart_SetPriority
 1010              		.section	.text.isr_uart_GetPriority,"ax",%progbits
 1011              		.align	2
 1012              		.global	isr_uart_GetPriority
 1013              		.code	16
 1014              		.thumb_func
 1015              		.type	isr_uart_GetPriority, %function
 1016              	isr_uart_GetPriority:
 1017              	.LFB7:
 379:.\Generated_Source\PSoC4/isr_uart.c **** 
 380:.\Generated_Source\PSoC4/isr_uart.c **** 
 381:.\Generated_Source\PSoC4/isr_uart.c **** /*******************************************************************************
 382:.\Generated_Source\PSoC4/isr_uart.c **** * Function Name: isr_uart_GetPriority
 383:.\Generated_Source\PSoC4/isr_uart.c **** ********************************************************************************
 384:.\Generated_Source\PSoC4/isr_uart.c **** *
 385:.\Generated_Source\PSoC4/isr_uart.c **** * Summary:
 386:.\Generated_Source\PSoC4/isr_uart.c **** *   Gets the Priority of the Interrupt.
 387:.\Generated_Source\PSoC4/isr_uart.c **** *
 388:.\Generated_Source\PSoC4/isr_uart.c **** * Parameters:
 389:.\Generated_Source\PSoC4/isr_uart.c **** *   None
 390:.\Generated_Source\PSoC4/isr_uart.c **** *
 391:.\Generated_Source\PSoC4/isr_uart.c **** * Return:
 392:.\Generated_Source\PSoC4/isr_uart.c **** *   Priority of the interrupt. 0 - 3, 0 being the highest.
 393:.\Generated_Source\PSoC4/isr_uart.c **** *
 394:.\Generated_Source\PSoC4/isr_uart.c **** *******************************************************************************/
 395:.\Generated_Source\PSoC4/isr_uart.c **** uint8 isr_uart_GetPriority(void)
 396:.\Generated_Source\PSoC4/isr_uart.c **** {
 1018              		.loc 1 396 0
 1019              		.cfi_startproc
 1020 0000 80B5     		push	{r7, lr}
 1021              	.LCFI18:
 1022              		.cfi_def_cfa_offset 8
 1023              		.cfi_offset 7, -8
ARM GAS  C:\Users\OEBN\AppData\Local\Temp\ccqGCQsF.s 			page 26


 1024              		.cfi_offset 14, -4
 1025 0002 82B0     		sub	sp, sp, #8
 1026              	.LCFI19:
 1027              		.cfi_def_cfa_offset 16
 1028 0004 00AF     		add	r7, sp, #0
 1029              	.LCFI20:
 1030              		.cfi_def_cfa_register 7
 397:.\Generated_Source\PSoC4/isr_uart.c ****     uint32 priority;
 398:.\Generated_Source\PSoC4/isr_uart.c **** 	uint32 priorityOffset = ((isr_uart__INTC_NUMBER % 4u) * 8u) + 6u;
 1031              		.loc 1 398 0
 1032 0006 1E23     		mov	r3, #30
 1033 0008 7B60     		str	r3, [r7, #4]
 399:.\Generated_Source\PSoC4/isr_uart.c **** 
 400:.\Generated_Source\PSoC4/isr_uart.c ****     priority = (*isr_uart_INTC_PRIOR & isr_uart__INTC_PRIOR_MASK) >> priorityOffset;
 1034              		.loc 1 400 0
 1035 000a 074B     		ldr	r3, .L49
 1036 000c 1B68     		ldr	r3, [r3]
 1037 000e 9B0F     		lsr	r3, r3, #30
 1038 0010 9A07     		lsl	r2, r3, #30
 1039 0012 7B68     		ldr	r3, [r7, #4]
 1040 0014 111C     		mov	r1, r2
 1041 0016 D940     		lsr	r1, r1, r3
 1042 0018 0B1C     		mov	r3, r1
 1043 001a 3B60     		str	r3, [r7]
 401:.\Generated_Source\PSoC4/isr_uart.c **** 
 402:.\Generated_Source\PSoC4/isr_uart.c ****     return (uint8)priority;
 1044              		.loc 1 402 0
 1045 001c 3B68     		ldr	r3, [r7]
 1046 001e DBB2     		uxtb	r3, r3
 403:.\Generated_Source\PSoC4/isr_uart.c **** }
 1047              		.loc 1 403 0
 1048 0020 181C     		mov	r0, r3
 1049 0022 BD46     		mov	sp, r7
 1050 0024 02B0     		add	sp, sp, #8
 1051              		@ sp needed for prologue
 1052 0026 80BD     		pop	{r7, pc}
 1053              	.L50:
 1054              		.align	2
 1055              	.L49:
 1056 0028 08E400E0 		.word	-536812536
 1057              		.cfi_endproc
 1058              	.LFE7:
 1059              		.size	isr_uart_GetPriority, .-isr_uart_GetPriority
 1060              		.section	.text.isr_uart_Enable,"ax",%progbits
 1061              		.align	2
 1062              		.global	isr_uart_Enable
 1063              		.code	16
 1064              		.thumb_func
 1065              		.type	isr_uart_Enable, %function
 1066              	isr_uart_Enable:
 1067              	.LFB8:
 404:.\Generated_Source\PSoC4/isr_uart.c **** 
 405:.\Generated_Source\PSoC4/isr_uart.c **** 
 406:.\Generated_Source\PSoC4/isr_uart.c **** /*******************************************************************************
 407:.\Generated_Source\PSoC4/isr_uart.c **** * Function Name: isr_uart_Enable
 408:.\Generated_Source\PSoC4/isr_uart.c **** ********************************************************************************
 409:.\Generated_Source\PSoC4/isr_uart.c **** *
ARM GAS  C:\Users\OEBN\AppData\Local\Temp\ccqGCQsF.s 			page 27


 410:.\Generated_Source\PSoC4/isr_uart.c **** * Summary:
 411:.\Generated_Source\PSoC4/isr_uart.c **** *   Enables the interrupt.
 412:.\Generated_Source\PSoC4/isr_uart.c **** *
 413:.\Generated_Source\PSoC4/isr_uart.c **** * Parameters:
 414:.\Generated_Source\PSoC4/isr_uart.c **** *   None
 415:.\Generated_Source\PSoC4/isr_uart.c **** *
 416:.\Generated_Source\PSoC4/isr_uart.c **** * Return:
 417:.\Generated_Source\PSoC4/isr_uart.c **** *   None
 418:.\Generated_Source\PSoC4/isr_uart.c **** *
 419:.\Generated_Source\PSoC4/isr_uart.c **** *******************************************************************************/
 420:.\Generated_Source\PSoC4/isr_uart.c **** void isr_uart_Enable(void)
 421:.\Generated_Source\PSoC4/isr_uart.c **** {
 1068              		.loc 1 421 0
 1069              		.cfi_startproc
 1070 0000 80B5     		push	{r7, lr}
 1071              	.LCFI21:
 1072              		.cfi_def_cfa_offset 8
 1073              		.cfi_offset 7, -8
 1074              		.cfi_offset 14, -4
 1075 0002 00AF     		add	r7, sp, #0
 1076              	.LCFI22:
 1077              		.cfi_def_cfa_register 7
 422:.\Generated_Source\PSoC4/isr_uart.c ****     /* Enable the general interrupt. */
 423:.\Generated_Source\PSoC4/isr_uart.c ****     *isr_uart_INTC_SET_EN = isr_uart__INTC_MASK;
 1078              		.loc 1 423 0
 1079 0004 024B     		ldr	r3, .L52
 1080 0006 8022     		mov	r2, #128
 1081 0008 1201     		lsl	r2, r2, #4
 1082 000a 1A60     		str	r2, [r3]
 424:.\Generated_Source\PSoC4/isr_uart.c **** }
 1083              		.loc 1 424 0
 1084 000c BD46     		mov	sp, r7
 1085              		@ sp needed for prologue
 1086 000e 80BD     		pop	{r7, pc}
 1087              	.L53:
 1088              		.align	2
 1089              	.L52:
 1090 0010 00E100E0 		.word	-536813312
 1091              		.cfi_endproc
 1092              	.LFE8:
 1093              		.size	isr_uart_Enable, .-isr_uart_Enable
 1094              		.section	.text.isr_uart_GetState,"ax",%progbits
 1095              		.align	2
 1096              		.global	isr_uart_GetState
 1097              		.code	16
 1098              		.thumb_func
 1099              		.type	isr_uart_GetState, %function
 1100              	isr_uart_GetState:
 1101              	.LFB9:
 425:.\Generated_Source\PSoC4/isr_uart.c **** 
 426:.\Generated_Source\PSoC4/isr_uart.c **** 
 427:.\Generated_Source\PSoC4/isr_uart.c **** /*******************************************************************************
 428:.\Generated_Source\PSoC4/isr_uart.c **** * Function Name: isr_uart_GetState
 429:.\Generated_Source\PSoC4/isr_uart.c **** ********************************************************************************
 430:.\Generated_Source\PSoC4/isr_uart.c **** *
 431:.\Generated_Source\PSoC4/isr_uart.c **** * Summary:
 432:.\Generated_Source\PSoC4/isr_uart.c **** *   Gets the state (enabled, disabled) of the Interrupt.
ARM GAS  C:\Users\OEBN\AppData\Local\Temp\ccqGCQsF.s 			page 28


 433:.\Generated_Source\PSoC4/isr_uart.c **** *
 434:.\Generated_Source\PSoC4/isr_uart.c **** * Parameters:
 435:.\Generated_Source\PSoC4/isr_uart.c **** *   None
 436:.\Generated_Source\PSoC4/isr_uart.c **** *
 437:.\Generated_Source\PSoC4/isr_uart.c **** * Return:
 438:.\Generated_Source\PSoC4/isr_uart.c **** *   1 if enabled, 0 if disabled.
 439:.\Generated_Source\PSoC4/isr_uart.c **** *
 440:.\Generated_Source\PSoC4/isr_uart.c **** *******************************************************************************/
 441:.\Generated_Source\PSoC4/isr_uart.c **** uint8 isr_uart_GetState(void)
 442:.\Generated_Source\PSoC4/isr_uart.c **** {
 1102              		.loc 1 442 0
 1103              		.cfi_startproc
 1104 0000 80B5     		push	{r7, lr}
 1105              	.LCFI23:
 1106              		.cfi_def_cfa_offset 8
 1107              		.cfi_offset 7, -8
 1108              		.cfi_offset 14, -4
 1109 0002 00AF     		add	r7, sp, #0
 1110              	.LCFI24:
 1111              		.cfi_def_cfa_register 7
 443:.\Generated_Source\PSoC4/isr_uart.c ****     /* Get the state of the general interrupt. */
 444:.\Generated_Source\PSoC4/isr_uart.c ****     return ((*isr_uart_INTC_SET_EN & (uint32)isr_uart__INTC_MASK) != 0u) ? 1u:0u;
 1112              		.loc 1 444 0
 1113 0004 054B     		ldr	r3, .L58
 1114 0006 1A68     		ldr	r2, [r3]
 1115 0008 8023     		mov	r3, #128
 1116 000a 1B01     		lsl	r3, r3, #4
 1117 000c 1340     		and	r3, r2
 1118 000e 01D0     		beq	.L55
 1119              		.loc 1 444 0 is_stmt 0 discriminator 1
 1120 0010 0123     		mov	r3, #1
 1121 0012 00E0     		b	.L56
 1122              	.L55:
 1123              		.loc 1 444 0 discriminator 2
 1124 0014 0023     		mov	r3, #0
 1125              	.L56:
 445:.\Generated_Source\PSoC4/isr_uart.c **** }
 1126              		.loc 1 445 0 is_stmt 1 discriminator 3
 1127 0016 181C     		mov	r0, r3
 1128 0018 BD46     		mov	sp, r7
 1129              		@ sp needed for prologue
 1130 001a 80BD     		pop	{r7, pc}
 1131              	.L59:
 1132              		.align	2
 1133              	.L58:
 1134 001c 00E100E0 		.word	-536813312
 1135              		.cfi_endproc
 1136              	.LFE9:
 1137              		.size	isr_uart_GetState, .-isr_uart_GetState
 1138              		.section	.text.isr_uart_Disable,"ax",%progbits
 1139              		.align	2
 1140              		.global	isr_uart_Disable
 1141              		.code	16
 1142              		.thumb_func
 1143              		.type	isr_uart_Disable, %function
 1144              	isr_uart_Disable:
 1145              	.LFB10:
ARM GAS  C:\Users\OEBN\AppData\Local\Temp\ccqGCQsF.s 			page 29


 446:.\Generated_Source\PSoC4/isr_uart.c **** 
 447:.\Generated_Source\PSoC4/isr_uart.c **** 
 448:.\Generated_Source\PSoC4/isr_uart.c **** /*******************************************************************************
 449:.\Generated_Source\PSoC4/isr_uart.c **** * Function Name: isr_uart_Disable
 450:.\Generated_Source\PSoC4/isr_uart.c **** ********************************************************************************
 451:.\Generated_Source\PSoC4/isr_uart.c **** *
 452:.\Generated_Source\PSoC4/isr_uart.c **** * Summary:
 453:.\Generated_Source\PSoC4/isr_uart.c **** *   Disables the Interrupt.
 454:.\Generated_Source\PSoC4/isr_uart.c **** *
 455:.\Generated_Source\PSoC4/isr_uart.c **** * Parameters:
 456:.\Generated_Source\PSoC4/isr_uart.c **** *   None
 457:.\Generated_Source\PSoC4/isr_uart.c **** *
 458:.\Generated_Source\PSoC4/isr_uart.c **** * Return:
 459:.\Generated_Source\PSoC4/isr_uart.c **** *   None
 460:.\Generated_Source\PSoC4/isr_uart.c **** *
 461:.\Generated_Source\PSoC4/isr_uart.c **** *******************************************************************************/
 462:.\Generated_Source\PSoC4/isr_uart.c **** void isr_uart_Disable(void)
 463:.\Generated_Source\PSoC4/isr_uart.c **** {
 1146              		.loc 1 463 0
 1147              		.cfi_startproc
 1148 0000 80B5     		push	{r7, lr}
 1149              	.LCFI25:
 1150              		.cfi_def_cfa_offset 8
 1151              		.cfi_offset 7, -8
 1152              		.cfi_offset 14, -4
 1153 0002 00AF     		add	r7, sp, #0
 1154              	.LCFI26:
 1155              		.cfi_def_cfa_register 7
 464:.\Generated_Source\PSoC4/isr_uart.c ****     /* Disable the general interrupt. */
 465:.\Generated_Source\PSoC4/isr_uart.c ****     *isr_uart_INTC_CLR_EN = isr_uart__INTC_MASK;
 1156              		.loc 1 465 0
 1157 0004 024B     		ldr	r3, .L61
 1158 0006 8022     		mov	r2, #128
 1159 0008 1201     		lsl	r2, r2, #4
 1160 000a 1A60     		str	r2, [r3]
 466:.\Generated_Source\PSoC4/isr_uart.c **** }
 1161              		.loc 1 466 0
 1162 000c BD46     		mov	sp, r7
 1163              		@ sp needed for prologue
 1164 000e 80BD     		pop	{r7, pc}
 1165              	.L62:
 1166              		.align	2
 1167              	.L61:
 1168 0010 80E100E0 		.word	-536813184
 1169              		.cfi_endproc
 1170              	.LFE10:
 1171              		.size	isr_uart_Disable, .-isr_uart_Disable
 1172              		.section	.text.isr_uart_SetPending,"ax",%progbits
 1173              		.align	2
 1174              		.global	isr_uart_SetPending
 1175              		.code	16
 1176              		.thumb_func
 1177              		.type	isr_uart_SetPending, %function
 1178              	isr_uart_SetPending:
 1179              	.LFB11:
 467:.\Generated_Source\PSoC4/isr_uart.c **** 
 468:.\Generated_Source\PSoC4/isr_uart.c **** 
ARM GAS  C:\Users\OEBN\AppData\Local\Temp\ccqGCQsF.s 			page 30


 469:.\Generated_Source\PSoC4/isr_uart.c **** /*******************************************************************************
 470:.\Generated_Source\PSoC4/isr_uart.c **** * Function Name: isr_uart_SetPending
 471:.\Generated_Source\PSoC4/isr_uart.c **** ********************************************************************************
 472:.\Generated_Source\PSoC4/isr_uart.c **** *
 473:.\Generated_Source\PSoC4/isr_uart.c **** * Summary:
 474:.\Generated_Source\PSoC4/isr_uart.c **** *   Causes the Interrupt to enter the pending state, a software method of
 475:.\Generated_Source\PSoC4/isr_uart.c **** *   generating the interrupt.
 476:.\Generated_Source\PSoC4/isr_uart.c **** *
 477:.\Generated_Source\PSoC4/isr_uart.c **** * Parameters:
 478:.\Generated_Source\PSoC4/isr_uart.c **** *   None
 479:.\Generated_Source\PSoC4/isr_uart.c **** *
 480:.\Generated_Source\PSoC4/isr_uart.c **** * Return:
 481:.\Generated_Source\PSoC4/isr_uart.c **** *   None
 482:.\Generated_Source\PSoC4/isr_uart.c **** *
 483:.\Generated_Source\PSoC4/isr_uart.c **** *******************************************************************************/
 484:.\Generated_Source\PSoC4/isr_uart.c **** void isr_uart_SetPending(void)
 485:.\Generated_Source\PSoC4/isr_uart.c **** {
 1180              		.loc 1 485 0
 1181              		.cfi_startproc
 1182 0000 80B5     		push	{r7, lr}
 1183              	.LCFI27:
 1184              		.cfi_def_cfa_offset 8
 1185              		.cfi_offset 7, -8
 1186              		.cfi_offset 14, -4
 1187 0002 00AF     		add	r7, sp, #0
 1188              	.LCFI28:
 1189              		.cfi_def_cfa_register 7
 486:.\Generated_Source\PSoC4/isr_uart.c ****     *isr_uart_INTC_SET_PD = isr_uart__INTC_MASK;
 1190              		.loc 1 486 0
 1191 0004 024B     		ldr	r3, .L64
 1192 0006 8022     		mov	r2, #128
 1193 0008 1201     		lsl	r2, r2, #4
 1194 000a 1A60     		str	r2, [r3]
 487:.\Generated_Source\PSoC4/isr_uart.c **** }
 1195              		.loc 1 487 0
 1196 000c BD46     		mov	sp, r7
 1197              		@ sp needed for prologue
 1198 000e 80BD     		pop	{r7, pc}
 1199              	.L65:
 1200              		.align	2
 1201              	.L64:
 1202 0010 00E200E0 		.word	-536813056
 1203              		.cfi_endproc
 1204              	.LFE11:
 1205              		.size	isr_uart_SetPending, .-isr_uart_SetPending
 1206              		.section	.text.isr_uart_ClearPending,"ax",%progbits
 1207              		.align	2
 1208              		.global	isr_uart_ClearPending
 1209              		.code	16
 1210              		.thumb_func
 1211              		.type	isr_uart_ClearPending, %function
 1212              	isr_uart_ClearPending:
 1213              	.LFB12:
 488:.\Generated_Source\PSoC4/isr_uart.c **** 
 489:.\Generated_Source\PSoC4/isr_uart.c **** 
 490:.\Generated_Source\PSoC4/isr_uart.c **** /*******************************************************************************
 491:.\Generated_Source\PSoC4/isr_uart.c **** * Function Name: isr_uart_ClearPending
ARM GAS  C:\Users\OEBN\AppData\Local\Temp\ccqGCQsF.s 			page 31


 492:.\Generated_Source\PSoC4/isr_uart.c **** ********************************************************************************
 493:.\Generated_Source\PSoC4/isr_uart.c **** *
 494:.\Generated_Source\PSoC4/isr_uart.c **** * Summary:
 495:.\Generated_Source\PSoC4/isr_uart.c **** *   Clears a pending interrupt.
 496:.\Generated_Source\PSoC4/isr_uart.c **** *
 497:.\Generated_Source\PSoC4/isr_uart.c **** * Parameters:
 498:.\Generated_Source\PSoC4/isr_uart.c **** *   None
 499:.\Generated_Source\PSoC4/isr_uart.c **** *
 500:.\Generated_Source\PSoC4/isr_uart.c **** * Return:
 501:.\Generated_Source\PSoC4/isr_uart.c **** *   None
 502:.\Generated_Source\PSoC4/isr_uart.c **** *
 503:.\Generated_Source\PSoC4/isr_uart.c **** *******************************************************************************/
 504:.\Generated_Source\PSoC4/isr_uart.c **** void isr_uart_ClearPending(void)
 505:.\Generated_Source\PSoC4/isr_uart.c **** {
 1214              		.loc 1 505 0
 1215              		.cfi_startproc
 1216 0000 80B5     		push	{r7, lr}
 1217              	.LCFI29:
 1218              		.cfi_def_cfa_offset 8
 1219              		.cfi_offset 7, -8
 1220              		.cfi_offset 14, -4
 1221 0002 00AF     		add	r7, sp, #0
 1222              	.LCFI30:
 1223              		.cfi_def_cfa_register 7
 506:.\Generated_Source\PSoC4/isr_uart.c ****     *isr_uart_INTC_CLR_PD = isr_uart__INTC_MASK;
 1224              		.loc 1 506 0
 1225 0004 024B     		ldr	r3, .L67
 1226 0006 8022     		mov	r2, #128
 1227 0008 1201     		lsl	r2, r2, #4
 1228 000a 1A60     		str	r2, [r3]
 507:.\Generated_Source\PSoC4/isr_uart.c **** }
 1229              		.loc 1 507 0
 1230 000c BD46     		mov	sp, r7
 1231              		@ sp needed for prologue
 1232 000e 80BD     		pop	{r7, pc}
 1233              	.L68:
 1234              		.align	2
 1235              	.L67:
 1236 0010 80E200E0 		.word	-536812928
 1237              		.cfi_endproc
 1238              	.LFE12:
 1239              		.size	isr_uart_ClearPending, .-isr_uart_ClearPending
 1240              		.text
 1241              	.Letext0:
 1242              		.file 2 "c:\\program files (x86)\\cypress\\psoc creator\\3.0\\psoc creator\\import\\gnu_cs\\arm\\4
 1243              		.file 3 "./Generated_Source/PSoC4/cytypes.h"
 1244              		.section	.debug_info,"",%progbits
 1245              	.Ldebug_info0:
 1246 0000 96030000 		.4byte	0x396
 1247 0004 0200     		.2byte	0x2
 1248 0006 00000000 		.4byte	.Ldebug_abbrev0
 1249 000a 04       		.byte	0x4
 1250 000b 01       		.uleb128 0x1
 1251 000c 4A020000 		.4byte	.LASF48
 1252 0010 01       		.byte	0x1
 1253 0011 29000000 		.4byte	.LASF49
 1254 0015 64010000 		.4byte	.LASF50
ARM GAS  C:\Users\OEBN\AppData\Local\Temp\ccqGCQsF.s 			page 32


 1255 0019 00000000 		.4byte	.Ldebug_ranges0+0
 1256 001d 00000000 		.4byte	0
 1257 0021 00000000 		.4byte	0
 1258 0025 00000000 		.4byte	.Ldebug_line0
 1259 0029 02       		.uleb128 0x2
 1260 002a CD000000 		.4byte	.LASF0
 1261 002e 02       		.byte	0x2
 1262 002f 29       		.byte	0x29
 1263 0030 34000000 		.4byte	0x34
 1264 0034 03       		.uleb128 0x3
 1265 0035 01       		.byte	0x1
 1266 0036 06       		.byte	0x6
 1267 0037 CE020000 		.4byte	.LASF2
 1268 003b 02       		.uleb128 0x2
 1269 003c A8000000 		.4byte	.LASF1
 1270 0040 02       		.byte	0x2
 1271 0041 2A       		.byte	0x2a
 1272 0042 46000000 		.4byte	0x46
 1273 0046 03       		.uleb128 0x3
 1274 0047 01       		.byte	0x1
 1275 0048 08       		.byte	0x8
 1276 0049 F6000000 		.4byte	.LASF3
 1277 004d 02       		.uleb128 0x2
 1278 004e E8010000 		.4byte	.LASF4
 1279 0052 02       		.byte	0x2
 1280 0053 35       		.byte	0x35
 1281 0054 58000000 		.4byte	0x58
 1282 0058 03       		.uleb128 0x3
 1283 0059 02       		.byte	0x2
 1284 005a 05       		.byte	0x5
 1285 005b 2F020000 		.4byte	.LASF5
 1286 005f 03       		.uleb128 0x3
 1287 0060 02       		.byte	0x2
 1288 0061 07       		.byte	0x7
 1289 0062 95000000 		.4byte	.LASF6
 1290 0066 02       		.uleb128 0x2
 1291 0067 02020000 		.4byte	.LASF7
 1292 006b 02       		.byte	0x2
 1293 006c 4F       		.byte	0x4f
 1294 006d 71000000 		.4byte	0x71
 1295 0071 03       		.uleb128 0x3
 1296 0072 04       		.byte	0x4
 1297 0073 05       		.byte	0x5
 1298 0074 BF020000 		.4byte	.LASF8
 1299 0078 03       		.uleb128 0x3
 1300 0079 04       		.byte	0x4
 1301 007a 07       		.byte	0x7
 1302 007b 13010000 		.4byte	.LASF9
 1303 007f 03       		.uleb128 0x3
 1304 0080 08       		.byte	0x8
 1305 0081 05       		.byte	0x5
 1306 0082 13020000 		.4byte	.LASF10
 1307 0086 03       		.uleb128 0x3
 1308 0087 08       		.byte	0x8
 1309 0088 07       		.byte	0x7
 1310 0089 C4010000 		.4byte	.LASF11
 1311 008d 04       		.uleb128 0x4
ARM GAS  C:\Users\OEBN\AppData\Local\Temp\ccqGCQsF.s 			page 33


 1312 008e 04       		.byte	0x4
 1313 008f 05       		.byte	0x5
 1314 0090 696E7400 		.ascii	"int\000"
 1315 0094 03       		.uleb128 0x3
 1316 0095 04       		.byte	0x4
 1317 0096 07       		.byte	0x7
 1318 0097 AF010000 		.4byte	.LASF12
 1319 009b 02       		.uleb128 0x2
 1320 009c 25010000 		.4byte	.LASF13
 1321 00a0 03       		.byte	0x3
 1322 00a1 5B       		.byte	0x5b
 1323 00a2 46000000 		.4byte	0x46
 1324 00a6 02       		.uleb128 0x2
 1325 00a7 9C010000 		.4byte	.LASF14
 1326 00ab 03       		.byte	0x3
 1327 00ac 5D       		.byte	0x5d
 1328 00ad 78000000 		.4byte	0x78
 1329 00b1 03       		.uleb128 0x3
 1330 00b2 04       		.byte	0x4
 1331 00b3 04       		.byte	0x4
 1332 00b4 DF000000 		.4byte	.LASF15
 1333 00b8 03       		.uleb128 0x3
 1334 00b9 08       		.byte	0x8
 1335 00ba 04       		.byte	0x4
 1336 00bb 4A010000 		.4byte	.LASF16
 1337 00bf 03       		.uleb128 0x3
 1338 00c0 01       		.byte	0x1
 1339 00c1 08       		.byte	0x8
 1340 00c2 21020000 		.4byte	.LASF17
 1341 00c6 02       		.uleb128 0x2
 1342 00c7 C8020000 		.4byte	.LASF18
 1343 00cb 03       		.byte	0x3
 1344 00cc F2       		.byte	0xf2
 1345 00cd D1000000 		.4byte	0xd1
 1346 00d1 05       		.uleb128 0x5
 1347 00d2 A6000000 		.4byte	0xa6
 1348 00d6 06       		.uleb128 0x6
 1349 00d7 DB010000 		.4byte	.LASF19
 1350 00db 03       		.byte	0x3
 1351 00dc 0201     		.2byte	0x102
 1352 00de E2000000 		.4byte	0xe2
 1353 00e2 07       		.uleb128 0x7
 1354 00e3 04       		.byte	0x4
 1355 00e4 E8000000 		.4byte	0xe8
 1356 00e8 08       		.uleb128 0x8
 1357 00e9 01       		.byte	0x1
 1358 00ea 03       		.uleb128 0x3
 1359 00eb 04       		.byte	0x4
 1360 00ec 07       		.byte	0x7
 1361 00ed 0A020000 		.4byte	.LASF20
 1362 00f1 09       		.uleb128 0x9
 1363 00f2 01       		.byte	0x1
 1364 00f3 76000000 		.4byte	.LASF21
 1365 00f7 01       		.byte	0x1
 1366 00f8 42       		.byte	0x42
 1367 00f9 01       		.byte	0x1
 1368 00fa 00000000 		.4byte	.LFB0
ARM GAS  C:\Users\OEBN\AppData\Local\Temp\ccqGCQsF.s 			page 34


 1369 00fe 24000000 		.4byte	.LFE0
 1370 0102 00000000 		.4byte	.LLST0
 1371 0106 01       		.byte	0x1
 1372 0107 0A       		.uleb128 0xa
 1373 0108 01       		.byte	0x1
 1374 0109 39020000 		.4byte	.LASF23
 1375 010d 01       		.byte	0x1
 1376 010e 60       		.byte	0x60
 1377 010f 01       		.byte	0x1
 1378 0110 00000000 		.4byte	.LFB1
 1379 0114 24000000 		.4byte	.LFE1
 1380 0118 2C000000 		.4byte	.LLST1
 1381 011c 01       		.byte	0x1
 1382 011d 30010000 		.4byte	0x130
 1383 0121 0B       		.uleb128 0xb
 1384 0122 BC010000 		.4byte	.LASF27
 1385 0126 01       		.byte	0x1
 1386 0127 60       		.byte	0x60
 1387 0128 D6000000 		.4byte	0xd6
 1388 012c 02       		.byte	0x2
 1389 012d 91       		.byte	0x91
 1390 012e 74       		.sleb128 -12
 1391 012f 00       		.byte	0
 1392 0130 09       		.uleb128 0x9
 1393 0131 01       		.byte	0x1
 1394 0132 8E010000 		.4byte	.LASF22
 1395 0136 01       		.byte	0x1
 1396 0137 7D       		.byte	0x7d
 1397 0138 01       		.byte	0x1
 1398 0139 00000000 		.4byte	.LFB2
 1399 013d 18000000 		.4byte	.LFE2
 1400 0141 64000000 		.4byte	.LLST2
 1401 0145 01       		.byte	0x1
 1402 0146 0A       		.uleb128 0xa
 1403 0147 01       		.byte	0x1
 1404 0148 E6020000 		.4byte	.LASF24
 1405 014c 01       		.byte	0x1
 1406 014d 98       		.byte	0x98
 1407 014e 01       		.byte	0x1
 1408 014f 00000000 		.4byte	.LFB3
 1409 0153 70040000 		.4byte	.LFE3
 1410 0157 90000000 		.4byte	.LLST3
 1411 015b 01       		.byte	0x1
 1412 015c 7B010000 		.4byte	0x17b
 1413 0160 0C       		.uleb128 0xc
 1414 0161 C6000000 		.4byte	.LASF25
 1415 0165 01       		.byte	0x1
 1416 0166 9C       		.byte	0x9c
 1417 0167 A6000000 		.4byte	0xa6
 1418 016b 02       		.byte	0x2
 1419 016c 91       		.byte	0x91
 1420 016d 68       		.sleb128 -24
 1421 016e 0D       		.uleb128 0xd
 1422 016f 6900     		.ascii	"i\000"
 1423 0171 01       		.byte	0x1
 1424 0172 9D       		.byte	0x9d
 1425 0173 3B000000 		.4byte	0x3b
ARM GAS  C:\Users\OEBN\AppData\Local\Temp\ccqGCQsF.s 			page 35


 1426 0177 02       		.byte	0x2
 1427 0178 91       		.byte	0x91
 1428 0179 6F       		.sleb128 -17
 1429 017a 00       		.byte	0
 1430 017b 0E       		.uleb128 0xe
 1431 017c 01       		.byte	0x1
 1432 017d 51010000 		.4byte	.LASF26
 1433 0181 01       		.byte	0x1
 1434 0182 4501     		.2byte	0x145
 1435 0184 01       		.byte	0x1
 1436 0185 00000000 		.4byte	.LFB4
 1437 0189 18000000 		.4byte	.LFE4
 1438 018d C8000000 		.4byte	.LLST4
 1439 0191 01       		.byte	0x1
 1440 0192 A6010000 		.4byte	0x1a6
 1441 0196 0F       		.uleb128 0xf
 1442 0197 BC010000 		.4byte	.LASF27
 1443 019b 01       		.byte	0x1
 1444 019c 4501     		.2byte	0x145
 1445 019e D6000000 		.4byte	0xd6
 1446 01a2 02       		.byte	0x2
 1447 01a3 91       		.byte	0x91
 1448 01a4 74       		.sleb128 -12
 1449 01a5 00       		.byte	0
 1450 01a6 10       		.uleb128 0x10
 1451 01a7 01       		.byte	0x1
 1452 01a8 93020000 		.4byte	.LASF33
 1453 01ac 01       		.byte	0x1
 1454 01ad 5901     		.2byte	0x159
 1455 01af 01       		.byte	0x1
 1456 01b0 D6000000 		.4byte	0xd6
 1457 01b4 00000000 		.4byte	.LFB5
 1458 01b8 14000000 		.4byte	.LFE5
 1459 01bc 00010000 		.4byte	.LLST5
 1460 01c0 01       		.byte	0x1
 1461 01c1 11       		.uleb128 0x11
 1462 01c2 01       		.byte	0x1
 1463 01c3 35010000 		.4byte	.LASF28
 1464 01c7 01       		.byte	0x1
 1465 01c8 7101     		.2byte	0x171
 1466 01ca 01       		.byte	0x1
 1467 01cb 00000000 		.4byte	.LFB6
 1468 01cf 4C000000 		.4byte	.LFE6
 1469 01d3 2C010000 		.4byte	.LLST6
 1470 01d7 01       		.byte	0x1
 1471 01d8 0A020000 		.4byte	0x20a
 1472 01dc 0F       		.uleb128 0xf
 1473 01dd 85010000 		.4byte	.LASF29
 1474 01e1 01       		.byte	0x1
 1475 01e2 7101     		.2byte	0x171
 1476 01e4 9B000000 		.4byte	0x9b
 1477 01e8 02       		.byte	0x2
 1478 01e9 91       		.byte	0x91
 1479 01ea 67       		.sleb128 -25
 1480 01eb 12       		.uleb128 0x12
 1481 01ec 04010000 		.4byte	.LASF30
 1482 01f0 01       		.byte	0x1
ARM GAS  C:\Users\OEBN\AppData\Local\Temp\ccqGCQsF.s 			page 36


 1483 01f1 7301     		.2byte	0x173
 1484 01f3 9B000000 		.4byte	0x9b
 1485 01f7 02       		.byte	0x2
 1486 01f8 91       		.byte	0x91
 1487 01f9 6B       		.sleb128 -21
 1488 01fa 12       		.uleb128 0x12
 1489 01fb A6020000 		.4byte	.LASF31
 1490 01ff 01       		.byte	0x1
 1491 0200 7401     		.2byte	0x174
 1492 0202 A6000000 		.4byte	0xa6
 1493 0206 02       		.byte	0x2
 1494 0207 91       		.byte	0x91
 1495 0208 6C       		.sleb128 -20
 1496 0209 00       		.byte	0
 1497 020a 13       		.uleb128 0x13
 1498 020b 01       		.byte	0x1
 1499 020c 00000000 		.4byte	.LASF51
 1500 0210 01       		.byte	0x1
 1501 0211 8B01     		.2byte	0x18b
 1502 0213 01       		.byte	0x1
 1503 0214 9B000000 		.4byte	0x9b
 1504 0218 00000000 		.4byte	.LFB7
 1505 021c 2C000000 		.4byte	.LFE7
 1506 0220 64010000 		.4byte	.LLST7
 1507 0224 01       		.byte	0x1
 1508 0225 48020000 		.4byte	0x248
 1509 0229 12       		.uleb128 0x12
 1510 022a 85010000 		.4byte	.LASF29
 1511 022e 01       		.byte	0x1
 1512 022f 8D01     		.2byte	0x18d
 1513 0231 A6000000 		.4byte	0xa6
 1514 0235 02       		.byte	0x2
 1515 0236 91       		.byte	0x91
 1516 0237 70       		.sleb128 -16
 1517 0238 12       		.uleb128 0x12
 1518 0239 A6020000 		.4byte	.LASF31
 1519 023d 01       		.byte	0x1
 1520 023e 8E01     		.2byte	0x18e
 1521 0240 A6000000 		.4byte	0xa6
 1522 0244 02       		.byte	0x2
 1523 0245 91       		.byte	0x91
 1524 0246 74       		.sleb128 -12
 1525 0247 00       		.byte	0
 1526 0248 14       		.uleb128 0x14
 1527 0249 01       		.byte	0x1
 1528 024a 85000000 		.4byte	.LASF32
 1529 024e 01       		.byte	0x1
 1530 024f A401     		.2byte	0x1a4
 1531 0251 01       		.byte	0x1
 1532 0252 00000000 		.4byte	.LFB8
 1533 0256 14000000 		.4byte	.LFE8
 1534 025a 9C010000 		.4byte	.LLST8
 1535 025e 01       		.byte	0x1
 1536 025f 10       		.uleb128 0x10
 1537 0260 01       		.byte	0x1
 1538 0261 F0010000 		.4byte	.LASF34
 1539 0265 01       		.byte	0x1
ARM GAS  C:\Users\OEBN\AppData\Local\Temp\ccqGCQsF.s 			page 37


 1540 0266 B901     		.2byte	0x1b9
 1541 0268 01       		.byte	0x1
 1542 0269 9B000000 		.4byte	0x9b
 1543 026d 00000000 		.4byte	.LFB9
 1544 0271 20000000 		.4byte	.LFE9
 1545 0275 C8010000 		.4byte	.LLST9
 1546 0279 01       		.byte	0x1
 1547 027a 14       		.uleb128 0x14
 1548 027b 01       		.byte	0x1
 1549 027c E5000000 		.4byte	.LASF35
 1550 0280 01       		.byte	0x1
 1551 0281 CE01     		.2byte	0x1ce
 1552 0283 01       		.byte	0x1
 1553 0284 00000000 		.4byte	.LFB10
 1554 0288 14000000 		.4byte	.LFE10
 1555 028c F4010000 		.4byte	.LLST10
 1556 0290 01       		.byte	0x1
 1557 0291 14       		.uleb128 0x14
 1558 0292 01       		.byte	0x1
 1559 0293 15000000 		.4byte	.LASF36
 1560 0297 01       		.byte	0x1
 1561 0298 E401     		.2byte	0x1e4
 1562 029a 01       		.byte	0x1
 1563 029b 00000000 		.4byte	.LFB11
 1564 029f 14000000 		.4byte	.LFE11
 1565 02a3 20020000 		.4byte	.LLST11
 1566 02a7 01       		.byte	0x1
 1567 02a8 14       		.uleb128 0x14
 1568 02a9 01       		.byte	0x1
 1569 02aa B0000000 		.4byte	.LASF37
 1570 02ae 01       		.byte	0x1
 1571 02af F801     		.2byte	0x1f8
 1572 02b1 01       		.byte	0x1
 1573 02b2 00000000 		.4byte	.LFB12
 1574 02b6 14000000 		.4byte	.LFE12
 1575 02ba 4C020000 		.4byte	.LLST12
 1576 02be 01       		.byte	0x1
 1577 02bf 15       		.uleb128 0x15
 1578 02c0 D4000000 		.4byte	.LASF38
 1579 02c4 01       		.byte	0x1
 1580 02c5 21       		.byte	0x21
 1581 02c6 29000000 		.4byte	0x29
 1582 02ca 01       		.byte	0x1
 1583 02cb 05       		.byte	0x5
 1584 02cc 03       		.byte	0x3
 1585 02cd 00000000 		.4byte	frameStart
 1586 02d1 15       		.uleb128 0x15
 1587 02d2 26020000 		.4byte	.LASF39
 1588 02d6 01       		.byte	0x1
 1589 02d7 22       		.byte	0x22
 1590 02d8 29000000 		.4byte	0x29
 1591 02dc 01       		.byte	0x1
 1592 02dd 05       		.byte	0x5
 1593 02de 03       		.byte	0x3
 1594 02df 00000000 		.4byte	senderID
 1595 02e3 15       		.uleb128 0x15
 1596 02e4 DA020000 		.4byte	.LASF40
ARM GAS  C:\Users\OEBN\AppData\Local\Temp\ccqGCQsF.s 			page 38


 1597 02e8 01       		.byte	0x1
 1598 02e9 23       		.byte	0x23
 1599 02ea 29000000 		.4byte	0x29
 1600 02ee 01       		.byte	0x1
 1601 02ef 05       		.byte	0x5
 1602 02f0 03       		.byte	0x3
 1603 02f1 00000000 		.4byte	senderClass
 1604 02f5 15       		.uleb128 0x15
 1605 02f6 4D000000 		.4byte	.LASF41
 1606 02fa 01       		.byte	0x1
 1607 02fb 24       		.byte	0x24
 1608 02fc 29000000 		.4byte	0x29
 1609 0300 01       		.byte	0x1
 1610 0301 05       		.byte	0x5
 1611 0302 03       		.byte	0x3
 1612 0303 00000000 		.4byte	frameID
 1613 0307 15       		.uleb128 0x15
 1614 0308 62000000 		.4byte	.LASF42
 1615 030c 01       		.byte	0x1
 1616 030d 25       		.byte	0x25
 1617 030e 66000000 		.4byte	0x66
 1618 0312 01       		.byte	0x1
 1619 0313 05       		.byte	0x5
 1620 0314 03       		.byte	0x3
 1621 0315 00000000 		.4byte	count
 1622 0319 15       		.uleb128 0x15
 1623 031a B5020000 		.4byte	.LASF43
 1624 031e 01       		.byte	0x1
 1625 031f 26       		.byte	0x26
 1626 0320 66000000 		.4byte	0x66
 1627 0324 01       		.byte	0x1
 1628 0325 05       		.byte	0x5
 1629 0326 03       		.byte	0x3
 1630 0327 00000000 		.4byte	tempcount
 1631 032b 15       		.uleb128 0x15
 1632 032c 2B010000 		.4byte	.LASF44
 1633 0330 01       		.byte	0x1
 1634 0331 27       		.byte	0x27
 1635 0332 29000000 		.4byte	0x29
 1636 0336 01       		.byte	0x1
 1637 0337 05       		.byte	0x5
 1638 0338 03       		.byte	0x3
 1639 0339 00000000 		.4byte	byteCount
 1640 033d 16       		.uleb128 0x16
 1641 033e 4D000000 		.4byte	0x4d
 1642 0342 4D030000 		.4byte	0x34d
 1643 0346 17       		.uleb128 0x17
 1644 0347 EA000000 		.4byte	0xea
 1645 034b 07       		.byte	0x7
 1646 034c 00       		.byte	0
 1647 034d 15       		.uleb128 0x15
 1648 034e A3010000 		.4byte	.LASF45
 1649 0352 01       		.byte	0x1
 1650 0353 28       		.byte	0x28
 1651 0354 3D030000 		.4byte	0x33d
 1652 0358 01       		.byte	0x1
 1653 0359 05       		.byte	0x5
ARM GAS  C:\Users\OEBN\AppData\Local\Temp\ccqGCQsF.s 			page 39


 1654 035a 03       		.byte	0x3
 1655 035b 00000000 		.4byte	channelTime
 1656 035f 16       		.uleb128 0x16
 1657 0360 3B000000 		.4byte	0x3b
 1658 0364 6F030000 		.4byte	0x36f
 1659 0368 17       		.uleb128 0x17
 1660 0369 EA000000 		.4byte	0xea
 1661 036d 03       		.byte	0x3
 1662 036e 00       		.byte	0
 1663 036f 18       		.uleb128 0x18
 1664 0370 68000000 		.4byte	.LASF46
 1665 0374 01       		.byte	0x1
 1666 0375 2A       		.byte	0x2a
 1667 0376 5F030000 		.4byte	0x35f
 1668 037a 01       		.byte	0x1
 1669 037b 01       		.byte	0x1
 1670 037c 16       		.uleb128 0x16
 1671 037d D6000000 		.4byte	0xd6
 1672 0381 8C030000 		.4byte	0x38c
 1673 0385 17       		.uleb128 0x17
 1674 0386 EA000000 		.4byte	0xea
 1675 038a 2F       		.byte	0x2f
 1676 038b 00       		.byte	0
 1677 038c 18       		.uleb128 0x18
 1678 038d 55000000 		.4byte	.LASF47
 1679 0391 01       		.byte	0x1
 1680 0392 2E       		.byte	0x2e
 1681 0393 7C030000 		.4byte	0x37c
 1682 0397 01       		.byte	0x1
 1683 0398 01       		.byte	0x1
 1684 0399 00       		.byte	0
 1685              		.section	.debug_abbrev,"",%progbits
 1686              	.Ldebug_abbrev0:
 1687 0000 01       		.uleb128 0x1
 1688 0001 11       		.uleb128 0x11
 1689 0002 01       		.byte	0x1
 1690 0003 25       		.uleb128 0x25
 1691 0004 0E       		.uleb128 0xe
 1692 0005 13       		.uleb128 0x13
 1693 0006 0B       		.uleb128 0xb
 1694 0007 03       		.uleb128 0x3
 1695 0008 0E       		.uleb128 0xe
 1696 0009 1B       		.uleb128 0x1b
 1697 000a 0E       		.uleb128 0xe
 1698 000b 55       		.uleb128 0x55
 1699 000c 06       		.uleb128 0x6
 1700 000d 11       		.uleb128 0x11
 1701 000e 01       		.uleb128 0x1
 1702 000f 52       		.uleb128 0x52
 1703 0010 01       		.uleb128 0x1
 1704 0011 10       		.uleb128 0x10
 1705 0012 06       		.uleb128 0x6
 1706 0013 00       		.byte	0
 1707 0014 00       		.byte	0
 1708 0015 02       		.uleb128 0x2
 1709 0016 16       		.uleb128 0x16
 1710 0017 00       		.byte	0
ARM GAS  C:\Users\OEBN\AppData\Local\Temp\ccqGCQsF.s 			page 40


 1711 0018 03       		.uleb128 0x3
 1712 0019 0E       		.uleb128 0xe
 1713 001a 3A       		.uleb128 0x3a
 1714 001b 0B       		.uleb128 0xb
 1715 001c 3B       		.uleb128 0x3b
 1716 001d 0B       		.uleb128 0xb
 1717 001e 49       		.uleb128 0x49
 1718 001f 13       		.uleb128 0x13
 1719 0020 00       		.byte	0
 1720 0021 00       		.byte	0
 1721 0022 03       		.uleb128 0x3
 1722 0023 24       		.uleb128 0x24
 1723 0024 00       		.byte	0
 1724 0025 0B       		.uleb128 0xb
 1725 0026 0B       		.uleb128 0xb
 1726 0027 3E       		.uleb128 0x3e
 1727 0028 0B       		.uleb128 0xb
 1728 0029 03       		.uleb128 0x3
 1729 002a 0E       		.uleb128 0xe
 1730 002b 00       		.byte	0
 1731 002c 00       		.byte	0
 1732 002d 04       		.uleb128 0x4
 1733 002e 24       		.uleb128 0x24
 1734 002f 00       		.byte	0
 1735 0030 0B       		.uleb128 0xb
 1736 0031 0B       		.uleb128 0xb
 1737 0032 3E       		.uleb128 0x3e
 1738 0033 0B       		.uleb128 0xb
 1739 0034 03       		.uleb128 0x3
 1740 0035 08       		.uleb128 0x8
 1741 0036 00       		.byte	0
 1742 0037 00       		.byte	0
 1743 0038 05       		.uleb128 0x5
 1744 0039 35       		.uleb128 0x35
 1745 003a 00       		.byte	0
 1746 003b 49       		.uleb128 0x49
 1747 003c 13       		.uleb128 0x13
 1748 003d 00       		.byte	0
 1749 003e 00       		.byte	0
 1750 003f 06       		.uleb128 0x6
 1751 0040 16       		.uleb128 0x16
 1752 0041 00       		.byte	0
 1753 0042 03       		.uleb128 0x3
 1754 0043 0E       		.uleb128 0xe
 1755 0044 3A       		.uleb128 0x3a
 1756 0045 0B       		.uleb128 0xb
 1757 0046 3B       		.uleb128 0x3b
 1758 0047 05       		.uleb128 0x5
 1759 0048 49       		.uleb128 0x49
 1760 0049 13       		.uleb128 0x13
 1761 004a 00       		.byte	0
 1762 004b 00       		.byte	0
 1763 004c 07       		.uleb128 0x7
 1764 004d 0F       		.uleb128 0xf
 1765 004e 00       		.byte	0
 1766 004f 0B       		.uleb128 0xb
 1767 0050 0B       		.uleb128 0xb
ARM GAS  C:\Users\OEBN\AppData\Local\Temp\ccqGCQsF.s 			page 41


 1768 0051 49       		.uleb128 0x49
 1769 0052 13       		.uleb128 0x13
 1770 0053 00       		.byte	0
 1771 0054 00       		.byte	0
 1772 0055 08       		.uleb128 0x8
 1773 0056 15       		.uleb128 0x15
 1774 0057 00       		.byte	0
 1775 0058 27       		.uleb128 0x27
 1776 0059 0C       		.uleb128 0xc
 1777 005a 00       		.byte	0
 1778 005b 00       		.byte	0
 1779 005c 09       		.uleb128 0x9
 1780 005d 2E       		.uleb128 0x2e
 1781 005e 00       		.byte	0
 1782 005f 3F       		.uleb128 0x3f
 1783 0060 0C       		.uleb128 0xc
 1784 0061 03       		.uleb128 0x3
 1785 0062 0E       		.uleb128 0xe
 1786 0063 3A       		.uleb128 0x3a
 1787 0064 0B       		.uleb128 0xb
 1788 0065 3B       		.uleb128 0x3b
 1789 0066 0B       		.uleb128 0xb
 1790 0067 27       		.uleb128 0x27
 1791 0068 0C       		.uleb128 0xc
 1792 0069 11       		.uleb128 0x11
 1793 006a 01       		.uleb128 0x1
 1794 006b 12       		.uleb128 0x12
 1795 006c 01       		.uleb128 0x1
 1796 006d 40       		.uleb128 0x40
 1797 006e 06       		.uleb128 0x6
 1798 006f 9642     		.uleb128 0x2116
 1799 0071 0C       		.uleb128 0xc
 1800 0072 00       		.byte	0
 1801 0073 00       		.byte	0
 1802 0074 0A       		.uleb128 0xa
 1803 0075 2E       		.uleb128 0x2e
 1804 0076 01       		.byte	0x1
 1805 0077 3F       		.uleb128 0x3f
 1806 0078 0C       		.uleb128 0xc
 1807 0079 03       		.uleb128 0x3
 1808 007a 0E       		.uleb128 0xe
 1809 007b 3A       		.uleb128 0x3a
 1810 007c 0B       		.uleb128 0xb
 1811 007d 3B       		.uleb128 0x3b
 1812 007e 0B       		.uleb128 0xb
 1813 007f 27       		.uleb128 0x27
 1814 0080 0C       		.uleb128 0xc
 1815 0081 11       		.uleb128 0x11
 1816 0082 01       		.uleb128 0x1
 1817 0083 12       		.uleb128 0x12
 1818 0084 01       		.uleb128 0x1
 1819 0085 40       		.uleb128 0x40
 1820 0086 06       		.uleb128 0x6
 1821 0087 9642     		.uleb128 0x2116
 1822 0089 0C       		.uleb128 0xc
 1823 008a 01       		.uleb128 0x1
 1824 008b 13       		.uleb128 0x13
ARM GAS  C:\Users\OEBN\AppData\Local\Temp\ccqGCQsF.s 			page 42


 1825 008c 00       		.byte	0
 1826 008d 00       		.byte	0
 1827 008e 0B       		.uleb128 0xb
 1828 008f 05       		.uleb128 0x5
 1829 0090 00       		.byte	0
 1830 0091 03       		.uleb128 0x3
 1831 0092 0E       		.uleb128 0xe
 1832 0093 3A       		.uleb128 0x3a
 1833 0094 0B       		.uleb128 0xb
 1834 0095 3B       		.uleb128 0x3b
 1835 0096 0B       		.uleb128 0xb
 1836 0097 49       		.uleb128 0x49
 1837 0098 13       		.uleb128 0x13
 1838 0099 02       		.uleb128 0x2
 1839 009a 0A       		.uleb128 0xa
 1840 009b 00       		.byte	0
 1841 009c 00       		.byte	0
 1842 009d 0C       		.uleb128 0xc
 1843 009e 34       		.uleb128 0x34
 1844 009f 00       		.byte	0
 1845 00a0 03       		.uleb128 0x3
 1846 00a1 0E       		.uleb128 0xe
 1847 00a2 3A       		.uleb128 0x3a
 1848 00a3 0B       		.uleb128 0xb
 1849 00a4 3B       		.uleb128 0x3b
 1850 00a5 0B       		.uleb128 0xb
 1851 00a6 49       		.uleb128 0x49
 1852 00a7 13       		.uleb128 0x13
 1853 00a8 02       		.uleb128 0x2
 1854 00a9 0A       		.uleb128 0xa
 1855 00aa 00       		.byte	0
 1856 00ab 00       		.byte	0
 1857 00ac 0D       		.uleb128 0xd
 1858 00ad 34       		.uleb128 0x34
 1859 00ae 00       		.byte	0
 1860 00af 03       		.uleb128 0x3
 1861 00b0 08       		.uleb128 0x8
 1862 00b1 3A       		.uleb128 0x3a
 1863 00b2 0B       		.uleb128 0xb
 1864 00b3 3B       		.uleb128 0x3b
 1865 00b4 0B       		.uleb128 0xb
 1866 00b5 49       		.uleb128 0x49
 1867 00b6 13       		.uleb128 0x13
 1868 00b7 02       		.uleb128 0x2
 1869 00b8 0A       		.uleb128 0xa
 1870 00b9 00       		.byte	0
 1871 00ba 00       		.byte	0
 1872 00bb 0E       		.uleb128 0xe
 1873 00bc 2E       		.uleb128 0x2e
 1874 00bd 01       		.byte	0x1
 1875 00be 3F       		.uleb128 0x3f
 1876 00bf 0C       		.uleb128 0xc
 1877 00c0 03       		.uleb128 0x3
 1878 00c1 0E       		.uleb128 0xe
 1879 00c2 3A       		.uleb128 0x3a
 1880 00c3 0B       		.uleb128 0xb
 1881 00c4 3B       		.uleb128 0x3b
ARM GAS  C:\Users\OEBN\AppData\Local\Temp\ccqGCQsF.s 			page 43


 1882 00c5 05       		.uleb128 0x5
 1883 00c6 27       		.uleb128 0x27
 1884 00c7 0C       		.uleb128 0xc
 1885 00c8 11       		.uleb128 0x11
 1886 00c9 01       		.uleb128 0x1
 1887 00ca 12       		.uleb128 0x12
 1888 00cb 01       		.uleb128 0x1
 1889 00cc 40       		.uleb128 0x40
 1890 00cd 06       		.uleb128 0x6
 1891 00ce 9742     		.uleb128 0x2117
 1892 00d0 0C       		.uleb128 0xc
 1893 00d1 01       		.uleb128 0x1
 1894 00d2 13       		.uleb128 0x13
 1895 00d3 00       		.byte	0
 1896 00d4 00       		.byte	0
 1897 00d5 0F       		.uleb128 0xf
 1898 00d6 05       		.uleb128 0x5
 1899 00d7 00       		.byte	0
 1900 00d8 03       		.uleb128 0x3
 1901 00d9 0E       		.uleb128 0xe
 1902 00da 3A       		.uleb128 0x3a
 1903 00db 0B       		.uleb128 0xb
 1904 00dc 3B       		.uleb128 0x3b
 1905 00dd 05       		.uleb128 0x5
 1906 00de 49       		.uleb128 0x49
 1907 00df 13       		.uleb128 0x13
 1908 00e0 02       		.uleb128 0x2
 1909 00e1 0A       		.uleb128 0xa
 1910 00e2 00       		.byte	0
 1911 00e3 00       		.byte	0
 1912 00e4 10       		.uleb128 0x10
 1913 00e5 2E       		.uleb128 0x2e
 1914 00e6 00       		.byte	0
 1915 00e7 3F       		.uleb128 0x3f
 1916 00e8 0C       		.uleb128 0xc
 1917 00e9 03       		.uleb128 0x3
 1918 00ea 0E       		.uleb128 0xe
 1919 00eb 3A       		.uleb128 0x3a
 1920 00ec 0B       		.uleb128 0xb
 1921 00ed 3B       		.uleb128 0x3b
 1922 00ee 05       		.uleb128 0x5
 1923 00ef 27       		.uleb128 0x27
 1924 00f0 0C       		.uleb128 0xc
 1925 00f1 49       		.uleb128 0x49
 1926 00f2 13       		.uleb128 0x13
 1927 00f3 11       		.uleb128 0x11
 1928 00f4 01       		.uleb128 0x1
 1929 00f5 12       		.uleb128 0x12
 1930 00f6 01       		.uleb128 0x1
 1931 00f7 40       		.uleb128 0x40
 1932 00f8 06       		.uleb128 0x6
 1933 00f9 9742     		.uleb128 0x2117
 1934 00fb 0C       		.uleb128 0xc
 1935 00fc 00       		.byte	0
 1936 00fd 00       		.byte	0
 1937 00fe 11       		.uleb128 0x11
 1938 00ff 2E       		.uleb128 0x2e
ARM GAS  C:\Users\OEBN\AppData\Local\Temp\ccqGCQsF.s 			page 44


 1939 0100 01       		.byte	0x1
 1940 0101 3F       		.uleb128 0x3f
 1941 0102 0C       		.uleb128 0xc
 1942 0103 03       		.uleb128 0x3
 1943 0104 0E       		.uleb128 0xe
 1944 0105 3A       		.uleb128 0x3a
 1945 0106 0B       		.uleb128 0xb
 1946 0107 3B       		.uleb128 0x3b
 1947 0108 05       		.uleb128 0x5
 1948 0109 27       		.uleb128 0x27
 1949 010a 0C       		.uleb128 0xc
 1950 010b 11       		.uleb128 0x11
 1951 010c 01       		.uleb128 0x1
 1952 010d 12       		.uleb128 0x12
 1953 010e 01       		.uleb128 0x1
 1954 010f 40       		.uleb128 0x40
 1955 0110 06       		.uleb128 0x6
 1956 0111 9642     		.uleb128 0x2116
 1957 0113 0C       		.uleb128 0xc
 1958 0114 01       		.uleb128 0x1
 1959 0115 13       		.uleb128 0x13
 1960 0116 00       		.byte	0
 1961 0117 00       		.byte	0
 1962 0118 12       		.uleb128 0x12
 1963 0119 34       		.uleb128 0x34
 1964 011a 00       		.byte	0
 1965 011b 03       		.uleb128 0x3
 1966 011c 0E       		.uleb128 0xe
 1967 011d 3A       		.uleb128 0x3a
 1968 011e 0B       		.uleb128 0xb
 1969 011f 3B       		.uleb128 0x3b
 1970 0120 05       		.uleb128 0x5
 1971 0121 49       		.uleb128 0x49
 1972 0122 13       		.uleb128 0x13
 1973 0123 02       		.uleb128 0x2
 1974 0124 0A       		.uleb128 0xa
 1975 0125 00       		.byte	0
 1976 0126 00       		.byte	0
 1977 0127 13       		.uleb128 0x13
 1978 0128 2E       		.uleb128 0x2e
 1979 0129 01       		.byte	0x1
 1980 012a 3F       		.uleb128 0x3f
 1981 012b 0C       		.uleb128 0xc
 1982 012c 03       		.uleb128 0x3
 1983 012d 0E       		.uleb128 0xe
 1984 012e 3A       		.uleb128 0x3a
 1985 012f 0B       		.uleb128 0xb
 1986 0130 3B       		.uleb128 0x3b
 1987 0131 05       		.uleb128 0x5
 1988 0132 27       		.uleb128 0x27
 1989 0133 0C       		.uleb128 0xc
 1990 0134 49       		.uleb128 0x49
 1991 0135 13       		.uleb128 0x13
 1992 0136 11       		.uleb128 0x11
 1993 0137 01       		.uleb128 0x1
 1994 0138 12       		.uleb128 0x12
 1995 0139 01       		.uleb128 0x1
ARM GAS  C:\Users\OEBN\AppData\Local\Temp\ccqGCQsF.s 			page 45


 1996 013a 40       		.uleb128 0x40
 1997 013b 06       		.uleb128 0x6
 1998 013c 9742     		.uleb128 0x2117
 1999 013e 0C       		.uleb128 0xc
 2000 013f 01       		.uleb128 0x1
 2001 0140 13       		.uleb128 0x13
 2002 0141 00       		.byte	0
 2003 0142 00       		.byte	0
 2004 0143 14       		.uleb128 0x14
 2005 0144 2E       		.uleb128 0x2e
 2006 0145 00       		.byte	0
 2007 0146 3F       		.uleb128 0x3f
 2008 0147 0C       		.uleb128 0xc
 2009 0148 03       		.uleb128 0x3
 2010 0149 0E       		.uleb128 0xe
 2011 014a 3A       		.uleb128 0x3a
 2012 014b 0B       		.uleb128 0xb
 2013 014c 3B       		.uleb128 0x3b
 2014 014d 05       		.uleb128 0x5
 2015 014e 27       		.uleb128 0x27
 2016 014f 0C       		.uleb128 0xc
 2017 0150 11       		.uleb128 0x11
 2018 0151 01       		.uleb128 0x1
 2019 0152 12       		.uleb128 0x12
 2020 0153 01       		.uleb128 0x1
 2021 0154 40       		.uleb128 0x40
 2022 0155 06       		.uleb128 0x6
 2023 0156 9742     		.uleb128 0x2117
 2024 0158 0C       		.uleb128 0xc
 2025 0159 00       		.byte	0
 2026 015a 00       		.byte	0
 2027 015b 15       		.uleb128 0x15
 2028 015c 34       		.uleb128 0x34
 2029 015d 00       		.byte	0
 2030 015e 03       		.uleb128 0x3
 2031 015f 0E       		.uleb128 0xe
 2032 0160 3A       		.uleb128 0x3a
 2033 0161 0B       		.uleb128 0xb
 2034 0162 3B       		.uleb128 0x3b
 2035 0163 0B       		.uleb128 0xb
 2036 0164 49       		.uleb128 0x49
 2037 0165 13       		.uleb128 0x13
 2038 0166 3F       		.uleb128 0x3f
 2039 0167 0C       		.uleb128 0xc
 2040 0168 02       		.uleb128 0x2
 2041 0169 0A       		.uleb128 0xa
 2042 016a 00       		.byte	0
 2043 016b 00       		.byte	0
 2044 016c 16       		.uleb128 0x16
 2045 016d 01       		.uleb128 0x1
 2046 016e 01       		.byte	0x1
 2047 016f 49       		.uleb128 0x49
 2048 0170 13       		.uleb128 0x13
 2049 0171 01       		.uleb128 0x1
 2050 0172 13       		.uleb128 0x13
 2051 0173 00       		.byte	0
 2052 0174 00       		.byte	0
ARM GAS  C:\Users\OEBN\AppData\Local\Temp\ccqGCQsF.s 			page 46


 2053 0175 17       		.uleb128 0x17
 2054 0176 21       		.uleb128 0x21
 2055 0177 00       		.byte	0
 2056 0178 49       		.uleb128 0x49
 2057 0179 13       		.uleb128 0x13
 2058 017a 2F       		.uleb128 0x2f
 2059 017b 0B       		.uleb128 0xb
 2060 017c 00       		.byte	0
 2061 017d 00       		.byte	0
 2062 017e 18       		.uleb128 0x18
 2063 017f 34       		.uleb128 0x34
 2064 0180 00       		.byte	0
 2065 0181 03       		.uleb128 0x3
 2066 0182 0E       		.uleb128 0xe
 2067 0183 3A       		.uleb128 0x3a
 2068 0184 0B       		.uleb128 0xb
 2069 0185 3B       		.uleb128 0x3b
 2070 0186 0B       		.uleb128 0xb
 2071 0187 49       		.uleb128 0x49
 2072 0188 13       		.uleb128 0x13
 2073 0189 3F       		.uleb128 0x3f
 2074 018a 0C       		.uleb128 0xc
 2075 018b 3C       		.uleb128 0x3c
 2076 018c 0C       		.uleb128 0xc
 2077 018d 00       		.byte	0
 2078 018e 00       		.byte	0
 2079 018f 00       		.byte	0
 2080              		.section	.debug_loc,"",%progbits
 2081              	.Ldebug_loc0:
 2082              	.LLST0:
 2083 0000 00000000 		.4byte	.LFB0
 2084 0004 02000000 		.4byte	.LCFI0
 2085 0008 0200     		.2byte	0x2
 2086 000a 7D       		.byte	0x7d
 2087 000b 00       		.sleb128 0
 2088 000c 02000000 		.4byte	.LCFI0
 2089 0010 04000000 		.4byte	.LCFI1
 2090 0014 0200     		.2byte	0x2
 2091 0016 7D       		.byte	0x7d
 2092 0017 08       		.sleb128 8
 2093 0018 04000000 		.4byte	.LCFI1
 2094 001c 24000000 		.4byte	.LFE0
 2095 0020 0200     		.2byte	0x2
 2096 0022 77       		.byte	0x77
 2097 0023 08       		.sleb128 8
 2098 0024 00000000 		.4byte	0
 2099 0028 00000000 		.4byte	0
 2100              	.LLST1:
 2101 002c 00000000 		.4byte	.LFB1
 2102 0030 02000000 		.4byte	.LCFI2
 2103 0034 0200     		.2byte	0x2
 2104 0036 7D       		.byte	0x7d
 2105 0037 00       		.sleb128 0
 2106 0038 02000000 		.4byte	.LCFI2
 2107 003c 04000000 		.4byte	.LCFI3
 2108 0040 0200     		.2byte	0x2
 2109 0042 7D       		.byte	0x7d
ARM GAS  C:\Users\OEBN\AppData\Local\Temp\ccqGCQsF.s 			page 47


 2110 0043 08       		.sleb128 8
 2111 0044 04000000 		.4byte	.LCFI3
 2112 0048 06000000 		.4byte	.LCFI4
 2113 004c 0200     		.2byte	0x2
 2114 004e 7D       		.byte	0x7d
 2115 004f 10       		.sleb128 16
 2116 0050 06000000 		.4byte	.LCFI4
 2117 0054 24000000 		.4byte	.LFE1
 2118 0058 0200     		.2byte	0x2
 2119 005a 77       		.byte	0x77
 2120 005b 10       		.sleb128 16
 2121 005c 00000000 		.4byte	0
 2122 0060 00000000 		.4byte	0
 2123              	.LLST2:
 2124 0064 00000000 		.4byte	.LFB2
 2125 0068 02000000 		.4byte	.LCFI5
 2126 006c 0200     		.2byte	0x2
 2127 006e 7D       		.byte	0x7d
 2128 006f 00       		.sleb128 0
 2129 0070 02000000 		.4byte	.LCFI5
 2130 0074 04000000 		.4byte	.LCFI6
 2131 0078 0200     		.2byte	0x2
 2132 007a 7D       		.byte	0x7d
 2133 007b 08       		.sleb128 8
 2134 007c 04000000 		.4byte	.LCFI6
 2135 0080 18000000 		.4byte	.LFE2
 2136 0084 0200     		.2byte	0x2
 2137 0086 77       		.byte	0x77
 2138 0087 08       		.sleb128 8
 2139 0088 00000000 		.4byte	0
 2140 008c 00000000 		.4byte	0
 2141              	.LLST3:
 2142 0090 00000000 		.4byte	.LFB3
 2143 0094 02000000 		.4byte	.LCFI7
 2144 0098 0200     		.2byte	0x2
 2145 009a 7D       		.byte	0x7d
 2146 009b 00       		.sleb128 0
 2147 009c 02000000 		.4byte	.LCFI7
 2148 00a0 04000000 		.4byte	.LCFI8
 2149 00a4 0200     		.2byte	0x2
 2150 00a6 7D       		.byte	0x7d
 2151 00a7 0C       		.sleb128 12
 2152 00a8 04000000 		.4byte	.LCFI8
 2153 00ac 06000000 		.4byte	.LCFI9
 2154 00b0 0200     		.2byte	0x2
 2155 00b2 7D       		.byte	0x7d
 2156 00b3 18       		.sleb128 24
 2157 00b4 06000000 		.4byte	.LCFI9
 2158 00b8 70040000 		.4byte	.LFE3
 2159 00bc 0200     		.2byte	0x2
 2160 00be 77       		.byte	0x77
 2161 00bf 18       		.sleb128 24
 2162 00c0 00000000 		.4byte	0
 2163 00c4 00000000 		.4byte	0
 2164              	.LLST4:
 2165 00c8 00000000 		.4byte	.LFB4
 2166 00cc 02000000 		.4byte	.LCFI10
ARM GAS  C:\Users\OEBN\AppData\Local\Temp\ccqGCQsF.s 			page 48


 2167 00d0 0200     		.2byte	0x2
 2168 00d2 7D       		.byte	0x7d
 2169 00d3 00       		.sleb128 0
 2170 00d4 02000000 		.4byte	.LCFI10
 2171 00d8 04000000 		.4byte	.LCFI11
 2172 00dc 0200     		.2byte	0x2
 2173 00de 7D       		.byte	0x7d
 2174 00df 08       		.sleb128 8
 2175 00e0 04000000 		.4byte	.LCFI11
 2176 00e4 06000000 		.4byte	.LCFI12
 2177 00e8 0200     		.2byte	0x2
 2178 00ea 7D       		.byte	0x7d
 2179 00eb 10       		.sleb128 16
 2180 00ec 06000000 		.4byte	.LCFI12
 2181 00f0 18000000 		.4byte	.LFE4
 2182 00f4 0200     		.2byte	0x2
 2183 00f6 77       		.byte	0x77
 2184 00f7 10       		.sleb128 16
 2185 00f8 00000000 		.4byte	0
 2186 00fc 00000000 		.4byte	0
 2187              	.LLST5:
 2188 0100 00000000 		.4byte	.LFB5
 2189 0104 02000000 		.4byte	.LCFI13
 2190 0108 0200     		.2byte	0x2
 2191 010a 7D       		.byte	0x7d
 2192 010b 00       		.sleb128 0
 2193 010c 02000000 		.4byte	.LCFI13
 2194 0110 04000000 		.4byte	.LCFI14
 2195 0114 0200     		.2byte	0x2
 2196 0116 7D       		.byte	0x7d
 2197 0117 08       		.sleb128 8
 2198 0118 04000000 		.4byte	.LCFI14
 2199 011c 14000000 		.4byte	.LFE5
 2200 0120 0200     		.2byte	0x2
 2201 0122 77       		.byte	0x77
 2202 0123 08       		.sleb128 8
 2203 0124 00000000 		.4byte	0
 2204 0128 00000000 		.4byte	0
 2205              	.LLST6:
 2206 012c 00000000 		.4byte	.LFB6
 2207 0130 02000000 		.4byte	.LCFI15
 2208 0134 0200     		.2byte	0x2
 2209 0136 7D       		.byte	0x7d
 2210 0137 00       		.sleb128 0
 2211 0138 02000000 		.4byte	.LCFI15
 2212 013c 04000000 		.4byte	.LCFI16
 2213 0140 0200     		.2byte	0x2
 2214 0142 7D       		.byte	0x7d
 2215 0143 0C       		.sleb128 12
 2216 0144 04000000 		.4byte	.LCFI16
 2217 0148 06000000 		.4byte	.LCFI17
 2218 014c 0200     		.2byte	0x2
 2219 014e 7D       		.byte	0x7d
 2220 014f 20       		.sleb128 32
 2221 0150 06000000 		.4byte	.LCFI17
 2222 0154 4C000000 		.4byte	.LFE6
 2223 0158 0200     		.2byte	0x2
ARM GAS  C:\Users\OEBN\AppData\Local\Temp\ccqGCQsF.s 			page 49


 2224 015a 77       		.byte	0x77
 2225 015b 20       		.sleb128 32
 2226 015c 00000000 		.4byte	0
 2227 0160 00000000 		.4byte	0
 2228              	.LLST7:
 2229 0164 00000000 		.4byte	.LFB7
 2230 0168 02000000 		.4byte	.LCFI18
 2231 016c 0200     		.2byte	0x2
 2232 016e 7D       		.byte	0x7d
 2233 016f 00       		.sleb128 0
 2234 0170 02000000 		.4byte	.LCFI18
 2235 0174 04000000 		.4byte	.LCFI19
 2236 0178 0200     		.2byte	0x2
 2237 017a 7D       		.byte	0x7d
 2238 017b 08       		.sleb128 8
 2239 017c 04000000 		.4byte	.LCFI19
 2240 0180 06000000 		.4byte	.LCFI20
 2241 0184 0200     		.2byte	0x2
 2242 0186 7D       		.byte	0x7d
 2243 0187 10       		.sleb128 16
 2244 0188 06000000 		.4byte	.LCFI20
 2245 018c 2C000000 		.4byte	.LFE7
 2246 0190 0200     		.2byte	0x2
 2247 0192 77       		.byte	0x77
 2248 0193 10       		.sleb128 16
 2249 0194 00000000 		.4byte	0
 2250 0198 00000000 		.4byte	0
 2251              	.LLST8:
 2252 019c 00000000 		.4byte	.LFB8
 2253 01a0 02000000 		.4byte	.LCFI21
 2254 01a4 0200     		.2byte	0x2
 2255 01a6 7D       		.byte	0x7d
 2256 01a7 00       		.sleb128 0
 2257 01a8 02000000 		.4byte	.LCFI21
 2258 01ac 04000000 		.4byte	.LCFI22
 2259 01b0 0200     		.2byte	0x2
 2260 01b2 7D       		.byte	0x7d
 2261 01b3 08       		.sleb128 8
 2262 01b4 04000000 		.4byte	.LCFI22
 2263 01b8 14000000 		.4byte	.LFE8
 2264 01bc 0200     		.2byte	0x2
 2265 01be 77       		.byte	0x77
 2266 01bf 08       		.sleb128 8
 2267 01c0 00000000 		.4byte	0
 2268 01c4 00000000 		.4byte	0
 2269              	.LLST9:
 2270 01c8 00000000 		.4byte	.LFB9
 2271 01cc 02000000 		.4byte	.LCFI23
 2272 01d0 0200     		.2byte	0x2
 2273 01d2 7D       		.byte	0x7d
 2274 01d3 00       		.sleb128 0
 2275 01d4 02000000 		.4byte	.LCFI23
 2276 01d8 04000000 		.4byte	.LCFI24
 2277 01dc 0200     		.2byte	0x2
 2278 01de 7D       		.byte	0x7d
 2279 01df 08       		.sleb128 8
 2280 01e0 04000000 		.4byte	.LCFI24
ARM GAS  C:\Users\OEBN\AppData\Local\Temp\ccqGCQsF.s 			page 50


 2281 01e4 20000000 		.4byte	.LFE9
 2282 01e8 0200     		.2byte	0x2
 2283 01ea 77       		.byte	0x77
 2284 01eb 08       		.sleb128 8
 2285 01ec 00000000 		.4byte	0
 2286 01f0 00000000 		.4byte	0
 2287              	.LLST10:
 2288 01f4 00000000 		.4byte	.LFB10
 2289 01f8 02000000 		.4byte	.LCFI25
 2290 01fc 0200     		.2byte	0x2
 2291 01fe 7D       		.byte	0x7d
 2292 01ff 00       		.sleb128 0
 2293 0200 02000000 		.4byte	.LCFI25
 2294 0204 04000000 		.4byte	.LCFI26
 2295 0208 0200     		.2byte	0x2
 2296 020a 7D       		.byte	0x7d
 2297 020b 08       		.sleb128 8
 2298 020c 04000000 		.4byte	.LCFI26
 2299 0210 14000000 		.4byte	.LFE10
 2300 0214 0200     		.2byte	0x2
 2301 0216 77       		.byte	0x77
 2302 0217 08       		.sleb128 8
 2303 0218 00000000 		.4byte	0
 2304 021c 00000000 		.4byte	0
 2305              	.LLST11:
 2306 0220 00000000 		.4byte	.LFB11
 2307 0224 02000000 		.4byte	.LCFI27
 2308 0228 0200     		.2byte	0x2
 2309 022a 7D       		.byte	0x7d
 2310 022b 00       		.sleb128 0
 2311 022c 02000000 		.4byte	.LCFI27
 2312 0230 04000000 		.4byte	.LCFI28
 2313 0234 0200     		.2byte	0x2
 2314 0236 7D       		.byte	0x7d
 2315 0237 08       		.sleb128 8
 2316 0238 04000000 		.4byte	.LCFI28
 2317 023c 14000000 		.4byte	.LFE11
 2318 0240 0200     		.2byte	0x2
 2319 0242 77       		.byte	0x77
 2320 0243 08       		.sleb128 8
 2321 0244 00000000 		.4byte	0
 2322 0248 00000000 		.4byte	0
 2323              	.LLST12:
 2324 024c 00000000 		.4byte	.LFB12
 2325 0250 02000000 		.4byte	.LCFI29
 2326 0254 0200     		.2byte	0x2
 2327 0256 7D       		.byte	0x7d
 2328 0257 00       		.sleb128 0
 2329 0258 02000000 		.4byte	.LCFI29
 2330 025c 04000000 		.4byte	.LCFI30
 2331 0260 0200     		.2byte	0x2
 2332 0262 7D       		.byte	0x7d
 2333 0263 08       		.sleb128 8
 2334 0264 04000000 		.4byte	.LCFI30
 2335 0268 14000000 		.4byte	.LFE12
 2336 026c 0200     		.2byte	0x2
 2337 026e 77       		.byte	0x77
ARM GAS  C:\Users\OEBN\AppData\Local\Temp\ccqGCQsF.s 			page 51


 2338 026f 08       		.sleb128 8
 2339 0270 00000000 		.4byte	0
 2340 0274 00000000 		.4byte	0
 2341              		.section	.debug_aranges,"",%progbits
 2342 0000 7C000000 		.4byte	0x7c
 2343 0004 0200     		.2byte	0x2
 2344 0006 00000000 		.4byte	.Ldebug_info0
 2345 000a 04       		.byte	0x4
 2346 000b 00       		.byte	0
 2347 000c 0000     		.2byte	0
 2348 000e 0000     		.2byte	0
 2349 0010 00000000 		.4byte	.LFB0
 2350 0014 24000000 		.4byte	.LFE0-.LFB0
 2351 0018 00000000 		.4byte	.LFB1
 2352 001c 24000000 		.4byte	.LFE1-.LFB1
 2353 0020 00000000 		.4byte	.LFB2
 2354 0024 18000000 		.4byte	.LFE2-.LFB2
 2355 0028 00000000 		.4byte	.LFB3
 2356 002c 70040000 		.4byte	.LFE3-.LFB3
 2357 0030 00000000 		.4byte	.LFB4
 2358 0034 18000000 		.4byte	.LFE4-.LFB4
 2359 0038 00000000 		.4byte	.LFB5
 2360 003c 14000000 		.4byte	.LFE5-.LFB5
 2361 0040 00000000 		.4byte	.LFB6
 2362 0044 4C000000 		.4byte	.LFE6-.LFB6
 2363 0048 00000000 		.4byte	.LFB7
 2364 004c 2C000000 		.4byte	.LFE7-.LFB7
 2365 0050 00000000 		.4byte	.LFB8
 2366 0054 14000000 		.4byte	.LFE8-.LFB8
 2367 0058 00000000 		.4byte	.LFB9
 2368 005c 20000000 		.4byte	.LFE9-.LFB9
 2369 0060 00000000 		.4byte	.LFB10
 2370 0064 14000000 		.4byte	.LFE10-.LFB10
 2371 0068 00000000 		.4byte	.LFB11
 2372 006c 14000000 		.4byte	.LFE11-.LFB11
 2373 0070 00000000 		.4byte	.LFB12
 2374 0074 14000000 		.4byte	.LFE12-.LFB12
 2375 0078 00000000 		.4byte	0
 2376 007c 00000000 		.4byte	0
 2377              		.section	.debug_ranges,"",%progbits
 2378              	.Ldebug_ranges0:
 2379 0000 00000000 		.4byte	.LFB0
 2380 0004 24000000 		.4byte	.LFE0
 2381 0008 00000000 		.4byte	.LFB1
 2382 000c 24000000 		.4byte	.LFE1
 2383 0010 00000000 		.4byte	.LFB2
 2384 0014 18000000 		.4byte	.LFE2
 2385 0018 00000000 		.4byte	.LFB3
 2386 001c 70040000 		.4byte	.LFE3
 2387 0020 00000000 		.4byte	.LFB4
 2388 0024 18000000 		.4byte	.LFE4
 2389 0028 00000000 		.4byte	.LFB5
 2390 002c 14000000 		.4byte	.LFE5
 2391 0030 00000000 		.4byte	.LFB6
 2392 0034 4C000000 		.4byte	.LFE6
 2393 0038 00000000 		.4byte	.LFB7
 2394 003c 2C000000 		.4byte	.LFE7
ARM GAS  C:\Users\OEBN\AppData\Local\Temp\ccqGCQsF.s 			page 52


 2395 0040 00000000 		.4byte	.LFB8
 2396 0044 14000000 		.4byte	.LFE8
 2397 0048 00000000 		.4byte	.LFB9
 2398 004c 20000000 		.4byte	.LFE9
 2399 0050 00000000 		.4byte	.LFB10
 2400 0054 14000000 		.4byte	.LFE10
 2401 0058 00000000 		.4byte	.LFB11
 2402 005c 14000000 		.4byte	.LFE11
 2403 0060 00000000 		.4byte	.LFB12
 2404 0064 14000000 		.4byte	.LFE12
 2405 0068 00000000 		.4byte	0
 2406 006c 00000000 		.4byte	0
 2407              		.section	.debug_line,"",%progbits
 2408              	.Ldebug_line0:
 2409 0000 86020000 		.section	.debug_str,"MS",%progbits,1
 2409      0200ED00 
 2409      00000201 
 2409      FB0E0D00 
 2409      01010101 
 2410              	.LASF51:
 2411 0000 6973725F 		.ascii	"isr_uart_GetPriority\000"
 2411      75617274 
 2411      5F476574 
 2411      5072696F 
 2411      72697479 
 2412              	.LASF36:
 2413 0015 6973725F 		.ascii	"isr_uart_SetPending\000"
 2413      75617274 
 2413      5F536574 
 2413      50656E64 
 2413      696E6700 
 2414              	.LASF49:
 2415 0029 2E5C4765 		.ascii	".\\Generated_Source\\PSoC4\\isr_uart.c\000"
 2415      6E657261 
 2415      7465645F 
 2415      536F7572 
 2415      63655C50 
 2416              	.LASF41:
 2417 004d 6672616D 		.ascii	"frameID\000"
 2417      65494400 
 2418              	.LASF47:
 2419 0055 43795261 		.ascii	"CyRamVectors\000"
 2419      6D566563 
 2419      746F7273 
 2419      00
 2420              	.LASF42:
 2421 0062 636F756E 		.ascii	"count\000"
 2421      7400
 2422              	.LASF46:
 2423 0068 70776D5F 		.ascii	"pwm_light_adj\000"
 2423      6C696768 
 2423      745F6164 
 2423      6A00
 2424              	.LASF21:
 2425 0076 6973725F 		.ascii	"isr_uart_Start\000"
 2425      75617274 
 2425      5F537461 
ARM GAS  C:\Users\OEBN\AppData\Local\Temp\ccqGCQsF.s 			page 53


 2425      727400
 2426              	.LASF32:
 2427 0085 6973725F 		.ascii	"isr_uart_Enable\000"
 2427      75617274 
 2427      5F456E61 
 2427      626C6500 
 2428              	.LASF6:
 2429 0095 73686F72 		.ascii	"short unsigned int\000"
 2429      7420756E 
 2429      7369676E 
 2429      65642069 
 2429      6E7400
 2430              	.LASF1:
 2431 00a8 75696E74 		.ascii	"uint8_t\000"
 2431      385F7400 
 2432              	.LASF37:
 2433 00b0 6973725F 		.ascii	"isr_uart_ClearPending\000"
 2433      75617274 
 2433      5F436C65 
 2433      61725065 
 2433      6E64696E 
 2434              	.LASF25:
 2435 00c6 72786461 		.ascii	"rxdata\000"
 2435      746100
 2436              	.LASF0:
 2437 00cd 696E7438 		.ascii	"int8_t\000"
 2437      5F7400
 2438              	.LASF38:
 2439 00d4 6672616D 		.ascii	"frameStart\000"
 2439      65537461 
 2439      727400
 2440              	.LASF15:
 2441 00df 666C6F61 		.ascii	"float\000"
 2441      7400
 2442              	.LASF35:
 2443 00e5 6973725F 		.ascii	"isr_uart_Disable\000"
 2443      75617274 
 2443      5F446973 
 2443      61626C65 
 2443      00
 2444              	.LASF3:
 2445 00f6 756E7369 		.ascii	"unsigned char\000"
 2445      676E6564 
 2445      20636861 
 2445      7200
 2446              	.LASF30:
 2447 0104 696E7465 		.ascii	"interruptState\000"
 2447      72727570 
 2447      74537461 
 2447      746500
 2448              	.LASF9:
 2449 0113 6C6F6E67 		.ascii	"long unsigned int\000"
 2449      20756E73 
 2449      69676E65 
 2449      6420696E 
 2449      7400
 2450              	.LASF13:
ARM GAS  C:\Users\OEBN\AppData\Local\Temp\ccqGCQsF.s 			page 54


 2451 0125 75696E74 		.ascii	"uint8\000"
 2451      3800
 2452              	.LASF44:
 2453 012b 62797465 		.ascii	"byteCount\000"
 2453      436F756E 
 2453      7400
 2454              	.LASF28:
 2455 0135 6973725F 		.ascii	"isr_uart_SetPriority\000"
 2455      75617274 
 2455      5F536574 
 2455      5072696F 
 2455      72697479 
 2456              	.LASF16:
 2457 014a 646F7562 		.ascii	"double\000"
 2457      6C6500
 2458              	.LASF26:
 2459 0151 6973725F 		.ascii	"isr_uart_SetVector\000"
 2459      75617274 
 2459      5F536574 
 2459      56656374 
 2459      6F7200
 2460              	.LASF50:
 2461 0164 433A5C50 		.ascii	"C:\\PSoc\\SCB_Bootloader\\FLC.cydsn\000"
 2461      536F635C 
 2461      5343425F 
 2461      426F6F74 
 2461      6C6F6164 
 2462              	.LASF29:
 2463 0185 7072696F 		.ascii	"priority\000"
 2463      72697479 
 2463      00
 2464              	.LASF22:
 2465 018e 6973725F 		.ascii	"isr_uart_Stop\000"
 2465      75617274 
 2465      5F53746F 
 2465      7000
 2466              	.LASF14:
 2467 019c 75696E74 		.ascii	"uint32\000"
 2467      333200
 2468              	.LASF45:
 2469 01a3 6368616E 		.ascii	"channelTime\000"
 2469      6E656C54 
 2469      696D6500 
 2470              	.LASF12:
 2471 01af 756E7369 		.ascii	"unsigned int\000"
 2471      676E6564 
 2471      20696E74 
 2471      00
 2472              	.LASF27:
 2473 01bc 61646472 		.ascii	"address\000"
 2473      65737300 
 2474              	.LASF11:
 2475 01c4 6C6F6E67 		.ascii	"long long unsigned int\000"
 2475      206C6F6E 
 2475      6720756E 
 2475      7369676E 
 2475      65642069 
ARM GAS  C:\Users\OEBN\AppData\Local\Temp\ccqGCQsF.s 			page 55


 2476              	.LASF19:
 2477 01db 63796973 		.ascii	"cyisraddress\000"
 2477      72616464 
 2477      72657373 
 2477      00
 2478              	.LASF4:
 2479 01e8 696E7431 		.ascii	"int16_t\000"
 2479      365F7400 
 2480              	.LASF34:
 2481 01f0 6973725F 		.ascii	"isr_uart_GetState\000"
 2481      75617274 
 2481      5F476574 
 2481      53746174 
 2481      6500
 2482              	.LASF7:
 2483 0202 696E7433 		.ascii	"int32_t\000"
 2483      325F7400 
 2484              	.LASF20:
 2485 020a 73697A65 		.ascii	"sizetype\000"
 2485      74797065 
 2485      00
 2486              	.LASF10:
 2487 0213 6C6F6E67 		.ascii	"long long int\000"
 2487      206C6F6E 
 2487      6720696E 
 2487      7400
 2488              	.LASF17:
 2489 0221 63686172 		.ascii	"char\000"
 2489      00
 2490              	.LASF39:
 2491 0226 73656E64 		.ascii	"senderID\000"
 2491      65724944 
 2491      00
 2492              	.LASF5:
 2493 022f 73686F72 		.ascii	"short int\000"
 2493      7420696E 
 2493      7400
 2494              	.LASF23:
 2495 0239 6973725F 		.ascii	"isr_uart_StartEx\000"
 2495      75617274 
 2495      5F537461 
 2495      72744578 
 2495      00
 2496              	.LASF48:
 2497 024a 474E5520 		.ascii	"GNU C 4.7.3 20130312 (release) [ARM/embedded-4_7-br"
 2497      4320342E 
 2497      372E3320 
 2497      32303133 
 2497      30333132 
 2498 027d 616E6368 		.ascii	"anch revision 196615]\000"
 2498      20726576 
 2498      6973696F 
 2498      6E203139 
 2498      36363135 
 2499              	.LASF33:
 2500 0293 6973725F 		.ascii	"isr_uart_GetVector\000"
 2500      75617274 
ARM GAS  C:\Users\OEBN\AppData\Local\Temp\ccqGCQsF.s 			page 56


 2500      5F476574 
 2500      56656374 
 2500      6F7200
 2501              	.LASF31:
 2502 02a6 7072696F 		.ascii	"priorityOffset\000"
 2502      72697479 
 2502      4F666673 
 2502      657400
 2503              	.LASF43:
 2504 02b5 74656D70 		.ascii	"tempcount\000"
 2504      636F756E 
 2504      7400
 2505              	.LASF8:
 2506 02bf 6C6F6E67 		.ascii	"long int\000"
 2506      20696E74 
 2506      00
 2507              	.LASF18:
 2508 02c8 72656733 		.ascii	"reg32\000"
 2508      3200
 2509              	.LASF2:
 2510 02ce 7369676E 		.ascii	"signed char\000"
 2510      65642063 
 2510      68617200 
 2511              	.LASF40:
 2512 02da 73656E64 		.ascii	"senderClass\000"
 2512      6572436C 
 2512      61737300 
 2513              	.LASF24:
 2514 02e6 6973725F 		.ascii	"isr_uart_Interrupt\000"
 2514      75617274 
 2514      5F496E74 
 2514      65727275 
 2514      707400
 2515              		.ident	"GCC: (GNU Tools for ARM Embedded Processors) 4.7.3 20130312 (release) [ARM/embedded-4_7-br
