ARM GAS  C:\Users\OEBN\AppData\Local\Temp\cc2uhR5V.s 			page 1


   1              		.cpu cortex-m0
   2              		.fpu softvfp
   3              		.eabi_attribute 20, 1
   4              		.eabi_attribute 21, 1
   5              		.eabi_attribute 23, 3
   6              		.eabi_attribute 24, 1
   7              		.eabi_attribute 25, 1
   8              		.eabi_attribute 26, 1
   9              		.eabi_attribute 30, 6
  10              		.eabi_attribute 34, 0
  11              		.eabi_attribute 18, 4
  12              		.code	16
  13              		.file	"PWM_2.c"
  14              		.text
  15              	.Ltext0:
  16              		.cfi_sections	.debug_frame
  17              		.global	PWM_2_initVar
  18              		.bss
  19              		.type	PWM_2_initVar, %object
  20              		.size	PWM_2_initVar, 1
  21              	PWM_2_initVar:
  22 0000 00       		.space	1
  23              		.section	.text.PWM_2_Init,"ax",%progbits
  24              		.align	2
  25              		.global	PWM_2_Init
  26              		.code	16
  27              		.thumb_func
  28              		.type	PWM_2_Init, %function
  29              	PWM_2_Init:
  30              	.LFB0:
  31              		.file 1 ".\\Generated_Source\\PSoC4\\PWM_2.c"
   1:.\Generated_Source\PSoC4/PWM_2.c **** /*******************************************************************************
   2:.\Generated_Source\PSoC4/PWM_2.c **** * File Name: PWM_2.c
   3:.\Generated_Source\PSoC4/PWM_2.c **** * Version 1.10
   4:.\Generated_Source\PSoC4/PWM_2.c **** *
   5:.\Generated_Source\PSoC4/PWM_2.c **** * Description:
   6:.\Generated_Source\PSoC4/PWM_2.c **** *  This file provides the source code to the API for the PWM_2
   7:.\Generated_Source\PSoC4/PWM_2.c **** *  component
   8:.\Generated_Source\PSoC4/PWM_2.c **** *
   9:.\Generated_Source\PSoC4/PWM_2.c **** * Note:
  10:.\Generated_Source\PSoC4/PWM_2.c **** *  None
  11:.\Generated_Source\PSoC4/PWM_2.c **** *
  12:.\Generated_Source\PSoC4/PWM_2.c **** ********************************************************************************
  13:.\Generated_Source\PSoC4/PWM_2.c **** * Copyright 2013-2014, Cypress Semiconductor Corporation.  All rights reserved.
  14:.\Generated_Source\PSoC4/PWM_2.c **** * You may use this file only in accordance with the license, terms, conditions,
  15:.\Generated_Source\PSoC4/PWM_2.c **** * disclaimers, and limitations in the end user license agreement accompanying
  16:.\Generated_Source\PSoC4/PWM_2.c **** * the software package with which this file was provided.
  17:.\Generated_Source\PSoC4/PWM_2.c **** *******************************************************************************/
  18:.\Generated_Source\PSoC4/PWM_2.c **** 
  19:.\Generated_Source\PSoC4/PWM_2.c **** #include "PWM_2.h"
  20:.\Generated_Source\PSoC4/PWM_2.c **** #include "CyLib.h"
  21:.\Generated_Source\PSoC4/PWM_2.c **** 
  22:.\Generated_Source\PSoC4/PWM_2.c **** uint8 PWM_2_initVar = 0u;
  23:.\Generated_Source\PSoC4/PWM_2.c **** 
  24:.\Generated_Source\PSoC4/PWM_2.c **** 
  25:.\Generated_Source\PSoC4/PWM_2.c **** /*******************************************************************************
  26:.\Generated_Source\PSoC4/PWM_2.c **** * Function Name: PWM_2_Init
ARM GAS  C:\Users\OEBN\AppData\Local\Temp\cc2uhR5V.s 			page 2


  27:.\Generated_Source\PSoC4/PWM_2.c **** ********************************************************************************
  28:.\Generated_Source\PSoC4/PWM_2.c **** *
  29:.\Generated_Source\PSoC4/PWM_2.c **** * Summary:
  30:.\Generated_Source\PSoC4/PWM_2.c **** *  Initialize/Restore default PWM_2 configuration.
  31:.\Generated_Source\PSoC4/PWM_2.c **** *
  32:.\Generated_Source\PSoC4/PWM_2.c **** * Parameters:
  33:.\Generated_Source\PSoC4/PWM_2.c **** *  None
  34:.\Generated_Source\PSoC4/PWM_2.c **** *
  35:.\Generated_Source\PSoC4/PWM_2.c **** * Return:
  36:.\Generated_Source\PSoC4/PWM_2.c **** *  None
  37:.\Generated_Source\PSoC4/PWM_2.c **** *
  38:.\Generated_Source\PSoC4/PWM_2.c **** *******************************************************************************/
  39:.\Generated_Source\PSoC4/PWM_2.c **** void PWM_2_Init(void)
  40:.\Generated_Source\PSoC4/PWM_2.c **** {
  32              		.loc 1 40 0
  33              		.cfi_startproc
  34 0000 80B5     		push	{r7, lr}
  35              	.LCFI0:
  36              		.cfi_def_cfa_offset 8
  37              		.cfi_offset 7, -8
  38              		.cfi_offset 14, -4
  39 0002 00AF     		add	r7, sp, #0
  40              	.LCFI1:
  41              		.cfi_def_cfa_register 7
  41:.\Generated_Source\PSoC4/PWM_2.c **** 
  42:.\Generated_Source\PSoC4/PWM_2.c ****     /* Set values from customizer to CTRL */
  43:.\Generated_Source\PSoC4/PWM_2.c ****     #if (PWM_2__QUAD == PWM_2_CONFIG)
  44:.\Generated_Source\PSoC4/PWM_2.c ****         PWM_2_CONTROL_REG =
  45:.\Generated_Source\PSoC4/PWM_2.c ****         (((uint32)(PWM_2_QUAD_ENCODING_MODES     << PWM_2_QUAD_MODE_SHIFT))       |
  46:.\Generated_Source\PSoC4/PWM_2.c ****          ((uint32)(PWM_2_CONFIG                  << PWM_2_MODE_SHIFT)));
  47:.\Generated_Source\PSoC4/PWM_2.c ****     #endif  /* (PWM_2__QUAD == PWM_2_CONFIG) */
  48:.\Generated_Source\PSoC4/PWM_2.c **** 
  49:.\Generated_Source\PSoC4/PWM_2.c ****     #if (PWM_2__PWM_SEL == PWM_2_CONFIG)
  50:.\Generated_Source\PSoC4/PWM_2.c ****         PWM_2_CONTROL_REG =
  42              		.loc 1 50 0
  43 0004 104B     		ldr	r3, .L2
  44 0006 8022     		mov	r2, #128
  45 0008 D204     		lsl	r2, r2, #19
  46 000a 1A60     		str	r2, [r3]
  51:.\Generated_Source\PSoC4/PWM_2.c ****         (((uint32)(PWM_2_PWM_STOP_EVENT          << PWM_2_PWM_STOP_KILL_SHIFT))    |
  52:.\Generated_Source\PSoC4/PWM_2.c ****          ((uint32)(PWM_2_PWM_OUT_INVERT          << PWM_2_INV_OUT_SHIFT))         |
  53:.\Generated_Source\PSoC4/PWM_2.c ****          ((uint32)(PWM_2_PWM_OUT_N_INVERT        << PWM_2_INV_COMPL_OUT_SHIFT))     |
  54:.\Generated_Source\PSoC4/PWM_2.c ****          ((uint32)(PWM_2_PWM_MODE                << PWM_2_MODE_SHIFT)));
  55:.\Generated_Source\PSoC4/PWM_2.c **** 
  56:.\Generated_Source\PSoC4/PWM_2.c ****         #if (PWM_2__PWM_PR == PWM_2_PWM_MODE)
  57:.\Generated_Source\PSoC4/PWM_2.c ****             PWM_2_CONTROL_REG |=
  58:.\Generated_Source\PSoC4/PWM_2.c ****             ((uint32)(PWM_2_PWM_RUN_MODE         << PWM_2_ONESHOT_SHIFT));
  59:.\Generated_Source\PSoC4/PWM_2.c **** 
  60:.\Generated_Source\PSoC4/PWM_2.c ****             PWM_2_WriteCounter(PWM_2_PWM_PR_INIT_VALUE);
  61:.\Generated_Source\PSoC4/PWM_2.c ****         #else
  62:.\Generated_Source\PSoC4/PWM_2.c ****             PWM_2_CONTROL_REG |=
  47              		.loc 1 62 0
  48 000c 0E4B     		ldr	r3, .L2
  49 000e 0E4A     		ldr	r2, .L2
  50 0010 1268     		ldr	r2, [r2]
  51 0012 1A60     		str	r2, [r3]
  63:.\Generated_Source\PSoC4/PWM_2.c ****             (((uint32)(PWM_2_PWM_ALIGN           << PWM_2_UPDOWN_SHIFT))          |
ARM GAS  C:\Users\OEBN\AppData\Local\Temp\cc2uhR5V.s 			page 3


  64:.\Generated_Source\PSoC4/PWM_2.c ****              ((uint32)(PWM_2_PWM_KILL_EVENT      << PWM_2_PWM_SYNC_KILL_SHIFT)));
  65:.\Generated_Source\PSoC4/PWM_2.c ****         #endif  /* (PWM_2__PWM_PR == PWM_2_PWM_MODE) */
  66:.\Generated_Source\PSoC4/PWM_2.c **** 
  67:.\Generated_Source\PSoC4/PWM_2.c ****         #if (PWM_2__PWM_DT == PWM_2_PWM_MODE)
  68:.\Generated_Source\PSoC4/PWM_2.c ****             PWM_2_CONTROL_REG |=
  69:.\Generated_Source\PSoC4/PWM_2.c ****             ((uint32)(PWM_2_PWM_DEAD_TIME_CYCLE  << PWM_2_PRESCALER_SHIFT));
  70:.\Generated_Source\PSoC4/PWM_2.c ****         #endif  /* (PWM_2__PWM_DT == PWM_2_PWM_MODE) */
  71:.\Generated_Source\PSoC4/PWM_2.c **** 
  72:.\Generated_Source\PSoC4/PWM_2.c ****         #if (PWM_2__PWM == PWM_2_PWM_MODE)
  73:.\Generated_Source\PSoC4/PWM_2.c ****             PWM_2_CONTROL_REG |=
  52              		.loc 1 73 0
  53 0014 0C4B     		ldr	r3, .L2
  54 0016 0C4A     		ldr	r2, .L2
  55 0018 1268     		ldr	r2, [r2]
  56 001a 8021     		mov	r1, #128
  57 001c 4900     		lsl	r1, r1, #1
  58 001e 0A43     		orr	r2, r1
  59 0020 1A60     		str	r2, [r3]
  74:.\Generated_Source\PSoC4/PWM_2.c ****             ((uint32)PWM_2_PWM_PRESCALER         << PWM_2_PRESCALER_SHIFT);
  75:.\Generated_Source\PSoC4/PWM_2.c ****         #endif  /* (PWM_2__PWM == PWM_2_PWM_MODE) */
  76:.\Generated_Source\PSoC4/PWM_2.c ****     #endif  /* (PWM_2__PWM_SEL == PWM_2_CONFIG) */
  77:.\Generated_Source\PSoC4/PWM_2.c **** 
  78:.\Generated_Source\PSoC4/PWM_2.c ****     #if (PWM_2__TIMER == PWM_2_CONFIG)
  79:.\Generated_Source\PSoC4/PWM_2.c ****         PWM_2_CONTROL_REG =
  80:.\Generated_Source\PSoC4/PWM_2.c ****         (((uint32)(PWM_2_TC_PRESCALER            << PWM_2_PRESCALER_SHIFT))   |
  81:.\Generated_Source\PSoC4/PWM_2.c ****          ((uint32)(PWM_2_TC_COUNTER_MODE         << PWM_2_UPDOWN_SHIFT))      |
  82:.\Generated_Source\PSoC4/PWM_2.c ****          ((uint32)(PWM_2_TC_RUN_MODE             << PWM_2_ONESHOT_SHIFT))     |
  83:.\Generated_Source\PSoC4/PWM_2.c ****          ((uint32)(PWM_2_TC_COMP_CAP_MODE        << PWM_2_MODE_SHIFT)));
  84:.\Generated_Source\PSoC4/PWM_2.c ****     #endif  /* (PWM_2__TIMER == PWM_2_CONFIG) */
  85:.\Generated_Source\PSoC4/PWM_2.c **** 
  86:.\Generated_Source\PSoC4/PWM_2.c ****     /* Set values from customizer to CTRL1 */
  87:.\Generated_Source\PSoC4/PWM_2.c ****     #if (PWM_2__QUAD == PWM_2_CONFIG)
  88:.\Generated_Source\PSoC4/PWM_2.c ****         PWM_2_TRIG_CONTROL1_REG  =
  89:.\Generated_Source\PSoC4/PWM_2.c ****         (((uint32)(PWM_2_QUAD_PHIA_SIGNAL_MODE   << PWM_2_COUNT_SHIFT))       |
  90:.\Generated_Source\PSoC4/PWM_2.c ****          ((uint32)(PWM_2_QUAD_INDEX_SIGNAL_MODE  << PWM_2_RELOAD_SHIFT))      |
  91:.\Generated_Source\PSoC4/PWM_2.c ****          ((uint32)(PWM_2_QUAD_STOP_SIGNAL_MODE   << PWM_2_STOP_SHIFT))        |
  92:.\Generated_Source\PSoC4/PWM_2.c ****          ((uint32)(PWM_2_QUAD_PHIB_SIGNAL_MODE   << PWM_2_START_SHIFT)));
  93:.\Generated_Source\PSoC4/PWM_2.c ****     #endif  /* (PWM_2__QUAD == PWM_2_CONFIG) */
  94:.\Generated_Source\PSoC4/PWM_2.c **** 
  95:.\Generated_Source\PSoC4/PWM_2.c ****     #if (PWM_2__PWM_SEL == PWM_2_CONFIG)
  96:.\Generated_Source\PSoC4/PWM_2.c ****         PWM_2_TRIG_CONTROL1_REG  =
  60              		.loc 1 96 0
  61 0022 0A4B     		ldr	r3, .L2+4
  62 0024 0C22     		mov	r2, #12
  63 0026 1A60     		str	r2, [r3]
  97:.\Generated_Source\PSoC4/PWM_2.c ****         (((uint32)(PWM_2_PWM_SWITCH_SIGNAL_MODE  << PWM_2_CAPTURE_SHIFT))     |
  98:.\Generated_Source\PSoC4/PWM_2.c ****          ((uint32)(PWM_2_PWM_COUNT_SIGNAL_MODE   << PWM_2_COUNT_SHIFT))       |
  99:.\Generated_Source\PSoC4/PWM_2.c ****          ((uint32)(PWM_2_PWM_RELOAD_SIGNAL_MODE  << PWM_2_RELOAD_SHIFT))      |
 100:.\Generated_Source\PSoC4/PWM_2.c ****          ((uint32)(PWM_2_PWM_STOP_SIGNAL_MODE    << PWM_2_STOP_SHIFT))        |
 101:.\Generated_Source\PSoC4/PWM_2.c ****          ((uint32)(PWM_2_PWM_START_SIGNAL_MODE   << PWM_2_START_SHIFT)));
 102:.\Generated_Source\PSoC4/PWM_2.c ****     #endif  /* (PWM_2__PWM_SEL == PWM_2_CONFIG) */
 103:.\Generated_Source\PSoC4/PWM_2.c **** 
 104:.\Generated_Source\PSoC4/PWM_2.c ****     #if (PWM_2__TIMER == PWM_2_CONFIG)
 105:.\Generated_Source\PSoC4/PWM_2.c ****         PWM_2_TRIG_CONTROL1_REG  =
 106:.\Generated_Source\PSoC4/PWM_2.c ****         (((uint32)(PWM_2_TC_CAPTURE_SIGNAL_MODE  << PWM_2_CAPTURE_SHIFT))     |
 107:.\Generated_Source\PSoC4/PWM_2.c ****          ((uint32)(PWM_2_TC_COUNT_SIGNAL_MODE    << PWM_2_COUNT_SHIFT))       |
 108:.\Generated_Source\PSoC4/PWM_2.c ****          ((uint32)(PWM_2_TC_RELOAD_SIGNAL_MODE   << PWM_2_RELOAD_SHIFT))      |
ARM GAS  C:\Users\OEBN\AppData\Local\Temp\cc2uhR5V.s 			page 4


 109:.\Generated_Source\PSoC4/PWM_2.c ****          ((uint32)(PWM_2_TC_STOP_SIGNAL_MODE     << PWM_2_STOP_SHIFT))        |
 110:.\Generated_Source\PSoC4/PWM_2.c ****          ((uint32)(PWM_2_TC_START_SIGNAL_MODE    << PWM_2_START_SHIFT)));
 111:.\Generated_Source\PSoC4/PWM_2.c ****     #endif  /* (PWM_2__TIMER == PWM_2_CONFIG) */
 112:.\Generated_Source\PSoC4/PWM_2.c **** 
 113:.\Generated_Source\PSoC4/PWM_2.c ****     /* Set values from customizer to INTR */
 114:.\Generated_Source\PSoC4/PWM_2.c ****     #if (PWM_2__QUAD == PWM_2_CONFIG)
 115:.\Generated_Source\PSoC4/PWM_2.c ****         PWM_2_SetInterruptMode(PWM_2_QUAD_INTERRUPT_MASK);
 116:.\Generated_Source\PSoC4/PWM_2.c ****     #endif  /* (PWM_2__QUAD == PWM_2_CONFIG) */
 117:.\Generated_Source\PSoC4/PWM_2.c **** 
 118:.\Generated_Source\PSoC4/PWM_2.c ****     #if (PWM_2__PWM_SEL == PWM_2_CONFIG)
 119:.\Generated_Source\PSoC4/PWM_2.c ****         PWM_2_SetInterruptMode(PWM_2_PWM_INTERRUPT_MASK);
  64              		.loc 1 119 0
  65 0028 0120     		mov	r0, #1
  66 002a FFF7FEFF 		bl	PWM_2_SetInterruptMode
 120:.\Generated_Source\PSoC4/PWM_2.c ****     #endif  /* (PWM_2__PWM_SEL == PWM_2_CONFIG) */
 121:.\Generated_Source\PSoC4/PWM_2.c **** 
 122:.\Generated_Source\PSoC4/PWM_2.c ****     #if (PWM_2__TIMER == PWM_2_CONFIG)
 123:.\Generated_Source\PSoC4/PWM_2.c ****         PWM_2_SetInterruptMode(PWM_2_TC_INTERRUPT_MASK);
 124:.\Generated_Source\PSoC4/PWM_2.c ****     #endif  /* (PWM_2__TIMER == PWM_2_CONFIG) */
 125:.\Generated_Source\PSoC4/PWM_2.c **** 
 126:.\Generated_Source\PSoC4/PWM_2.c ****     /* Set other values from customizer */
 127:.\Generated_Source\PSoC4/PWM_2.c ****     #if (PWM_2__TIMER == PWM_2_CONFIG)
 128:.\Generated_Source\PSoC4/PWM_2.c ****         PWM_2_WritePeriod(PWM_2_TC_PERIOD_VALUE );
 129:.\Generated_Source\PSoC4/PWM_2.c **** 
 130:.\Generated_Source\PSoC4/PWM_2.c ****         #if (PWM_2__COUNT_DOWN == PWM_2_TC_COUNTER_MODE)
 131:.\Generated_Source\PSoC4/PWM_2.c ****             PWM_2_WriteCounter(PWM_2_TC_PERIOD_VALUE );
 132:.\Generated_Source\PSoC4/PWM_2.c ****         #endif  /* (PWM_2__COUNT_DOWN == PWM_2_TC_COUNTER_MODE) */
 133:.\Generated_Source\PSoC4/PWM_2.c **** 
 134:.\Generated_Source\PSoC4/PWM_2.c ****         #if (PWM_2__COMPARE == PWM_2_TC_COMP_CAP_MODE)
 135:.\Generated_Source\PSoC4/PWM_2.c ****             PWM_2_WriteCompare(PWM_2_TC_COMPARE_VALUE);
 136:.\Generated_Source\PSoC4/PWM_2.c **** 
 137:.\Generated_Source\PSoC4/PWM_2.c ****             #if (1u == PWM_2_TC_COMPARE_SWAP)
 138:.\Generated_Source\PSoC4/PWM_2.c ****                 PWM_2_SetCompareSwap(1u);
 139:.\Generated_Source\PSoC4/PWM_2.c ****                 PWM_2_WriteCompareBuf(PWM_2_TC_COMPARE_BUF_VALUE);
 140:.\Generated_Source\PSoC4/PWM_2.c ****             #endif  /* (1u == PWM_2_TC_COMPARE_SWAP) */
 141:.\Generated_Source\PSoC4/PWM_2.c ****         #endif  /* (PWM_2__COMPARE == PWM_2_TC_COMP_CAP_MODE) */
 142:.\Generated_Source\PSoC4/PWM_2.c ****     #endif  /* (PWM_2__TIMER == PWM_2_CONFIG) */
 143:.\Generated_Source\PSoC4/PWM_2.c **** 
 144:.\Generated_Source\PSoC4/PWM_2.c ****     #if (PWM_2__PWM_SEL == PWM_2_CONFIG)
 145:.\Generated_Source\PSoC4/PWM_2.c ****         PWM_2_WritePeriod(PWM_2_PWM_PERIOD_VALUE );
  67              		.loc 1 145 0
  68 002e 084B     		ldr	r3, .L2+8
  69 0030 181C     		mov	r0, r3
  70 0032 FFF7FEFF 		bl	PWM_2_WritePeriod
 146:.\Generated_Source\PSoC4/PWM_2.c ****         PWM_2_WriteCompare(PWM_2_PWM_COMPARE_VALUE);
  71              		.loc 1 146 0
  72 0036 064B     		ldr	r3, .L2+8
  73 0038 181C     		mov	r0, r3
  74 003a FFF7FEFF 		bl	PWM_2_WriteCompare
 147:.\Generated_Source\PSoC4/PWM_2.c **** 
 148:.\Generated_Source\PSoC4/PWM_2.c ****         #if (1u == PWM_2_PWM_COMPARE_SWAP)
 149:.\Generated_Source\PSoC4/PWM_2.c ****             PWM_2_SetCompareSwap(1u);
 150:.\Generated_Source\PSoC4/PWM_2.c ****             PWM_2_WriteCompareBuf(PWM_2_PWM_COMPARE_BUF_VALUE);
 151:.\Generated_Source\PSoC4/PWM_2.c ****         #endif  /* (1u == PWM_2_PWM_COMPARE_SWAP) */
 152:.\Generated_Source\PSoC4/PWM_2.c **** 
 153:.\Generated_Source\PSoC4/PWM_2.c ****         #if (1u == PWM_2_PWM_PERIOD_SWAP)
 154:.\Generated_Source\PSoC4/PWM_2.c ****             PWM_2_SetPeriodSwap(1u);
ARM GAS  C:\Users\OEBN\AppData\Local\Temp\cc2uhR5V.s 			page 5


 155:.\Generated_Source\PSoC4/PWM_2.c ****             PWM_2_WritePeriodBuf(PWM_2_PWM_PERIOD_BUF_VALUE);
 156:.\Generated_Source\PSoC4/PWM_2.c ****         #endif  /* (1u == PWM_2_PWM_PERIOD_SWAP) */
 157:.\Generated_Source\PSoC4/PWM_2.c **** 
 158:.\Generated_Source\PSoC4/PWM_2.c ****         /* Set values from customizer to CTRL2 */
 159:.\Generated_Source\PSoC4/PWM_2.c ****         #if (PWM_2__PWM_PR == PWM_2_PWM_MODE)
 160:.\Generated_Source\PSoC4/PWM_2.c ****             PWM_2_TRIG_CONTROL2_REG =
 161:.\Generated_Source\PSoC4/PWM_2.c ****                     (PWM_2_CC_MATCH_NO_CHANGE    |
 162:.\Generated_Source\PSoC4/PWM_2.c ****                     PWM_2_OVERLOW_NO_CHANGE      |
 163:.\Generated_Source\PSoC4/PWM_2.c ****                     PWM_2_UNDERFLOW_NO_CHANGE);
 164:.\Generated_Source\PSoC4/PWM_2.c ****         #else
 165:.\Generated_Source\PSoC4/PWM_2.c ****             #if (PWM_2__LEFT == PWM_2_PWM_ALIGN)
 166:.\Generated_Source\PSoC4/PWM_2.c ****                 PWM_2_TRIG_CONTROL2_REG = PWM_2_PWM_MODE_LEFT;
  75              		.loc 1 166 0
  76 003e 054B     		ldr	r3, .L2+12
  77 0040 3122     		mov	r2, #49
  78 0042 1A60     		str	r2, [r3]
 167:.\Generated_Source\PSoC4/PWM_2.c ****             #endif  /* ( PWM_2_PWM_LEFT == PWM_2_PWM_ALIGN) */
 168:.\Generated_Source\PSoC4/PWM_2.c **** 
 169:.\Generated_Source\PSoC4/PWM_2.c ****             #if (PWM_2__RIGHT == PWM_2_PWM_ALIGN)
 170:.\Generated_Source\PSoC4/PWM_2.c ****                 PWM_2_WriteCounter(PWM_2_PWM_PERIOD_VALUE);
 171:.\Generated_Source\PSoC4/PWM_2.c ****                 PWM_2_TRIG_CONTROL2_REG = PWM_2_PWM_MODE_RIGHT;
 172:.\Generated_Source\PSoC4/PWM_2.c ****             #endif  /* ( PWM_2_PWM_RIGHT == PWM_2_PWM_ALIGN) */
 173:.\Generated_Source\PSoC4/PWM_2.c **** 
 174:.\Generated_Source\PSoC4/PWM_2.c ****             #if (PWM_2__CENTER == PWM_2_PWM_ALIGN)
 175:.\Generated_Source\PSoC4/PWM_2.c ****                 PWM_2_TRIG_CONTROL2_REG = PWM_2_PWM_MODE_CENTER;
 176:.\Generated_Source\PSoC4/PWM_2.c ****             #endif  /* ( PWM_2_PWM_CENTER == PWM_2_PWM_ALIGN) */
 177:.\Generated_Source\PSoC4/PWM_2.c **** 
 178:.\Generated_Source\PSoC4/PWM_2.c ****             #if (PWM_2__ASYMMETRIC == PWM_2_PWM_ALIGN)
 179:.\Generated_Source\PSoC4/PWM_2.c ****                 PWM_2_TRIG_CONTROL2_REG = PWM_2_PWM_MODE_ASYM;
 180:.\Generated_Source\PSoC4/PWM_2.c ****             #endif  /* (PWM_2__ASYMMETRIC == PWM_2_PWM_ALIGN) */
 181:.\Generated_Source\PSoC4/PWM_2.c ****         #endif  /* (PWM_2__PWM_PR == PWM_2_PWM_MODE) */
 182:.\Generated_Source\PSoC4/PWM_2.c ****     #endif  /* (PWM_2__PWM_SEL == PWM_2_CONFIG) */
 183:.\Generated_Source\PSoC4/PWM_2.c **** }
  79              		.loc 1 183 0
  80 0044 BD46     		mov	sp, r7
  81              		@ sp needed for prologue
  82 0046 80BD     		pop	{r7, pc}
  83              	.L3:
  84              		.align	2
  85              	.L2:
  86 0048 80010540 		.word	1074069888
  87 004c A4010540 		.word	1074069924
  88 0050 FFFF0000 		.word	65535
  89 0054 A8010540 		.word	1074069928
  90              		.cfi_endproc
  91              	.LFE0:
  92              		.size	PWM_2_Init, .-PWM_2_Init
  93              		.section	.text.PWM_2_Enable,"ax",%progbits
  94              		.align	2
  95              		.global	PWM_2_Enable
  96              		.code	16
  97              		.thumb_func
  98              		.type	PWM_2_Enable, %function
  99              	PWM_2_Enable:
 100              	.LFB1:
 184:.\Generated_Source\PSoC4/PWM_2.c **** 
 185:.\Generated_Source\PSoC4/PWM_2.c **** 
ARM GAS  C:\Users\OEBN\AppData\Local\Temp\cc2uhR5V.s 			page 6


 186:.\Generated_Source\PSoC4/PWM_2.c **** /*******************************************************************************
 187:.\Generated_Source\PSoC4/PWM_2.c **** * Function Name: PWM_2_Enable
 188:.\Generated_Source\PSoC4/PWM_2.c **** ********************************************************************************
 189:.\Generated_Source\PSoC4/PWM_2.c **** *
 190:.\Generated_Source\PSoC4/PWM_2.c **** * Summary:
 191:.\Generated_Source\PSoC4/PWM_2.c **** *  Enables the PWM_2.
 192:.\Generated_Source\PSoC4/PWM_2.c **** *
 193:.\Generated_Source\PSoC4/PWM_2.c **** * Parameters:
 194:.\Generated_Source\PSoC4/PWM_2.c **** *  None
 195:.\Generated_Source\PSoC4/PWM_2.c **** *
 196:.\Generated_Source\PSoC4/PWM_2.c **** * Return:
 197:.\Generated_Source\PSoC4/PWM_2.c **** *  None
 198:.\Generated_Source\PSoC4/PWM_2.c **** *
 199:.\Generated_Source\PSoC4/PWM_2.c **** *******************************************************************************/
 200:.\Generated_Source\PSoC4/PWM_2.c **** void PWM_2_Enable(void)
 201:.\Generated_Source\PSoC4/PWM_2.c **** {
 101              		.loc 1 201 0
 102              		.cfi_startproc
 103 0000 90B5     		push	{r4, r7, lr}
 104              	.LCFI2:
 105              		.cfi_def_cfa_offset 12
 106              		.cfi_offset 4, -12
 107              		.cfi_offset 7, -8
 108              		.cfi_offset 14, -4
 109 0002 83B0     		sub	sp, sp, #12
 110              	.LCFI3:
 111              		.cfi_def_cfa_offset 24
 112 0004 00AF     		add	r7, sp, #0
 113              	.LCFI4:
 114              		.cfi_def_cfa_register 7
 202:.\Generated_Source\PSoC4/PWM_2.c ****     uint8 enableInterrupts;
 203:.\Generated_Source\PSoC4/PWM_2.c **** 
 204:.\Generated_Source\PSoC4/PWM_2.c ****     enableInterrupts = CyEnterCriticalSection();
 115              		.loc 1 204 0
 116 0006 FC1D     		add	r4, r7, #7
 117 0008 FFF7FEFF 		bl	CyEnterCriticalSection
 118 000c 031C     		mov	r3, r0
 119 000e 2370     		strb	r3, [r4]
 205:.\Generated_Source\PSoC4/PWM_2.c ****     PWM_2_BLOCK_CONTROL_REG |= PWM_2_MASK;
 120              		.loc 1 205 0
 121 0010 084B     		ldr	r3, .L5
 122 0012 084A     		ldr	r2, .L5
 123 0014 1268     		ldr	r2, [r2]
 124 0016 0421     		mov	r1, #4
 125 0018 0A43     		orr	r2, r1
 126 001a 1A60     		str	r2, [r3]
 206:.\Generated_Source\PSoC4/PWM_2.c ****     CyExitCriticalSection(enableInterrupts);
 127              		.loc 1 206 0
 128 001c FB1D     		add	r3, r7, #7
 129 001e 1B78     		ldrb	r3, [r3]
 130 0020 181C     		mov	r0, r3
 131 0022 FFF7FEFF 		bl	CyExitCriticalSection
 207:.\Generated_Source\PSoC4/PWM_2.c **** 
 208:.\Generated_Source\PSoC4/PWM_2.c ****     /* Start Timer or PWM if start input is absent */
 209:.\Generated_Source\PSoC4/PWM_2.c ****     #if (PWM_2__PWM_SEL == PWM_2_CONFIG)
 210:.\Generated_Source\PSoC4/PWM_2.c ****         #if (0u == PWM_2_PWM_START_SIGNAL_PRESENT)
 211:.\Generated_Source\PSoC4/PWM_2.c ****             PWM_2_TriggerCommand(PWM_2_MASK, PWM_2_CMD_START);
ARM GAS  C:\Users\OEBN\AppData\Local\Temp\cc2uhR5V.s 			page 7


 132              		.loc 1 211 0
 133 0026 0420     		mov	r0, #4
 134 0028 1821     		mov	r1, #24
 135 002a FFF7FEFF 		bl	PWM_2_TriggerCommand
 212:.\Generated_Source\PSoC4/PWM_2.c ****         #endif /* (0u == PWM_2_PWM_START_SIGNAL_PRESENT) */
 213:.\Generated_Source\PSoC4/PWM_2.c ****     #endif /* (PWM_2__PWM_SEL == PWM_2_CONFIG) */
 214:.\Generated_Source\PSoC4/PWM_2.c **** 
 215:.\Generated_Source\PSoC4/PWM_2.c ****     #if (PWM_2__TIMER == PWM_2_CONFIG)
 216:.\Generated_Source\PSoC4/PWM_2.c ****         #if (0u == PWM_2_TC_START_SIGNAL_PRESENT)
 217:.\Generated_Source\PSoC4/PWM_2.c ****             PWM_2_TriggerCommand(PWM_2_MASK, PWM_2_CMD_START);
 218:.\Generated_Source\PSoC4/PWM_2.c ****         #endif /* (0u == PWM_2_TC_START_SIGNAL_PRESENT) */
 219:.\Generated_Source\PSoC4/PWM_2.c ****     #endif /* (PWM_2__TIMER == PWM_2_CONFIG) */
 220:.\Generated_Source\PSoC4/PWM_2.c **** }
 136              		.loc 1 220 0
 137 002e BD46     		mov	sp, r7
 138 0030 03B0     		add	sp, sp, #12
 139              		@ sp needed for prologue
 140 0032 90BD     		pop	{r4, r7, pc}
 141              	.L6:
 142              		.align	2
 143              	.L5:
 144 0034 00000540 		.word	1074069504
 145              		.cfi_endproc
 146              	.LFE1:
 147              		.size	PWM_2_Enable, .-PWM_2_Enable
 148              		.section	.text.PWM_2_Start,"ax",%progbits
 149              		.align	2
 150              		.global	PWM_2_Start
 151              		.code	16
 152              		.thumb_func
 153              		.type	PWM_2_Start, %function
 154              	PWM_2_Start:
 155              	.LFB2:
 221:.\Generated_Source\PSoC4/PWM_2.c **** 
 222:.\Generated_Source\PSoC4/PWM_2.c **** 
 223:.\Generated_Source\PSoC4/PWM_2.c **** /*******************************************************************************
 224:.\Generated_Source\PSoC4/PWM_2.c **** * Function Name: PWM_2_Start
 225:.\Generated_Source\PSoC4/PWM_2.c **** ********************************************************************************
 226:.\Generated_Source\PSoC4/PWM_2.c **** *
 227:.\Generated_Source\PSoC4/PWM_2.c **** * Summary:
 228:.\Generated_Source\PSoC4/PWM_2.c **** *  Initializes the PWM_2 with default customizer
 229:.\Generated_Source\PSoC4/PWM_2.c **** *  values when called the first time and enables the PWM_2.
 230:.\Generated_Source\PSoC4/PWM_2.c **** *  For subsequent calls the configuration is left unchanged and the component is
 231:.\Generated_Source\PSoC4/PWM_2.c **** *  just enabled.
 232:.\Generated_Source\PSoC4/PWM_2.c **** *
 233:.\Generated_Source\PSoC4/PWM_2.c **** * Parameters:
 234:.\Generated_Source\PSoC4/PWM_2.c **** *  None
 235:.\Generated_Source\PSoC4/PWM_2.c **** *
 236:.\Generated_Source\PSoC4/PWM_2.c **** * Return:
 237:.\Generated_Source\PSoC4/PWM_2.c **** *  None
 238:.\Generated_Source\PSoC4/PWM_2.c **** *
 239:.\Generated_Source\PSoC4/PWM_2.c **** * Global variables:
 240:.\Generated_Source\PSoC4/PWM_2.c **** *  PWM_2_initVar: global variable is used to indicate initial
 241:.\Generated_Source\PSoC4/PWM_2.c **** *  configuration of this component.  The variable is initialized to zero and set
 242:.\Generated_Source\PSoC4/PWM_2.c **** *  to 1 the first time PWM_2_Start() is called. This allows
 243:.\Generated_Source\PSoC4/PWM_2.c **** *  enabling/disabling a component without re-initialization in all subsequent
 244:.\Generated_Source\PSoC4/PWM_2.c **** *  calls to the PWM_2_Start() routine.
ARM GAS  C:\Users\OEBN\AppData\Local\Temp\cc2uhR5V.s 			page 8


 245:.\Generated_Source\PSoC4/PWM_2.c **** *
 246:.\Generated_Source\PSoC4/PWM_2.c **** *******************************************************************************/
 247:.\Generated_Source\PSoC4/PWM_2.c **** void PWM_2_Start(void)
 248:.\Generated_Source\PSoC4/PWM_2.c **** {
 156              		.loc 1 248 0
 157              		.cfi_startproc
 158 0000 80B5     		push	{r7, lr}
 159              	.LCFI5:
 160              		.cfi_def_cfa_offset 8
 161              		.cfi_offset 7, -8
 162              		.cfi_offset 14, -4
 163 0002 00AF     		add	r7, sp, #0
 164              	.LCFI6:
 165              		.cfi_def_cfa_register 7
 249:.\Generated_Source\PSoC4/PWM_2.c ****     if (0u == PWM_2_initVar)
 166              		.loc 1 249 0
 167 0004 064B     		ldr	r3, .L9
 168 0006 1B78     		ldrb	r3, [r3]
 169 0008 002B     		cmp	r3, #0
 170 000a 04D1     		bne	.L8
 250:.\Generated_Source\PSoC4/PWM_2.c ****     {
 251:.\Generated_Source\PSoC4/PWM_2.c ****         PWM_2_Init();
 171              		.loc 1 251 0
 172 000c FFF7FEFF 		bl	PWM_2_Init
 252:.\Generated_Source\PSoC4/PWM_2.c ****         PWM_2_initVar = 1u;
 173              		.loc 1 252 0
 174 0010 034B     		ldr	r3, .L9
 175 0012 0122     		mov	r2, #1
 176 0014 1A70     		strb	r2, [r3]
 177              	.L8:
 253:.\Generated_Source\PSoC4/PWM_2.c ****     }
 254:.\Generated_Source\PSoC4/PWM_2.c **** 
 255:.\Generated_Source\PSoC4/PWM_2.c ****     PWM_2_Enable();
 178              		.loc 1 255 0
 179 0016 FFF7FEFF 		bl	PWM_2_Enable
 256:.\Generated_Source\PSoC4/PWM_2.c **** }
 180              		.loc 1 256 0
 181 001a BD46     		mov	sp, r7
 182              		@ sp needed for prologue
 183 001c 80BD     		pop	{r7, pc}
 184              	.L10:
 185 001e C046     		.align	2
 186              	.L9:
 187 0020 00000000 		.word	PWM_2_initVar
 188              		.cfi_endproc
 189              	.LFE2:
 190              		.size	PWM_2_Start, .-PWM_2_Start
 191              		.section	.text.PWM_2_Stop,"ax",%progbits
 192              		.align	2
 193              		.global	PWM_2_Stop
 194              		.code	16
 195              		.thumb_func
 196              		.type	PWM_2_Stop, %function
 197              	PWM_2_Stop:
 198              	.LFB3:
 257:.\Generated_Source\PSoC4/PWM_2.c **** 
 258:.\Generated_Source\PSoC4/PWM_2.c **** 
ARM GAS  C:\Users\OEBN\AppData\Local\Temp\cc2uhR5V.s 			page 9


 259:.\Generated_Source\PSoC4/PWM_2.c **** /*******************************************************************************
 260:.\Generated_Source\PSoC4/PWM_2.c **** * Function Name: PWM_2_Stop
 261:.\Generated_Source\PSoC4/PWM_2.c **** ********************************************************************************
 262:.\Generated_Source\PSoC4/PWM_2.c **** *
 263:.\Generated_Source\PSoC4/PWM_2.c **** * Summary:
 264:.\Generated_Source\PSoC4/PWM_2.c **** *  Disables the PWM_2.
 265:.\Generated_Source\PSoC4/PWM_2.c **** *
 266:.\Generated_Source\PSoC4/PWM_2.c **** * Parameters:
 267:.\Generated_Source\PSoC4/PWM_2.c **** *  None
 268:.\Generated_Source\PSoC4/PWM_2.c **** *
 269:.\Generated_Source\PSoC4/PWM_2.c **** * Return:
 270:.\Generated_Source\PSoC4/PWM_2.c **** *  None
 271:.\Generated_Source\PSoC4/PWM_2.c **** *
 272:.\Generated_Source\PSoC4/PWM_2.c **** *******************************************************************************/
 273:.\Generated_Source\PSoC4/PWM_2.c **** void PWM_2_Stop(void)
 274:.\Generated_Source\PSoC4/PWM_2.c **** {
 199              		.loc 1 274 0
 200              		.cfi_startproc
 201 0000 90B5     		push	{r4, r7, lr}
 202              	.LCFI7:
 203              		.cfi_def_cfa_offset 12
 204              		.cfi_offset 4, -12
 205              		.cfi_offset 7, -8
 206              		.cfi_offset 14, -4
 207 0002 83B0     		sub	sp, sp, #12
 208              	.LCFI8:
 209              		.cfi_def_cfa_offset 24
 210 0004 00AF     		add	r7, sp, #0
 211              	.LCFI9:
 212              		.cfi_def_cfa_register 7
 275:.\Generated_Source\PSoC4/PWM_2.c ****     uint8 enableInterrupts;
 276:.\Generated_Source\PSoC4/PWM_2.c **** 
 277:.\Generated_Source\PSoC4/PWM_2.c ****     enableInterrupts = CyEnterCriticalSection();
 213              		.loc 1 277 0
 214 0006 FC1D     		add	r4, r7, #7
 215 0008 FFF7FEFF 		bl	CyEnterCriticalSection
 216 000c 031C     		mov	r3, r0
 217 000e 2370     		strb	r3, [r4]
 278:.\Generated_Source\PSoC4/PWM_2.c **** 
 279:.\Generated_Source\PSoC4/PWM_2.c ****     PWM_2_BLOCK_CONTROL_REG &= (uint32)~PWM_2_MASK;
 218              		.loc 1 279 0
 219 0010 064B     		ldr	r3, .L12
 220 0012 064A     		ldr	r2, .L12
 221 0014 1268     		ldr	r2, [r2]
 222 0016 0421     		mov	r1, #4
 223 0018 8A43     		bic	r2, r1
 224 001a 1A60     		str	r2, [r3]
 280:.\Generated_Source\PSoC4/PWM_2.c **** 
 281:.\Generated_Source\PSoC4/PWM_2.c ****     CyExitCriticalSection(enableInterrupts);
 225              		.loc 1 281 0
 226 001c FB1D     		add	r3, r7, #7
 227 001e 1B78     		ldrb	r3, [r3]
 228 0020 181C     		mov	r0, r3
 229 0022 FFF7FEFF 		bl	CyExitCriticalSection
 282:.\Generated_Source\PSoC4/PWM_2.c **** }
 230              		.loc 1 282 0
 231 0026 BD46     		mov	sp, r7
ARM GAS  C:\Users\OEBN\AppData\Local\Temp\cc2uhR5V.s 			page 10


 232 0028 03B0     		add	sp, sp, #12
 233              		@ sp needed for prologue
 234 002a 90BD     		pop	{r4, r7, pc}
 235              	.L13:
 236              		.align	2
 237              	.L12:
 238 002c 00000540 		.word	1074069504
 239              		.cfi_endproc
 240              	.LFE3:
 241              		.size	PWM_2_Stop, .-PWM_2_Stop
 242              		.section	.text.PWM_2_SetMode,"ax",%progbits
 243              		.align	2
 244              		.global	PWM_2_SetMode
 245              		.code	16
 246              		.thumb_func
 247              		.type	PWM_2_SetMode, %function
 248              	PWM_2_SetMode:
 249              	.LFB4:
 283:.\Generated_Source\PSoC4/PWM_2.c **** 
 284:.\Generated_Source\PSoC4/PWM_2.c **** 
 285:.\Generated_Source\PSoC4/PWM_2.c **** /*******************************************************************************
 286:.\Generated_Source\PSoC4/PWM_2.c **** * Function Name: PWM_2_SetMode
 287:.\Generated_Source\PSoC4/PWM_2.c **** ********************************************************************************
 288:.\Generated_Source\PSoC4/PWM_2.c **** *
 289:.\Generated_Source\PSoC4/PWM_2.c **** * Summary:
 290:.\Generated_Source\PSoC4/PWM_2.c **** *  Sets the operation mode of the PWM_2. This function is used when
 291:.\Generated_Source\PSoC4/PWM_2.c **** *  configured as a generic PWM_2 and the actual mode of operation is
 292:.\Generated_Source\PSoC4/PWM_2.c **** *  set at runtime. The mode must be set while the component is disabled.
 293:.\Generated_Source\PSoC4/PWM_2.c **** *
 294:.\Generated_Source\PSoC4/PWM_2.c **** * Parameters:
 295:.\Generated_Source\PSoC4/PWM_2.c **** *  mode: Mode for the PWM_2 to operate in
 296:.\Generated_Source\PSoC4/PWM_2.c **** *   Values:
 297:.\Generated_Source\PSoC4/PWM_2.c **** *   - PWM_2_MODE_TIMER_COMPARE - Timer / Counter with
 298:.\Generated_Source\PSoC4/PWM_2.c **** *                                                 compare capability
 299:.\Generated_Source\PSoC4/PWM_2.c **** *         - PWM_2_MODE_TIMER_CAPTURE - Timer / Counter with
 300:.\Generated_Source\PSoC4/PWM_2.c **** *                                                 capture capability
 301:.\Generated_Source\PSoC4/PWM_2.c **** *         - PWM_2_MODE_QUAD - Quadrature decoder
 302:.\Generated_Source\PSoC4/PWM_2.c **** *         - PWM_2_MODE_PWM - PWM
 303:.\Generated_Source\PSoC4/PWM_2.c **** *         - PWM_2_MODE_PWM_DT - PWM with dead time
 304:.\Generated_Source\PSoC4/PWM_2.c **** *         - PWM_2_MODE_PWM_PR - PWM with pseudo random capability
 305:.\Generated_Source\PSoC4/PWM_2.c **** *
 306:.\Generated_Source\PSoC4/PWM_2.c **** * Return:
 307:.\Generated_Source\PSoC4/PWM_2.c **** *  None
 308:.\Generated_Source\PSoC4/PWM_2.c **** *
 309:.\Generated_Source\PSoC4/PWM_2.c **** *******************************************************************************/
 310:.\Generated_Source\PSoC4/PWM_2.c **** void PWM_2_SetMode(uint32 mode)
 311:.\Generated_Source\PSoC4/PWM_2.c **** {
 250              		.loc 1 311 0
 251              		.cfi_startproc
 252 0000 90B5     		push	{r4, r7, lr}
 253              	.LCFI10:
 254              		.cfi_def_cfa_offset 12
 255              		.cfi_offset 4, -12
 256              		.cfi_offset 7, -8
 257              		.cfi_offset 14, -4
 258 0002 85B0     		sub	sp, sp, #20
 259              	.LCFI11:
ARM GAS  C:\Users\OEBN\AppData\Local\Temp\cc2uhR5V.s 			page 11


 260              		.cfi_def_cfa_offset 32
 261 0004 00AF     		add	r7, sp, #0
 262              	.LCFI12:
 263              		.cfi_def_cfa_register 7
 264 0006 7860     		str	r0, [r7, #4]
 312:.\Generated_Source\PSoC4/PWM_2.c ****     uint8 enableInterrupts;
 313:.\Generated_Source\PSoC4/PWM_2.c **** 
 314:.\Generated_Source\PSoC4/PWM_2.c ****     enableInterrupts = CyEnterCriticalSection();
 265              		.loc 1 314 0
 266 0008 3C1C     		mov	r4, r7
 267 000a 0F34     		add	r4, r4, #15
 268 000c FFF7FEFF 		bl	CyEnterCriticalSection
 269 0010 031C     		mov	r3, r0
 270 0012 2370     		strb	r3, [r4]
 315:.\Generated_Source\PSoC4/PWM_2.c **** 
 316:.\Generated_Source\PSoC4/PWM_2.c ****     PWM_2_CONTROL_REG &= (uint32)~PWM_2_MODE_MASK;
 271              		.loc 1 316 0
 272 0014 0A4B     		ldr	r3, .L15
 273 0016 0A4A     		ldr	r2, .L15
 274 0018 1168     		ldr	r1, [r2]
 275 001a 0A4A     		ldr	r2, .L15+4
 276 001c 0A40     		and	r2, r1
 277 001e 1A60     		str	r2, [r3]
 317:.\Generated_Source\PSoC4/PWM_2.c ****     PWM_2_CONTROL_REG |= mode;
 278              		.loc 1 317 0
 279 0020 074B     		ldr	r3, .L15
 280 0022 074A     		ldr	r2, .L15
 281 0024 1168     		ldr	r1, [r2]
 282 0026 7A68     		ldr	r2, [r7, #4]
 283 0028 0A43     		orr	r2, r1
 284 002a 1A60     		str	r2, [r3]
 318:.\Generated_Source\PSoC4/PWM_2.c **** 
 319:.\Generated_Source\PSoC4/PWM_2.c ****     CyExitCriticalSection(enableInterrupts);
 285              		.loc 1 319 0
 286 002c 3B1C     		mov	r3, r7
 287 002e 0F33     		add	r3, r3, #15
 288 0030 1B78     		ldrb	r3, [r3]
 289 0032 181C     		mov	r0, r3
 290 0034 FFF7FEFF 		bl	CyExitCriticalSection
 320:.\Generated_Source\PSoC4/PWM_2.c **** }
 291              		.loc 1 320 0
 292 0038 BD46     		mov	sp, r7
 293 003a 05B0     		add	sp, sp, #20
 294              		@ sp needed for prologue
 295 003c 90BD     		pop	{r4, r7, pc}
 296              	.L16:
 297 003e C046     		.align	2
 298              	.L15:
 299 0040 80010540 		.word	1074069888
 300 0044 FFFFFFF8 		.word	-117440513
 301              		.cfi_endproc
 302              	.LFE4:
 303              		.size	PWM_2_SetMode, .-PWM_2_SetMode
 304              		.section	.text.PWM_2_SetQDMode,"ax",%progbits
 305              		.align	2
 306              		.global	PWM_2_SetQDMode
 307              		.code	16
ARM GAS  C:\Users\OEBN\AppData\Local\Temp\cc2uhR5V.s 			page 12


 308              		.thumb_func
 309              		.type	PWM_2_SetQDMode, %function
 310              	PWM_2_SetQDMode:
 311              	.LFB5:
 321:.\Generated_Source\PSoC4/PWM_2.c **** 
 322:.\Generated_Source\PSoC4/PWM_2.c **** 
 323:.\Generated_Source\PSoC4/PWM_2.c **** /*******************************************************************************
 324:.\Generated_Source\PSoC4/PWM_2.c **** * Function Name: PWM_2_SetQDMode
 325:.\Generated_Source\PSoC4/PWM_2.c **** ********************************************************************************
 326:.\Generated_Source\PSoC4/PWM_2.c **** *
 327:.\Generated_Source\PSoC4/PWM_2.c **** * Summary:
 328:.\Generated_Source\PSoC4/PWM_2.c **** *  Sets the the Quadrature Decoder to one of the 3 supported modes.
 329:.\Generated_Source\PSoC4/PWM_2.c **** *  Its functionality is only applicable to Quadrature Decoder operation.
 330:.\Generated_Source\PSoC4/PWM_2.c **** *
 331:.\Generated_Source\PSoC4/PWM_2.c **** * Parameters:
 332:.\Generated_Source\PSoC4/PWM_2.c **** *  qdMode: Quadrature Decoder mode
 333:.\Generated_Source\PSoC4/PWM_2.c **** *   Values:
 334:.\Generated_Source\PSoC4/PWM_2.c **** *         - PWM_2_MODE_X1 - Counts on phi 1 rising
 335:.\Generated_Source\PSoC4/PWM_2.c **** *         - PWM_2_MODE_X2 - Counts on both edges of phi1 (2x faster)
 336:.\Generated_Source\PSoC4/PWM_2.c **** *         - PWM_2_MODE_X4 - Counts on both edges of phi1 and phi2
 337:.\Generated_Source\PSoC4/PWM_2.c **** *                                        (4x faster)
 338:.\Generated_Source\PSoC4/PWM_2.c **** *
 339:.\Generated_Source\PSoC4/PWM_2.c **** * Return:
 340:.\Generated_Source\PSoC4/PWM_2.c **** *  None
 341:.\Generated_Source\PSoC4/PWM_2.c **** *
 342:.\Generated_Source\PSoC4/PWM_2.c **** *******************************************************************************/
 343:.\Generated_Source\PSoC4/PWM_2.c **** void PWM_2_SetQDMode(uint32 qdMode)
 344:.\Generated_Source\PSoC4/PWM_2.c **** {
 312              		.loc 1 344 0
 313              		.cfi_startproc
 314 0000 90B5     		push	{r4, r7, lr}
 315              	.LCFI13:
 316              		.cfi_def_cfa_offset 12
 317              		.cfi_offset 4, -12
 318              		.cfi_offset 7, -8
 319              		.cfi_offset 14, -4
 320 0002 85B0     		sub	sp, sp, #20
 321              	.LCFI14:
 322              		.cfi_def_cfa_offset 32
 323 0004 00AF     		add	r7, sp, #0
 324              	.LCFI15:
 325              		.cfi_def_cfa_register 7
 326 0006 7860     		str	r0, [r7, #4]
 345:.\Generated_Source\PSoC4/PWM_2.c ****     uint8 enableInterrupts;
 346:.\Generated_Source\PSoC4/PWM_2.c **** 
 347:.\Generated_Source\PSoC4/PWM_2.c ****     enableInterrupts = CyEnterCriticalSection();
 327              		.loc 1 347 0
 328 0008 3C1C     		mov	r4, r7
 329 000a 0F34     		add	r4, r4, #15
 330 000c FFF7FEFF 		bl	CyEnterCriticalSection
 331 0010 031C     		mov	r3, r0
 332 0012 2370     		strb	r3, [r4]
 348:.\Generated_Source\PSoC4/PWM_2.c **** 
 349:.\Generated_Source\PSoC4/PWM_2.c ****     PWM_2_CONTROL_REG &= (uint32)~PWM_2_QUAD_MODE_MASK;
 333              		.loc 1 349 0
 334 0014 0A4B     		ldr	r3, .L18
 335 0016 0A4A     		ldr	r2, .L18
ARM GAS  C:\Users\OEBN\AppData\Local\Temp\cc2uhR5V.s 			page 13


 336 0018 1168     		ldr	r1, [r2]
 337 001a 0A4A     		ldr	r2, .L18+4
 338 001c 0A40     		and	r2, r1
 339 001e 1A60     		str	r2, [r3]
 350:.\Generated_Source\PSoC4/PWM_2.c ****     PWM_2_CONTROL_REG |= qdMode;
 340              		.loc 1 350 0
 341 0020 074B     		ldr	r3, .L18
 342 0022 074A     		ldr	r2, .L18
 343 0024 1168     		ldr	r1, [r2]
 344 0026 7A68     		ldr	r2, [r7, #4]
 345 0028 0A43     		orr	r2, r1
 346 002a 1A60     		str	r2, [r3]
 351:.\Generated_Source\PSoC4/PWM_2.c **** 
 352:.\Generated_Source\PSoC4/PWM_2.c ****     CyExitCriticalSection(enableInterrupts);
 347              		.loc 1 352 0
 348 002c 3B1C     		mov	r3, r7
 349 002e 0F33     		add	r3, r3, #15
 350 0030 1B78     		ldrb	r3, [r3]
 351 0032 181C     		mov	r0, r3
 352 0034 FFF7FEFF 		bl	CyExitCriticalSection
 353:.\Generated_Source\PSoC4/PWM_2.c **** }
 353              		.loc 1 353 0
 354 0038 BD46     		mov	sp, r7
 355 003a 05B0     		add	sp, sp, #20
 356              		@ sp needed for prologue
 357 003c 90BD     		pop	{r4, r7, pc}
 358              	.L19:
 359 003e C046     		.align	2
 360              	.L18:
 361 0040 80010540 		.word	1074069888
 362 0044 FFFF8FFF 		.word	-7340033
 363              		.cfi_endproc
 364              	.LFE5:
 365              		.size	PWM_2_SetQDMode, .-PWM_2_SetQDMode
 366              		.section	.text.PWM_2_SetPrescaler,"ax",%progbits
 367              		.align	2
 368              		.global	PWM_2_SetPrescaler
 369              		.code	16
 370              		.thumb_func
 371              		.type	PWM_2_SetPrescaler, %function
 372              	PWM_2_SetPrescaler:
 373              	.LFB6:
 354:.\Generated_Source\PSoC4/PWM_2.c **** 
 355:.\Generated_Source\PSoC4/PWM_2.c **** 
 356:.\Generated_Source\PSoC4/PWM_2.c **** /*******************************************************************************
 357:.\Generated_Source\PSoC4/PWM_2.c **** * Function Name: PWM_2_SetPrescaler
 358:.\Generated_Source\PSoC4/PWM_2.c **** ********************************************************************************
 359:.\Generated_Source\PSoC4/PWM_2.c **** *
 360:.\Generated_Source\PSoC4/PWM_2.c **** * Summary:
 361:.\Generated_Source\PSoC4/PWM_2.c **** *  Sets the prescaler value that is applied to the clock input.  Not applicable
 362:.\Generated_Source\PSoC4/PWM_2.c **** *  to a PWM with the dead time mode or Quadrature Decoder mode.
 363:.\Generated_Source\PSoC4/PWM_2.c **** *
 364:.\Generated_Source\PSoC4/PWM_2.c **** * Parameters:
 365:.\Generated_Source\PSoC4/PWM_2.c **** *  prescaler: Prescaler divider value
 366:.\Generated_Source\PSoC4/PWM_2.c **** *   Values:
 367:.\Generated_Source\PSoC4/PWM_2.c **** *         - PWM_2_PRESCALE_DIVBY1    - Divide by 1 (no prescaling)
 368:.\Generated_Source\PSoC4/PWM_2.c **** *         - PWM_2_PRESCALE_DIVBY2    - Divide by 2
ARM GAS  C:\Users\OEBN\AppData\Local\Temp\cc2uhR5V.s 			page 14


 369:.\Generated_Source\PSoC4/PWM_2.c **** *         - PWM_2_PRESCALE_DIVBY4    - Divide by 4
 370:.\Generated_Source\PSoC4/PWM_2.c **** *         - PWM_2_PRESCALE_DIVBY8    - Divide by 8
 371:.\Generated_Source\PSoC4/PWM_2.c **** *         - PWM_2_PRESCALE_DIVBY16   - Divide by 16
 372:.\Generated_Source\PSoC4/PWM_2.c **** *         - PWM_2_PRESCALE_DIVBY32   - Divide by 32
 373:.\Generated_Source\PSoC4/PWM_2.c **** *         - PWM_2_PRESCALE_DIVBY64   - Divide by 64
 374:.\Generated_Source\PSoC4/PWM_2.c **** *         - PWM_2_PRESCALE_DIVBY128  - Divide by 128
 375:.\Generated_Source\PSoC4/PWM_2.c **** *
 376:.\Generated_Source\PSoC4/PWM_2.c **** * Return:
 377:.\Generated_Source\PSoC4/PWM_2.c **** *  None
 378:.\Generated_Source\PSoC4/PWM_2.c **** *
 379:.\Generated_Source\PSoC4/PWM_2.c **** *******************************************************************************/
 380:.\Generated_Source\PSoC4/PWM_2.c **** void PWM_2_SetPrescaler(uint32 prescaler)
 381:.\Generated_Source\PSoC4/PWM_2.c **** {
 374              		.loc 1 381 0
 375              		.cfi_startproc
 376 0000 90B5     		push	{r4, r7, lr}
 377              	.LCFI16:
 378              		.cfi_def_cfa_offset 12
 379              		.cfi_offset 4, -12
 380              		.cfi_offset 7, -8
 381              		.cfi_offset 14, -4
 382 0002 85B0     		sub	sp, sp, #20
 383              	.LCFI17:
 384              		.cfi_def_cfa_offset 32
 385 0004 00AF     		add	r7, sp, #0
 386              	.LCFI18:
 387              		.cfi_def_cfa_register 7
 388 0006 7860     		str	r0, [r7, #4]
 382:.\Generated_Source\PSoC4/PWM_2.c ****     uint8 enableInterrupts;
 383:.\Generated_Source\PSoC4/PWM_2.c **** 
 384:.\Generated_Source\PSoC4/PWM_2.c ****     enableInterrupts = CyEnterCriticalSection();
 389              		.loc 1 384 0
 390 0008 3C1C     		mov	r4, r7
 391 000a 0F34     		add	r4, r4, #15
 392 000c FFF7FEFF 		bl	CyEnterCriticalSection
 393 0010 031C     		mov	r3, r0
 394 0012 2370     		strb	r3, [r4]
 385:.\Generated_Source\PSoC4/PWM_2.c **** 
 386:.\Generated_Source\PSoC4/PWM_2.c ****     PWM_2_CONTROL_REG &= (uint32)~PWM_2_PRESCALER_MASK;
 395              		.loc 1 386 0
 396 0014 0A4B     		ldr	r3, .L21
 397 0016 0A4A     		ldr	r2, .L21
 398 0018 1168     		ldr	r1, [r2]
 399 001a 0A4A     		ldr	r2, .L21+4
 400 001c 0A40     		and	r2, r1
 401 001e 1A60     		str	r2, [r3]
 387:.\Generated_Source\PSoC4/PWM_2.c ****     PWM_2_CONTROL_REG |= prescaler;
 402              		.loc 1 387 0
 403 0020 074B     		ldr	r3, .L21
 404 0022 074A     		ldr	r2, .L21
 405 0024 1168     		ldr	r1, [r2]
 406 0026 7A68     		ldr	r2, [r7, #4]
 407 0028 0A43     		orr	r2, r1
 408 002a 1A60     		str	r2, [r3]
 388:.\Generated_Source\PSoC4/PWM_2.c **** 
 389:.\Generated_Source\PSoC4/PWM_2.c ****     CyExitCriticalSection(enableInterrupts);
 409              		.loc 1 389 0
ARM GAS  C:\Users\OEBN\AppData\Local\Temp\cc2uhR5V.s 			page 15


 410 002c 3B1C     		mov	r3, r7
 411 002e 0F33     		add	r3, r3, #15
 412 0030 1B78     		ldrb	r3, [r3]
 413 0032 181C     		mov	r0, r3
 414 0034 FFF7FEFF 		bl	CyExitCriticalSection
 390:.\Generated_Source\PSoC4/PWM_2.c **** }
 415              		.loc 1 390 0
 416 0038 BD46     		mov	sp, r7
 417 003a 05B0     		add	sp, sp, #20
 418              		@ sp needed for prologue
 419 003c 90BD     		pop	{r4, r7, pc}
 420              	.L22:
 421 003e C046     		.align	2
 422              	.L21:
 423 0040 80010540 		.word	1074069888
 424 0044 FF00FFFF 		.word	-65281
 425              		.cfi_endproc
 426              	.LFE6:
 427              		.size	PWM_2_SetPrescaler, .-PWM_2_SetPrescaler
 428              		.section	.text.PWM_2_SetOneShot,"ax",%progbits
 429              		.align	2
 430              		.global	PWM_2_SetOneShot
 431              		.code	16
 432              		.thumb_func
 433              		.type	PWM_2_SetOneShot, %function
 434              	PWM_2_SetOneShot:
 435              	.LFB7:
 391:.\Generated_Source\PSoC4/PWM_2.c **** 
 392:.\Generated_Source\PSoC4/PWM_2.c **** 
 393:.\Generated_Source\PSoC4/PWM_2.c **** /*******************************************************************************
 394:.\Generated_Source\PSoC4/PWM_2.c **** * Function Name: PWM_2_SetOneShot
 395:.\Generated_Source\PSoC4/PWM_2.c **** ********************************************************************************
 396:.\Generated_Source\PSoC4/PWM_2.c **** *
 397:.\Generated_Source\PSoC4/PWM_2.c **** * Summary:
 398:.\Generated_Source\PSoC4/PWM_2.c **** *  Writes the register that controls whether the PWM_2 runs
 399:.\Generated_Source\PSoC4/PWM_2.c **** *  continuously or stops when terminal count is reached.  By default the
 400:.\Generated_Source\PSoC4/PWM_2.c **** *  PWM_2 operates in the continuous mode.
 401:.\Generated_Source\PSoC4/PWM_2.c **** *
 402:.\Generated_Source\PSoC4/PWM_2.c **** * Parameters:
 403:.\Generated_Source\PSoC4/PWM_2.c **** *  oneShotEnable
 404:.\Generated_Source\PSoC4/PWM_2.c **** *   Values:
 405:.\Generated_Source\PSoC4/PWM_2.c **** *     - 0 - Continuous
 406:.\Generated_Source\PSoC4/PWM_2.c **** *     - 1 - Enable One Shot
 407:.\Generated_Source\PSoC4/PWM_2.c **** *
 408:.\Generated_Source\PSoC4/PWM_2.c **** * Return:
 409:.\Generated_Source\PSoC4/PWM_2.c **** *  None
 410:.\Generated_Source\PSoC4/PWM_2.c **** *
 411:.\Generated_Source\PSoC4/PWM_2.c **** *******************************************************************************/
 412:.\Generated_Source\PSoC4/PWM_2.c **** void PWM_2_SetOneShot(uint32 oneShotEnable)
 413:.\Generated_Source\PSoC4/PWM_2.c **** {
 436              		.loc 1 413 0
 437              		.cfi_startproc
 438 0000 90B5     		push	{r4, r7, lr}
 439              	.LCFI19:
 440              		.cfi_def_cfa_offset 12
 441              		.cfi_offset 4, -12
 442              		.cfi_offset 7, -8
ARM GAS  C:\Users\OEBN\AppData\Local\Temp\cc2uhR5V.s 			page 16


 443              		.cfi_offset 14, -4
 444 0002 85B0     		sub	sp, sp, #20
 445              	.LCFI20:
 446              		.cfi_def_cfa_offset 32
 447 0004 00AF     		add	r7, sp, #0
 448              	.LCFI21:
 449              		.cfi_def_cfa_register 7
 450 0006 7860     		str	r0, [r7, #4]
 414:.\Generated_Source\PSoC4/PWM_2.c ****     uint8 enableInterrupts;
 415:.\Generated_Source\PSoC4/PWM_2.c **** 
 416:.\Generated_Source\PSoC4/PWM_2.c ****     enableInterrupts = CyEnterCriticalSection();
 451              		.loc 1 416 0
 452 0008 3C1C     		mov	r4, r7
 453 000a 0F34     		add	r4, r4, #15
 454 000c FFF7FEFF 		bl	CyEnterCriticalSection
 455 0010 031C     		mov	r3, r0
 456 0012 2370     		strb	r3, [r4]
 417:.\Generated_Source\PSoC4/PWM_2.c **** 
 418:.\Generated_Source\PSoC4/PWM_2.c ****     PWM_2_CONTROL_REG &= (uint32)~PWM_2_ONESHOT_MASK;
 457              		.loc 1 418 0
 458 0014 0B4B     		ldr	r3, .L24
 459 0016 0B4A     		ldr	r2, .L24
 460 0018 1168     		ldr	r1, [r2]
 461 001a 0B4A     		ldr	r2, .L24+4
 462 001c 0A40     		and	r2, r1
 463 001e 1A60     		str	r2, [r3]
 419:.\Generated_Source\PSoC4/PWM_2.c ****     PWM_2_CONTROL_REG |= ((uint32)((oneShotEnable & PWM_2_1BIT_MASK) <<
 464              		.loc 1 419 0
 465 0020 084B     		ldr	r3, .L24
 466 0022 084A     		ldr	r2, .L24
 467 0024 1168     		ldr	r1, [r2]
 468 0026 7868     		ldr	r0, [r7, #4]
 469 0028 0122     		mov	r2, #1
 470 002a 0240     		and	r2, r0
 471 002c 9204     		lsl	r2, r2, #18
 472 002e 0A43     		orr	r2, r1
 473 0030 1A60     		str	r2, [r3]
 420:.\Generated_Source\PSoC4/PWM_2.c ****                                                                PWM_2_ONESHOT_SHIFT));
 421:.\Generated_Source\PSoC4/PWM_2.c **** 
 422:.\Generated_Source\PSoC4/PWM_2.c ****     CyExitCriticalSection(enableInterrupts);
 474              		.loc 1 422 0
 475 0032 3B1C     		mov	r3, r7
 476 0034 0F33     		add	r3, r3, #15
 477 0036 1B78     		ldrb	r3, [r3]
 478 0038 181C     		mov	r0, r3
 479 003a FFF7FEFF 		bl	CyExitCriticalSection
 423:.\Generated_Source\PSoC4/PWM_2.c **** }
 480              		.loc 1 423 0
 481 003e BD46     		mov	sp, r7
 482 0040 05B0     		add	sp, sp, #20
 483              		@ sp needed for prologue
 484 0042 90BD     		pop	{r4, r7, pc}
 485              	.L25:
 486              		.align	2
 487              	.L24:
 488 0044 80010540 		.word	1074069888
 489 0048 FFFFFBFF 		.word	-262145
ARM GAS  C:\Users\OEBN\AppData\Local\Temp\cc2uhR5V.s 			page 17


 490              		.cfi_endproc
 491              	.LFE7:
 492              		.size	PWM_2_SetOneShot, .-PWM_2_SetOneShot
 493              		.section	.text.PWM_2_SetPWMMode,"ax",%progbits
 494              		.align	2
 495              		.global	PWM_2_SetPWMMode
 496              		.code	16
 497              		.thumb_func
 498              		.type	PWM_2_SetPWMMode, %function
 499              	PWM_2_SetPWMMode:
 500              	.LFB8:
 424:.\Generated_Source\PSoC4/PWM_2.c **** 
 425:.\Generated_Source\PSoC4/PWM_2.c **** 
 426:.\Generated_Source\PSoC4/PWM_2.c **** /*******************************************************************************
 427:.\Generated_Source\PSoC4/PWM_2.c **** * Function Name: PWM_2_SetPWMMode
 428:.\Generated_Source\PSoC4/PWM_2.c **** ********************************************************************************
 429:.\Generated_Source\PSoC4/PWM_2.c **** *
 430:.\Generated_Source\PSoC4/PWM_2.c **** * Summary:
 431:.\Generated_Source\PSoC4/PWM_2.c **** *  Writes the control register that determines what mode of operation the PWM
 432:.\Generated_Source\PSoC4/PWM_2.c **** *  output lines are driven in.  There is a setting for what to do on a
 433:.\Generated_Source\PSoC4/PWM_2.c **** *  comparison match (CC_MATCH), on an overflow (OVERFLOW) and on an underflow
 434:.\Generated_Source\PSoC4/PWM_2.c **** *  (UNDERFLOW).  The value for each of the three must be ORed together to form
 435:.\Generated_Source\PSoC4/PWM_2.c **** *  the mode.
 436:.\Generated_Source\PSoC4/PWM_2.c **** *
 437:.\Generated_Source\PSoC4/PWM_2.c **** * Parameters:
 438:.\Generated_Source\PSoC4/PWM_2.c **** *  modeMask: A combination of three mode settings.  Mask must include a value
 439:.\Generated_Source\PSoC4/PWM_2.c **** *  for each of the three or use one of the preconfigured PWM settings.
 440:.\Generated_Source\PSoC4/PWM_2.c **** *   Values:
 441:.\Generated_Source\PSoC4/PWM_2.c **** *     - CC_MATCH_SET        - Set on comparison match
 442:.\Generated_Source\PSoC4/PWM_2.c **** *     - CC_MATCH_CLEAR      - Clear on comparison match
 443:.\Generated_Source\PSoC4/PWM_2.c **** *     - CC_MATCH_INVERT     - Invert on comparison match
 444:.\Generated_Source\PSoC4/PWM_2.c **** *     - CC_MATCH_NO_CHANGE  - No change on comparison match
 445:.\Generated_Source\PSoC4/PWM_2.c **** *     - OVERLOW_SET         - Set on overflow
 446:.\Generated_Source\PSoC4/PWM_2.c **** *     - OVERLOW_CLEAR       - Clear on  overflow
 447:.\Generated_Source\PSoC4/PWM_2.c **** *     - OVERLOW_INVERT      - Invert on overflow
 448:.\Generated_Source\PSoC4/PWM_2.c **** *     - OVERLOW_NO_CHANGE   - No change on overflow
 449:.\Generated_Source\PSoC4/PWM_2.c **** *     - UNDERFLOW_SET       - Set on underflow
 450:.\Generated_Source\PSoC4/PWM_2.c **** *     - UNDERFLOW_CLEAR     - Clear on underflow
 451:.\Generated_Source\PSoC4/PWM_2.c **** *     - UNDERFLOW_INVERT    - Invert on underflow
 452:.\Generated_Source\PSoC4/PWM_2.c **** *     - UNDERFLOW_NO_CHANGE - No change on underflow
 453:.\Generated_Source\PSoC4/PWM_2.c **** *     - PWM_MODE_LEFT       - Setting for left aligned PWM.  Should be combined
 454:.\Generated_Source\PSoC4/PWM_2.c **** *                             with up counting mode
 455:.\Generated_Source\PSoC4/PWM_2.c **** *     - PWM_MODE_RIGHT      - Setting for right aligned PWM.  Should be combined
 456:.\Generated_Source\PSoC4/PWM_2.c **** *                             with down counting mode
 457:.\Generated_Source\PSoC4/PWM_2.c **** *     - PWM_MODE_CENTER     - Setting for center aligned PWM.  Should be
 458:.\Generated_Source\PSoC4/PWM_2.c **** *                             combined with up/down 0 mode
 459:.\Generated_Source\PSoC4/PWM_2.c **** *     - PWM_MODE_ASYM       - Setting for asymmetric PWM.  Should be combined
 460:.\Generated_Source\PSoC4/PWM_2.c **** *                             with up/down 1 mode
 461:.\Generated_Source\PSoC4/PWM_2.c **** *
 462:.\Generated_Source\PSoC4/PWM_2.c **** * Return:
 463:.\Generated_Source\PSoC4/PWM_2.c **** *  None
 464:.\Generated_Source\PSoC4/PWM_2.c **** *
 465:.\Generated_Source\PSoC4/PWM_2.c **** *******************************************************************************/
 466:.\Generated_Source\PSoC4/PWM_2.c **** void PWM_2_SetPWMMode(uint32 modeMask)
 467:.\Generated_Source\PSoC4/PWM_2.c **** {
 501              		.loc 1 467 0
 502              		.cfi_startproc
ARM GAS  C:\Users\OEBN\AppData\Local\Temp\cc2uhR5V.s 			page 18


 503 0000 80B5     		push	{r7, lr}
 504              	.LCFI22:
 505              		.cfi_def_cfa_offset 8
 506              		.cfi_offset 7, -8
 507              		.cfi_offset 14, -4
 508 0002 82B0     		sub	sp, sp, #8
 509              	.LCFI23:
 510              		.cfi_def_cfa_offset 16
 511 0004 00AF     		add	r7, sp, #0
 512              	.LCFI24:
 513              		.cfi_def_cfa_register 7
 514 0006 7860     		str	r0, [r7, #4]
 468:.\Generated_Source\PSoC4/PWM_2.c ****     PWM_2_TRIG_CONTROL2_REG = (modeMask & PWM_2_6BIT_MASK);
 515              		.loc 1 468 0
 516 0008 034B     		ldr	r3, .L27
 517 000a 7968     		ldr	r1, [r7, #4]
 518 000c 3F22     		mov	r2, #63
 519 000e 0A40     		and	r2, r1
 520 0010 1A60     		str	r2, [r3]
 469:.\Generated_Source\PSoC4/PWM_2.c **** }
 521              		.loc 1 469 0
 522 0012 BD46     		mov	sp, r7
 523 0014 02B0     		add	sp, sp, #8
 524              		@ sp needed for prologue
 525 0016 80BD     		pop	{r7, pc}
 526              	.L28:
 527              		.align	2
 528              	.L27:
 529 0018 A8010540 		.word	1074069928
 530              		.cfi_endproc
 531              	.LFE8:
 532              		.size	PWM_2_SetPWMMode, .-PWM_2_SetPWMMode
 533              		.section	.text.PWM_2_SetPWMSyncKill,"ax",%progbits
 534              		.align	2
 535              		.global	PWM_2_SetPWMSyncKill
 536              		.code	16
 537              		.thumb_func
 538              		.type	PWM_2_SetPWMSyncKill, %function
 539              	PWM_2_SetPWMSyncKill:
 540              	.LFB9:
 470:.\Generated_Source\PSoC4/PWM_2.c **** 
 471:.\Generated_Source\PSoC4/PWM_2.c **** 
 472:.\Generated_Source\PSoC4/PWM_2.c **** 
 473:.\Generated_Source\PSoC4/PWM_2.c **** /*******************************************************************************
 474:.\Generated_Source\PSoC4/PWM_2.c **** * Function Name: PWM_2_SetPWMSyncKill
 475:.\Generated_Source\PSoC4/PWM_2.c **** ********************************************************************************
 476:.\Generated_Source\PSoC4/PWM_2.c **** *
 477:.\Generated_Source\PSoC4/PWM_2.c **** * Summary:
 478:.\Generated_Source\PSoC4/PWM_2.c **** *  Writes the register that controls whether the PWM kill signal (stop input)
 479:.\Generated_Source\PSoC4/PWM_2.c **** *  causes asynchronous or synchronous kill operation.  By default the kill
 480:.\Generated_Source\PSoC4/PWM_2.c **** *  operation is asynchronous.  This functionality is only applicable to the PWM
 481:.\Generated_Source\PSoC4/PWM_2.c **** *  and PWM with dead time modes.
 482:.\Generated_Source\PSoC4/PWM_2.c **** *
 483:.\Generated_Source\PSoC4/PWM_2.c **** *  For Synchronous mode the kill signal disables both the line and line_n
 484:.\Generated_Source\PSoC4/PWM_2.c **** *  signals until the next terminal count.
 485:.\Generated_Source\PSoC4/PWM_2.c **** *
 486:.\Generated_Source\PSoC4/PWM_2.c **** *  For Asynchronous mode the kill signal disables both the line and line_n
ARM GAS  C:\Users\OEBN\AppData\Local\Temp\cc2uhR5V.s 			page 19


 487:.\Generated_Source\PSoC4/PWM_2.c **** *  signals when the kill signal is present.  This mode should only be used
 488:.\Generated_Source\PSoC4/PWM_2.c **** *  when the kill signal (stop input) is configured in the pass through mode
 489:.\Generated_Source\PSoC4/PWM_2.c **** *  (Level sensitive signal).
 490:.\Generated_Source\PSoC4/PWM_2.c **** 
 491:.\Generated_Source\PSoC4/PWM_2.c **** *
 492:.\Generated_Source\PSoC4/PWM_2.c **** * Parameters:
 493:.\Generated_Source\PSoC4/PWM_2.c **** *  syncKillEnable
 494:.\Generated_Source\PSoC4/PWM_2.c **** *   Values:
 495:.\Generated_Source\PSoC4/PWM_2.c **** *     - 0 - Asynchronous
 496:.\Generated_Source\PSoC4/PWM_2.c **** *     - 1 - Synchronous
 497:.\Generated_Source\PSoC4/PWM_2.c **** *
 498:.\Generated_Source\PSoC4/PWM_2.c **** * Return:
 499:.\Generated_Source\PSoC4/PWM_2.c **** *  None
 500:.\Generated_Source\PSoC4/PWM_2.c **** *
 501:.\Generated_Source\PSoC4/PWM_2.c **** *******************************************************************************/
 502:.\Generated_Source\PSoC4/PWM_2.c **** void PWM_2_SetPWMSyncKill(uint32 syncKillEnable)
 503:.\Generated_Source\PSoC4/PWM_2.c **** {
 541              		.loc 1 503 0
 542              		.cfi_startproc
 543 0000 90B5     		push	{r4, r7, lr}
 544              	.LCFI25:
 545              		.cfi_def_cfa_offset 12
 546              		.cfi_offset 4, -12
 547              		.cfi_offset 7, -8
 548              		.cfi_offset 14, -4
 549 0002 85B0     		sub	sp, sp, #20
 550              	.LCFI26:
 551              		.cfi_def_cfa_offset 32
 552 0004 00AF     		add	r7, sp, #0
 553              	.LCFI27:
 554              		.cfi_def_cfa_register 7
 555 0006 7860     		str	r0, [r7, #4]
 504:.\Generated_Source\PSoC4/PWM_2.c ****     uint8 enableInterrupts;
 505:.\Generated_Source\PSoC4/PWM_2.c **** 
 506:.\Generated_Source\PSoC4/PWM_2.c ****     enableInterrupts = CyEnterCriticalSection();
 556              		.loc 1 506 0
 557 0008 3C1C     		mov	r4, r7
 558 000a 0F34     		add	r4, r4, #15
 559 000c FFF7FEFF 		bl	CyEnterCriticalSection
 560 0010 031C     		mov	r3, r0
 561 0012 2370     		strb	r3, [r4]
 507:.\Generated_Source\PSoC4/PWM_2.c **** 
 508:.\Generated_Source\PSoC4/PWM_2.c ****     PWM_2_CONTROL_REG &= (uint32)~PWM_2_PWM_SYNC_KILL_MASK;
 562              		.loc 1 508 0
 563 0014 0B4B     		ldr	r3, .L30
 564 0016 0B4A     		ldr	r2, .L30
 565 0018 1268     		ldr	r2, [r2]
 566 001a 0421     		mov	r1, #4
 567 001c 8A43     		bic	r2, r1
 568 001e 1A60     		str	r2, [r3]
 509:.\Generated_Source\PSoC4/PWM_2.c ****     PWM_2_CONTROL_REG |= ((uint32)((syncKillEnable & PWM_2_1BIT_MASK)  <<
 569              		.loc 1 509 0
 570 0020 084B     		ldr	r3, .L30
 571 0022 084A     		ldr	r2, .L30
 572 0024 1168     		ldr	r1, [r2]
 573 0026 7868     		ldr	r0, [r7, #4]
 574 0028 0122     		mov	r2, #1
ARM GAS  C:\Users\OEBN\AppData\Local\Temp\cc2uhR5V.s 			page 20


 575 002a 0240     		and	r2, r0
 576 002c 9200     		lsl	r2, r2, #2
 577 002e 0A43     		orr	r2, r1
 578 0030 1A60     		str	r2, [r3]
 510:.\Generated_Source\PSoC4/PWM_2.c ****                                                PWM_2_PWM_SYNC_KILL_SHIFT));
 511:.\Generated_Source\PSoC4/PWM_2.c **** 
 512:.\Generated_Source\PSoC4/PWM_2.c ****     CyExitCriticalSection(enableInterrupts);
 579              		.loc 1 512 0
 580 0032 3B1C     		mov	r3, r7
 581 0034 0F33     		add	r3, r3, #15
 582 0036 1B78     		ldrb	r3, [r3]
 583 0038 181C     		mov	r0, r3
 584 003a FFF7FEFF 		bl	CyExitCriticalSection
 513:.\Generated_Source\PSoC4/PWM_2.c **** }
 585              		.loc 1 513 0
 586 003e BD46     		mov	sp, r7
 587 0040 05B0     		add	sp, sp, #20
 588              		@ sp needed for prologue
 589 0042 90BD     		pop	{r4, r7, pc}
 590              	.L31:
 591              		.align	2
 592              	.L30:
 593 0044 80010540 		.word	1074069888
 594              		.cfi_endproc
 595              	.LFE9:
 596              		.size	PWM_2_SetPWMSyncKill, .-PWM_2_SetPWMSyncKill
 597              		.section	.text.PWM_2_SetPWMStopOnKill,"ax",%progbits
 598              		.align	2
 599              		.global	PWM_2_SetPWMStopOnKill
 600              		.code	16
 601              		.thumb_func
 602              		.type	PWM_2_SetPWMStopOnKill, %function
 603              	PWM_2_SetPWMStopOnKill:
 604              	.LFB10:
 514:.\Generated_Source\PSoC4/PWM_2.c **** 
 515:.\Generated_Source\PSoC4/PWM_2.c **** 
 516:.\Generated_Source\PSoC4/PWM_2.c **** /*******************************************************************************
 517:.\Generated_Source\PSoC4/PWM_2.c **** * Function Name: PWM_2_SetPWMStopOnKill
 518:.\Generated_Source\PSoC4/PWM_2.c **** ********************************************************************************
 519:.\Generated_Source\PSoC4/PWM_2.c **** *
 520:.\Generated_Source\PSoC4/PWM_2.c **** * Summary:
 521:.\Generated_Source\PSoC4/PWM_2.c **** *  Writes the register that controls whether the PWM kill signal (stop input)
 522:.\Generated_Source\PSoC4/PWM_2.c **** *  causes the PWM counter to stop.  By default the kill operation does not stop
 523:.\Generated_Source\PSoC4/PWM_2.c **** *  the counter.  This functionality is only applicable to the three PWM modes.
 524:.\Generated_Source\PSoC4/PWM_2.c **** *
 525:.\Generated_Source\PSoC4/PWM_2.c **** *
 526:.\Generated_Source\PSoC4/PWM_2.c **** * Parameters:
 527:.\Generated_Source\PSoC4/PWM_2.c **** *  stopOnKillEnable
 528:.\Generated_Source\PSoC4/PWM_2.c **** *   Values:
 529:.\Generated_Source\PSoC4/PWM_2.c **** *     - 0 - Don't stop
 530:.\Generated_Source\PSoC4/PWM_2.c **** *     - 1 - Stop
 531:.\Generated_Source\PSoC4/PWM_2.c **** *
 532:.\Generated_Source\PSoC4/PWM_2.c **** * Return:
 533:.\Generated_Source\PSoC4/PWM_2.c **** *  None
 534:.\Generated_Source\PSoC4/PWM_2.c **** *
 535:.\Generated_Source\PSoC4/PWM_2.c **** *******************************************************************************/
 536:.\Generated_Source\PSoC4/PWM_2.c **** void PWM_2_SetPWMStopOnKill(uint32 stopOnKillEnable)
ARM GAS  C:\Users\OEBN\AppData\Local\Temp\cc2uhR5V.s 			page 21


 537:.\Generated_Source\PSoC4/PWM_2.c **** {
 605              		.loc 1 537 0
 606              		.cfi_startproc
 607 0000 90B5     		push	{r4, r7, lr}
 608              	.LCFI28:
 609              		.cfi_def_cfa_offset 12
 610              		.cfi_offset 4, -12
 611              		.cfi_offset 7, -8
 612              		.cfi_offset 14, -4
 613 0002 85B0     		sub	sp, sp, #20
 614              	.LCFI29:
 615              		.cfi_def_cfa_offset 32
 616 0004 00AF     		add	r7, sp, #0
 617              	.LCFI30:
 618              		.cfi_def_cfa_register 7
 619 0006 7860     		str	r0, [r7, #4]
 538:.\Generated_Source\PSoC4/PWM_2.c ****     uint8 enableInterrupts;
 539:.\Generated_Source\PSoC4/PWM_2.c **** 
 540:.\Generated_Source\PSoC4/PWM_2.c ****     enableInterrupts = CyEnterCriticalSection();
 620              		.loc 1 540 0
 621 0008 3C1C     		mov	r4, r7
 622 000a 0F34     		add	r4, r4, #15
 623 000c FFF7FEFF 		bl	CyEnterCriticalSection
 624 0010 031C     		mov	r3, r0
 625 0012 2370     		strb	r3, [r4]
 541:.\Generated_Source\PSoC4/PWM_2.c **** 
 542:.\Generated_Source\PSoC4/PWM_2.c ****     PWM_2_CONTROL_REG &= (uint32)~PWM_2_PWM_STOP_KILL_MASK;
 626              		.loc 1 542 0
 627 0014 0B4B     		ldr	r3, .L33
 628 0016 0B4A     		ldr	r2, .L33
 629 0018 1268     		ldr	r2, [r2]
 630 001a 0821     		mov	r1, #8
 631 001c 8A43     		bic	r2, r1
 632 001e 1A60     		str	r2, [r3]
 543:.\Generated_Source\PSoC4/PWM_2.c ****     PWM_2_CONTROL_REG |= ((uint32)((stopOnKillEnable & PWM_2_1BIT_MASK)  <<
 633              		.loc 1 543 0
 634 0020 084B     		ldr	r3, .L33
 635 0022 084A     		ldr	r2, .L33
 636 0024 1168     		ldr	r1, [r2]
 637 0026 7868     		ldr	r0, [r7, #4]
 638 0028 0122     		mov	r2, #1
 639 002a 0240     		and	r2, r0
 640 002c D200     		lsl	r2, r2, #3
 641 002e 0A43     		orr	r2, r1
 642 0030 1A60     		str	r2, [r3]
 544:.\Generated_Source\PSoC4/PWM_2.c ****                                                          PWM_2_PWM_STOP_KILL_SHIFT));
 545:.\Generated_Source\PSoC4/PWM_2.c **** 
 546:.\Generated_Source\PSoC4/PWM_2.c ****     CyExitCriticalSection(enableInterrupts);
 643              		.loc 1 546 0
 644 0032 3B1C     		mov	r3, r7
 645 0034 0F33     		add	r3, r3, #15
 646 0036 1B78     		ldrb	r3, [r3]
 647 0038 181C     		mov	r0, r3
 648 003a FFF7FEFF 		bl	CyExitCriticalSection
 547:.\Generated_Source\PSoC4/PWM_2.c **** }
 649              		.loc 1 547 0
 650 003e BD46     		mov	sp, r7
ARM GAS  C:\Users\OEBN\AppData\Local\Temp\cc2uhR5V.s 			page 22


 651 0040 05B0     		add	sp, sp, #20
 652              		@ sp needed for prologue
 653 0042 90BD     		pop	{r4, r7, pc}
 654              	.L34:
 655              		.align	2
 656              	.L33:
 657 0044 80010540 		.word	1074069888
 658              		.cfi_endproc
 659              	.LFE10:
 660              		.size	PWM_2_SetPWMStopOnKill, .-PWM_2_SetPWMStopOnKill
 661              		.section	.text.PWM_2_SetPWMDeadTime,"ax",%progbits
 662              		.align	2
 663              		.global	PWM_2_SetPWMDeadTime
 664              		.code	16
 665              		.thumb_func
 666              		.type	PWM_2_SetPWMDeadTime, %function
 667              	PWM_2_SetPWMDeadTime:
 668              	.LFB11:
 548:.\Generated_Source\PSoC4/PWM_2.c **** 
 549:.\Generated_Source\PSoC4/PWM_2.c **** 
 550:.\Generated_Source\PSoC4/PWM_2.c **** /*******************************************************************************
 551:.\Generated_Source\PSoC4/PWM_2.c **** * Function Name: PWM_2_SetPWMDeadTime
 552:.\Generated_Source\PSoC4/PWM_2.c **** ********************************************************************************
 553:.\Generated_Source\PSoC4/PWM_2.c **** *
 554:.\Generated_Source\PSoC4/PWM_2.c **** * Summary:
 555:.\Generated_Source\PSoC4/PWM_2.c **** *  Writes the dead time control value.  This value delays the rising edge of
 556:.\Generated_Source\PSoC4/PWM_2.c **** *  both the line and line_n signals the designated number of cycles resulting
 557:.\Generated_Source\PSoC4/PWM_2.c **** *  in both signals being inactive for that many cycles.  This functionality is
 558:.\Generated_Source\PSoC4/PWM_2.c **** *  only applicable to the PWM in the dead time mode.
 559:.\Generated_Source\PSoC4/PWM_2.c **** 
 560:.\Generated_Source\PSoC4/PWM_2.c **** *
 561:.\Generated_Source\PSoC4/PWM_2.c **** * Parameters:
 562:.\Generated_Source\PSoC4/PWM_2.c **** *  Dead time to insert
 563:.\Generated_Source\PSoC4/PWM_2.c **** *   Values: 0 to 255
 564:.\Generated_Source\PSoC4/PWM_2.c **** *
 565:.\Generated_Source\PSoC4/PWM_2.c **** * Return:
 566:.\Generated_Source\PSoC4/PWM_2.c **** *  None
 567:.\Generated_Source\PSoC4/PWM_2.c **** *
 568:.\Generated_Source\PSoC4/PWM_2.c **** *******************************************************************************/
 569:.\Generated_Source\PSoC4/PWM_2.c **** void PWM_2_SetPWMDeadTime(uint32 deadTime)
 570:.\Generated_Source\PSoC4/PWM_2.c **** {
 669              		.loc 1 570 0
 670              		.cfi_startproc
 671 0000 90B5     		push	{r4, r7, lr}
 672              	.LCFI31:
 673              		.cfi_def_cfa_offset 12
 674              		.cfi_offset 4, -12
 675              		.cfi_offset 7, -8
 676              		.cfi_offset 14, -4
 677 0002 85B0     		sub	sp, sp, #20
 678              	.LCFI32:
 679              		.cfi_def_cfa_offset 32
 680 0004 00AF     		add	r7, sp, #0
 681              	.LCFI33:
 682              		.cfi_def_cfa_register 7
 683 0006 7860     		str	r0, [r7, #4]
 571:.\Generated_Source\PSoC4/PWM_2.c ****     uint8 enableInterrupts;
ARM GAS  C:\Users\OEBN\AppData\Local\Temp\cc2uhR5V.s 			page 23


 572:.\Generated_Source\PSoC4/PWM_2.c **** 
 573:.\Generated_Source\PSoC4/PWM_2.c ****     enableInterrupts = CyEnterCriticalSection();
 684              		.loc 1 573 0
 685 0008 3C1C     		mov	r4, r7
 686 000a 0F34     		add	r4, r4, #15
 687 000c FFF7FEFF 		bl	CyEnterCriticalSection
 688 0010 031C     		mov	r3, r0
 689 0012 2370     		strb	r3, [r4]
 574:.\Generated_Source\PSoC4/PWM_2.c **** 
 575:.\Generated_Source\PSoC4/PWM_2.c ****     PWM_2_CONTROL_REG &= (uint32)~PWM_2_PRESCALER_MASK;
 690              		.loc 1 575 0
 691 0014 0B4B     		ldr	r3, .L36
 692 0016 0B4A     		ldr	r2, .L36
 693 0018 1168     		ldr	r1, [r2]
 694 001a 0B4A     		ldr	r2, .L36+4
 695 001c 0A40     		and	r2, r1
 696 001e 1A60     		str	r2, [r3]
 576:.\Generated_Source\PSoC4/PWM_2.c ****     PWM_2_CONTROL_REG |= ((uint32)((deadTime & PWM_2_8BIT_MASK) <<
 697              		.loc 1 576 0
 698 0020 084B     		ldr	r3, .L36
 699 0022 084A     		ldr	r2, .L36
 700 0024 1168     		ldr	r1, [r2]
 701 0026 7A68     		ldr	r2, [r7, #4]
 702 0028 1202     		lsl	r2, r2, #8
 703 002a 1204     		lsl	r2, r2, #16
 704 002c 120C     		lsr	r2, r2, #16
 705 002e 0A43     		orr	r2, r1
 706 0030 1A60     		str	r2, [r3]
 577:.\Generated_Source\PSoC4/PWM_2.c ****                                                           PWM_2_PRESCALER_SHIFT));
 578:.\Generated_Source\PSoC4/PWM_2.c **** 
 579:.\Generated_Source\PSoC4/PWM_2.c ****     CyExitCriticalSection(enableInterrupts);
 707              		.loc 1 579 0
 708 0032 3B1C     		mov	r3, r7
 709 0034 0F33     		add	r3, r3, #15
 710 0036 1B78     		ldrb	r3, [r3]
 711 0038 181C     		mov	r0, r3
 712 003a FFF7FEFF 		bl	CyExitCriticalSection
 580:.\Generated_Source\PSoC4/PWM_2.c **** }
 713              		.loc 1 580 0
 714 003e BD46     		mov	sp, r7
 715 0040 05B0     		add	sp, sp, #20
 716              		@ sp needed for prologue
 717 0042 90BD     		pop	{r4, r7, pc}
 718              	.L37:
 719              		.align	2
 720              	.L36:
 721 0044 80010540 		.word	1074069888
 722 0048 FF00FFFF 		.word	-65281
 723              		.cfi_endproc
 724              	.LFE11:
 725              		.size	PWM_2_SetPWMDeadTime, .-PWM_2_SetPWMDeadTime
 726              		.section	.text.PWM_2_SetPWMInvert,"ax",%progbits
 727              		.align	2
 728              		.global	PWM_2_SetPWMInvert
 729              		.code	16
 730              		.thumb_func
 731              		.type	PWM_2_SetPWMInvert, %function
ARM GAS  C:\Users\OEBN\AppData\Local\Temp\cc2uhR5V.s 			page 24


 732              	PWM_2_SetPWMInvert:
 733              	.LFB12:
 581:.\Generated_Source\PSoC4/PWM_2.c **** 
 582:.\Generated_Source\PSoC4/PWM_2.c **** 
 583:.\Generated_Source\PSoC4/PWM_2.c **** /*******************************************************************************
 584:.\Generated_Source\PSoC4/PWM_2.c **** * Function Name: PWM_2_SetPWMInvert
 585:.\Generated_Source\PSoC4/PWM_2.c **** ********************************************************************************
 586:.\Generated_Source\PSoC4/PWM_2.c **** *
 587:.\Generated_Source\PSoC4/PWM_2.c **** * Summary:
 588:.\Generated_Source\PSoC4/PWM_2.c **** *  Writes the bits that control whether the line and line_n outputs are
 589:.\Generated_Source\PSoC4/PWM_2.c **** *  inverted from their normal output values.  This functionality is only
 590:.\Generated_Source\PSoC4/PWM_2.c **** *  applicable to the three PWM modes.
 591:.\Generated_Source\PSoC4/PWM_2.c **** *
 592:.\Generated_Source\PSoC4/PWM_2.c **** * Parameters:
 593:.\Generated_Source\PSoC4/PWM_2.c **** *  mask: Mask of outputs to invert.
 594:.\Generated_Source\PSoC4/PWM_2.c **** *   Values:
 595:.\Generated_Source\PSoC4/PWM_2.c **** *         - PWM_2_INVERT_LINE   - Inverts the line output
 596:.\Generated_Source\PSoC4/PWM_2.c **** *         - PWM_2_INVERT_LINE_N - Inverts the line_n output
 597:.\Generated_Source\PSoC4/PWM_2.c **** *
 598:.\Generated_Source\PSoC4/PWM_2.c **** * Return:
 599:.\Generated_Source\PSoC4/PWM_2.c **** *  None
 600:.\Generated_Source\PSoC4/PWM_2.c **** *
 601:.\Generated_Source\PSoC4/PWM_2.c **** *******************************************************************************/
 602:.\Generated_Source\PSoC4/PWM_2.c **** void PWM_2_SetPWMInvert(uint32 mask)
 603:.\Generated_Source\PSoC4/PWM_2.c **** {
 734              		.loc 1 603 0
 735              		.cfi_startproc
 736 0000 90B5     		push	{r4, r7, lr}
 737              	.LCFI34:
 738              		.cfi_def_cfa_offset 12
 739              		.cfi_offset 4, -12
 740              		.cfi_offset 7, -8
 741              		.cfi_offset 14, -4
 742 0002 85B0     		sub	sp, sp, #20
 743              	.LCFI35:
 744              		.cfi_def_cfa_offset 32
 745 0004 00AF     		add	r7, sp, #0
 746              	.LCFI36:
 747              		.cfi_def_cfa_register 7
 748 0006 7860     		str	r0, [r7, #4]
 604:.\Generated_Source\PSoC4/PWM_2.c ****     uint8 enableInterrupts;
 605:.\Generated_Source\PSoC4/PWM_2.c **** 
 606:.\Generated_Source\PSoC4/PWM_2.c ****     enableInterrupts = CyEnterCriticalSection();
 749              		.loc 1 606 0
 750 0008 3C1C     		mov	r4, r7
 751 000a 0F34     		add	r4, r4, #15
 752 000c FFF7FEFF 		bl	CyEnterCriticalSection
 753 0010 031C     		mov	r3, r0
 754 0012 2370     		strb	r3, [r4]
 607:.\Generated_Source\PSoC4/PWM_2.c **** 
 608:.\Generated_Source\PSoC4/PWM_2.c ****     PWM_2_CONTROL_REG &= (uint32)~PWM_2_INV_OUT_MASK;
 755              		.loc 1 608 0
 756 0014 0A4B     		ldr	r3, .L39
 757 0016 0A4A     		ldr	r2, .L39
 758 0018 1168     		ldr	r1, [r2]
 759 001a 0A4A     		ldr	r2, .L39+4
 760 001c 0A40     		and	r2, r1
ARM GAS  C:\Users\OEBN\AppData\Local\Temp\cc2uhR5V.s 			page 25


 761 001e 1A60     		str	r2, [r3]
 609:.\Generated_Source\PSoC4/PWM_2.c ****     PWM_2_CONTROL_REG |= mask;
 762              		.loc 1 609 0
 763 0020 074B     		ldr	r3, .L39
 764 0022 074A     		ldr	r2, .L39
 765 0024 1168     		ldr	r1, [r2]
 766 0026 7A68     		ldr	r2, [r7, #4]
 767 0028 0A43     		orr	r2, r1
 768 002a 1A60     		str	r2, [r3]
 610:.\Generated_Source\PSoC4/PWM_2.c **** 
 611:.\Generated_Source\PSoC4/PWM_2.c ****     CyExitCriticalSection(enableInterrupts);
 769              		.loc 1 611 0
 770 002c 3B1C     		mov	r3, r7
 771 002e 0F33     		add	r3, r3, #15
 772 0030 1B78     		ldrb	r3, [r3]
 773 0032 181C     		mov	r0, r3
 774 0034 FFF7FEFF 		bl	CyExitCriticalSection
 612:.\Generated_Source\PSoC4/PWM_2.c **** }
 775              		.loc 1 612 0
 776 0038 BD46     		mov	sp, r7
 777 003a 05B0     		add	sp, sp, #20
 778              		@ sp needed for prologue
 779 003c 90BD     		pop	{r4, r7, pc}
 780              	.L40:
 781 003e C046     		.align	2
 782              	.L39:
 783 0040 80010540 		.word	1074069888
 784 0044 FFFFCFFF 		.word	-3145729
 785              		.cfi_endproc
 786              	.LFE12:
 787              		.size	PWM_2_SetPWMInvert, .-PWM_2_SetPWMInvert
 788              		.section	.text.PWM_2_WriteCounter,"ax",%progbits
 789              		.align	2
 790              		.global	PWM_2_WriteCounter
 791              		.code	16
 792              		.thumb_func
 793              		.type	PWM_2_WriteCounter, %function
 794              	PWM_2_WriteCounter:
 795              	.LFB13:
 613:.\Generated_Source\PSoC4/PWM_2.c **** 
 614:.\Generated_Source\PSoC4/PWM_2.c **** 
 615:.\Generated_Source\PSoC4/PWM_2.c **** 
 616:.\Generated_Source\PSoC4/PWM_2.c **** /*******************************************************************************
 617:.\Generated_Source\PSoC4/PWM_2.c **** * Function Name: PWM_2_WriteCounter
 618:.\Generated_Source\PSoC4/PWM_2.c **** ********************************************************************************
 619:.\Generated_Source\PSoC4/PWM_2.c **** *
 620:.\Generated_Source\PSoC4/PWM_2.c **** * Summary:
 621:.\Generated_Source\PSoC4/PWM_2.c **** *  Writes a new 16bit counter value directly into the counter register, thus
 622:.\Generated_Source\PSoC4/PWM_2.c **** *  setting the counter (not the period) to the value written. It is not
 623:.\Generated_Source\PSoC4/PWM_2.c **** *  advised to write to this field when the counter is running.
 624:.\Generated_Source\PSoC4/PWM_2.c **** *
 625:.\Generated_Source\PSoC4/PWM_2.c **** * Parameters:
 626:.\Generated_Source\PSoC4/PWM_2.c **** *  count: value to write
 627:.\Generated_Source\PSoC4/PWM_2.c **** *
 628:.\Generated_Source\PSoC4/PWM_2.c **** * Return:
 629:.\Generated_Source\PSoC4/PWM_2.c **** *  None
 630:.\Generated_Source\PSoC4/PWM_2.c **** *
ARM GAS  C:\Users\OEBN\AppData\Local\Temp\cc2uhR5V.s 			page 26


 631:.\Generated_Source\PSoC4/PWM_2.c **** *******************************************************************************/
 632:.\Generated_Source\PSoC4/PWM_2.c **** void PWM_2_WriteCounter(uint32 count)
 633:.\Generated_Source\PSoC4/PWM_2.c **** {
 796              		.loc 1 633 0
 797              		.cfi_startproc
 798 0000 80B5     		push	{r7, lr}
 799              	.LCFI37:
 800              		.cfi_def_cfa_offset 8
 801              		.cfi_offset 7, -8
 802              		.cfi_offset 14, -4
 803 0002 82B0     		sub	sp, sp, #8
 804              	.LCFI38:
 805              		.cfi_def_cfa_offset 16
 806 0004 00AF     		add	r7, sp, #0
 807              	.LCFI39:
 808              		.cfi_def_cfa_register 7
 809 0006 7860     		str	r0, [r7, #4]
 634:.\Generated_Source\PSoC4/PWM_2.c ****     PWM_2_COUNTER_REG = (count & PWM_2_16BIT_MASK);
 810              		.loc 1 634 0
 811 0008 034B     		ldr	r3, .L42
 812 000a 7A68     		ldr	r2, [r7, #4]
 813 000c 1204     		lsl	r2, r2, #16
 814 000e 120C     		lsr	r2, r2, #16
 815 0010 1A60     		str	r2, [r3]
 635:.\Generated_Source\PSoC4/PWM_2.c **** }
 816              		.loc 1 635 0
 817 0012 BD46     		mov	sp, r7
 818 0014 02B0     		add	sp, sp, #8
 819              		@ sp needed for prologue
 820 0016 80BD     		pop	{r7, pc}
 821              	.L43:
 822              		.align	2
 823              	.L42:
 824 0018 88010540 		.word	1074069896
 825              		.cfi_endproc
 826              	.LFE13:
 827              		.size	PWM_2_WriteCounter, .-PWM_2_WriteCounter
 828              		.section	.text.PWM_2_ReadCounter,"ax",%progbits
 829              		.align	2
 830              		.global	PWM_2_ReadCounter
 831              		.code	16
 832              		.thumb_func
 833              		.type	PWM_2_ReadCounter, %function
 834              	PWM_2_ReadCounter:
 835              	.LFB14:
 636:.\Generated_Source\PSoC4/PWM_2.c **** 
 637:.\Generated_Source\PSoC4/PWM_2.c **** 
 638:.\Generated_Source\PSoC4/PWM_2.c **** /*******************************************************************************
 639:.\Generated_Source\PSoC4/PWM_2.c **** * Function Name: PWM_2_ReadCounter
 640:.\Generated_Source\PSoC4/PWM_2.c **** ********************************************************************************
 641:.\Generated_Source\PSoC4/PWM_2.c **** *
 642:.\Generated_Source\PSoC4/PWM_2.c **** * Summary:
 643:.\Generated_Source\PSoC4/PWM_2.c **** *  Reads the current counter value.
 644:.\Generated_Source\PSoC4/PWM_2.c **** *
 645:.\Generated_Source\PSoC4/PWM_2.c **** * Parameters:
 646:.\Generated_Source\PSoC4/PWM_2.c **** *  None
 647:.\Generated_Source\PSoC4/PWM_2.c **** *
ARM GAS  C:\Users\OEBN\AppData\Local\Temp\cc2uhR5V.s 			page 27


 648:.\Generated_Source\PSoC4/PWM_2.c **** * Return:
 649:.\Generated_Source\PSoC4/PWM_2.c **** *  Current counter value
 650:.\Generated_Source\PSoC4/PWM_2.c **** *
 651:.\Generated_Source\PSoC4/PWM_2.c **** *******************************************************************************/
 652:.\Generated_Source\PSoC4/PWM_2.c **** uint32 PWM_2_ReadCounter(void)
 653:.\Generated_Source\PSoC4/PWM_2.c **** {
 836              		.loc 1 653 0
 837              		.cfi_startproc
 838 0000 80B5     		push	{r7, lr}
 839              	.LCFI40:
 840              		.cfi_def_cfa_offset 8
 841              		.cfi_offset 7, -8
 842              		.cfi_offset 14, -4
 843 0002 00AF     		add	r7, sp, #0
 844              	.LCFI41:
 845              		.cfi_def_cfa_register 7
 654:.\Generated_Source\PSoC4/PWM_2.c ****     return (PWM_2_COUNTER_REG & PWM_2_16BIT_MASK);
 846              		.loc 1 654 0
 847 0004 034B     		ldr	r3, .L46
 848 0006 1B68     		ldr	r3, [r3]
 849 0008 1B04     		lsl	r3, r3, #16
 850 000a 1B0C     		lsr	r3, r3, #16
 655:.\Generated_Source\PSoC4/PWM_2.c **** }
 851              		.loc 1 655 0
 852 000c 181C     		mov	r0, r3
 853 000e BD46     		mov	sp, r7
 854              		@ sp needed for prologue
 855 0010 80BD     		pop	{r7, pc}
 856              	.L47:
 857 0012 C046     		.align	2
 858              	.L46:
 859 0014 88010540 		.word	1074069896
 860              		.cfi_endproc
 861              	.LFE14:
 862              		.size	PWM_2_ReadCounter, .-PWM_2_ReadCounter
 863              		.section	.text.PWM_2_SetCounterMode,"ax",%progbits
 864              		.align	2
 865              		.global	PWM_2_SetCounterMode
 866              		.code	16
 867              		.thumb_func
 868              		.type	PWM_2_SetCounterMode, %function
 869              	PWM_2_SetCounterMode:
 870              	.LFB15:
 656:.\Generated_Source\PSoC4/PWM_2.c **** 
 657:.\Generated_Source\PSoC4/PWM_2.c **** 
 658:.\Generated_Source\PSoC4/PWM_2.c **** /*******************************************************************************
 659:.\Generated_Source\PSoC4/PWM_2.c **** * Function Name: PWM_2_SetCounterMode
 660:.\Generated_Source\PSoC4/PWM_2.c **** ********************************************************************************
 661:.\Generated_Source\PSoC4/PWM_2.c **** *
 662:.\Generated_Source\PSoC4/PWM_2.c **** * Summary:
 663:.\Generated_Source\PSoC4/PWM_2.c **** *  Sets the counter mode.  Applicable to all modes except Quadrature Decoder
 664:.\Generated_Source\PSoC4/PWM_2.c **** *  and the PWM with a pseudo random output.
 665:.\Generated_Source\PSoC4/PWM_2.c **** *
 666:.\Generated_Source\PSoC4/PWM_2.c **** * Parameters:
 667:.\Generated_Source\PSoC4/PWM_2.c **** *  counterMode: Enumerated counter type values
 668:.\Generated_Source\PSoC4/PWM_2.c **** *   Values:
 669:.\Generated_Source\PSoC4/PWM_2.c **** *     - PWM_2_COUNT_UP       - Counts up
ARM GAS  C:\Users\OEBN\AppData\Local\Temp\cc2uhR5V.s 			page 28


 670:.\Generated_Source\PSoC4/PWM_2.c **** *     - PWM_2_COUNT_DOWN     - Counts down
 671:.\Generated_Source\PSoC4/PWM_2.c **** *     - PWM_2_COUNT_UPDOWN0  - Counts up and down. Terminal count
 672:.\Generated_Source\PSoC4/PWM_2.c **** *                                         generated when counter reaches 0
 673:.\Generated_Source\PSoC4/PWM_2.c **** *     - PWM_2_COUNT_UPDOWN1  - Counts up and down. Terminal count
 674:.\Generated_Source\PSoC4/PWM_2.c **** *                                         generated both when counter reaches 0
 675:.\Generated_Source\PSoC4/PWM_2.c **** *                                         and period
 676:.\Generated_Source\PSoC4/PWM_2.c **** *
 677:.\Generated_Source\PSoC4/PWM_2.c **** * Return:
 678:.\Generated_Source\PSoC4/PWM_2.c **** *  None
 679:.\Generated_Source\PSoC4/PWM_2.c **** *
 680:.\Generated_Source\PSoC4/PWM_2.c **** *******************************************************************************/
 681:.\Generated_Source\PSoC4/PWM_2.c **** void PWM_2_SetCounterMode(uint32 counterMode)
 682:.\Generated_Source\PSoC4/PWM_2.c **** {
 871              		.loc 1 682 0
 872              		.cfi_startproc
 873 0000 90B5     		push	{r4, r7, lr}
 874              	.LCFI42:
 875              		.cfi_def_cfa_offset 12
 876              		.cfi_offset 4, -12
 877              		.cfi_offset 7, -8
 878              		.cfi_offset 14, -4
 879 0002 85B0     		sub	sp, sp, #20
 880              	.LCFI43:
 881              		.cfi_def_cfa_offset 32
 882 0004 00AF     		add	r7, sp, #0
 883              	.LCFI44:
 884              		.cfi_def_cfa_register 7
 885 0006 7860     		str	r0, [r7, #4]
 683:.\Generated_Source\PSoC4/PWM_2.c ****     uint8 enableInterrupts;
 684:.\Generated_Source\PSoC4/PWM_2.c **** 
 685:.\Generated_Source\PSoC4/PWM_2.c ****     enableInterrupts = CyEnterCriticalSection();
 886              		.loc 1 685 0
 887 0008 3C1C     		mov	r4, r7
 888 000a 0F34     		add	r4, r4, #15
 889 000c FFF7FEFF 		bl	CyEnterCriticalSection
 890 0010 031C     		mov	r3, r0
 891 0012 2370     		strb	r3, [r4]
 686:.\Generated_Source\PSoC4/PWM_2.c **** 
 687:.\Generated_Source\PSoC4/PWM_2.c ****     PWM_2_CONTROL_REG &= (uint32)~PWM_2_UPDOWN_MASK;
 892              		.loc 1 687 0
 893 0014 0A4B     		ldr	r3, .L49
 894 0016 0A4A     		ldr	r2, .L49
 895 0018 1168     		ldr	r1, [r2]
 896 001a 0A4A     		ldr	r2, .L49+4
 897 001c 0A40     		and	r2, r1
 898 001e 1A60     		str	r2, [r3]
 688:.\Generated_Source\PSoC4/PWM_2.c ****     PWM_2_CONTROL_REG |= counterMode;
 899              		.loc 1 688 0
 900 0020 074B     		ldr	r3, .L49
 901 0022 074A     		ldr	r2, .L49
 902 0024 1168     		ldr	r1, [r2]
 903 0026 7A68     		ldr	r2, [r7, #4]
 904 0028 0A43     		orr	r2, r1
 905 002a 1A60     		str	r2, [r3]
 689:.\Generated_Source\PSoC4/PWM_2.c **** 
 690:.\Generated_Source\PSoC4/PWM_2.c ****     CyExitCriticalSection(enableInterrupts);
 906              		.loc 1 690 0
ARM GAS  C:\Users\OEBN\AppData\Local\Temp\cc2uhR5V.s 			page 29


 907 002c 3B1C     		mov	r3, r7
 908 002e 0F33     		add	r3, r3, #15
 909 0030 1B78     		ldrb	r3, [r3]
 910 0032 181C     		mov	r0, r3
 911 0034 FFF7FEFF 		bl	CyExitCriticalSection
 691:.\Generated_Source\PSoC4/PWM_2.c **** }
 912              		.loc 1 691 0
 913 0038 BD46     		mov	sp, r7
 914 003a 05B0     		add	sp, sp, #20
 915              		@ sp needed for prologue
 916 003c 90BD     		pop	{r4, r7, pc}
 917              	.L50:
 918 003e C046     		.align	2
 919              	.L49:
 920 0040 80010540 		.word	1074069888
 921 0044 FFFFFCFF 		.word	-196609
 922              		.cfi_endproc
 923              	.LFE15:
 924              		.size	PWM_2_SetCounterMode, .-PWM_2_SetCounterMode
 925              		.section	.text.PWM_2_WritePeriod,"ax",%progbits
 926              		.align	2
 927              		.global	PWM_2_WritePeriod
 928              		.code	16
 929              		.thumb_func
 930              		.type	PWM_2_WritePeriod, %function
 931              	PWM_2_WritePeriod:
 932              	.LFB16:
 692:.\Generated_Source\PSoC4/PWM_2.c **** 
 693:.\Generated_Source\PSoC4/PWM_2.c **** 
 694:.\Generated_Source\PSoC4/PWM_2.c **** /*******************************************************************************
 695:.\Generated_Source\PSoC4/PWM_2.c **** * Function Name: PWM_2_WritePeriod
 696:.\Generated_Source\PSoC4/PWM_2.c **** ********************************************************************************
 697:.\Generated_Source\PSoC4/PWM_2.c **** *
 698:.\Generated_Source\PSoC4/PWM_2.c **** * Summary:
 699:.\Generated_Source\PSoC4/PWM_2.c **** *  Writes the 16 bit period register with the new period value.
 700:.\Generated_Source\PSoC4/PWM_2.c **** *  To cause the counter to count for N cycles this register should be written
 701:.\Generated_Source\PSoC4/PWM_2.c **** *  with N-1 (counts from 0 to period inclusive).
 702:.\Generated_Source\PSoC4/PWM_2.c **** *
 703:.\Generated_Source\PSoC4/PWM_2.c **** * Parameters:
 704:.\Generated_Source\PSoC4/PWM_2.c **** *  period: Period value
 705:.\Generated_Source\PSoC4/PWM_2.c **** *
 706:.\Generated_Source\PSoC4/PWM_2.c **** * Return:
 707:.\Generated_Source\PSoC4/PWM_2.c **** *  None
 708:.\Generated_Source\PSoC4/PWM_2.c **** *
 709:.\Generated_Source\PSoC4/PWM_2.c **** *******************************************************************************/
 710:.\Generated_Source\PSoC4/PWM_2.c **** void PWM_2_WritePeriod(uint32 period)
 711:.\Generated_Source\PSoC4/PWM_2.c **** {
 933              		.loc 1 711 0
 934              		.cfi_startproc
 935 0000 80B5     		push	{r7, lr}
 936              	.LCFI45:
 937              		.cfi_def_cfa_offset 8
 938              		.cfi_offset 7, -8
 939              		.cfi_offset 14, -4
 940 0002 82B0     		sub	sp, sp, #8
 941              	.LCFI46:
 942              		.cfi_def_cfa_offset 16
ARM GAS  C:\Users\OEBN\AppData\Local\Temp\cc2uhR5V.s 			page 30


 943 0004 00AF     		add	r7, sp, #0
 944              	.LCFI47:
 945              		.cfi_def_cfa_register 7
 946 0006 7860     		str	r0, [r7, #4]
 712:.\Generated_Source\PSoC4/PWM_2.c ****     PWM_2_PERIOD_REG = (period & PWM_2_16BIT_MASK);
 947              		.loc 1 712 0
 948 0008 034B     		ldr	r3, .L52
 949 000a 7A68     		ldr	r2, [r7, #4]
 950 000c 1204     		lsl	r2, r2, #16
 951 000e 120C     		lsr	r2, r2, #16
 952 0010 1A60     		str	r2, [r3]
 713:.\Generated_Source\PSoC4/PWM_2.c **** }
 953              		.loc 1 713 0
 954 0012 BD46     		mov	sp, r7
 955 0014 02B0     		add	sp, sp, #8
 956              		@ sp needed for prologue
 957 0016 80BD     		pop	{r7, pc}
 958              	.L53:
 959              		.align	2
 960              	.L52:
 961 0018 94010540 		.word	1074069908
 962              		.cfi_endproc
 963              	.LFE16:
 964              		.size	PWM_2_WritePeriod, .-PWM_2_WritePeriod
 965              		.section	.text.PWM_2_ReadPeriod,"ax",%progbits
 966              		.align	2
 967              		.global	PWM_2_ReadPeriod
 968              		.code	16
 969              		.thumb_func
 970              		.type	PWM_2_ReadPeriod, %function
 971              	PWM_2_ReadPeriod:
 972              	.LFB17:
 714:.\Generated_Source\PSoC4/PWM_2.c **** 
 715:.\Generated_Source\PSoC4/PWM_2.c **** 
 716:.\Generated_Source\PSoC4/PWM_2.c **** /*******************************************************************************
 717:.\Generated_Source\PSoC4/PWM_2.c **** * Function Name: PWM_2_ReadPeriod
 718:.\Generated_Source\PSoC4/PWM_2.c **** ********************************************************************************
 719:.\Generated_Source\PSoC4/PWM_2.c **** *
 720:.\Generated_Source\PSoC4/PWM_2.c **** * Summary:
 721:.\Generated_Source\PSoC4/PWM_2.c **** *  Reads the 16 bit period register.
 722:.\Generated_Source\PSoC4/PWM_2.c **** *
 723:.\Generated_Source\PSoC4/PWM_2.c **** * Parameters:
 724:.\Generated_Source\PSoC4/PWM_2.c **** *  None
 725:.\Generated_Source\PSoC4/PWM_2.c **** *
 726:.\Generated_Source\PSoC4/PWM_2.c **** * Return:
 727:.\Generated_Source\PSoC4/PWM_2.c **** *  Period value
 728:.\Generated_Source\PSoC4/PWM_2.c **** *
 729:.\Generated_Source\PSoC4/PWM_2.c **** *******************************************************************************/
 730:.\Generated_Source\PSoC4/PWM_2.c **** uint32 PWM_2_ReadPeriod(void)
 731:.\Generated_Source\PSoC4/PWM_2.c **** {
 973              		.loc 1 731 0
 974              		.cfi_startproc
 975 0000 80B5     		push	{r7, lr}
 976              	.LCFI48:
 977              		.cfi_def_cfa_offset 8
 978              		.cfi_offset 7, -8
 979              		.cfi_offset 14, -4
ARM GAS  C:\Users\OEBN\AppData\Local\Temp\cc2uhR5V.s 			page 31


 980 0002 00AF     		add	r7, sp, #0
 981              	.LCFI49:
 982              		.cfi_def_cfa_register 7
 732:.\Generated_Source\PSoC4/PWM_2.c ****     return (PWM_2_PERIOD_REG & PWM_2_16BIT_MASK);
 983              		.loc 1 732 0
 984 0004 034B     		ldr	r3, .L56
 985 0006 1B68     		ldr	r3, [r3]
 986 0008 1B04     		lsl	r3, r3, #16
 987 000a 1B0C     		lsr	r3, r3, #16
 733:.\Generated_Source\PSoC4/PWM_2.c **** }
 988              		.loc 1 733 0
 989 000c 181C     		mov	r0, r3
 990 000e BD46     		mov	sp, r7
 991              		@ sp needed for prologue
 992 0010 80BD     		pop	{r7, pc}
 993              	.L57:
 994 0012 C046     		.align	2
 995              	.L56:
 996 0014 94010540 		.word	1074069908
 997              		.cfi_endproc
 998              	.LFE17:
 999              		.size	PWM_2_ReadPeriod, .-PWM_2_ReadPeriod
 1000              		.section	.text.PWM_2_SetCompareSwap,"ax",%progbits
 1001              		.align	2
 1002              		.global	PWM_2_SetCompareSwap
 1003              		.code	16
 1004              		.thumb_func
 1005              		.type	PWM_2_SetCompareSwap, %function
 1006              	PWM_2_SetCompareSwap:
 1007              	.LFB18:
 734:.\Generated_Source\PSoC4/PWM_2.c **** 
 735:.\Generated_Source\PSoC4/PWM_2.c **** 
 736:.\Generated_Source\PSoC4/PWM_2.c **** /*******************************************************************************
 737:.\Generated_Source\PSoC4/PWM_2.c **** * Function Name: PWM_2_SetCompareSwap
 738:.\Generated_Source\PSoC4/PWM_2.c **** ********************************************************************************
 739:.\Generated_Source\PSoC4/PWM_2.c **** *
 740:.\Generated_Source\PSoC4/PWM_2.c **** * Summary:
 741:.\Generated_Source\PSoC4/PWM_2.c **** *  Writes the register that controls whether the compare registers are
 742:.\Generated_Source\PSoC4/PWM_2.c **** *  swapped. When enabled in the Timer/Counter mode(without capture) the swap
 743:.\Generated_Source\PSoC4/PWM_2.c **** *  occurs at a TC event. In the PWM mode the swap occurs at the next TC event
 744:.\Generated_Source\PSoC4/PWM_2.c **** *  following a hardware switch event.
 745:.\Generated_Source\PSoC4/PWM_2.c **** *
 746:.\Generated_Source\PSoC4/PWM_2.c **** * Parameters:
 747:.\Generated_Source\PSoC4/PWM_2.c **** *  swapEnable
 748:.\Generated_Source\PSoC4/PWM_2.c **** *   Values:
 749:.\Generated_Source\PSoC4/PWM_2.c **** *     - 0 - Disable swap
 750:.\Generated_Source\PSoC4/PWM_2.c **** *     - 1 - Enable swap
 751:.\Generated_Source\PSoC4/PWM_2.c **** *
 752:.\Generated_Source\PSoC4/PWM_2.c **** * Return:
 753:.\Generated_Source\PSoC4/PWM_2.c **** *  None
 754:.\Generated_Source\PSoC4/PWM_2.c **** *
 755:.\Generated_Source\PSoC4/PWM_2.c **** *******************************************************************************/
 756:.\Generated_Source\PSoC4/PWM_2.c **** void PWM_2_SetCompareSwap(uint32 swapEnable)
 757:.\Generated_Source\PSoC4/PWM_2.c **** {
 1008              		.loc 1 757 0
 1009              		.cfi_startproc
 1010 0000 90B5     		push	{r4, r7, lr}
ARM GAS  C:\Users\OEBN\AppData\Local\Temp\cc2uhR5V.s 			page 32


 1011              	.LCFI50:
 1012              		.cfi_def_cfa_offset 12
 1013              		.cfi_offset 4, -12
 1014              		.cfi_offset 7, -8
 1015              		.cfi_offset 14, -4
 1016 0002 85B0     		sub	sp, sp, #20
 1017              	.LCFI51:
 1018              		.cfi_def_cfa_offset 32
 1019 0004 00AF     		add	r7, sp, #0
 1020              	.LCFI52:
 1021              		.cfi_def_cfa_register 7
 1022 0006 7860     		str	r0, [r7, #4]
 758:.\Generated_Source\PSoC4/PWM_2.c ****     uint8 enableInterrupts;
 759:.\Generated_Source\PSoC4/PWM_2.c **** 
 760:.\Generated_Source\PSoC4/PWM_2.c ****     enableInterrupts = CyEnterCriticalSection();
 1023              		.loc 1 760 0
 1024 0008 3C1C     		mov	r4, r7
 1025 000a 0F34     		add	r4, r4, #15
 1026 000c FFF7FEFF 		bl	CyEnterCriticalSection
 1027 0010 031C     		mov	r3, r0
 1028 0012 2370     		strb	r3, [r4]
 761:.\Generated_Source\PSoC4/PWM_2.c **** 
 762:.\Generated_Source\PSoC4/PWM_2.c ****     PWM_2_CONTROL_REG &= (uint32)~PWM_2_RELOAD_CC_MASK;
 1029              		.loc 1 762 0
 1030 0014 0B4B     		ldr	r3, .L59
 1031 0016 0B4A     		ldr	r2, .L59
 1032 0018 1268     		ldr	r2, [r2]
 1033 001a 0121     		mov	r1, #1
 1034 001c 8A43     		bic	r2, r1
 1035 001e 1A60     		str	r2, [r3]
 763:.\Generated_Source\PSoC4/PWM_2.c ****     PWM_2_CONTROL_REG |= (swapEnable & PWM_2_1BIT_MASK);
 1036              		.loc 1 763 0
 1037 0020 084B     		ldr	r3, .L59
 1038 0022 084A     		ldr	r2, .L59
 1039 0024 1168     		ldr	r1, [r2]
 1040 0026 7868     		ldr	r0, [r7, #4]
 1041 0028 0122     		mov	r2, #1
 1042 002a 0240     		and	r2, r0
 1043 002c 0A43     		orr	r2, r1
 1044 002e 1A60     		str	r2, [r3]
 764:.\Generated_Source\PSoC4/PWM_2.c **** 
 765:.\Generated_Source\PSoC4/PWM_2.c ****     CyExitCriticalSection(enableInterrupts);
 1045              		.loc 1 765 0
 1046 0030 3B1C     		mov	r3, r7
 1047 0032 0F33     		add	r3, r3, #15
 1048 0034 1B78     		ldrb	r3, [r3]
 1049 0036 181C     		mov	r0, r3
 1050 0038 FFF7FEFF 		bl	CyExitCriticalSection
 766:.\Generated_Source\PSoC4/PWM_2.c **** }
 1051              		.loc 1 766 0
 1052 003c BD46     		mov	sp, r7
 1053 003e 05B0     		add	sp, sp, #20
 1054              		@ sp needed for prologue
 1055 0040 90BD     		pop	{r4, r7, pc}
 1056              	.L60:
 1057 0042 C046     		.align	2
 1058              	.L59:
ARM GAS  C:\Users\OEBN\AppData\Local\Temp\cc2uhR5V.s 			page 33


 1059 0044 80010540 		.word	1074069888
 1060              		.cfi_endproc
 1061              	.LFE18:
 1062              		.size	PWM_2_SetCompareSwap, .-PWM_2_SetCompareSwap
 1063              		.section	.text.PWM_2_WritePeriodBuf,"ax",%progbits
 1064              		.align	2
 1065              		.global	PWM_2_WritePeriodBuf
 1066              		.code	16
 1067              		.thumb_func
 1068              		.type	PWM_2_WritePeriodBuf, %function
 1069              	PWM_2_WritePeriodBuf:
 1070              	.LFB19:
 767:.\Generated_Source\PSoC4/PWM_2.c **** 
 768:.\Generated_Source\PSoC4/PWM_2.c **** 
 769:.\Generated_Source\PSoC4/PWM_2.c **** /*******************************************************************************
 770:.\Generated_Source\PSoC4/PWM_2.c **** * Function Name: PWM_2_WritePeriodBuf
 771:.\Generated_Source\PSoC4/PWM_2.c **** ********************************************************************************
 772:.\Generated_Source\PSoC4/PWM_2.c **** *
 773:.\Generated_Source\PSoC4/PWM_2.c **** * Summary:
 774:.\Generated_Source\PSoC4/PWM_2.c **** *  Writes the 16 bit period buf register with the new period value.
 775:.\Generated_Source\PSoC4/PWM_2.c **** *
 776:.\Generated_Source\PSoC4/PWM_2.c **** * Parameters:
 777:.\Generated_Source\PSoC4/PWM_2.c **** *  periodBuf: Period value
 778:.\Generated_Source\PSoC4/PWM_2.c **** *
 779:.\Generated_Source\PSoC4/PWM_2.c **** * Return:
 780:.\Generated_Source\PSoC4/PWM_2.c **** *  None
 781:.\Generated_Source\PSoC4/PWM_2.c **** *
 782:.\Generated_Source\PSoC4/PWM_2.c **** *******************************************************************************/
 783:.\Generated_Source\PSoC4/PWM_2.c **** void PWM_2_WritePeriodBuf(uint32 periodBuf)
 784:.\Generated_Source\PSoC4/PWM_2.c **** {
 1071              		.loc 1 784 0
 1072              		.cfi_startproc
 1073 0000 80B5     		push	{r7, lr}
 1074              	.LCFI53:
 1075              		.cfi_def_cfa_offset 8
 1076              		.cfi_offset 7, -8
 1077              		.cfi_offset 14, -4
 1078 0002 82B0     		sub	sp, sp, #8
 1079              	.LCFI54:
 1080              		.cfi_def_cfa_offset 16
 1081 0004 00AF     		add	r7, sp, #0
 1082              	.LCFI55:
 1083              		.cfi_def_cfa_register 7
 1084 0006 7860     		str	r0, [r7, #4]
 785:.\Generated_Source\PSoC4/PWM_2.c ****     PWM_2_PERIOD_BUF_REG = (periodBuf & PWM_2_16BIT_MASK);
 1085              		.loc 1 785 0
 1086 0008 034B     		ldr	r3, .L62
 1087 000a 7A68     		ldr	r2, [r7, #4]
 1088 000c 1204     		lsl	r2, r2, #16
 1089 000e 120C     		lsr	r2, r2, #16
 1090 0010 1A60     		str	r2, [r3]
 786:.\Generated_Source\PSoC4/PWM_2.c **** }
 1091              		.loc 1 786 0
 1092 0012 BD46     		mov	sp, r7
 1093 0014 02B0     		add	sp, sp, #8
 1094              		@ sp needed for prologue
 1095 0016 80BD     		pop	{r7, pc}
ARM GAS  C:\Users\OEBN\AppData\Local\Temp\cc2uhR5V.s 			page 34


 1096              	.L63:
 1097              		.align	2
 1098              	.L62:
 1099 0018 98010540 		.word	1074069912
 1100              		.cfi_endproc
 1101              	.LFE19:
 1102              		.size	PWM_2_WritePeriodBuf, .-PWM_2_WritePeriodBuf
 1103              		.section	.text.PWM_2_ReadPeriodBuf,"ax",%progbits
 1104              		.align	2
 1105              		.global	PWM_2_ReadPeriodBuf
 1106              		.code	16
 1107              		.thumb_func
 1108              		.type	PWM_2_ReadPeriodBuf, %function
 1109              	PWM_2_ReadPeriodBuf:
 1110              	.LFB20:
 787:.\Generated_Source\PSoC4/PWM_2.c **** 
 788:.\Generated_Source\PSoC4/PWM_2.c **** 
 789:.\Generated_Source\PSoC4/PWM_2.c **** /*******************************************************************************
 790:.\Generated_Source\PSoC4/PWM_2.c **** * Function Name: PWM_2_ReadPeriodBuf
 791:.\Generated_Source\PSoC4/PWM_2.c **** ********************************************************************************
 792:.\Generated_Source\PSoC4/PWM_2.c **** *
 793:.\Generated_Source\PSoC4/PWM_2.c **** * Summary:
 794:.\Generated_Source\PSoC4/PWM_2.c **** *  Reads the 16 bit period buf register.
 795:.\Generated_Source\PSoC4/PWM_2.c **** *
 796:.\Generated_Source\PSoC4/PWM_2.c **** * Parameters:
 797:.\Generated_Source\PSoC4/PWM_2.c **** *  None
 798:.\Generated_Source\PSoC4/PWM_2.c **** *
 799:.\Generated_Source\PSoC4/PWM_2.c **** * Return:
 800:.\Generated_Source\PSoC4/PWM_2.c **** *  Period value
 801:.\Generated_Source\PSoC4/PWM_2.c **** *
 802:.\Generated_Source\PSoC4/PWM_2.c **** *******************************************************************************/
 803:.\Generated_Source\PSoC4/PWM_2.c **** uint32 PWM_2_ReadPeriodBuf(void)
 804:.\Generated_Source\PSoC4/PWM_2.c **** {
 1111              		.loc 1 804 0
 1112              		.cfi_startproc
 1113 0000 80B5     		push	{r7, lr}
 1114              	.LCFI56:
 1115              		.cfi_def_cfa_offset 8
 1116              		.cfi_offset 7, -8
 1117              		.cfi_offset 14, -4
 1118 0002 00AF     		add	r7, sp, #0
 1119              	.LCFI57:
 1120              		.cfi_def_cfa_register 7
 805:.\Generated_Source\PSoC4/PWM_2.c ****     return (PWM_2_PERIOD_BUF_REG & PWM_2_16BIT_MASK);
 1121              		.loc 1 805 0
 1122 0004 034B     		ldr	r3, .L66
 1123 0006 1B68     		ldr	r3, [r3]
 1124 0008 1B04     		lsl	r3, r3, #16
 1125 000a 1B0C     		lsr	r3, r3, #16
 806:.\Generated_Source\PSoC4/PWM_2.c **** }
 1126              		.loc 1 806 0
 1127 000c 181C     		mov	r0, r3
 1128 000e BD46     		mov	sp, r7
 1129              		@ sp needed for prologue
 1130 0010 80BD     		pop	{r7, pc}
 1131              	.L67:
 1132 0012 C046     		.align	2
ARM GAS  C:\Users\OEBN\AppData\Local\Temp\cc2uhR5V.s 			page 35


 1133              	.L66:
 1134 0014 98010540 		.word	1074069912
 1135              		.cfi_endproc
 1136              	.LFE20:
 1137              		.size	PWM_2_ReadPeriodBuf, .-PWM_2_ReadPeriodBuf
 1138              		.section	.text.PWM_2_SetPeriodSwap,"ax",%progbits
 1139              		.align	2
 1140              		.global	PWM_2_SetPeriodSwap
 1141              		.code	16
 1142              		.thumb_func
 1143              		.type	PWM_2_SetPeriodSwap, %function
 1144              	PWM_2_SetPeriodSwap:
 1145              	.LFB21:
 807:.\Generated_Source\PSoC4/PWM_2.c **** 
 808:.\Generated_Source\PSoC4/PWM_2.c **** 
 809:.\Generated_Source\PSoC4/PWM_2.c **** /*******************************************************************************
 810:.\Generated_Source\PSoC4/PWM_2.c **** * Function Name: PWM_2_SetPeriodSwap
 811:.\Generated_Source\PSoC4/PWM_2.c **** ********************************************************************************
 812:.\Generated_Source\PSoC4/PWM_2.c **** *
 813:.\Generated_Source\PSoC4/PWM_2.c **** * Summary:
 814:.\Generated_Source\PSoC4/PWM_2.c **** *  Writes the register that controls whether the period registers are
 815:.\Generated_Source\PSoC4/PWM_2.c **** *  swapped. When enabled in Timer/Counter mode the swap occurs at a TC event.
 816:.\Generated_Source\PSoC4/PWM_2.c **** *  In the PWM mode the swap occurs at the next TC event following a hardware
 817:.\Generated_Source\PSoC4/PWM_2.c **** *  switch event.
 818:.\Generated_Source\PSoC4/PWM_2.c **** *
 819:.\Generated_Source\PSoC4/PWM_2.c **** * Parameters:
 820:.\Generated_Source\PSoC4/PWM_2.c **** *  swapEnable
 821:.\Generated_Source\PSoC4/PWM_2.c **** *   Values:
 822:.\Generated_Source\PSoC4/PWM_2.c **** *     - 0 - Disable swap
 823:.\Generated_Source\PSoC4/PWM_2.c **** *     - 1 - Enable swap
 824:.\Generated_Source\PSoC4/PWM_2.c **** *
 825:.\Generated_Source\PSoC4/PWM_2.c **** * Return:
 826:.\Generated_Source\PSoC4/PWM_2.c **** *  None
 827:.\Generated_Source\PSoC4/PWM_2.c **** *
 828:.\Generated_Source\PSoC4/PWM_2.c **** *******************************************************************************/
 829:.\Generated_Source\PSoC4/PWM_2.c **** void PWM_2_SetPeriodSwap(uint32 swapEnable)
 830:.\Generated_Source\PSoC4/PWM_2.c **** {
 1146              		.loc 1 830 0
 1147              		.cfi_startproc
 1148 0000 90B5     		push	{r4, r7, lr}
 1149              	.LCFI58:
 1150              		.cfi_def_cfa_offset 12
 1151              		.cfi_offset 4, -12
 1152              		.cfi_offset 7, -8
 1153              		.cfi_offset 14, -4
 1154 0002 85B0     		sub	sp, sp, #20
 1155              	.LCFI59:
 1156              		.cfi_def_cfa_offset 32
 1157 0004 00AF     		add	r7, sp, #0
 1158              	.LCFI60:
 1159              		.cfi_def_cfa_register 7
 1160 0006 7860     		str	r0, [r7, #4]
 831:.\Generated_Source\PSoC4/PWM_2.c ****     uint8 enableInterrupts;
 832:.\Generated_Source\PSoC4/PWM_2.c **** 
 833:.\Generated_Source\PSoC4/PWM_2.c ****     enableInterrupts = CyEnterCriticalSection();
 1161              		.loc 1 833 0
 1162 0008 3C1C     		mov	r4, r7
ARM GAS  C:\Users\OEBN\AppData\Local\Temp\cc2uhR5V.s 			page 36


 1163 000a 0F34     		add	r4, r4, #15
 1164 000c FFF7FEFF 		bl	CyEnterCriticalSection
 1165 0010 031C     		mov	r3, r0
 1166 0012 2370     		strb	r3, [r4]
 834:.\Generated_Source\PSoC4/PWM_2.c **** 
 835:.\Generated_Source\PSoC4/PWM_2.c ****     PWM_2_CONTROL_REG &= (uint32)~PWM_2_RELOAD_PERIOD_MASK;
 1167              		.loc 1 835 0
 1168 0014 0B4B     		ldr	r3, .L69
 1169 0016 0B4A     		ldr	r2, .L69
 1170 0018 1268     		ldr	r2, [r2]
 1171 001a 0221     		mov	r1, #2
 1172 001c 8A43     		bic	r2, r1
 1173 001e 1A60     		str	r2, [r3]
 836:.\Generated_Source\PSoC4/PWM_2.c ****     PWM_2_CONTROL_REG |= ((uint32)((swapEnable & PWM_2_1BIT_MASK) <<
 1174              		.loc 1 836 0
 1175 0020 084B     		ldr	r3, .L69
 1176 0022 084A     		ldr	r2, .L69
 1177 0024 1168     		ldr	r1, [r2]
 1178 0026 7868     		ldr	r0, [r7, #4]
 1179 0028 0122     		mov	r2, #1
 1180 002a 0240     		and	r2, r0
 1181 002c 5200     		lsl	r2, r2, #1
 1182 002e 0A43     		orr	r2, r1
 1183 0030 1A60     		str	r2, [r3]
 837:.\Generated_Source\PSoC4/PWM_2.c ****                                                             PWM_2_RELOAD_PERIOD_SHIFT));
 838:.\Generated_Source\PSoC4/PWM_2.c **** 
 839:.\Generated_Source\PSoC4/PWM_2.c ****     CyExitCriticalSection(enableInterrupts);
 1184              		.loc 1 839 0
 1185 0032 3B1C     		mov	r3, r7
 1186 0034 0F33     		add	r3, r3, #15
 1187 0036 1B78     		ldrb	r3, [r3]
 1188 0038 181C     		mov	r0, r3
 1189 003a FFF7FEFF 		bl	CyExitCriticalSection
 840:.\Generated_Source\PSoC4/PWM_2.c **** }
 1190              		.loc 1 840 0
 1191 003e BD46     		mov	sp, r7
 1192 0040 05B0     		add	sp, sp, #20
 1193              		@ sp needed for prologue
 1194 0042 90BD     		pop	{r4, r7, pc}
 1195              	.L70:
 1196              		.align	2
 1197              	.L69:
 1198 0044 80010540 		.word	1074069888
 1199              		.cfi_endproc
 1200              	.LFE21:
 1201              		.size	PWM_2_SetPeriodSwap, .-PWM_2_SetPeriodSwap
 1202              		.section	.text.PWM_2_WriteCompare,"ax",%progbits
 1203              		.align	2
 1204              		.global	PWM_2_WriteCompare
 1205              		.code	16
 1206              		.thumb_func
 1207              		.type	PWM_2_WriteCompare, %function
 1208              	PWM_2_WriteCompare:
 1209              	.LFB22:
 841:.\Generated_Source\PSoC4/PWM_2.c **** 
 842:.\Generated_Source\PSoC4/PWM_2.c **** 
 843:.\Generated_Source\PSoC4/PWM_2.c **** /*******************************************************************************
ARM GAS  C:\Users\OEBN\AppData\Local\Temp\cc2uhR5V.s 			page 37


 844:.\Generated_Source\PSoC4/PWM_2.c **** * Function Name: PWM_2_WriteCompare
 845:.\Generated_Source\PSoC4/PWM_2.c **** ********************************************************************************
 846:.\Generated_Source\PSoC4/PWM_2.c **** *
 847:.\Generated_Source\PSoC4/PWM_2.c **** * Summary:
 848:.\Generated_Source\PSoC4/PWM_2.c **** *  Writes the 16 bit compare register with the new compare value. Not
 849:.\Generated_Source\PSoC4/PWM_2.c **** *  applicable for Timer/Counter with Capture or in Quadrature Decoder modes.
 850:.\Generated_Source\PSoC4/PWM_2.c **** *
 851:.\Generated_Source\PSoC4/PWM_2.c **** * Parameters:
 852:.\Generated_Source\PSoC4/PWM_2.c **** *  compare: Compare value
 853:.\Generated_Source\PSoC4/PWM_2.c **** *
 854:.\Generated_Source\PSoC4/PWM_2.c **** * Return:
 855:.\Generated_Source\PSoC4/PWM_2.c **** *  None
 856:.\Generated_Source\PSoC4/PWM_2.c **** *
 857:.\Generated_Source\PSoC4/PWM_2.c **** *******************************************************************************/
 858:.\Generated_Source\PSoC4/PWM_2.c **** void PWM_2_WriteCompare(uint32 compare)
 859:.\Generated_Source\PSoC4/PWM_2.c **** {
 1210              		.loc 1 859 0
 1211              		.cfi_startproc
 1212 0000 80B5     		push	{r7, lr}
 1213              	.LCFI61:
 1214              		.cfi_def_cfa_offset 8
 1215              		.cfi_offset 7, -8
 1216              		.cfi_offset 14, -4
 1217 0002 82B0     		sub	sp, sp, #8
 1218              	.LCFI62:
 1219              		.cfi_def_cfa_offset 16
 1220 0004 00AF     		add	r7, sp, #0
 1221              	.LCFI63:
 1222              		.cfi_def_cfa_register 7
 1223 0006 7860     		str	r0, [r7, #4]
 860:.\Generated_Source\PSoC4/PWM_2.c ****     #if (PWM_2_CY_TCPWM_V2)
 861:.\Generated_Source\PSoC4/PWM_2.c ****         uint32 currentMode;
 862:.\Generated_Source\PSoC4/PWM_2.c ****     #endif /* (PWM_2_CY_TCPWM_V2) */
 863:.\Generated_Source\PSoC4/PWM_2.c **** 
 864:.\Generated_Source\PSoC4/PWM_2.c ****     #if (PWM_2_CY_TCPWM_V2)
 865:.\Generated_Source\PSoC4/PWM_2.c ****         currentMode = ((PWM_2_CONTROL_REG & PWM_2_UPDOWN_MASK) >> PWM_2_UPDOWN_SHIFT);
 866:.\Generated_Source\PSoC4/PWM_2.c **** 
 867:.\Generated_Source\PSoC4/PWM_2.c ****         if (PWM_2__COUNT_DOWN == currentMode)
 868:.\Generated_Source\PSoC4/PWM_2.c ****         {
 869:.\Generated_Source\PSoC4/PWM_2.c ****             PWM_2_COMP_CAP_REG = ((compare + 1u) & PWM_2_16BIT_MASK);
 870:.\Generated_Source\PSoC4/PWM_2.c ****         }
 871:.\Generated_Source\PSoC4/PWM_2.c ****         else if (PWM_2__COUNT_UP == currentMode)
 872:.\Generated_Source\PSoC4/PWM_2.c ****         {
 873:.\Generated_Source\PSoC4/PWM_2.c ****             PWM_2_COMP_CAP_REG = ((compare - 1u) & PWM_2_16BIT_MASK);
 874:.\Generated_Source\PSoC4/PWM_2.c ****         }
 875:.\Generated_Source\PSoC4/PWM_2.c ****         else
 876:.\Generated_Source\PSoC4/PWM_2.c ****         {
 877:.\Generated_Source\PSoC4/PWM_2.c ****             PWM_2_COMP_CAP_REG = (compare & PWM_2_16BIT_MASK);
 878:.\Generated_Source\PSoC4/PWM_2.c ****         }
 879:.\Generated_Source\PSoC4/PWM_2.c ****     #else
 880:.\Generated_Source\PSoC4/PWM_2.c ****         PWM_2_COMP_CAP_REG = (compare & PWM_2_16BIT_MASK);
 1224              		.loc 1 880 0
 1225 0008 034B     		ldr	r3, .L72
 1226 000a 7A68     		ldr	r2, [r7, #4]
 1227 000c 1204     		lsl	r2, r2, #16
 1228 000e 120C     		lsr	r2, r2, #16
 1229 0010 1A60     		str	r2, [r3]
ARM GAS  C:\Users\OEBN\AppData\Local\Temp\cc2uhR5V.s 			page 38


 881:.\Generated_Source\PSoC4/PWM_2.c ****     #endif /* (PWM_2_CY_TCPWM_V2) */
 882:.\Generated_Source\PSoC4/PWM_2.c **** }
 1230              		.loc 1 882 0
 1231 0012 BD46     		mov	sp, r7
 1232 0014 02B0     		add	sp, sp, #8
 1233              		@ sp needed for prologue
 1234 0016 80BD     		pop	{r7, pc}
 1235              	.L73:
 1236              		.align	2
 1237              	.L72:
 1238 0018 8C010540 		.word	1074069900
 1239              		.cfi_endproc
 1240              	.LFE22:
 1241              		.size	PWM_2_WriteCompare, .-PWM_2_WriteCompare
 1242              		.section	.text.PWM_2_ReadCompare,"ax",%progbits
 1243              		.align	2
 1244              		.global	PWM_2_ReadCompare
 1245              		.code	16
 1246              		.thumb_func
 1247              		.type	PWM_2_ReadCompare, %function
 1248              	PWM_2_ReadCompare:
 1249              	.LFB23:
 883:.\Generated_Source\PSoC4/PWM_2.c **** 
 884:.\Generated_Source\PSoC4/PWM_2.c **** 
 885:.\Generated_Source\PSoC4/PWM_2.c **** /*******************************************************************************
 886:.\Generated_Source\PSoC4/PWM_2.c **** * Function Name: PWM_2_ReadCompare
 887:.\Generated_Source\PSoC4/PWM_2.c **** ********************************************************************************
 888:.\Generated_Source\PSoC4/PWM_2.c **** *
 889:.\Generated_Source\PSoC4/PWM_2.c **** * Summary:
 890:.\Generated_Source\PSoC4/PWM_2.c **** *  Reads the compare register. Not applicable for Timer/Counter with Capture
 891:.\Generated_Source\PSoC4/PWM_2.c **** *  or in Quadrature Decoder modes.
 892:.\Generated_Source\PSoC4/PWM_2.c **** *
 893:.\Generated_Source\PSoC4/PWM_2.c **** * Parameters:
 894:.\Generated_Source\PSoC4/PWM_2.c **** *  None
 895:.\Generated_Source\PSoC4/PWM_2.c **** *
 896:.\Generated_Source\PSoC4/PWM_2.c **** * Return:
 897:.\Generated_Source\PSoC4/PWM_2.c **** *  Compare value
 898:.\Generated_Source\PSoC4/PWM_2.c **** *
 899:.\Generated_Source\PSoC4/PWM_2.c **** *******************************************************************************/
 900:.\Generated_Source\PSoC4/PWM_2.c **** uint32 PWM_2_ReadCompare(void)
 901:.\Generated_Source\PSoC4/PWM_2.c **** {
 1250              		.loc 1 901 0
 1251              		.cfi_startproc
 1252 0000 80B5     		push	{r7, lr}
 1253              	.LCFI64:
 1254              		.cfi_def_cfa_offset 8
 1255              		.cfi_offset 7, -8
 1256              		.cfi_offset 14, -4
 1257 0002 00AF     		add	r7, sp, #0
 1258              	.LCFI65:
 1259              		.cfi_def_cfa_register 7
 902:.\Generated_Source\PSoC4/PWM_2.c ****     #if (PWM_2_CY_TCPWM_V2)
 903:.\Generated_Source\PSoC4/PWM_2.c ****         uint32 currentMode;
 904:.\Generated_Source\PSoC4/PWM_2.c ****         uint32 regVal;
 905:.\Generated_Source\PSoC4/PWM_2.c ****     #endif /* (PWM_2_CY_TCPWM_V2) */
 906:.\Generated_Source\PSoC4/PWM_2.c **** 
 907:.\Generated_Source\PSoC4/PWM_2.c ****     #if (PWM_2_CY_TCPWM_V2)
ARM GAS  C:\Users\OEBN\AppData\Local\Temp\cc2uhR5V.s 			page 39


 908:.\Generated_Source\PSoC4/PWM_2.c ****         currentMode = ((PWM_2_CONTROL_REG & PWM_2_UPDOWN_MASK) >> PWM_2_UPDOWN_SHIFT);
 909:.\Generated_Source\PSoC4/PWM_2.c **** 
 910:.\Generated_Source\PSoC4/PWM_2.c ****         if (PWM_2__COUNT_DOWN == currentMode)
 911:.\Generated_Source\PSoC4/PWM_2.c ****         {
 912:.\Generated_Source\PSoC4/PWM_2.c ****             regVal = ((PWM_2_COMP_CAP_REG - 1u) & PWM_2_16BIT_MASK);
 913:.\Generated_Source\PSoC4/PWM_2.c ****         }
 914:.\Generated_Source\PSoC4/PWM_2.c ****         else if (PWM_2__COUNT_UP == currentMode)
 915:.\Generated_Source\PSoC4/PWM_2.c ****         {
 916:.\Generated_Source\PSoC4/PWM_2.c ****             regVal = ((PWM_2_COMP_CAP_REG + 1u) & PWM_2_16BIT_MASK);
 917:.\Generated_Source\PSoC4/PWM_2.c ****         }
 918:.\Generated_Source\PSoC4/PWM_2.c ****         else
 919:.\Generated_Source\PSoC4/PWM_2.c ****         {
 920:.\Generated_Source\PSoC4/PWM_2.c ****             regVal = (PWM_2_COMP_CAP_REG & PWM_2_16BIT_MASK);
 921:.\Generated_Source\PSoC4/PWM_2.c ****         }
 922:.\Generated_Source\PSoC4/PWM_2.c ****         return (regVal);
 923:.\Generated_Source\PSoC4/PWM_2.c ****     #else
 924:.\Generated_Source\PSoC4/PWM_2.c ****         return (PWM_2_COMP_CAP_REG & PWM_2_16BIT_MASK);
 1260              		.loc 1 924 0
 1261 0004 034B     		ldr	r3, .L76
 1262 0006 1B68     		ldr	r3, [r3]
 1263 0008 1B04     		lsl	r3, r3, #16
 1264 000a 1B0C     		lsr	r3, r3, #16
 925:.\Generated_Source\PSoC4/PWM_2.c ****     #endif /* (PWM_2_CY_TCPWM_V2) */
 926:.\Generated_Source\PSoC4/PWM_2.c **** }
 1265              		.loc 1 926 0
 1266 000c 181C     		mov	r0, r3
 1267 000e BD46     		mov	sp, r7
 1268              		@ sp needed for prologue
 1269 0010 80BD     		pop	{r7, pc}
 1270              	.L77:
 1271 0012 C046     		.align	2
 1272              	.L76:
 1273 0014 8C010540 		.word	1074069900
 1274              		.cfi_endproc
 1275              	.LFE23:
 1276              		.size	PWM_2_ReadCompare, .-PWM_2_ReadCompare
 1277              		.section	.text.PWM_2_WriteCompareBuf,"ax",%progbits
 1278              		.align	2
 1279              		.global	PWM_2_WriteCompareBuf
 1280              		.code	16
 1281              		.thumb_func
 1282              		.type	PWM_2_WriteCompareBuf, %function
 1283              	PWM_2_WriteCompareBuf:
 1284              	.LFB24:
 927:.\Generated_Source\PSoC4/PWM_2.c **** 
 928:.\Generated_Source\PSoC4/PWM_2.c **** 
 929:.\Generated_Source\PSoC4/PWM_2.c **** /*******************************************************************************
 930:.\Generated_Source\PSoC4/PWM_2.c **** * Function Name: PWM_2_WriteCompareBuf
 931:.\Generated_Source\PSoC4/PWM_2.c **** ********************************************************************************
 932:.\Generated_Source\PSoC4/PWM_2.c **** *
 933:.\Generated_Source\PSoC4/PWM_2.c **** * Summary:
 934:.\Generated_Source\PSoC4/PWM_2.c **** *  Writes the 16 bit compare buffer register with the new compare value. Not
 935:.\Generated_Source\PSoC4/PWM_2.c **** *  applicable for Timer/Counter with Capture or in Quadrature Decoder modes.
 936:.\Generated_Source\PSoC4/PWM_2.c **** *
 937:.\Generated_Source\PSoC4/PWM_2.c **** * Parameters:
 938:.\Generated_Source\PSoC4/PWM_2.c **** *  compareBuf: Compare value
 939:.\Generated_Source\PSoC4/PWM_2.c **** *
ARM GAS  C:\Users\OEBN\AppData\Local\Temp\cc2uhR5V.s 			page 40


 940:.\Generated_Source\PSoC4/PWM_2.c **** * Return:
 941:.\Generated_Source\PSoC4/PWM_2.c **** *  None
 942:.\Generated_Source\PSoC4/PWM_2.c **** *
 943:.\Generated_Source\PSoC4/PWM_2.c **** *******************************************************************************/
 944:.\Generated_Source\PSoC4/PWM_2.c **** void PWM_2_WriteCompareBuf(uint32 compareBuf)
 945:.\Generated_Source\PSoC4/PWM_2.c **** {
 1285              		.loc 1 945 0
 1286              		.cfi_startproc
 1287 0000 80B5     		push	{r7, lr}
 1288              	.LCFI66:
 1289              		.cfi_def_cfa_offset 8
 1290              		.cfi_offset 7, -8
 1291              		.cfi_offset 14, -4
 1292 0002 82B0     		sub	sp, sp, #8
 1293              	.LCFI67:
 1294              		.cfi_def_cfa_offset 16
 1295 0004 00AF     		add	r7, sp, #0
 1296              	.LCFI68:
 1297              		.cfi_def_cfa_register 7
 1298 0006 7860     		str	r0, [r7, #4]
 946:.\Generated_Source\PSoC4/PWM_2.c ****     #if (PWM_2_CY_TCPWM_V2)
 947:.\Generated_Source\PSoC4/PWM_2.c ****         uint32 currentMode;
 948:.\Generated_Source\PSoC4/PWM_2.c ****     #endif /* (PWM_2_CY_TCPWM_V2) */
 949:.\Generated_Source\PSoC4/PWM_2.c **** 
 950:.\Generated_Source\PSoC4/PWM_2.c ****     #if (PWM_2_CY_TCPWM_V2)
 951:.\Generated_Source\PSoC4/PWM_2.c ****         currentMode = ((PWM_2_CONTROL_REG & PWM_2_UPDOWN_MASK) >> PWM_2_UPDOWN_SHIFT);
 952:.\Generated_Source\PSoC4/PWM_2.c **** 
 953:.\Generated_Source\PSoC4/PWM_2.c ****         if (PWM_2__COUNT_DOWN == currentMode)
 954:.\Generated_Source\PSoC4/PWM_2.c ****         {
 955:.\Generated_Source\PSoC4/PWM_2.c ****             PWM_2_COMP_CAP_BUF_REG = ((compareBuf + 1u) & PWM_2_16BIT_MASK);
 956:.\Generated_Source\PSoC4/PWM_2.c ****         }
 957:.\Generated_Source\PSoC4/PWM_2.c ****         else if (PWM_2__COUNT_UP == currentMode)
 958:.\Generated_Source\PSoC4/PWM_2.c ****         {
 959:.\Generated_Source\PSoC4/PWM_2.c ****             PWM_2_COMP_CAP_BUF_REG = ((compareBuf - 1u) & PWM_2_16BIT_MASK);
 960:.\Generated_Source\PSoC4/PWM_2.c ****         }
 961:.\Generated_Source\PSoC4/PWM_2.c ****         else
 962:.\Generated_Source\PSoC4/PWM_2.c ****         {
 963:.\Generated_Source\PSoC4/PWM_2.c ****             PWM_2_COMP_CAP_BUF_REG = (compareBuf & PWM_2_16BIT_MASK);
 964:.\Generated_Source\PSoC4/PWM_2.c ****         }
 965:.\Generated_Source\PSoC4/PWM_2.c ****     #else
 966:.\Generated_Source\PSoC4/PWM_2.c ****         PWM_2_COMP_CAP_BUF_REG = (compareBuf & PWM_2_16BIT_MASK);
 1299              		.loc 1 966 0
 1300 0008 034B     		ldr	r3, .L79
 1301 000a 7A68     		ldr	r2, [r7, #4]
 1302 000c 1204     		lsl	r2, r2, #16
 1303 000e 120C     		lsr	r2, r2, #16
 1304 0010 1A60     		str	r2, [r3]
 967:.\Generated_Source\PSoC4/PWM_2.c ****     #endif /* (PWM_2_CY_TCPWM_V2) */
 968:.\Generated_Source\PSoC4/PWM_2.c **** }
 1305              		.loc 1 968 0
 1306 0012 BD46     		mov	sp, r7
 1307 0014 02B0     		add	sp, sp, #8
 1308              		@ sp needed for prologue
 1309 0016 80BD     		pop	{r7, pc}
 1310              	.L80:
 1311              		.align	2
 1312              	.L79:
ARM GAS  C:\Users\OEBN\AppData\Local\Temp\cc2uhR5V.s 			page 41


 1313 0018 90010540 		.word	1074069904
 1314              		.cfi_endproc
 1315              	.LFE24:
 1316              		.size	PWM_2_WriteCompareBuf, .-PWM_2_WriteCompareBuf
 1317              		.section	.text.PWM_2_ReadCompareBuf,"ax",%progbits
 1318              		.align	2
 1319              		.global	PWM_2_ReadCompareBuf
 1320              		.code	16
 1321              		.thumb_func
 1322              		.type	PWM_2_ReadCompareBuf, %function
 1323              	PWM_2_ReadCompareBuf:
 1324              	.LFB25:
 969:.\Generated_Source\PSoC4/PWM_2.c **** 
 970:.\Generated_Source\PSoC4/PWM_2.c **** 
 971:.\Generated_Source\PSoC4/PWM_2.c **** /*******************************************************************************
 972:.\Generated_Source\PSoC4/PWM_2.c **** * Function Name: PWM_2_ReadCompareBuf
 973:.\Generated_Source\PSoC4/PWM_2.c **** ********************************************************************************
 974:.\Generated_Source\PSoC4/PWM_2.c **** *
 975:.\Generated_Source\PSoC4/PWM_2.c **** * Summary:
 976:.\Generated_Source\PSoC4/PWM_2.c **** *  Reads the compare buffer register. Not applicable for Timer/Counter with
 977:.\Generated_Source\PSoC4/PWM_2.c **** *  Capture or in Quadrature Decoder modes.
 978:.\Generated_Source\PSoC4/PWM_2.c **** *
 979:.\Generated_Source\PSoC4/PWM_2.c **** * Parameters:
 980:.\Generated_Source\PSoC4/PWM_2.c **** *  None
 981:.\Generated_Source\PSoC4/PWM_2.c **** *
 982:.\Generated_Source\PSoC4/PWM_2.c **** * Return:
 983:.\Generated_Source\PSoC4/PWM_2.c **** *  Compare buffer value
 984:.\Generated_Source\PSoC4/PWM_2.c **** *
 985:.\Generated_Source\PSoC4/PWM_2.c **** *******************************************************************************/
 986:.\Generated_Source\PSoC4/PWM_2.c **** uint32 PWM_2_ReadCompareBuf(void)
 987:.\Generated_Source\PSoC4/PWM_2.c **** {
 1325              		.loc 1 987 0
 1326              		.cfi_startproc
 1327 0000 80B5     		push	{r7, lr}
 1328              	.LCFI69:
 1329              		.cfi_def_cfa_offset 8
 1330              		.cfi_offset 7, -8
 1331              		.cfi_offset 14, -4
 1332 0002 00AF     		add	r7, sp, #0
 1333              	.LCFI70:
 1334              		.cfi_def_cfa_register 7
 988:.\Generated_Source\PSoC4/PWM_2.c ****     #if (PWM_2_CY_TCPWM_V2)
 989:.\Generated_Source\PSoC4/PWM_2.c ****         uint32 currentMode;
 990:.\Generated_Source\PSoC4/PWM_2.c ****         uint32 regVal;
 991:.\Generated_Source\PSoC4/PWM_2.c ****     #endif /* (PWM_2_CY_TCPWM_V2) */
 992:.\Generated_Source\PSoC4/PWM_2.c **** 
 993:.\Generated_Source\PSoC4/PWM_2.c ****     #if (PWM_2_CY_TCPWM_V2)
 994:.\Generated_Source\PSoC4/PWM_2.c ****         currentMode = ((PWM_2_CONTROL_REG & PWM_2_UPDOWN_MASK) >> PWM_2_UPDOWN_SHIFT);
 995:.\Generated_Source\PSoC4/PWM_2.c **** 
 996:.\Generated_Source\PSoC4/PWM_2.c ****         if (PWM_2__COUNT_DOWN == currentMode)
 997:.\Generated_Source\PSoC4/PWM_2.c ****         {
 998:.\Generated_Source\PSoC4/PWM_2.c ****             regVal = ((PWM_2_COMP_CAP_BUF_REG - 1u) & PWM_2_16BIT_MASK);
 999:.\Generated_Source\PSoC4/PWM_2.c ****         }
1000:.\Generated_Source\PSoC4/PWM_2.c ****         else if (PWM_2__COUNT_UP == currentMode)
1001:.\Generated_Source\PSoC4/PWM_2.c ****         {
1002:.\Generated_Source\PSoC4/PWM_2.c ****             regVal = ((PWM_2_COMP_CAP_BUF_REG + 1u) & PWM_2_16BIT_MASK);
1003:.\Generated_Source\PSoC4/PWM_2.c ****         }
ARM GAS  C:\Users\OEBN\AppData\Local\Temp\cc2uhR5V.s 			page 42


1004:.\Generated_Source\PSoC4/PWM_2.c ****         else
1005:.\Generated_Source\PSoC4/PWM_2.c ****         {
1006:.\Generated_Source\PSoC4/PWM_2.c ****             regVal = (PWM_2_COMP_CAP_BUF_REG & PWM_2_16BIT_MASK);
1007:.\Generated_Source\PSoC4/PWM_2.c ****         }
1008:.\Generated_Source\PSoC4/PWM_2.c ****         return (regVal);
1009:.\Generated_Source\PSoC4/PWM_2.c ****     #else
1010:.\Generated_Source\PSoC4/PWM_2.c ****         return (PWM_2_COMP_CAP_BUF_REG & PWM_2_16BIT_MASK);
 1335              		.loc 1 1010 0
 1336 0004 034B     		ldr	r3, .L83
 1337 0006 1B68     		ldr	r3, [r3]
 1338 0008 1B04     		lsl	r3, r3, #16
 1339 000a 1B0C     		lsr	r3, r3, #16
1011:.\Generated_Source\PSoC4/PWM_2.c ****     #endif /* (PWM_2_CY_TCPWM_V2) */
1012:.\Generated_Source\PSoC4/PWM_2.c **** }
 1340              		.loc 1 1012 0
 1341 000c 181C     		mov	r0, r3
 1342 000e BD46     		mov	sp, r7
 1343              		@ sp needed for prologue
 1344 0010 80BD     		pop	{r7, pc}
 1345              	.L84:
 1346 0012 C046     		.align	2
 1347              	.L83:
 1348 0014 90010540 		.word	1074069904
 1349              		.cfi_endproc
 1350              	.LFE25:
 1351              		.size	PWM_2_ReadCompareBuf, .-PWM_2_ReadCompareBuf
 1352              		.section	.text.PWM_2_ReadCapture,"ax",%progbits
 1353              		.align	2
 1354              		.global	PWM_2_ReadCapture
 1355              		.code	16
 1356              		.thumb_func
 1357              		.type	PWM_2_ReadCapture, %function
 1358              	PWM_2_ReadCapture:
 1359              	.LFB26:
1013:.\Generated_Source\PSoC4/PWM_2.c **** 
1014:.\Generated_Source\PSoC4/PWM_2.c **** 
1015:.\Generated_Source\PSoC4/PWM_2.c **** /*******************************************************************************
1016:.\Generated_Source\PSoC4/PWM_2.c **** * Function Name: PWM_2_ReadCapture
1017:.\Generated_Source\PSoC4/PWM_2.c **** ********************************************************************************
1018:.\Generated_Source\PSoC4/PWM_2.c **** *
1019:.\Generated_Source\PSoC4/PWM_2.c **** * Summary:
1020:.\Generated_Source\PSoC4/PWM_2.c **** *  Reads the captured counter value. This API is applicable only for
1021:.\Generated_Source\PSoC4/PWM_2.c **** *  Timer/Counter with the capture mode and Quadrature Decoder modes.
1022:.\Generated_Source\PSoC4/PWM_2.c **** *
1023:.\Generated_Source\PSoC4/PWM_2.c **** * Parameters:
1024:.\Generated_Source\PSoC4/PWM_2.c **** *  None
1025:.\Generated_Source\PSoC4/PWM_2.c **** *
1026:.\Generated_Source\PSoC4/PWM_2.c **** * Return:
1027:.\Generated_Source\PSoC4/PWM_2.c **** *  Capture value
1028:.\Generated_Source\PSoC4/PWM_2.c **** *
1029:.\Generated_Source\PSoC4/PWM_2.c **** *******************************************************************************/
1030:.\Generated_Source\PSoC4/PWM_2.c **** uint32 PWM_2_ReadCapture(void)
1031:.\Generated_Source\PSoC4/PWM_2.c **** {
 1360              		.loc 1 1031 0
 1361              		.cfi_startproc
 1362 0000 80B5     		push	{r7, lr}
 1363              	.LCFI71:
ARM GAS  C:\Users\OEBN\AppData\Local\Temp\cc2uhR5V.s 			page 43


 1364              		.cfi_def_cfa_offset 8
 1365              		.cfi_offset 7, -8
 1366              		.cfi_offset 14, -4
 1367 0002 00AF     		add	r7, sp, #0
 1368              	.LCFI72:
 1369              		.cfi_def_cfa_register 7
1032:.\Generated_Source\PSoC4/PWM_2.c ****     return (PWM_2_COMP_CAP_REG & PWM_2_16BIT_MASK);
 1370              		.loc 1 1032 0
 1371 0004 034B     		ldr	r3, .L87
 1372 0006 1B68     		ldr	r3, [r3]
 1373 0008 1B04     		lsl	r3, r3, #16
 1374 000a 1B0C     		lsr	r3, r3, #16
1033:.\Generated_Source\PSoC4/PWM_2.c **** }
 1375              		.loc 1 1033 0
 1376 000c 181C     		mov	r0, r3
 1377 000e BD46     		mov	sp, r7
 1378              		@ sp needed for prologue
 1379 0010 80BD     		pop	{r7, pc}
 1380              	.L88:
 1381 0012 C046     		.align	2
 1382              	.L87:
 1383 0014 8C010540 		.word	1074069900
 1384              		.cfi_endproc
 1385              	.LFE26:
 1386              		.size	PWM_2_ReadCapture, .-PWM_2_ReadCapture
 1387              		.section	.text.PWM_2_ReadCaptureBuf,"ax",%progbits
 1388              		.align	2
 1389              		.global	PWM_2_ReadCaptureBuf
 1390              		.code	16
 1391              		.thumb_func
 1392              		.type	PWM_2_ReadCaptureBuf, %function
 1393              	PWM_2_ReadCaptureBuf:
 1394              	.LFB27:
1034:.\Generated_Source\PSoC4/PWM_2.c **** 
1035:.\Generated_Source\PSoC4/PWM_2.c **** 
1036:.\Generated_Source\PSoC4/PWM_2.c **** /*******************************************************************************
1037:.\Generated_Source\PSoC4/PWM_2.c **** * Function Name: PWM_2_ReadCaptureBuf
1038:.\Generated_Source\PSoC4/PWM_2.c **** ********************************************************************************
1039:.\Generated_Source\PSoC4/PWM_2.c **** *
1040:.\Generated_Source\PSoC4/PWM_2.c **** * Summary:
1041:.\Generated_Source\PSoC4/PWM_2.c **** *  Reads the capture buffer register. This API is applicable only for
1042:.\Generated_Source\PSoC4/PWM_2.c **** *  Timer/Counter with the capture mode and Quadrature Decoder modes.
1043:.\Generated_Source\PSoC4/PWM_2.c **** *
1044:.\Generated_Source\PSoC4/PWM_2.c **** * Parameters:
1045:.\Generated_Source\PSoC4/PWM_2.c **** *  None
1046:.\Generated_Source\PSoC4/PWM_2.c **** *
1047:.\Generated_Source\PSoC4/PWM_2.c **** * Return:
1048:.\Generated_Source\PSoC4/PWM_2.c **** *  Capture buffer value
1049:.\Generated_Source\PSoC4/PWM_2.c **** *
1050:.\Generated_Source\PSoC4/PWM_2.c **** *******************************************************************************/
1051:.\Generated_Source\PSoC4/PWM_2.c **** uint32 PWM_2_ReadCaptureBuf(void)
1052:.\Generated_Source\PSoC4/PWM_2.c **** {
 1395              		.loc 1 1052 0
 1396              		.cfi_startproc
 1397 0000 80B5     		push	{r7, lr}
 1398              	.LCFI73:
 1399              		.cfi_def_cfa_offset 8
ARM GAS  C:\Users\OEBN\AppData\Local\Temp\cc2uhR5V.s 			page 44


 1400              		.cfi_offset 7, -8
 1401              		.cfi_offset 14, -4
 1402 0002 00AF     		add	r7, sp, #0
 1403              	.LCFI74:
 1404              		.cfi_def_cfa_register 7
1053:.\Generated_Source\PSoC4/PWM_2.c ****     return (PWM_2_COMP_CAP_BUF_REG & PWM_2_16BIT_MASK);
 1405              		.loc 1 1053 0
 1406 0004 034B     		ldr	r3, .L91
 1407 0006 1B68     		ldr	r3, [r3]
 1408 0008 1B04     		lsl	r3, r3, #16
 1409 000a 1B0C     		lsr	r3, r3, #16
1054:.\Generated_Source\PSoC4/PWM_2.c **** }
 1410              		.loc 1 1054 0
 1411 000c 181C     		mov	r0, r3
 1412 000e BD46     		mov	sp, r7
 1413              		@ sp needed for prologue
 1414 0010 80BD     		pop	{r7, pc}
 1415              	.L92:
 1416 0012 C046     		.align	2
 1417              	.L91:
 1418 0014 90010540 		.word	1074069904
 1419              		.cfi_endproc
 1420              	.LFE27:
 1421              		.size	PWM_2_ReadCaptureBuf, .-PWM_2_ReadCaptureBuf
 1422              		.section	.text.PWM_2_SetCaptureMode,"ax",%progbits
 1423              		.align	2
 1424              		.global	PWM_2_SetCaptureMode
 1425              		.code	16
 1426              		.thumb_func
 1427              		.type	PWM_2_SetCaptureMode, %function
 1428              	PWM_2_SetCaptureMode:
 1429              	.LFB28:
1055:.\Generated_Source\PSoC4/PWM_2.c **** 
1056:.\Generated_Source\PSoC4/PWM_2.c **** 
1057:.\Generated_Source\PSoC4/PWM_2.c **** /*******************************************************************************
1058:.\Generated_Source\PSoC4/PWM_2.c **** * Function Name: PWM_2_SetCaptureMode
1059:.\Generated_Source\PSoC4/PWM_2.c **** ********************************************************************************
1060:.\Generated_Source\PSoC4/PWM_2.c **** *
1061:.\Generated_Source\PSoC4/PWM_2.c **** * Summary:
1062:.\Generated_Source\PSoC4/PWM_2.c **** *  Sets the capture trigger mode. For PWM mode this is the switch input.
1063:.\Generated_Source\PSoC4/PWM_2.c **** *  This input is not applicable to the Timer/Counter without Capture and
1064:.\Generated_Source\PSoC4/PWM_2.c **** *  Quadrature Decoder modes.
1065:.\Generated_Source\PSoC4/PWM_2.c **** *
1066:.\Generated_Source\PSoC4/PWM_2.c **** * Parameters:
1067:.\Generated_Source\PSoC4/PWM_2.c **** *  triggerMode: Enumerated trigger mode value
1068:.\Generated_Source\PSoC4/PWM_2.c **** *   Values:
1069:.\Generated_Source\PSoC4/PWM_2.c **** *     - PWM_2_TRIG_LEVEL     - Level
1070:.\Generated_Source\PSoC4/PWM_2.c **** *     - PWM_2_TRIG_RISING    - Rising edge
1071:.\Generated_Source\PSoC4/PWM_2.c **** *     - PWM_2_TRIG_FALLING   - Falling edge
1072:.\Generated_Source\PSoC4/PWM_2.c **** *     - PWM_2_TRIG_BOTH      - Both rising and falling edge
1073:.\Generated_Source\PSoC4/PWM_2.c **** *
1074:.\Generated_Source\PSoC4/PWM_2.c **** * Return:
1075:.\Generated_Source\PSoC4/PWM_2.c **** *  None
1076:.\Generated_Source\PSoC4/PWM_2.c **** *
1077:.\Generated_Source\PSoC4/PWM_2.c **** *******************************************************************************/
1078:.\Generated_Source\PSoC4/PWM_2.c **** void PWM_2_SetCaptureMode(uint32 triggerMode)
1079:.\Generated_Source\PSoC4/PWM_2.c **** {
ARM GAS  C:\Users\OEBN\AppData\Local\Temp\cc2uhR5V.s 			page 45


 1430              		.loc 1 1079 0
 1431              		.cfi_startproc
 1432 0000 90B5     		push	{r4, r7, lr}
 1433              	.LCFI75:
 1434              		.cfi_def_cfa_offset 12
 1435              		.cfi_offset 4, -12
 1436              		.cfi_offset 7, -8
 1437              		.cfi_offset 14, -4
 1438 0002 85B0     		sub	sp, sp, #20
 1439              	.LCFI76:
 1440              		.cfi_def_cfa_offset 32
 1441 0004 00AF     		add	r7, sp, #0
 1442              	.LCFI77:
 1443              		.cfi_def_cfa_register 7
 1444 0006 7860     		str	r0, [r7, #4]
1080:.\Generated_Source\PSoC4/PWM_2.c ****     uint8 enableInterrupts;
1081:.\Generated_Source\PSoC4/PWM_2.c **** 
1082:.\Generated_Source\PSoC4/PWM_2.c ****     enableInterrupts = CyEnterCriticalSection();
 1445              		.loc 1 1082 0
 1446 0008 3C1C     		mov	r4, r7
 1447 000a 0F34     		add	r4, r4, #15
 1448 000c FFF7FEFF 		bl	CyEnterCriticalSection
 1449 0010 031C     		mov	r3, r0
 1450 0012 2370     		strb	r3, [r4]
1083:.\Generated_Source\PSoC4/PWM_2.c **** 
1084:.\Generated_Source\PSoC4/PWM_2.c ****     PWM_2_TRIG_CONTROL1_REG &= (uint32)~PWM_2_CAPTURE_MASK;
 1451              		.loc 1 1084 0
 1452 0014 0A4B     		ldr	r3, .L94
 1453 0016 0A4A     		ldr	r2, .L94
 1454 0018 1268     		ldr	r2, [r2]
 1455 001a 0321     		mov	r1, #3
 1456 001c 8A43     		bic	r2, r1
 1457 001e 1A60     		str	r2, [r3]
1085:.\Generated_Source\PSoC4/PWM_2.c ****     PWM_2_TRIG_CONTROL1_REG |= triggerMode;
 1458              		.loc 1 1085 0
 1459 0020 074B     		ldr	r3, .L94
 1460 0022 074A     		ldr	r2, .L94
 1461 0024 1168     		ldr	r1, [r2]
 1462 0026 7A68     		ldr	r2, [r7, #4]
 1463 0028 0A43     		orr	r2, r1
 1464 002a 1A60     		str	r2, [r3]
1086:.\Generated_Source\PSoC4/PWM_2.c **** 
1087:.\Generated_Source\PSoC4/PWM_2.c ****     CyExitCriticalSection(enableInterrupts);
 1465              		.loc 1 1087 0
 1466 002c 3B1C     		mov	r3, r7
 1467 002e 0F33     		add	r3, r3, #15
 1468 0030 1B78     		ldrb	r3, [r3]
 1469 0032 181C     		mov	r0, r3
 1470 0034 FFF7FEFF 		bl	CyExitCriticalSection
1088:.\Generated_Source\PSoC4/PWM_2.c **** }
 1471              		.loc 1 1088 0
 1472 0038 BD46     		mov	sp, r7
 1473 003a 05B0     		add	sp, sp, #20
 1474              		@ sp needed for prologue
 1475 003c 90BD     		pop	{r4, r7, pc}
 1476              	.L95:
 1477 003e C046     		.align	2
ARM GAS  C:\Users\OEBN\AppData\Local\Temp\cc2uhR5V.s 			page 46


 1478              	.L94:
 1479 0040 A4010540 		.word	1074069924
 1480              		.cfi_endproc
 1481              	.LFE28:
 1482              		.size	PWM_2_SetCaptureMode, .-PWM_2_SetCaptureMode
 1483              		.section	.text.PWM_2_SetReloadMode,"ax",%progbits
 1484              		.align	2
 1485              		.global	PWM_2_SetReloadMode
 1486              		.code	16
 1487              		.thumb_func
 1488              		.type	PWM_2_SetReloadMode, %function
 1489              	PWM_2_SetReloadMode:
 1490              	.LFB29:
1089:.\Generated_Source\PSoC4/PWM_2.c **** 
1090:.\Generated_Source\PSoC4/PWM_2.c **** 
1091:.\Generated_Source\PSoC4/PWM_2.c **** /*******************************************************************************
1092:.\Generated_Source\PSoC4/PWM_2.c **** * Function Name: PWM_2_SetReloadMode
1093:.\Generated_Source\PSoC4/PWM_2.c **** ********************************************************************************
1094:.\Generated_Source\PSoC4/PWM_2.c **** *
1095:.\Generated_Source\PSoC4/PWM_2.c **** * Summary:
1096:.\Generated_Source\PSoC4/PWM_2.c **** *  Sets the reload trigger mode. For Quadrature Decoder mode this is the index
1097:.\Generated_Source\PSoC4/PWM_2.c **** *  input.
1098:.\Generated_Source\PSoC4/PWM_2.c **** *
1099:.\Generated_Source\PSoC4/PWM_2.c **** * Parameters:
1100:.\Generated_Source\PSoC4/PWM_2.c **** *  triggerMode: Enumerated trigger mode value
1101:.\Generated_Source\PSoC4/PWM_2.c **** *   Values:
1102:.\Generated_Source\PSoC4/PWM_2.c **** *     - PWM_2_TRIG_LEVEL     - Level
1103:.\Generated_Source\PSoC4/PWM_2.c **** *     - PWM_2_TRIG_RISING    - Rising edge
1104:.\Generated_Source\PSoC4/PWM_2.c **** *     - PWM_2_TRIG_FALLING   - Falling edge
1105:.\Generated_Source\PSoC4/PWM_2.c **** *     - PWM_2_TRIG_BOTH      - Both rising and falling edge
1106:.\Generated_Source\PSoC4/PWM_2.c **** *
1107:.\Generated_Source\PSoC4/PWM_2.c **** * Return:
1108:.\Generated_Source\PSoC4/PWM_2.c **** *  None
1109:.\Generated_Source\PSoC4/PWM_2.c **** *
1110:.\Generated_Source\PSoC4/PWM_2.c **** *******************************************************************************/
1111:.\Generated_Source\PSoC4/PWM_2.c **** void PWM_2_SetReloadMode(uint32 triggerMode)
1112:.\Generated_Source\PSoC4/PWM_2.c **** {
 1491              		.loc 1 1112 0
 1492              		.cfi_startproc
 1493 0000 90B5     		push	{r4, r7, lr}
 1494              	.LCFI78:
 1495              		.cfi_def_cfa_offset 12
 1496              		.cfi_offset 4, -12
 1497              		.cfi_offset 7, -8
 1498              		.cfi_offset 14, -4
 1499 0002 85B0     		sub	sp, sp, #20
 1500              	.LCFI79:
 1501              		.cfi_def_cfa_offset 32
 1502 0004 00AF     		add	r7, sp, #0
 1503              	.LCFI80:
 1504              		.cfi_def_cfa_register 7
 1505 0006 7860     		str	r0, [r7, #4]
1113:.\Generated_Source\PSoC4/PWM_2.c ****     uint8 enableInterrupts;
1114:.\Generated_Source\PSoC4/PWM_2.c **** 
1115:.\Generated_Source\PSoC4/PWM_2.c ****     enableInterrupts = CyEnterCriticalSection();
 1506              		.loc 1 1115 0
 1507 0008 3C1C     		mov	r4, r7
ARM GAS  C:\Users\OEBN\AppData\Local\Temp\cc2uhR5V.s 			page 47


 1508 000a 0F34     		add	r4, r4, #15
 1509 000c FFF7FEFF 		bl	CyEnterCriticalSection
 1510 0010 031C     		mov	r3, r0
 1511 0012 2370     		strb	r3, [r4]
1116:.\Generated_Source\PSoC4/PWM_2.c **** 
1117:.\Generated_Source\PSoC4/PWM_2.c ****     PWM_2_TRIG_CONTROL1_REG &= (uint32)~PWM_2_RELOAD_MASK;
 1512              		.loc 1 1117 0
 1513 0014 0A4B     		ldr	r3, .L97
 1514 0016 0A4A     		ldr	r2, .L97
 1515 0018 1268     		ldr	r2, [r2]
 1516 001a 3021     		mov	r1, #48
 1517 001c 8A43     		bic	r2, r1
 1518 001e 1A60     		str	r2, [r3]
1118:.\Generated_Source\PSoC4/PWM_2.c ****     PWM_2_TRIG_CONTROL1_REG |= ((uint32)(triggerMode << PWM_2_RELOAD_SHIFT));
 1519              		.loc 1 1118 0
 1520 0020 074B     		ldr	r3, .L97
 1521 0022 074A     		ldr	r2, .L97
 1522 0024 1168     		ldr	r1, [r2]
 1523 0026 7A68     		ldr	r2, [r7, #4]
 1524 0028 1201     		lsl	r2, r2, #4
 1525 002a 0A43     		orr	r2, r1
 1526 002c 1A60     		str	r2, [r3]
1119:.\Generated_Source\PSoC4/PWM_2.c **** 
1120:.\Generated_Source\PSoC4/PWM_2.c ****     CyExitCriticalSection(enableInterrupts);
 1527              		.loc 1 1120 0
 1528 002e 3B1C     		mov	r3, r7
 1529 0030 0F33     		add	r3, r3, #15
 1530 0032 1B78     		ldrb	r3, [r3]
 1531 0034 181C     		mov	r0, r3
 1532 0036 FFF7FEFF 		bl	CyExitCriticalSection
1121:.\Generated_Source\PSoC4/PWM_2.c **** }
 1533              		.loc 1 1121 0
 1534 003a BD46     		mov	sp, r7
 1535 003c 05B0     		add	sp, sp, #20
 1536              		@ sp needed for prologue
 1537 003e 90BD     		pop	{r4, r7, pc}
 1538              	.L98:
 1539              		.align	2
 1540              	.L97:
 1541 0040 A4010540 		.word	1074069924
 1542              		.cfi_endproc
 1543              	.LFE29:
 1544              		.size	PWM_2_SetReloadMode, .-PWM_2_SetReloadMode
 1545              		.section	.text.PWM_2_SetStartMode,"ax",%progbits
 1546              		.align	2
 1547              		.global	PWM_2_SetStartMode
 1548              		.code	16
 1549              		.thumb_func
 1550              		.type	PWM_2_SetStartMode, %function
 1551              	PWM_2_SetStartMode:
 1552              	.LFB30:
1122:.\Generated_Source\PSoC4/PWM_2.c **** 
1123:.\Generated_Source\PSoC4/PWM_2.c **** 
1124:.\Generated_Source\PSoC4/PWM_2.c **** /*******************************************************************************
1125:.\Generated_Source\PSoC4/PWM_2.c **** * Function Name: PWM_2_SetStartMode
1126:.\Generated_Source\PSoC4/PWM_2.c **** ********************************************************************************
1127:.\Generated_Source\PSoC4/PWM_2.c **** *
ARM GAS  C:\Users\OEBN\AppData\Local\Temp\cc2uhR5V.s 			page 48


1128:.\Generated_Source\PSoC4/PWM_2.c **** * Summary:
1129:.\Generated_Source\PSoC4/PWM_2.c **** *  Sets the start trigger mode. For Quadrature Decoder mode this is the
1130:.\Generated_Source\PSoC4/PWM_2.c **** *  phiB input.
1131:.\Generated_Source\PSoC4/PWM_2.c **** *
1132:.\Generated_Source\PSoC4/PWM_2.c **** * Parameters:
1133:.\Generated_Source\PSoC4/PWM_2.c **** *  triggerMode: Enumerated trigger mode value
1134:.\Generated_Source\PSoC4/PWM_2.c **** *   Values:
1135:.\Generated_Source\PSoC4/PWM_2.c **** *     - PWM_2_TRIG_LEVEL     - Level
1136:.\Generated_Source\PSoC4/PWM_2.c **** *     - PWM_2_TRIG_RISING    - Rising edge
1137:.\Generated_Source\PSoC4/PWM_2.c **** *     - PWM_2_TRIG_FALLING   - Falling edge
1138:.\Generated_Source\PSoC4/PWM_2.c **** *     - PWM_2_TRIG_BOTH      - Both rising and falling edge
1139:.\Generated_Source\PSoC4/PWM_2.c **** *
1140:.\Generated_Source\PSoC4/PWM_2.c **** * Return:
1141:.\Generated_Source\PSoC4/PWM_2.c **** *  None
1142:.\Generated_Source\PSoC4/PWM_2.c **** *
1143:.\Generated_Source\PSoC4/PWM_2.c **** *******************************************************************************/
1144:.\Generated_Source\PSoC4/PWM_2.c **** void PWM_2_SetStartMode(uint32 triggerMode)
1145:.\Generated_Source\PSoC4/PWM_2.c **** {
 1553              		.loc 1 1145 0
 1554              		.cfi_startproc
 1555 0000 90B5     		push	{r4, r7, lr}
 1556              	.LCFI81:
 1557              		.cfi_def_cfa_offset 12
 1558              		.cfi_offset 4, -12
 1559              		.cfi_offset 7, -8
 1560              		.cfi_offset 14, -4
 1561 0002 85B0     		sub	sp, sp, #20
 1562              	.LCFI82:
 1563              		.cfi_def_cfa_offset 32
 1564 0004 00AF     		add	r7, sp, #0
 1565              	.LCFI83:
 1566              		.cfi_def_cfa_register 7
 1567 0006 7860     		str	r0, [r7, #4]
1146:.\Generated_Source\PSoC4/PWM_2.c ****     uint8 enableInterrupts;
1147:.\Generated_Source\PSoC4/PWM_2.c **** 
1148:.\Generated_Source\PSoC4/PWM_2.c ****     enableInterrupts = CyEnterCriticalSection();
 1568              		.loc 1 1148 0
 1569 0008 3C1C     		mov	r4, r7
 1570 000a 0F34     		add	r4, r4, #15
 1571 000c FFF7FEFF 		bl	CyEnterCriticalSection
 1572 0010 031C     		mov	r3, r0
 1573 0012 2370     		strb	r3, [r4]
1149:.\Generated_Source\PSoC4/PWM_2.c **** 
1150:.\Generated_Source\PSoC4/PWM_2.c ****     PWM_2_TRIG_CONTROL1_REG &= (uint32)~PWM_2_START_MASK;
 1574              		.loc 1 1150 0
 1575 0014 0A4B     		ldr	r3, .L100
 1576 0016 0A4A     		ldr	r2, .L100
 1577 0018 1168     		ldr	r1, [r2]
 1578 001a 0A4A     		ldr	r2, .L100+4
 1579 001c 0A40     		and	r2, r1
 1580 001e 1A60     		str	r2, [r3]
1151:.\Generated_Source\PSoC4/PWM_2.c ****     PWM_2_TRIG_CONTROL1_REG |= ((uint32)(triggerMode << PWM_2_START_SHIFT));
 1581              		.loc 1 1151 0
 1582 0020 074B     		ldr	r3, .L100
 1583 0022 074A     		ldr	r2, .L100
 1584 0024 1168     		ldr	r1, [r2]
 1585 0026 7A68     		ldr	r2, [r7, #4]
ARM GAS  C:\Users\OEBN\AppData\Local\Temp\cc2uhR5V.s 			page 49


 1586 0028 1202     		lsl	r2, r2, #8
 1587 002a 0A43     		orr	r2, r1
 1588 002c 1A60     		str	r2, [r3]
1152:.\Generated_Source\PSoC4/PWM_2.c **** 
1153:.\Generated_Source\PSoC4/PWM_2.c ****     CyExitCriticalSection(enableInterrupts);
 1589              		.loc 1 1153 0
 1590 002e 3B1C     		mov	r3, r7
 1591 0030 0F33     		add	r3, r3, #15
 1592 0032 1B78     		ldrb	r3, [r3]
 1593 0034 181C     		mov	r0, r3
 1594 0036 FFF7FEFF 		bl	CyExitCriticalSection
1154:.\Generated_Source\PSoC4/PWM_2.c **** }
 1595              		.loc 1 1154 0
 1596 003a BD46     		mov	sp, r7
 1597 003c 05B0     		add	sp, sp, #20
 1598              		@ sp needed for prologue
 1599 003e 90BD     		pop	{r4, r7, pc}
 1600              	.L101:
 1601              		.align	2
 1602              	.L100:
 1603 0040 A4010540 		.word	1074069924
 1604 0044 FFFCFFFF 		.word	-769
 1605              		.cfi_endproc
 1606              	.LFE30:
 1607              		.size	PWM_2_SetStartMode, .-PWM_2_SetStartMode
 1608              		.section	.text.PWM_2_SetStopMode,"ax",%progbits
 1609              		.align	2
 1610              		.global	PWM_2_SetStopMode
 1611              		.code	16
 1612              		.thumb_func
 1613              		.type	PWM_2_SetStopMode, %function
 1614              	PWM_2_SetStopMode:
 1615              	.LFB31:
1155:.\Generated_Source\PSoC4/PWM_2.c **** 
1156:.\Generated_Source\PSoC4/PWM_2.c **** 
1157:.\Generated_Source\PSoC4/PWM_2.c **** /*******************************************************************************
1158:.\Generated_Source\PSoC4/PWM_2.c **** * Function Name: PWM_2_SetStopMode
1159:.\Generated_Source\PSoC4/PWM_2.c **** ********************************************************************************
1160:.\Generated_Source\PSoC4/PWM_2.c **** *
1161:.\Generated_Source\PSoC4/PWM_2.c **** * Summary:
1162:.\Generated_Source\PSoC4/PWM_2.c **** *  Sets the stop trigger mode. For PWM mode this is the kill input.
1163:.\Generated_Source\PSoC4/PWM_2.c **** *
1164:.\Generated_Source\PSoC4/PWM_2.c **** * Parameters:
1165:.\Generated_Source\PSoC4/PWM_2.c **** *  triggerMode: Enumerated trigger mode value
1166:.\Generated_Source\PSoC4/PWM_2.c **** *   Values:
1167:.\Generated_Source\PSoC4/PWM_2.c **** *     - PWM_2_TRIG_LEVEL     - Level
1168:.\Generated_Source\PSoC4/PWM_2.c **** *     - PWM_2_TRIG_RISING    - Rising edge
1169:.\Generated_Source\PSoC4/PWM_2.c **** *     - PWM_2_TRIG_FALLING   - Falling edge
1170:.\Generated_Source\PSoC4/PWM_2.c **** *     - PWM_2_TRIG_BOTH      - Both rising and falling edge
1171:.\Generated_Source\PSoC4/PWM_2.c **** *
1172:.\Generated_Source\PSoC4/PWM_2.c **** * Return:
1173:.\Generated_Source\PSoC4/PWM_2.c **** *  None
1174:.\Generated_Source\PSoC4/PWM_2.c **** *
1175:.\Generated_Source\PSoC4/PWM_2.c **** *******************************************************************************/
1176:.\Generated_Source\PSoC4/PWM_2.c **** void PWM_2_SetStopMode(uint32 triggerMode)
1177:.\Generated_Source\PSoC4/PWM_2.c **** {
 1616              		.loc 1 1177 0
ARM GAS  C:\Users\OEBN\AppData\Local\Temp\cc2uhR5V.s 			page 50


 1617              		.cfi_startproc
 1618 0000 90B5     		push	{r4, r7, lr}
 1619              	.LCFI84:
 1620              		.cfi_def_cfa_offset 12
 1621              		.cfi_offset 4, -12
 1622              		.cfi_offset 7, -8
 1623              		.cfi_offset 14, -4
 1624 0002 85B0     		sub	sp, sp, #20
 1625              	.LCFI85:
 1626              		.cfi_def_cfa_offset 32
 1627 0004 00AF     		add	r7, sp, #0
 1628              	.LCFI86:
 1629              		.cfi_def_cfa_register 7
 1630 0006 7860     		str	r0, [r7, #4]
1178:.\Generated_Source\PSoC4/PWM_2.c ****     uint8 enableInterrupts;
1179:.\Generated_Source\PSoC4/PWM_2.c **** 
1180:.\Generated_Source\PSoC4/PWM_2.c ****     enableInterrupts = CyEnterCriticalSection();
 1631              		.loc 1 1180 0
 1632 0008 3C1C     		mov	r4, r7
 1633 000a 0F34     		add	r4, r4, #15
 1634 000c FFF7FEFF 		bl	CyEnterCriticalSection
 1635 0010 031C     		mov	r3, r0
 1636 0012 2370     		strb	r3, [r4]
1181:.\Generated_Source\PSoC4/PWM_2.c **** 
1182:.\Generated_Source\PSoC4/PWM_2.c ****     PWM_2_TRIG_CONTROL1_REG &= (uint32)~PWM_2_STOP_MASK;
 1637              		.loc 1 1182 0
 1638 0014 0A4B     		ldr	r3, .L103
 1639 0016 0A4A     		ldr	r2, .L103
 1640 0018 1268     		ldr	r2, [r2]
 1641 001a C021     		mov	r1, #192
 1642 001c 8A43     		bic	r2, r1
 1643 001e 1A60     		str	r2, [r3]
1183:.\Generated_Source\PSoC4/PWM_2.c ****     PWM_2_TRIG_CONTROL1_REG |= ((uint32)(triggerMode << PWM_2_STOP_SHIFT));
 1644              		.loc 1 1183 0
 1645 0020 074B     		ldr	r3, .L103
 1646 0022 074A     		ldr	r2, .L103
 1647 0024 1168     		ldr	r1, [r2]
 1648 0026 7A68     		ldr	r2, [r7, #4]
 1649 0028 9201     		lsl	r2, r2, #6
 1650 002a 0A43     		orr	r2, r1
 1651 002c 1A60     		str	r2, [r3]
1184:.\Generated_Source\PSoC4/PWM_2.c **** 
1185:.\Generated_Source\PSoC4/PWM_2.c ****     CyExitCriticalSection(enableInterrupts);
 1652              		.loc 1 1185 0
 1653 002e 3B1C     		mov	r3, r7
 1654 0030 0F33     		add	r3, r3, #15
 1655 0032 1B78     		ldrb	r3, [r3]
 1656 0034 181C     		mov	r0, r3
 1657 0036 FFF7FEFF 		bl	CyExitCriticalSection
1186:.\Generated_Source\PSoC4/PWM_2.c **** }
 1658              		.loc 1 1186 0
 1659 003a BD46     		mov	sp, r7
 1660 003c 05B0     		add	sp, sp, #20
 1661              		@ sp needed for prologue
 1662 003e 90BD     		pop	{r4, r7, pc}
 1663              	.L104:
 1664              		.align	2
ARM GAS  C:\Users\OEBN\AppData\Local\Temp\cc2uhR5V.s 			page 51


 1665              	.L103:
 1666 0040 A4010540 		.word	1074069924
 1667              		.cfi_endproc
 1668              	.LFE31:
 1669              		.size	PWM_2_SetStopMode, .-PWM_2_SetStopMode
 1670              		.section	.text.PWM_2_SetCountMode,"ax",%progbits
 1671              		.align	2
 1672              		.global	PWM_2_SetCountMode
 1673              		.code	16
 1674              		.thumb_func
 1675              		.type	PWM_2_SetCountMode, %function
 1676              	PWM_2_SetCountMode:
 1677              	.LFB32:
1187:.\Generated_Source\PSoC4/PWM_2.c **** 
1188:.\Generated_Source\PSoC4/PWM_2.c **** 
1189:.\Generated_Source\PSoC4/PWM_2.c **** /*******************************************************************************
1190:.\Generated_Source\PSoC4/PWM_2.c **** * Function Name: PWM_2_SetCountMode
1191:.\Generated_Source\PSoC4/PWM_2.c **** ********************************************************************************
1192:.\Generated_Source\PSoC4/PWM_2.c **** *
1193:.\Generated_Source\PSoC4/PWM_2.c **** * Summary:
1194:.\Generated_Source\PSoC4/PWM_2.c **** *  Sets the count trigger mode. For Quadrature Decoder mode this is the phiA
1195:.\Generated_Source\PSoC4/PWM_2.c **** *  input.
1196:.\Generated_Source\PSoC4/PWM_2.c **** *
1197:.\Generated_Source\PSoC4/PWM_2.c **** * Parameters:
1198:.\Generated_Source\PSoC4/PWM_2.c **** *  triggerMode: Enumerated trigger mode value
1199:.\Generated_Source\PSoC4/PWM_2.c **** *   Values:
1200:.\Generated_Source\PSoC4/PWM_2.c **** *     - PWM_2_TRIG_LEVEL     - Level
1201:.\Generated_Source\PSoC4/PWM_2.c **** *     - PWM_2_TRIG_RISING    - Rising edge
1202:.\Generated_Source\PSoC4/PWM_2.c **** *     - PWM_2_TRIG_FALLING   - Falling edge
1203:.\Generated_Source\PSoC4/PWM_2.c **** *     - PWM_2_TRIG_BOTH      - Both rising and falling edge
1204:.\Generated_Source\PSoC4/PWM_2.c **** *
1205:.\Generated_Source\PSoC4/PWM_2.c **** * Return:
1206:.\Generated_Source\PSoC4/PWM_2.c **** *  None
1207:.\Generated_Source\PSoC4/PWM_2.c **** *
1208:.\Generated_Source\PSoC4/PWM_2.c **** *******************************************************************************/
1209:.\Generated_Source\PSoC4/PWM_2.c **** void PWM_2_SetCountMode(uint32 triggerMode)
1210:.\Generated_Source\PSoC4/PWM_2.c **** {
 1678              		.loc 1 1210 0
 1679              		.cfi_startproc
 1680 0000 90B5     		push	{r4, r7, lr}
 1681              	.LCFI87:
 1682              		.cfi_def_cfa_offset 12
 1683              		.cfi_offset 4, -12
 1684              		.cfi_offset 7, -8
 1685              		.cfi_offset 14, -4
 1686 0002 85B0     		sub	sp, sp, #20
 1687              	.LCFI88:
 1688              		.cfi_def_cfa_offset 32
 1689 0004 00AF     		add	r7, sp, #0
 1690              	.LCFI89:
 1691              		.cfi_def_cfa_register 7
 1692 0006 7860     		str	r0, [r7, #4]
1211:.\Generated_Source\PSoC4/PWM_2.c ****     uint8 enableInterrupts;
1212:.\Generated_Source\PSoC4/PWM_2.c **** 
1213:.\Generated_Source\PSoC4/PWM_2.c ****     enableInterrupts = CyEnterCriticalSection();
 1693              		.loc 1 1213 0
 1694 0008 3C1C     		mov	r4, r7
ARM GAS  C:\Users\OEBN\AppData\Local\Temp\cc2uhR5V.s 			page 52


 1695 000a 0F34     		add	r4, r4, #15
 1696 000c FFF7FEFF 		bl	CyEnterCriticalSection
 1697 0010 031C     		mov	r3, r0
 1698 0012 2370     		strb	r3, [r4]
1214:.\Generated_Source\PSoC4/PWM_2.c **** 
1215:.\Generated_Source\PSoC4/PWM_2.c ****     PWM_2_TRIG_CONTROL1_REG &= (uint32)~PWM_2_COUNT_MASK;
 1699              		.loc 1 1215 0
 1700 0014 0A4B     		ldr	r3, .L106
 1701 0016 0A4A     		ldr	r2, .L106
 1702 0018 1268     		ldr	r2, [r2]
 1703 001a 0C21     		mov	r1, #12
 1704 001c 8A43     		bic	r2, r1
 1705 001e 1A60     		str	r2, [r3]
1216:.\Generated_Source\PSoC4/PWM_2.c ****     PWM_2_TRIG_CONTROL1_REG |= ((uint32)(triggerMode << PWM_2_COUNT_SHIFT));
 1706              		.loc 1 1216 0
 1707 0020 074B     		ldr	r3, .L106
 1708 0022 074A     		ldr	r2, .L106
 1709 0024 1168     		ldr	r1, [r2]
 1710 0026 7A68     		ldr	r2, [r7, #4]
 1711 0028 9200     		lsl	r2, r2, #2
 1712 002a 0A43     		orr	r2, r1
 1713 002c 1A60     		str	r2, [r3]
1217:.\Generated_Source\PSoC4/PWM_2.c **** 
1218:.\Generated_Source\PSoC4/PWM_2.c ****     CyExitCriticalSection(enableInterrupts);
 1714              		.loc 1 1218 0
 1715 002e 3B1C     		mov	r3, r7
 1716 0030 0F33     		add	r3, r3, #15
 1717 0032 1B78     		ldrb	r3, [r3]
 1718 0034 181C     		mov	r0, r3
 1719 0036 FFF7FEFF 		bl	CyExitCriticalSection
1219:.\Generated_Source\PSoC4/PWM_2.c **** }
 1720              		.loc 1 1219 0
 1721 003a BD46     		mov	sp, r7
 1722 003c 05B0     		add	sp, sp, #20
 1723              		@ sp needed for prologue
 1724 003e 90BD     		pop	{r4, r7, pc}
 1725              	.L107:
 1726              		.align	2
 1727              	.L106:
 1728 0040 A4010540 		.word	1074069924
 1729              		.cfi_endproc
 1730              	.LFE32:
 1731              		.size	PWM_2_SetCountMode, .-PWM_2_SetCountMode
 1732              		.section	.text.PWM_2_TriggerCommand,"ax",%progbits
 1733              		.align	2
 1734              		.global	PWM_2_TriggerCommand
 1735              		.code	16
 1736              		.thumb_func
 1737              		.type	PWM_2_TriggerCommand, %function
 1738              	PWM_2_TriggerCommand:
 1739              	.LFB33:
1220:.\Generated_Source\PSoC4/PWM_2.c **** 
1221:.\Generated_Source\PSoC4/PWM_2.c **** 
1222:.\Generated_Source\PSoC4/PWM_2.c **** /*******************************************************************************
1223:.\Generated_Source\PSoC4/PWM_2.c **** * Function Name: PWM_2_TriggerCommand
1224:.\Generated_Source\PSoC4/PWM_2.c **** ********************************************************************************
1225:.\Generated_Source\PSoC4/PWM_2.c **** *
ARM GAS  C:\Users\OEBN\AppData\Local\Temp\cc2uhR5V.s 			page 53


1226:.\Generated_Source\PSoC4/PWM_2.c **** * Summary:
1227:.\Generated_Source\PSoC4/PWM_2.c **** *  Triggers the designated command to occur on the designated TCPWM instances.
1228:.\Generated_Source\PSoC4/PWM_2.c **** *  The mask can be used to apply this command simultaneously to more than one
1229:.\Generated_Source\PSoC4/PWM_2.c **** *  instance.  This allows multiple TCPWM instances to be synchronized.
1230:.\Generated_Source\PSoC4/PWM_2.c **** *
1231:.\Generated_Source\PSoC4/PWM_2.c **** * Parameters:
1232:.\Generated_Source\PSoC4/PWM_2.c **** *  mask: A combination of mask bits for each instance of the TCPWM that the
1233:.\Generated_Source\PSoC4/PWM_2.c **** *        command should apply to.  This function from one instance can be used
1234:.\Generated_Source\PSoC4/PWM_2.c **** *        to apply the command to any of the instances in the design.
1235:.\Generated_Source\PSoC4/PWM_2.c **** *        The mask value for a specific instance is available with the MASK
1236:.\Generated_Source\PSoC4/PWM_2.c **** *        define.
1237:.\Generated_Source\PSoC4/PWM_2.c **** *  command: Enumerated command values. Capture command only applicable for
1238:.\Generated_Source\PSoC4/PWM_2.c **** *           Timer/Counter with Capture and PWM modes.
1239:.\Generated_Source\PSoC4/PWM_2.c **** *   Values:
1240:.\Generated_Source\PSoC4/PWM_2.c **** *     - PWM_2_CMD_CAPTURE    - Trigger Capture command
1241:.\Generated_Source\PSoC4/PWM_2.c **** *     - PWM_2_CMD_RELOAD     - Trigger Reload command
1242:.\Generated_Source\PSoC4/PWM_2.c **** *     - PWM_2_CMD_STOP       - Trigger Stop command
1243:.\Generated_Source\PSoC4/PWM_2.c **** *     - PWM_2_CMD_START      - Trigger Start command
1244:.\Generated_Source\PSoC4/PWM_2.c **** *
1245:.\Generated_Source\PSoC4/PWM_2.c **** * Return:
1246:.\Generated_Source\PSoC4/PWM_2.c **** *  None
1247:.\Generated_Source\PSoC4/PWM_2.c **** *
1248:.\Generated_Source\PSoC4/PWM_2.c **** *******************************************************************************/
1249:.\Generated_Source\PSoC4/PWM_2.c **** void PWM_2_TriggerCommand(uint32 mask, uint32 command)
1250:.\Generated_Source\PSoC4/PWM_2.c **** {
 1740              		.loc 1 1250 0
 1741              		.cfi_startproc
 1742 0000 90B5     		push	{r4, r7, lr}
 1743              	.LCFI90:
 1744              		.cfi_def_cfa_offset 12
 1745              		.cfi_offset 4, -12
 1746              		.cfi_offset 7, -8
 1747              		.cfi_offset 14, -4
 1748 0002 85B0     		sub	sp, sp, #20
 1749              	.LCFI91:
 1750              		.cfi_def_cfa_offset 32
 1751 0004 00AF     		add	r7, sp, #0
 1752              	.LCFI92:
 1753              		.cfi_def_cfa_register 7
 1754 0006 7860     		str	r0, [r7, #4]
 1755 0008 3960     		str	r1, [r7]
1251:.\Generated_Source\PSoC4/PWM_2.c ****     uint8 enableInterrupts;
1252:.\Generated_Source\PSoC4/PWM_2.c **** 
1253:.\Generated_Source\PSoC4/PWM_2.c ****     enableInterrupts = CyEnterCriticalSection();
 1756              		.loc 1 1253 0
 1757 000a 3C1C     		mov	r4, r7
 1758 000c 0F34     		add	r4, r4, #15
 1759 000e FFF7FEFF 		bl	CyEnterCriticalSection
 1760 0012 031C     		mov	r3, r0
 1761 0014 2370     		strb	r3, [r4]
1254:.\Generated_Source\PSoC4/PWM_2.c **** 
1255:.\Generated_Source\PSoC4/PWM_2.c ****     PWM_2_COMMAND_REG = ((uint32)(mask << command));
 1762              		.loc 1 1255 0
 1763 0016 084B     		ldr	r3, .L109
 1764 0018 3A68     		ldr	r2, [r7]
 1765 001a 7968     		ldr	r1, [r7, #4]
 1766 001c 081C     		mov	r0, r1
ARM GAS  C:\Users\OEBN\AppData\Local\Temp\cc2uhR5V.s 			page 54


 1767 001e 9040     		lsl	r0, r0, r2
 1768 0020 021C     		mov	r2, r0
 1769 0022 1A60     		str	r2, [r3]
1256:.\Generated_Source\PSoC4/PWM_2.c **** 
1257:.\Generated_Source\PSoC4/PWM_2.c ****     CyExitCriticalSection(enableInterrupts);
 1770              		.loc 1 1257 0
 1771 0024 3B1C     		mov	r3, r7
 1772 0026 0F33     		add	r3, r3, #15
 1773 0028 1B78     		ldrb	r3, [r3]
 1774 002a 181C     		mov	r0, r3
 1775 002c FFF7FEFF 		bl	CyExitCriticalSection
1258:.\Generated_Source\PSoC4/PWM_2.c **** }
 1776              		.loc 1 1258 0
 1777 0030 BD46     		mov	sp, r7
 1778 0032 05B0     		add	sp, sp, #20
 1779              		@ sp needed for prologue
 1780 0034 90BD     		pop	{r4, r7, pc}
 1781              	.L110:
 1782 0036 C046     		.align	2
 1783              	.L109:
 1784 0038 08000540 		.word	1074069512
 1785              		.cfi_endproc
 1786              	.LFE33:
 1787              		.size	PWM_2_TriggerCommand, .-PWM_2_TriggerCommand
 1788              		.section	.text.PWM_2_ReadStatus,"ax",%progbits
 1789              		.align	2
 1790              		.global	PWM_2_ReadStatus
 1791              		.code	16
 1792              		.thumb_func
 1793              		.type	PWM_2_ReadStatus, %function
 1794              	PWM_2_ReadStatus:
 1795              	.LFB34:
1259:.\Generated_Source\PSoC4/PWM_2.c **** 
1260:.\Generated_Source\PSoC4/PWM_2.c **** 
1261:.\Generated_Source\PSoC4/PWM_2.c **** /*******************************************************************************
1262:.\Generated_Source\PSoC4/PWM_2.c **** * Function Name: PWM_2_ReadStatus
1263:.\Generated_Source\PSoC4/PWM_2.c **** ********************************************************************************
1264:.\Generated_Source\PSoC4/PWM_2.c **** *
1265:.\Generated_Source\PSoC4/PWM_2.c **** * Summary:
1266:.\Generated_Source\PSoC4/PWM_2.c **** *  Reads the status of the PWM_2.
1267:.\Generated_Source\PSoC4/PWM_2.c **** *
1268:.\Generated_Source\PSoC4/PWM_2.c **** * Parameters:
1269:.\Generated_Source\PSoC4/PWM_2.c **** *  None
1270:.\Generated_Source\PSoC4/PWM_2.c **** *
1271:.\Generated_Source\PSoC4/PWM_2.c **** * Return:
1272:.\Generated_Source\PSoC4/PWM_2.c **** *  Status
1273:.\Generated_Source\PSoC4/PWM_2.c **** *   Values:
1274:.\Generated_Source\PSoC4/PWM_2.c **** *     - PWM_2_STATUS_DOWN    - Set if counting down
1275:.\Generated_Source\PSoC4/PWM_2.c **** *     - PWM_2_STATUS_RUNNING - Set if counter is running
1276:.\Generated_Source\PSoC4/PWM_2.c **** *
1277:.\Generated_Source\PSoC4/PWM_2.c **** *******************************************************************************/
1278:.\Generated_Source\PSoC4/PWM_2.c **** uint32 PWM_2_ReadStatus(void)
1279:.\Generated_Source\PSoC4/PWM_2.c **** {
 1796              		.loc 1 1279 0
 1797              		.cfi_startproc
 1798 0000 80B5     		push	{r7, lr}
 1799              	.LCFI93:
ARM GAS  C:\Users\OEBN\AppData\Local\Temp\cc2uhR5V.s 			page 55


 1800              		.cfi_def_cfa_offset 8
 1801              		.cfi_offset 7, -8
 1802              		.cfi_offset 14, -4
 1803 0002 00AF     		add	r7, sp, #0
 1804              	.LCFI94:
 1805              		.cfi_def_cfa_register 7
1280:.\Generated_Source\PSoC4/PWM_2.c ****     return ((PWM_2_STATUS_REG >> PWM_2_RUNNING_STATUS_SHIFT) |
 1806              		.loc 1 1280 0
 1807 0004 054B     		ldr	r3, .L113
 1808 0006 1B68     		ldr	r3, [r3]
 1809 0008 9A0F     		lsr	r2, r3, #30
1281:.\Generated_Source\PSoC4/PWM_2.c ****             (PWM_2_STATUS_REG & PWM_2_STATUS_DOWN));
 1810              		.loc 1 1281 0
 1811 000a 044B     		ldr	r3, .L113
 1812 000c 1968     		ldr	r1, [r3]
 1813 000e 0123     		mov	r3, #1
 1814 0010 0B40     		and	r3, r1
1280:.\Generated_Source\PSoC4/PWM_2.c ****     return ((PWM_2_STATUS_REG >> PWM_2_RUNNING_STATUS_SHIFT) |
 1815              		.loc 1 1280 0
 1816 0012 1343     		orr	r3, r2
1282:.\Generated_Source\PSoC4/PWM_2.c **** }
 1817              		.loc 1 1282 0
 1818 0014 181C     		mov	r0, r3
 1819 0016 BD46     		mov	sp, r7
 1820              		@ sp needed for prologue
 1821 0018 80BD     		pop	{r7, pc}
 1822              	.L114:
 1823 001a C046     		.align	2
 1824              	.L113:
 1825 001c 84010540 		.word	1074069892
 1826              		.cfi_endproc
 1827              	.LFE34:
 1828              		.size	PWM_2_ReadStatus, .-PWM_2_ReadStatus
 1829              		.section	.text.PWM_2_SetInterruptMode,"ax",%progbits
 1830              		.align	2
 1831              		.global	PWM_2_SetInterruptMode
 1832              		.code	16
 1833              		.thumb_func
 1834              		.type	PWM_2_SetInterruptMode, %function
 1835              	PWM_2_SetInterruptMode:
 1836              	.LFB35:
1283:.\Generated_Source\PSoC4/PWM_2.c **** 
1284:.\Generated_Source\PSoC4/PWM_2.c **** 
1285:.\Generated_Source\PSoC4/PWM_2.c **** /*******************************************************************************
1286:.\Generated_Source\PSoC4/PWM_2.c **** * Function Name: PWM_2_SetInterruptMode
1287:.\Generated_Source\PSoC4/PWM_2.c **** ********************************************************************************
1288:.\Generated_Source\PSoC4/PWM_2.c **** *
1289:.\Generated_Source\PSoC4/PWM_2.c **** * Summary:
1290:.\Generated_Source\PSoC4/PWM_2.c **** *  Sets the interrupt mask to control which interrupt
1291:.\Generated_Source\PSoC4/PWM_2.c **** *  requests generate the interrupt signal.
1292:.\Generated_Source\PSoC4/PWM_2.c **** *
1293:.\Generated_Source\PSoC4/PWM_2.c **** * Parameters:
1294:.\Generated_Source\PSoC4/PWM_2.c **** *   interruptMask: Mask of bits to be enabled
1295:.\Generated_Source\PSoC4/PWM_2.c **** *   Values:
1296:.\Generated_Source\PSoC4/PWM_2.c **** *     - PWM_2_INTR_MASK_TC       - Terminal count mask
1297:.\Generated_Source\PSoC4/PWM_2.c **** *     - PWM_2_INTR_MASK_CC_MATCH - Compare count / capture mask
1298:.\Generated_Source\PSoC4/PWM_2.c **** *
ARM GAS  C:\Users\OEBN\AppData\Local\Temp\cc2uhR5V.s 			page 56


1299:.\Generated_Source\PSoC4/PWM_2.c **** * Return:
1300:.\Generated_Source\PSoC4/PWM_2.c **** *  None
1301:.\Generated_Source\PSoC4/PWM_2.c **** *
1302:.\Generated_Source\PSoC4/PWM_2.c **** *******************************************************************************/
1303:.\Generated_Source\PSoC4/PWM_2.c **** void PWM_2_SetInterruptMode(uint32 interruptMask)
1304:.\Generated_Source\PSoC4/PWM_2.c **** {
 1837              		.loc 1 1304 0
 1838              		.cfi_startproc
 1839 0000 80B5     		push	{r7, lr}
 1840              	.LCFI95:
 1841              		.cfi_def_cfa_offset 8
 1842              		.cfi_offset 7, -8
 1843              		.cfi_offset 14, -4
 1844 0002 82B0     		sub	sp, sp, #8
 1845              	.LCFI96:
 1846              		.cfi_def_cfa_offset 16
 1847 0004 00AF     		add	r7, sp, #0
 1848              	.LCFI97:
 1849              		.cfi_def_cfa_register 7
 1850 0006 7860     		str	r0, [r7, #4]
1305:.\Generated_Source\PSoC4/PWM_2.c ****     PWM_2_INTERRUPT_MASK_REG =  interruptMask;
 1851              		.loc 1 1305 0
 1852 0008 024B     		ldr	r3, .L116
 1853 000a 7A68     		ldr	r2, [r7, #4]
 1854 000c 1A60     		str	r2, [r3]
1306:.\Generated_Source\PSoC4/PWM_2.c **** }
 1855              		.loc 1 1306 0
 1856 000e BD46     		mov	sp, r7
 1857 0010 02B0     		add	sp, sp, #8
 1858              		@ sp needed for prologue
 1859 0012 80BD     		pop	{r7, pc}
 1860              	.L117:
 1861              		.align	2
 1862              	.L116:
 1863 0014 B8010540 		.word	1074069944
 1864              		.cfi_endproc
 1865              	.LFE35:
 1866              		.size	PWM_2_SetInterruptMode, .-PWM_2_SetInterruptMode
 1867              		.section	.text.PWM_2_GetInterruptSourceMasked,"ax",%progbits
 1868              		.align	2
 1869              		.global	PWM_2_GetInterruptSourceMasked
 1870              		.code	16
 1871              		.thumb_func
 1872              		.type	PWM_2_GetInterruptSourceMasked, %function
 1873              	PWM_2_GetInterruptSourceMasked:
 1874              	.LFB36:
1307:.\Generated_Source\PSoC4/PWM_2.c **** 
1308:.\Generated_Source\PSoC4/PWM_2.c **** 
1309:.\Generated_Source\PSoC4/PWM_2.c **** /*******************************************************************************
1310:.\Generated_Source\PSoC4/PWM_2.c **** * Function Name: PWM_2_GetInterruptSourceMasked
1311:.\Generated_Source\PSoC4/PWM_2.c **** ********************************************************************************
1312:.\Generated_Source\PSoC4/PWM_2.c **** *
1313:.\Generated_Source\PSoC4/PWM_2.c **** * Summary:
1314:.\Generated_Source\PSoC4/PWM_2.c **** *  Gets the interrupt requests masked by the interrupt mask.
1315:.\Generated_Source\PSoC4/PWM_2.c **** *
1316:.\Generated_Source\PSoC4/PWM_2.c **** * Parameters:
1317:.\Generated_Source\PSoC4/PWM_2.c **** *   None
ARM GAS  C:\Users\OEBN\AppData\Local\Temp\cc2uhR5V.s 			page 57


1318:.\Generated_Source\PSoC4/PWM_2.c **** *
1319:.\Generated_Source\PSoC4/PWM_2.c **** * Return:
1320:.\Generated_Source\PSoC4/PWM_2.c **** *  Masked interrupt source
1321:.\Generated_Source\PSoC4/PWM_2.c **** *   Values:
1322:.\Generated_Source\PSoC4/PWM_2.c **** *     - PWM_2_INTR_MASK_TC       - Terminal count mask
1323:.\Generated_Source\PSoC4/PWM_2.c **** *     - PWM_2_INTR_MASK_CC_MATCH - Compare count / capture mask
1324:.\Generated_Source\PSoC4/PWM_2.c **** *
1325:.\Generated_Source\PSoC4/PWM_2.c **** *******************************************************************************/
1326:.\Generated_Source\PSoC4/PWM_2.c **** uint32 PWM_2_GetInterruptSourceMasked(void)
1327:.\Generated_Source\PSoC4/PWM_2.c **** {
 1875              		.loc 1 1327 0
 1876              		.cfi_startproc
 1877 0000 80B5     		push	{r7, lr}
 1878              	.LCFI98:
 1879              		.cfi_def_cfa_offset 8
 1880              		.cfi_offset 7, -8
 1881              		.cfi_offset 14, -4
 1882 0002 00AF     		add	r7, sp, #0
 1883              	.LCFI99:
 1884              		.cfi_def_cfa_register 7
1328:.\Generated_Source\PSoC4/PWM_2.c ****     return (PWM_2_INTERRUPT_MASKED_REG);
 1885              		.loc 1 1328 0
 1886 0004 024B     		ldr	r3, .L120
 1887 0006 1B68     		ldr	r3, [r3]
1329:.\Generated_Source\PSoC4/PWM_2.c **** }
 1888              		.loc 1 1329 0
 1889 0008 181C     		mov	r0, r3
 1890 000a BD46     		mov	sp, r7
 1891              		@ sp needed for prologue
 1892 000c 80BD     		pop	{r7, pc}
 1893              	.L121:
 1894 000e C046     		.align	2
 1895              	.L120:
 1896 0010 BC010540 		.word	1074069948
 1897              		.cfi_endproc
 1898              	.LFE36:
 1899              		.size	PWM_2_GetInterruptSourceMasked, .-PWM_2_GetInterruptSourceMasked
 1900              		.section	.text.PWM_2_GetInterruptSource,"ax",%progbits
 1901              		.align	2
 1902              		.global	PWM_2_GetInterruptSource
 1903              		.code	16
 1904              		.thumb_func
 1905              		.type	PWM_2_GetInterruptSource, %function
 1906              	PWM_2_GetInterruptSource:
 1907              	.LFB37:
1330:.\Generated_Source\PSoC4/PWM_2.c **** 
1331:.\Generated_Source\PSoC4/PWM_2.c **** 
1332:.\Generated_Source\PSoC4/PWM_2.c **** /*******************************************************************************
1333:.\Generated_Source\PSoC4/PWM_2.c **** * Function Name: PWM_2_GetInterruptSource
1334:.\Generated_Source\PSoC4/PWM_2.c **** ********************************************************************************
1335:.\Generated_Source\PSoC4/PWM_2.c **** *
1336:.\Generated_Source\PSoC4/PWM_2.c **** * Summary:
1337:.\Generated_Source\PSoC4/PWM_2.c **** *  Gets the interrupt requests (without masking).
1338:.\Generated_Source\PSoC4/PWM_2.c **** *
1339:.\Generated_Source\PSoC4/PWM_2.c **** * Parameters:
1340:.\Generated_Source\PSoC4/PWM_2.c **** *  None
1341:.\Generated_Source\PSoC4/PWM_2.c **** *
ARM GAS  C:\Users\OEBN\AppData\Local\Temp\cc2uhR5V.s 			page 58


1342:.\Generated_Source\PSoC4/PWM_2.c **** * Return:
1343:.\Generated_Source\PSoC4/PWM_2.c **** *  Interrupt request value
1344:.\Generated_Source\PSoC4/PWM_2.c **** *   Values:
1345:.\Generated_Source\PSoC4/PWM_2.c **** *     - PWM_2_INTR_MASK_TC       - Terminal count mask
1346:.\Generated_Source\PSoC4/PWM_2.c **** *     - PWM_2_INTR_MASK_CC_MATCH - Compare count / capture mask
1347:.\Generated_Source\PSoC4/PWM_2.c **** *
1348:.\Generated_Source\PSoC4/PWM_2.c **** *******************************************************************************/
1349:.\Generated_Source\PSoC4/PWM_2.c **** uint32 PWM_2_GetInterruptSource(void)
1350:.\Generated_Source\PSoC4/PWM_2.c **** {
 1908              		.loc 1 1350 0
 1909              		.cfi_startproc
 1910 0000 80B5     		push	{r7, lr}
 1911              	.LCFI100:
 1912              		.cfi_def_cfa_offset 8
 1913              		.cfi_offset 7, -8
 1914              		.cfi_offset 14, -4
 1915 0002 00AF     		add	r7, sp, #0
 1916              	.LCFI101:
 1917              		.cfi_def_cfa_register 7
1351:.\Generated_Source\PSoC4/PWM_2.c ****     return (PWM_2_INTERRUPT_REQ_REG);
 1918              		.loc 1 1351 0
 1919 0004 024B     		ldr	r3, .L124
 1920 0006 1B68     		ldr	r3, [r3]
1352:.\Generated_Source\PSoC4/PWM_2.c **** }
 1921              		.loc 1 1352 0
 1922 0008 181C     		mov	r0, r3
 1923 000a BD46     		mov	sp, r7
 1924              		@ sp needed for prologue
 1925 000c 80BD     		pop	{r7, pc}
 1926              	.L125:
 1927 000e C046     		.align	2
 1928              	.L124:
 1929 0010 B0010540 		.word	1074069936
 1930              		.cfi_endproc
 1931              	.LFE37:
 1932              		.size	PWM_2_GetInterruptSource, .-PWM_2_GetInterruptSource
 1933              		.section	.text.PWM_2_ClearInterrupt,"ax",%progbits
 1934              		.align	2
 1935              		.global	PWM_2_ClearInterrupt
 1936              		.code	16
 1937              		.thumb_func
 1938              		.type	PWM_2_ClearInterrupt, %function
 1939              	PWM_2_ClearInterrupt:
 1940              	.LFB38:
1353:.\Generated_Source\PSoC4/PWM_2.c **** 
1354:.\Generated_Source\PSoC4/PWM_2.c **** 
1355:.\Generated_Source\PSoC4/PWM_2.c **** /*******************************************************************************
1356:.\Generated_Source\PSoC4/PWM_2.c **** * Function Name: PWM_2_ClearInterrupt
1357:.\Generated_Source\PSoC4/PWM_2.c **** ********************************************************************************
1358:.\Generated_Source\PSoC4/PWM_2.c **** *
1359:.\Generated_Source\PSoC4/PWM_2.c **** * Summary:
1360:.\Generated_Source\PSoC4/PWM_2.c **** *  Clears the interrupt request.
1361:.\Generated_Source\PSoC4/PWM_2.c **** *
1362:.\Generated_Source\PSoC4/PWM_2.c **** * Parameters:
1363:.\Generated_Source\PSoC4/PWM_2.c **** *   interruptMask: Mask of interrupts to clear
1364:.\Generated_Source\PSoC4/PWM_2.c **** *   Values:
1365:.\Generated_Source\PSoC4/PWM_2.c **** *     - PWM_2_INTR_MASK_TC       - Terminal count mask
ARM GAS  C:\Users\OEBN\AppData\Local\Temp\cc2uhR5V.s 			page 59


1366:.\Generated_Source\PSoC4/PWM_2.c **** *     - PWM_2_INTR_MASK_CC_MATCH - Compare count / capture mask
1367:.\Generated_Source\PSoC4/PWM_2.c **** *
1368:.\Generated_Source\PSoC4/PWM_2.c **** * Return:
1369:.\Generated_Source\PSoC4/PWM_2.c **** *  None
1370:.\Generated_Source\PSoC4/PWM_2.c **** *
1371:.\Generated_Source\PSoC4/PWM_2.c **** *******************************************************************************/
1372:.\Generated_Source\PSoC4/PWM_2.c **** void PWM_2_ClearInterrupt(uint32 interruptMask)
1373:.\Generated_Source\PSoC4/PWM_2.c **** {
 1941              		.loc 1 1373 0
 1942              		.cfi_startproc
 1943 0000 80B5     		push	{r7, lr}
 1944              	.LCFI102:
 1945              		.cfi_def_cfa_offset 8
 1946              		.cfi_offset 7, -8
 1947              		.cfi_offset 14, -4
 1948 0002 82B0     		sub	sp, sp, #8
 1949              	.LCFI103:
 1950              		.cfi_def_cfa_offset 16
 1951 0004 00AF     		add	r7, sp, #0
 1952              	.LCFI104:
 1953              		.cfi_def_cfa_register 7
 1954 0006 7860     		str	r0, [r7, #4]
1374:.\Generated_Source\PSoC4/PWM_2.c ****     PWM_2_INTERRUPT_REQ_REG = interruptMask;
 1955              		.loc 1 1374 0
 1956 0008 024B     		ldr	r3, .L127
 1957 000a 7A68     		ldr	r2, [r7, #4]
 1958 000c 1A60     		str	r2, [r3]
1375:.\Generated_Source\PSoC4/PWM_2.c **** }
 1959              		.loc 1 1375 0
 1960 000e BD46     		mov	sp, r7
 1961 0010 02B0     		add	sp, sp, #8
 1962              		@ sp needed for prologue
 1963 0012 80BD     		pop	{r7, pc}
 1964              	.L128:
 1965              		.align	2
 1966              	.L127:
 1967 0014 B0010540 		.word	1074069936
 1968              		.cfi_endproc
 1969              	.LFE38:
 1970              		.size	PWM_2_ClearInterrupt, .-PWM_2_ClearInterrupt
 1971              		.section	.text.PWM_2_SetInterrupt,"ax",%progbits
 1972              		.align	2
 1973              		.global	PWM_2_SetInterrupt
 1974              		.code	16
 1975              		.thumb_func
 1976              		.type	PWM_2_SetInterrupt, %function
 1977              	PWM_2_SetInterrupt:
 1978              	.LFB39:
1376:.\Generated_Source\PSoC4/PWM_2.c **** 
1377:.\Generated_Source\PSoC4/PWM_2.c **** 
1378:.\Generated_Source\PSoC4/PWM_2.c **** /*******************************************************************************
1379:.\Generated_Source\PSoC4/PWM_2.c **** * Function Name: PWM_2_SetInterrupt
1380:.\Generated_Source\PSoC4/PWM_2.c **** ********************************************************************************
1381:.\Generated_Source\PSoC4/PWM_2.c **** *
1382:.\Generated_Source\PSoC4/PWM_2.c **** * Summary:
1383:.\Generated_Source\PSoC4/PWM_2.c **** *  Sets a software interrupt request.
1384:.\Generated_Source\PSoC4/PWM_2.c **** *
ARM GAS  C:\Users\OEBN\AppData\Local\Temp\cc2uhR5V.s 			page 60


1385:.\Generated_Source\PSoC4/PWM_2.c **** * Parameters:
1386:.\Generated_Source\PSoC4/PWM_2.c **** *   interruptMask: Mask of interrupts to set
1387:.\Generated_Source\PSoC4/PWM_2.c **** *   Values:
1388:.\Generated_Source\PSoC4/PWM_2.c **** *     - PWM_2_INTR_MASK_TC       - Terminal count mask
1389:.\Generated_Source\PSoC4/PWM_2.c **** *     - PWM_2_INTR_MASK_CC_MATCH - Compare count / capture mask
1390:.\Generated_Source\PSoC4/PWM_2.c **** *
1391:.\Generated_Source\PSoC4/PWM_2.c **** * Return:
1392:.\Generated_Source\PSoC4/PWM_2.c **** *  None
1393:.\Generated_Source\PSoC4/PWM_2.c **** *
1394:.\Generated_Source\PSoC4/PWM_2.c **** *******************************************************************************/
1395:.\Generated_Source\PSoC4/PWM_2.c **** void PWM_2_SetInterrupt(uint32 interruptMask)
1396:.\Generated_Source\PSoC4/PWM_2.c **** {
 1979              		.loc 1 1396 0
 1980              		.cfi_startproc
 1981 0000 80B5     		push	{r7, lr}
 1982              	.LCFI105:
 1983              		.cfi_def_cfa_offset 8
 1984              		.cfi_offset 7, -8
 1985              		.cfi_offset 14, -4
 1986 0002 82B0     		sub	sp, sp, #8
 1987              	.LCFI106:
 1988              		.cfi_def_cfa_offset 16
 1989 0004 00AF     		add	r7, sp, #0
 1990              	.LCFI107:
 1991              		.cfi_def_cfa_register 7
 1992 0006 7860     		str	r0, [r7, #4]
1397:.\Generated_Source\PSoC4/PWM_2.c ****     PWM_2_INTERRUPT_SET_REG = interruptMask;
 1993              		.loc 1 1397 0
 1994 0008 024B     		ldr	r3, .L130
 1995 000a 7A68     		ldr	r2, [r7, #4]
 1996 000c 1A60     		str	r2, [r3]
1398:.\Generated_Source\PSoC4/PWM_2.c **** }
 1997              		.loc 1 1398 0
 1998 000e BD46     		mov	sp, r7
 1999 0010 02B0     		add	sp, sp, #8
 2000              		@ sp needed for prologue
 2001 0012 80BD     		pop	{r7, pc}
 2002              	.L131:
 2003              		.align	2
 2004              	.L130:
 2005 0014 B4010540 		.word	1074069940
 2006              		.cfi_endproc
 2007              	.LFE39:
 2008              		.size	PWM_2_SetInterrupt, .-PWM_2_SetInterrupt
 2009              		.text
 2010              	.Letext0:
 2011              		.file 2 ".\\Generated_Source\\PSoC4\\cytypes.h"
 2012              		.section	.debug_info,"",%progbits
 2013              	.Ldebug_info0:
 2014 0000 BA070000 		.4byte	0x7ba
 2015 0004 0200     		.2byte	0x2
 2016 0006 00000000 		.4byte	.Ldebug_abbrev0
 2017 000a 04       		.byte	0x4
 2018 000b 01       		.uleb128 0x1
 2019 000c 17030000 		.4byte	.LASF76
 2020 0010 01       		.byte	0x1
 2021 0011 C2010000 		.4byte	.LASF77
ARM GAS  C:\Users\OEBN\AppData\Local\Temp\cc2uhR5V.s 			page 61


 2022 0015 79010000 		.4byte	.LASF78
 2023 0019 00000000 		.4byte	.Ldebug_ranges0+0
 2024 001d 00000000 		.4byte	0
 2025 0021 00000000 		.4byte	0
 2026 0025 00000000 		.4byte	.Ldebug_line0
 2027 0029 02       		.uleb128 0x2
 2028 002a 01       		.byte	0x1
 2029 002b 06       		.byte	0x6
 2030 002c BC000000 		.4byte	.LASF0
 2031 0030 02       		.uleb128 0x2
 2032 0031 01       		.byte	0x1
 2033 0032 08       		.byte	0x8
 2034 0033 75030000 		.4byte	.LASF1
 2035 0037 02       		.uleb128 0x2
 2036 0038 02       		.byte	0x2
 2037 0039 05       		.byte	0x5
 2038 003a AB030000 		.4byte	.LASF2
 2039 003e 02       		.uleb128 0x2
 2040 003f 02       		.byte	0x2
 2041 0040 07       		.byte	0x7
 2042 0041 01020000 		.4byte	.LASF3
 2043 0045 02       		.uleb128 0x2
 2044 0046 04       		.byte	0x4
 2045 0047 05       		.byte	0x5
 2046 0048 FC000000 		.4byte	.LASF4
 2047 004c 02       		.uleb128 0x2
 2048 004d 04       		.byte	0x4
 2049 004e 07       		.byte	0x7
 2050 004f E3010000 		.4byte	.LASF5
 2051 0053 02       		.uleb128 0x2
 2052 0054 08       		.byte	0x8
 2053 0055 05       		.byte	0x5
 2054 0056 AE000000 		.4byte	.LASF6
 2055 005a 02       		.uleb128 0x2
 2056 005b 08       		.byte	0x8
 2057 005c 07       		.byte	0x7
 2058 005d 42000000 		.4byte	.LASF7
 2059 0061 03       		.uleb128 0x3
 2060 0062 04       		.byte	0x4
 2061 0063 05       		.byte	0x5
 2062 0064 696E7400 		.ascii	"int\000"
 2063 0068 02       		.uleb128 0x2
 2064 0069 04       		.byte	0x4
 2065 006a 07       		.byte	0x7
 2066 006b 9A010000 		.4byte	.LASF8
 2067 006f 04       		.uleb128 0x4
 2068 0070 18010000 		.4byte	.LASF9
 2069 0074 02       		.byte	0x2
 2070 0075 5B       		.byte	0x5b
 2071 0076 30000000 		.4byte	0x30
 2072 007a 04       		.uleb128 0x4
 2073 007b 4F010000 		.4byte	.LASF10
 2074 007f 02       		.byte	0x2
 2075 0080 5D       		.byte	0x5d
 2076 0081 4C000000 		.4byte	0x4c
 2077 0085 02       		.uleb128 0x2
 2078 0086 04       		.byte	0x4
ARM GAS  C:\Users\OEBN\AppData\Local\Temp\cc2uhR5V.s 			page 62


 2079 0087 04       		.byte	0x4
 2080 0088 F6020000 		.4byte	.LASF11
 2081 008c 02       		.uleb128 0x2
 2082 008d 08       		.byte	0x8
 2083 008e 04       		.byte	0x4
 2084 008f 1E010000 		.4byte	.LASF12
 2085 0093 02       		.uleb128 0x2
 2086 0094 01       		.byte	0x1
 2087 0095 08       		.byte	0x8
 2088 0096 F8030000 		.4byte	.LASF13
 2089 009a 04       		.uleb128 0x4
 2090 009b 7E020000 		.4byte	.LASF14
 2091 009f 02       		.byte	0x2
 2092 00a0 F2       		.byte	0xf2
 2093 00a1 A5000000 		.4byte	0xa5
 2094 00a5 05       		.uleb128 0x5
 2095 00a6 7A000000 		.4byte	0x7a
 2096 00aa 02       		.uleb128 0x2
 2097 00ab 04       		.byte	0x4
 2098 00ac 07       		.byte	0x7
 2099 00ad B6020000 		.4byte	.LASF15
 2100 00b1 06       		.uleb128 0x6
 2101 00b2 01       		.byte	0x1
 2102 00b3 EB020000 		.4byte	.LASF16
 2103 00b7 01       		.byte	0x1
 2104 00b8 27       		.byte	0x27
 2105 00b9 01       		.byte	0x1
 2106 00ba 00000000 		.4byte	.LFB0
 2107 00be 58000000 		.4byte	.LFE0
 2108 00c2 00000000 		.4byte	.LLST0
 2109 00c6 01       		.byte	0x1
 2110 00c7 07       		.uleb128 0x7
 2111 00c8 01       		.byte	0x1
 2112 00c9 5E020000 		.4byte	.LASF18
 2113 00cd 01       		.byte	0x1
 2114 00ce C8       		.byte	0xc8
 2115 00cf 01       		.byte	0x1
 2116 00d0 00000000 		.4byte	.LFB1
 2117 00d4 38000000 		.4byte	.LFE1
 2118 00d8 2C000000 		.4byte	.LLST1
 2119 00dc 01       		.byte	0x1
 2120 00dd F0000000 		.4byte	0xf0
 2121 00e1 08       		.uleb128 0x8
 2122 00e2 65040000 		.4byte	.LASF20
 2123 00e6 01       		.byte	0x1
 2124 00e7 CA       		.byte	0xca
 2125 00e8 6F000000 		.4byte	0x6f
 2126 00ec 02       		.byte	0x2
 2127 00ed 91       		.byte	0x91
 2128 00ee 6F       		.sleb128 -17
 2129 00ef 00       		.byte	0
 2130 00f0 06       		.uleb128 0x6
 2131 00f1 01       		.byte	0x1
 2132 00f2 F5010000 		.4byte	.LASF17
 2133 00f6 01       		.byte	0x1
 2134 00f7 F7       		.byte	0xf7
 2135 00f8 01       		.byte	0x1
ARM GAS  C:\Users\OEBN\AppData\Local\Temp\cc2uhR5V.s 			page 63


 2136 00f9 00000000 		.4byte	.LFB2
 2137 00fd 24000000 		.4byte	.LFE2
 2138 0101 64000000 		.4byte	.LLST2
 2139 0105 01       		.byte	0x1
 2140 0106 09       		.uleb128 0x9
 2141 0107 01       		.byte	0x1
 2142 0108 C8000000 		.4byte	.LASF19
 2143 010c 01       		.byte	0x1
 2144 010d 1101     		.2byte	0x111
 2145 010f 01       		.byte	0x1
 2146 0110 00000000 		.4byte	.LFB3
 2147 0114 30000000 		.4byte	.LFE3
 2148 0118 90000000 		.4byte	.LLST3
 2149 011c 01       		.byte	0x1
 2150 011d 31010000 		.4byte	0x131
 2151 0121 0A       		.uleb128 0xa
 2152 0122 65040000 		.4byte	.LASF20
 2153 0126 01       		.byte	0x1
 2154 0127 1301     		.2byte	0x113
 2155 0129 6F000000 		.4byte	0x6f
 2156 012d 02       		.byte	0x2
 2157 012e 91       		.byte	0x91
 2158 012f 6F       		.sleb128 -17
 2159 0130 00       		.byte	0
 2160 0131 09       		.uleb128 0x9
 2161 0132 01       		.byte	0x1
 2162 0133 97020000 		.4byte	.LASF21
 2163 0137 01       		.byte	0x1
 2164 0138 3601     		.2byte	0x136
 2165 013a 01       		.byte	0x1
 2166 013b 00000000 		.4byte	.LFB4
 2167 013f 48000000 		.4byte	.LFE4
 2168 0143 C8000000 		.4byte	.LLST4
 2169 0147 01       		.byte	0x1
 2170 0148 6B010000 		.4byte	0x16b
 2171 014c 0B       		.uleb128 0xb
 2172 014d FD030000 		.4byte	.LASF23
 2173 0151 01       		.byte	0x1
 2174 0152 3601     		.2byte	0x136
 2175 0154 7A000000 		.4byte	0x7a
 2176 0158 02       		.byte	0x2
 2177 0159 91       		.byte	0x91
 2178 015a 64       		.sleb128 -28
 2179 015b 0A       		.uleb128 0xa
 2180 015c 65040000 		.4byte	.LASF20
 2181 0160 01       		.byte	0x1
 2182 0161 3801     		.2byte	0x138
 2183 0163 6F000000 		.4byte	0x6f
 2184 0167 02       		.byte	0x2
 2185 0168 91       		.byte	0x91
 2186 0169 6F       		.sleb128 -17
 2187 016a 00       		.byte	0
 2188 016b 09       		.uleb128 0x9
 2189 016c 01       		.byte	0x1
 2190 016d B5030000 		.4byte	.LASF22
 2191 0171 01       		.byte	0x1
 2192 0172 5701     		.2byte	0x157
ARM GAS  C:\Users\OEBN\AppData\Local\Temp\cc2uhR5V.s 			page 64


 2193 0174 01       		.byte	0x1
 2194 0175 00000000 		.4byte	.LFB5
 2195 0179 48000000 		.4byte	.LFE5
 2196 017d 00010000 		.4byte	.LLST5
 2197 0181 01       		.byte	0x1
 2198 0182 A5010000 		.4byte	0x1a5
 2199 0186 0B       		.uleb128 0xb
 2200 0187 80000000 		.4byte	.LASF24
 2201 018b 01       		.byte	0x1
 2202 018c 5701     		.2byte	0x157
 2203 018e 7A000000 		.4byte	0x7a
 2204 0192 02       		.byte	0x2
 2205 0193 91       		.byte	0x91
 2206 0194 64       		.sleb128 -28
 2207 0195 0A       		.uleb128 0xa
 2208 0196 65040000 		.4byte	.LASF20
 2209 019a 01       		.byte	0x1
 2210 019b 5901     		.2byte	0x159
 2211 019d 6F000000 		.4byte	0x6f
 2212 01a1 02       		.byte	0x2
 2213 01a2 91       		.byte	0x91
 2214 01a3 6F       		.sleb128 -17
 2215 01a4 00       		.byte	0
 2216 01a5 09       		.uleb128 0x9
 2217 01a6 01       		.byte	0x1
 2218 01a7 E5040000 		.4byte	.LASF25
 2219 01ab 01       		.byte	0x1
 2220 01ac 7C01     		.2byte	0x17c
 2221 01ae 01       		.byte	0x1
 2222 01af 00000000 		.4byte	.LFB6
 2223 01b3 48000000 		.4byte	.LFE6
 2224 01b7 38010000 		.4byte	.LLST6
 2225 01bb 01       		.byte	0x1
 2226 01bc DF010000 		.4byte	0x1df
 2227 01c0 0B       		.uleb128 0xb
 2228 01c1 FC020000 		.4byte	.LASF26
 2229 01c5 01       		.byte	0x1
 2230 01c6 7C01     		.2byte	0x17c
 2231 01c8 7A000000 		.4byte	0x7a
 2232 01cc 02       		.byte	0x2
 2233 01cd 91       		.byte	0x91
 2234 01ce 64       		.sleb128 -28
 2235 01cf 0A       		.uleb128 0xa
 2236 01d0 65040000 		.4byte	.LASF20
 2237 01d4 01       		.byte	0x1
 2238 01d5 7E01     		.2byte	0x17e
 2239 01d7 6F000000 		.4byte	0x6f
 2240 01db 02       		.byte	0x2
 2241 01dc 91       		.byte	0x91
 2242 01dd 6F       		.sleb128 -17
 2243 01de 00       		.byte	0
 2244 01df 09       		.uleb128 0x9
 2245 01e0 01       		.byte	0x1
 2246 01e1 A5020000 		.4byte	.LASF27
 2247 01e5 01       		.byte	0x1
 2248 01e6 9C01     		.2byte	0x19c
 2249 01e8 01       		.byte	0x1
ARM GAS  C:\Users\OEBN\AppData\Local\Temp\cc2uhR5V.s 			page 65


 2250 01e9 00000000 		.4byte	.LFB7
 2251 01ed 4C000000 		.4byte	.LFE7
 2252 01f1 70010000 		.4byte	.LLST7
 2253 01f5 01       		.byte	0x1
 2254 01f6 19020000 		.4byte	0x219
 2255 01fa 0B       		.uleb128 0xb
 2256 01fb 29020000 		.4byte	.LASF28
 2257 01ff 01       		.byte	0x1
 2258 0200 9C01     		.2byte	0x19c
 2259 0202 7A000000 		.4byte	0x7a
 2260 0206 02       		.byte	0x2
 2261 0207 91       		.byte	0x91
 2262 0208 64       		.sleb128 -28
 2263 0209 0A       		.uleb128 0xa
 2264 020a 65040000 		.4byte	.LASF20
 2265 020e 01       		.byte	0x1
 2266 020f 9E01     		.2byte	0x19e
 2267 0211 6F000000 		.4byte	0x6f
 2268 0215 02       		.byte	0x2
 2269 0216 91       		.byte	0x91
 2270 0217 6F       		.sleb128 -17
 2271 0218 00       		.byte	0
 2272 0219 0C       		.uleb128 0xc
 2273 021a 01       		.byte	0x1
 2274 021b 06030000 		.4byte	.LASF29
 2275 021f 01       		.byte	0x1
 2276 0220 D201     		.2byte	0x1d2
 2277 0222 01       		.byte	0x1
 2278 0223 00000000 		.4byte	.LFB8
 2279 0227 1C000000 		.4byte	.LFE8
 2280 022b A8010000 		.4byte	.LLST8
 2281 022f 01       		.byte	0x1
 2282 0230 44020000 		.4byte	0x244
 2283 0234 0B       		.uleb128 0xb
 2284 0235 32000000 		.4byte	.LASF30
 2285 0239 01       		.byte	0x1
 2286 023a D201     		.2byte	0x1d2
 2287 023c 7A000000 		.4byte	0x7a
 2288 0240 02       		.byte	0x2
 2289 0241 91       		.byte	0x91
 2290 0242 74       		.sleb128 -12
 2291 0243 00       		.byte	0
 2292 0244 09       		.uleb128 0x9
 2293 0245 01       		.byte	0x1
 2294 0246 87000000 		.4byte	.LASF31
 2295 024a 01       		.byte	0x1
 2296 024b F601     		.2byte	0x1f6
 2297 024d 01       		.byte	0x1
 2298 024e 00000000 		.4byte	.LFB9
 2299 0252 48000000 		.4byte	.LFE9
 2300 0256 E0010000 		.4byte	.LLST9
 2301 025a 01       		.byte	0x1
 2302 025b 7E020000 		.4byte	0x27e
 2303 025f 0B       		.uleb128 0xb
 2304 0260 BF020000 		.4byte	.LASF32
 2305 0264 01       		.byte	0x1
 2306 0265 F601     		.2byte	0x1f6
ARM GAS  C:\Users\OEBN\AppData\Local\Temp\cc2uhR5V.s 			page 66


 2307 0267 7A000000 		.4byte	0x7a
 2308 026b 02       		.byte	0x2
 2309 026c 91       		.byte	0x91
 2310 026d 64       		.sleb128 -28
 2311 026e 0A       		.uleb128 0xa
 2312 026f 65040000 		.4byte	.LASF20
 2313 0273 01       		.byte	0x1
 2314 0274 F801     		.2byte	0x1f8
 2315 0276 6F000000 		.4byte	0x6f
 2316 027a 02       		.byte	0x2
 2317 027b 91       		.byte	0x91
 2318 027c 6F       		.sleb128 -17
 2319 027d 00       		.byte	0
 2320 027e 09       		.uleb128 0x9
 2321 027f 01       		.byte	0x1
 2322 0280 83030000 		.4byte	.LASF33
 2323 0284 01       		.byte	0x1
 2324 0285 1802     		.2byte	0x218
 2325 0287 01       		.byte	0x1
 2326 0288 00000000 		.4byte	.LFB10
 2327 028c 48000000 		.4byte	.LFE10
 2328 0290 18020000 		.4byte	.LLST10
 2329 0294 01       		.byte	0x1
 2330 0295 B8020000 		.4byte	0x2b8
 2331 0299 0B       		.uleb128 0xb
 2332 029a 9A030000 		.4byte	.LASF34
 2333 029e 01       		.byte	0x1
 2334 029f 1802     		.2byte	0x218
 2335 02a1 7A000000 		.4byte	0x7a
 2336 02a5 02       		.byte	0x2
 2337 02a6 91       		.byte	0x91
 2338 02a7 64       		.sleb128 -28
 2339 02a8 0A       		.uleb128 0xa
 2340 02a9 65040000 		.4byte	.LASF20
 2341 02ad 01       		.byte	0x1
 2342 02ae 1A02     		.2byte	0x21a
 2343 02b0 6F000000 		.4byte	0x6f
 2344 02b4 02       		.byte	0x2
 2345 02b5 91       		.byte	0x91
 2346 02b6 6F       		.sleb128 -17
 2347 02b7 00       		.byte	0
 2348 02b8 09       		.uleb128 0x9
 2349 02b9 01       		.byte	0x1
 2350 02ba 14020000 		.4byte	.LASF35
 2351 02be 01       		.byte	0x1
 2352 02bf 3902     		.2byte	0x239
 2353 02c1 01       		.byte	0x1
 2354 02c2 00000000 		.4byte	.LFB11
 2355 02c6 4C000000 		.4byte	.LFE11
 2356 02ca 50020000 		.4byte	.LLST11
 2357 02ce 01       		.byte	0x1
 2358 02cf F2020000 		.4byte	0x2f2
 2359 02d3 0B       		.uleb128 0xb
 2360 02d4 1B000000 		.4byte	.LASF36
 2361 02d8 01       		.byte	0x1
 2362 02d9 3902     		.2byte	0x239
 2363 02db 7A000000 		.4byte	0x7a
ARM GAS  C:\Users\OEBN\AppData\Local\Temp\cc2uhR5V.s 			page 67


 2364 02df 02       		.byte	0x2
 2365 02e0 91       		.byte	0x91
 2366 02e1 64       		.sleb128 -28
 2367 02e2 0A       		.uleb128 0xa
 2368 02e3 65040000 		.4byte	.LASF20
 2369 02e7 01       		.byte	0x1
 2370 02e8 3B02     		.2byte	0x23b
 2371 02ea 6F000000 		.4byte	0x6f
 2372 02ee 02       		.byte	0x2
 2373 02ef 91       		.byte	0x91
 2374 02f0 6F       		.sleb128 -17
 2375 02f1 00       		.byte	0
 2376 02f2 09       		.uleb128 0x9
 2377 02f3 01       		.byte	0x1
 2378 02f4 6B020000 		.4byte	.LASF37
 2379 02f8 01       		.byte	0x1
 2380 02f9 5A02     		.2byte	0x25a
 2381 02fb 01       		.byte	0x1
 2382 02fc 00000000 		.4byte	.LFB12
 2383 0300 48000000 		.4byte	.LFE12
 2384 0304 88020000 		.4byte	.LLST12
 2385 0308 01       		.byte	0x1
 2386 0309 2C030000 		.4byte	0x32c
 2387 030d 0B       		.uleb128 0xb
 2388 030e 62010000 		.4byte	.LASF38
 2389 0312 01       		.byte	0x1
 2390 0313 5A02     		.2byte	0x25a
 2391 0315 7A000000 		.4byte	0x7a
 2392 0319 02       		.byte	0x2
 2393 031a 91       		.byte	0x91
 2394 031b 64       		.sleb128 -28
 2395 031c 0A       		.uleb128 0xa
 2396 031d 65040000 		.4byte	.LASF20
 2397 0321 01       		.byte	0x1
 2398 0322 5C02     		.2byte	0x25c
 2399 0324 6F000000 		.4byte	0x6f
 2400 0328 02       		.byte	0x2
 2401 0329 91       		.byte	0x91
 2402 032a 6F       		.sleb128 -17
 2403 032b 00       		.byte	0
 2404 032c 0C       		.uleb128 0xc
 2405 032d 01       		.byte	0x1
 2406 032e A7010000 		.4byte	.LASF39
 2407 0332 01       		.byte	0x1
 2408 0333 7802     		.2byte	0x278
 2409 0335 01       		.byte	0x1
 2410 0336 00000000 		.4byte	.LFB13
 2411 033a 1C000000 		.4byte	.LFE13
 2412 033e C0020000 		.4byte	.LLST13
 2413 0342 01       		.byte	0x1
 2414 0343 57030000 		.4byte	0x357
 2415 0347 0B       		.uleb128 0xb
 2416 0348 00000000 		.4byte	.LASF40
 2417 034c 01       		.byte	0x1
 2418 034d 7802     		.2byte	0x278
 2419 034f 7A000000 		.4byte	0x7a
 2420 0353 02       		.byte	0x2
ARM GAS  C:\Users\OEBN\AppData\Local\Temp\cc2uhR5V.s 			page 68


 2421 0354 91       		.byte	0x91
 2422 0355 74       		.sleb128 -12
 2423 0356 00       		.byte	0
 2424 0357 0D       		.uleb128 0xd
 2425 0358 01       		.byte	0x1
 2426 0359 37040000 		.4byte	.LASF45
 2427 035d 01       		.byte	0x1
 2428 035e 8C02     		.2byte	0x28c
 2429 0360 01       		.byte	0x1
 2430 0361 7A000000 		.4byte	0x7a
 2431 0365 00000000 		.4byte	.LFB14
 2432 0369 18000000 		.4byte	.LFE14
 2433 036d F8020000 		.4byte	.LLST14
 2434 0371 01       		.byte	0x1
 2435 0372 09       		.uleb128 0x9
 2436 0373 01       		.byte	0x1
 2437 0374 02040000 		.4byte	.LASF41
 2438 0378 01       		.byte	0x1
 2439 0379 A902     		.2byte	0x2a9
 2440 037b 01       		.byte	0x1
 2441 037c 00000000 		.4byte	.LFB15
 2442 0380 48000000 		.4byte	.LFE15
 2443 0384 24030000 		.4byte	.LLST15
 2444 0388 01       		.byte	0x1
 2445 0389 AC030000 		.4byte	0x3ac
 2446 038d 0B       		.uleb128 0xb
 2447 038e 17040000 		.4byte	.LASF42
 2448 0392 01       		.byte	0x1
 2449 0393 A902     		.2byte	0x2a9
 2450 0395 7A000000 		.4byte	0x7a
 2451 0399 02       		.byte	0x2
 2452 039a 91       		.byte	0x91
 2453 039b 64       		.sleb128 -28
 2454 039c 0A       		.uleb128 0xa
 2455 039d 65040000 		.4byte	.LASF20
 2456 03a1 01       		.byte	0x1
 2457 03a2 AB02     		.2byte	0x2ab
 2458 03a4 6F000000 		.4byte	0x6f
 2459 03a8 02       		.byte	0x2
 2460 03a9 91       		.byte	0x91
 2461 03aa 6F       		.sleb128 -17
 2462 03ab 00       		.byte	0
 2463 03ac 0C       		.uleb128 0xc
 2464 03ad 01       		.byte	0x1
 2465 03ae 9C000000 		.4byte	.LASF43
 2466 03b2 01       		.byte	0x1
 2467 03b3 C602     		.2byte	0x2c6
 2468 03b5 01       		.byte	0x1
 2469 03b6 00000000 		.4byte	.LFB16
 2470 03ba 1C000000 		.4byte	.LFE16
 2471 03be 5C030000 		.4byte	.LLST16
 2472 03c2 01       		.byte	0x1
 2473 03c3 D7030000 		.4byte	0x3d7
 2474 03c7 0B       		.uleb128 0xb
 2475 03c8 3B000000 		.4byte	.LASF44
 2476 03cc 01       		.byte	0x1
 2477 03cd C602     		.2byte	0x2c6
ARM GAS  C:\Users\OEBN\AppData\Local\Temp\cc2uhR5V.s 			page 69


 2478 03cf 7A000000 		.4byte	0x7a
 2479 03d3 02       		.byte	0x2
 2480 03d4 91       		.byte	0x91
 2481 03d5 74       		.sleb128 -12
 2482 03d6 00       		.byte	0
 2483 03d7 0D       		.uleb128 0xd
 2484 03d8 01       		.byte	0x1
 2485 03d9 4D020000 		.4byte	.LASF46
 2486 03dd 01       		.byte	0x1
 2487 03de DA02     		.2byte	0x2da
 2488 03e0 01       		.byte	0x1
 2489 03e1 7A000000 		.4byte	0x7a
 2490 03e5 00000000 		.4byte	.LFB17
 2491 03e9 18000000 		.4byte	.LFE17
 2492 03ed 94030000 		.4byte	.LLST17
 2493 03f1 01       		.byte	0x1
 2494 03f2 09       		.uleb128 0x9
 2495 03f3 01       		.byte	0x1
 2496 03f4 06000000 		.4byte	.LASF47
 2497 03f8 01       		.byte	0x1
 2498 03f9 F402     		.2byte	0x2f4
 2499 03fb 01       		.byte	0x1
 2500 03fc 00000000 		.4byte	.LFB18
 2501 0400 48000000 		.4byte	.LFE18
 2502 0404 C0030000 		.4byte	.LLST18
 2503 0408 01       		.byte	0x1
 2504 0409 2C040000 		.4byte	0x42c
 2505 040d 0B       		.uleb128 0xb
 2506 040e C1040000 		.4byte	.LASF48
 2507 0412 01       		.byte	0x1
 2508 0413 F402     		.2byte	0x2f4
 2509 0415 7A000000 		.4byte	0x7a
 2510 0419 02       		.byte	0x2
 2511 041a 91       		.byte	0x91
 2512 041b 64       		.sleb128 -28
 2513 041c 0A       		.uleb128 0xa
 2514 041d 65040000 		.4byte	.LASF20
 2515 0421 01       		.byte	0x1
 2516 0422 F602     		.2byte	0x2f6
 2517 0424 6F000000 		.4byte	0x6f
 2518 0428 02       		.byte	0x2
 2519 0429 91       		.byte	0x91
 2520 042a 6F       		.sleb128 -17
 2521 042b 00       		.byte	0
 2522 042c 0C       		.uleb128 0xc
 2523 042d 01       		.byte	0x1
 2524 042e CE020000 		.4byte	.LASF49
 2525 0432 01       		.byte	0x1
 2526 0433 0F03     		.2byte	0x30f
 2527 0435 01       		.byte	0x1
 2528 0436 00000000 		.4byte	.LFB19
 2529 043a 1C000000 		.4byte	.LFE19
 2530 043e F8030000 		.4byte	.LLST19
 2531 0442 01       		.byte	0x1
 2532 0443 57040000 		.4byte	0x457
 2533 0447 0B       		.uleb128 0xb
 2534 0448 F8040000 		.4byte	.LASF50
ARM GAS  C:\Users\OEBN\AppData\Local\Temp\cc2uhR5V.s 			page 70


 2535 044c 01       		.byte	0x1
 2536 044d 0F03     		.2byte	0x30f
 2537 044f 7A000000 		.4byte	0x7a
 2538 0453 02       		.byte	0x2
 2539 0454 91       		.byte	0x91
 2540 0455 74       		.sleb128 -12
 2541 0456 00       		.byte	0
 2542 0457 0D       		.uleb128 0xd
 2543 0458 01       		.byte	0x1
 2544 0459 59000000 		.4byte	.LASF51
 2545 045d 01       		.byte	0x1
 2546 045e 2303     		.2byte	0x323
 2547 0460 01       		.byte	0x1
 2548 0461 7A000000 		.4byte	0x7a
 2549 0465 00000000 		.4byte	.LFB20
 2550 0469 18000000 		.4byte	.LFE20
 2551 046d 30040000 		.4byte	.LLST20
 2552 0471 01       		.byte	0x1
 2553 0472 09       		.uleb128 0x9
 2554 0473 01       		.byte	0x1
 2555 0474 D3000000 		.4byte	.LASF52
 2556 0478 01       		.byte	0x1
 2557 0479 3D03     		.2byte	0x33d
 2558 047b 01       		.byte	0x1
 2559 047c 00000000 		.4byte	.LFB21
 2560 0480 48000000 		.4byte	.LFE21
 2561 0484 5C040000 		.4byte	.LLST21
 2562 0488 01       		.byte	0x1
 2563 0489 AC040000 		.4byte	0x4ac
 2564 048d 0B       		.uleb128 0xb
 2565 048e C1040000 		.4byte	.LASF48
 2566 0492 01       		.byte	0x1
 2567 0493 3D03     		.2byte	0x33d
 2568 0495 7A000000 		.4byte	0x7a
 2569 0499 02       		.byte	0x2
 2570 049a 91       		.byte	0x91
 2571 049b 64       		.sleb128 -28
 2572 049c 0A       		.uleb128 0xa
 2573 049d 65040000 		.4byte	.LASF20
 2574 04a1 01       		.byte	0x1
 2575 04a2 3F03     		.2byte	0x33f
 2576 04a4 6F000000 		.4byte	0x6f
 2577 04a8 02       		.byte	0x2
 2578 04a9 91       		.byte	0x91
 2579 04aa 6F       		.sleb128 -17
 2580 04ab 00       		.byte	0
 2581 04ac 0C       		.uleb128 0xc
 2582 04ad 01       		.byte	0x1
 2583 04ae 05010000 		.4byte	.LASF53
 2584 04b2 01       		.byte	0x1
 2585 04b3 5A03     		.2byte	0x35a
 2586 04b5 01       		.byte	0x1
 2587 04b6 00000000 		.4byte	.LFB22
 2588 04ba 1C000000 		.4byte	.LFE22
 2589 04be 94040000 		.4byte	.LLST22
 2590 04c2 01       		.byte	0x1
 2591 04c3 D7040000 		.4byte	0x4d7
ARM GAS  C:\Users\OEBN\AppData\Local\Temp\cc2uhR5V.s 			page 71


 2592 04c7 0B       		.uleb128 0xb
 2593 04c8 E3020000 		.4byte	.LASF54
 2594 04cc 01       		.byte	0x1
 2595 04cd 5A03     		.2byte	0x35a
 2596 04cf 7A000000 		.4byte	0x7a
 2597 04d3 02       		.byte	0x2
 2598 04d4 91       		.byte	0x91
 2599 04d5 74       		.sleb128 -12
 2600 04d6 00       		.byte	0
 2601 04d7 0D       		.uleb128 0xd
 2602 04d8 01       		.byte	0x1
 2603 04d9 C5030000 		.4byte	.LASF55
 2604 04dd 01       		.byte	0x1
 2605 04de 8403     		.2byte	0x384
 2606 04e0 01       		.byte	0x1
 2607 04e1 7A000000 		.4byte	0x7a
 2608 04e5 00000000 		.4byte	.LFB23
 2609 04e9 18000000 		.4byte	.LFE23
 2610 04ed CC040000 		.4byte	.LLST23
 2611 04f1 01       		.byte	0x1
 2612 04f2 0C       		.uleb128 0xc
 2613 04f3 01       		.byte	0x1
 2614 04f4 37020000 		.4byte	.LASF56
 2615 04f8 01       		.byte	0x1
 2616 04f9 B003     		.2byte	0x3b0
 2617 04fb 01       		.byte	0x1
 2618 04fc 00000000 		.4byte	.LFB24
 2619 0500 1C000000 		.4byte	.LFE24
 2620 0504 F8040000 		.4byte	.LLST24
 2621 0508 01       		.byte	0x1
 2622 0509 1D050000 		.4byte	0x51d
 2623 050d 0B       		.uleb128 0xb
 2624 050e 49040000 		.4byte	.LASF57
 2625 0512 01       		.byte	0x1
 2626 0513 B003     		.2byte	0x3b0
 2627 0515 7A000000 		.4byte	0x7a
 2628 0519 02       		.byte	0x2
 2629 051a 91       		.byte	0x91
 2630 051b 74       		.sleb128 -12
 2631 051c 00       		.byte	0
 2632 051d 0D       		.uleb128 0xd
 2633 051e 01       		.byte	0x1
 2634 051f E7000000 		.4byte	.LASF58
 2635 0523 01       		.byte	0x1
 2636 0524 DA03     		.2byte	0x3da
 2637 0526 01       		.byte	0x1
 2638 0527 7A000000 		.4byte	0x7a
 2639 052b 00000000 		.4byte	.LFB25
 2640 052f 18000000 		.4byte	.LFE25
 2641 0533 30050000 		.4byte	.LLST25
 2642 0537 01       		.byte	0x1
 2643 0538 0D       		.uleb128 0xd
 2644 0539 01       		.byte	0x1
 2645 053a 67010000 		.4byte	.LASF59
 2646 053e 01       		.byte	0x1
 2647 053f 0604     		.2byte	0x406
 2648 0541 01       		.byte	0x1
ARM GAS  C:\Users\OEBN\AppData\Local\Temp\cc2uhR5V.s 			page 72


 2649 0542 7A000000 		.4byte	0x7a
 2650 0546 00000000 		.4byte	.LFB26
 2651 054a 18000000 		.4byte	.LFE26
 2652 054e 5C050000 		.4byte	.LLST26
 2653 0552 01       		.byte	0x1
 2654 0553 0D       		.uleb128 0xd
 2655 0554 01       		.byte	0x1
 2656 0555 60030000 		.4byte	.LASF60
 2657 0559 01       		.byte	0x1
 2658 055a 1B04     		.2byte	0x41b
 2659 055c 01       		.byte	0x1
 2660 055d 7A000000 		.4byte	0x7a
 2661 0561 00000000 		.4byte	.LFB27
 2662 0565 18000000 		.4byte	.LFE27
 2663 0569 88050000 		.4byte	.LLST27
 2664 056d 01       		.byte	0x1
 2665 056e 09       		.uleb128 0x9
 2666 056f 01       		.byte	0x1
 2667 0570 8D040000 		.4byte	.LASF61
 2668 0574 01       		.byte	0x1
 2669 0575 3604     		.2byte	0x436
 2670 0577 01       		.byte	0x1
 2671 0578 00000000 		.4byte	.LFB28
 2672 057c 44000000 		.4byte	.LFE28
 2673 0580 B4050000 		.4byte	.LLST28
 2674 0584 01       		.byte	0x1
 2675 0585 A8050000 		.4byte	0x5a8
 2676 0589 0B       		.uleb128 0xb
 2677 058a 56010000 		.4byte	.LASF62
 2678 058e 01       		.byte	0x1
 2679 058f 3604     		.2byte	0x436
 2680 0591 7A000000 		.4byte	0x7a
 2681 0595 02       		.byte	0x2
 2682 0596 91       		.byte	0x91
 2683 0597 64       		.sleb128 -28
 2684 0598 0A       		.uleb128 0xa
 2685 0599 65040000 		.4byte	.LASF20
 2686 059d 01       		.byte	0x1
 2687 059e 3804     		.2byte	0x438
 2688 05a0 6F000000 		.4byte	0x6f
 2689 05a4 02       		.byte	0x2
 2690 05a5 91       		.byte	0x91
 2691 05a6 6F       		.sleb128 -17
 2692 05a7 00       		.byte	0
 2693 05a8 09       		.uleb128 0x9
 2694 05a9 01       		.byte	0x1
 2695 05aa 23040000 		.4byte	.LASF63
 2696 05ae 01       		.byte	0x1
 2697 05af 5704     		.2byte	0x457
 2698 05b1 01       		.byte	0x1
 2699 05b2 00000000 		.4byte	.LFB29
 2700 05b6 44000000 		.4byte	.LFE29
 2701 05ba EC050000 		.4byte	.LLST29
 2702 05be 01       		.byte	0x1
 2703 05bf E2050000 		.4byte	0x5e2
 2704 05c3 0B       		.uleb128 0xb
 2705 05c4 56010000 		.4byte	.LASF62
ARM GAS  C:\Users\OEBN\AppData\Local\Temp\cc2uhR5V.s 			page 73


 2706 05c8 01       		.byte	0x1
 2707 05c9 5704     		.2byte	0x457
 2708 05cb 7A000000 		.4byte	0x7a
 2709 05cf 02       		.byte	0x2
 2710 05d0 91       		.byte	0x91
 2711 05d1 64       		.sleb128 -28
 2712 05d2 0A       		.uleb128 0xa
 2713 05d3 65040000 		.4byte	.LASF20
 2714 05d7 01       		.byte	0x1
 2715 05d8 5904     		.2byte	0x459
 2716 05da 6F000000 		.4byte	0x6f
 2717 05de 02       		.byte	0x2
 2718 05df 91       		.byte	0x91
 2719 05e0 6F       		.sleb128 -17
 2720 05e1 00       		.byte	0
 2721 05e2 09       		.uleb128 0x9
 2722 05e3 01       		.byte	0x1
 2723 05e4 84020000 		.4byte	.LASF64
 2724 05e8 01       		.byte	0x1
 2725 05e9 7804     		.2byte	0x478
 2726 05eb 01       		.byte	0x1
 2727 05ec 00000000 		.4byte	.LFB30
 2728 05f0 48000000 		.4byte	.LFE30
 2729 05f4 24060000 		.4byte	.LLST30
 2730 05f8 01       		.byte	0x1
 2731 05f9 1C060000 		.4byte	0x61c
 2732 05fd 0B       		.uleb128 0xb
 2733 05fe 56010000 		.4byte	.LASF62
 2734 0602 01       		.byte	0x1
 2735 0603 7804     		.2byte	0x478
 2736 0605 7A000000 		.4byte	0x7a
 2737 0609 02       		.byte	0x2
 2738 060a 91       		.byte	0x91
 2739 060b 64       		.sleb128 -28
 2740 060c 0A       		.uleb128 0xa
 2741 060d 65040000 		.4byte	.LASF20
 2742 0611 01       		.byte	0x1
 2743 0612 7A04     		.2byte	0x47a
 2744 0614 6F000000 		.4byte	0x6f
 2745 0618 02       		.byte	0x2
 2746 0619 91       		.byte	0x91
 2747 061a 6F       		.sleb128 -17
 2748 061b 00       		.byte	0
 2749 061c 09       		.uleb128 0x9
 2750 061d 01       		.byte	0x1
 2751 061e 02050000 		.4byte	.LASF65
 2752 0622 01       		.byte	0x1
 2753 0623 9804     		.2byte	0x498
 2754 0625 01       		.byte	0x1
 2755 0626 00000000 		.4byte	.LFB31
 2756 062a 44000000 		.4byte	.LFE31
 2757 062e 5C060000 		.4byte	.LLST31
 2758 0632 01       		.byte	0x1
 2759 0633 56060000 		.4byte	0x656
 2760 0637 0B       		.uleb128 0xb
 2761 0638 56010000 		.4byte	.LASF62
 2762 063c 01       		.byte	0x1
ARM GAS  C:\Users\OEBN\AppData\Local\Temp\cc2uhR5V.s 			page 74


 2763 063d 9804     		.2byte	0x498
 2764 063f 7A000000 		.4byte	0x7a
 2765 0643 02       		.byte	0x2
 2766 0644 91       		.byte	0x91
 2767 0645 64       		.sleb128 -28
 2768 0646 0A       		.uleb128 0xa
 2769 0647 65040000 		.4byte	.LASF20
 2770 064b 01       		.byte	0x1
 2771 064c 9A04     		.2byte	0x49a
 2772 064e 6F000000 		.4byte	0x6f
 2773 0652 02       		.byte	0x2
 2774 0653 91       		.byte	0x91
 2775 0654 6F       		.sleb128 -17
 2776 0655 00       		.byte	0
 2777 0656 09       		.uleb128 0x9
 2778 0657 01       		.byte	0x1
 2779 0658 6D000000 		.4byte	.LASF66
 2780 065c 01       		.byte	0x1
 2781 065d B904     		.2byte	0x4b9
 2782 065f 01       		.byte	0x1
 2783 0660 00000000 		.4byte	.LFB32
 2784 0664 44000000 		.4byte	.LFE32
 2785 0668 94060000 		.4byte	.LLST32
 2786 066c 01       		.byte	0x1
 2787 066d 90060000 		.4byte	0x690
 2788 0671 0B       		.uleb128 0xb
 2789 0672 56010000 		.4byte	.LASF62
 2790 0676 01       		.byte	0x1
 2791 0677 B904     		.2byte	0x4b9
 2792 0679 7A000000 		.4byte	0x7a
 2793 067d 02       		.byte	0x2
 2794 067e 91       		.byte	0x91
 2795 067f 64       		.sleb128 -28
 2796 0680 0A       		.uleb128 0xa
 2797 0681 65040000 		.4byte	.LASF20
 2798 0685 01       		.byte	0x1
 2799 0686 BB04     		.2byte	0x4bb
 2800 0688 6F000000 		.4byte	0x6f
 2801 068c 02       		.byte	0x2
 2802 068d 91       		.byte	0x91
 2803 068e 6F       		.sleb128 -17
 2804 068f 00       		.byte	0
 2805 0690 09       		.uleb128 0x9
 2806 0691 01       		.byte	0x1
 2807 0692 25010000 		.4byte	.LASF67
 2808 0696 01       		.byte	0x1
 2809 0697 E104     		.2byte	0x4e1
 2810 0699 01       		.byte	0x1
 2811 069a 00000000 		.4byte	.LFB33
 2812 069e 3C000000 		.4byte	.LFE33
 2813 06a2 CC060000 		.4byte	.LLST33
 2814 06a6 01       		.byte	0x1
 2815 06a7 D9060000 		.4byte	0x6d9
 2816 06ab 0B       		.uleb128 0xb
 2817 06ac 62010000 		.4byte	.LASF38
 2818 06b0 01       		.byte	0x1
 2819 06b1 E104     		.2byte	0x4e1
ARM GAS  C:\Users\OEBN\AppData\Local\Temp\cc2uhR5V.s 			page 75


 2820 06b3 7A000000 		.4byte	0x7a
 2821 06b7 02       		.byte	0x2
 2822 06b8 91       		.byte	0x91
 2823 06b9 64       		.sleb128 -28
 2824 06ba 0B       		.uleb128 0xb
 2825 06bb BA010000 		.4byte	.LASF68
 2826 06bf 01       		.byte	0x1
 2827 06c0 E104     		.2byte	0x4e1
 2828 06c2 7A000000 		.4byte	0x7a
 2829 06c6 02       		.byte	0x2
 2830 06c7 91       		.byte	0x91
 2831 06c8 60       		.sleb128 -32
 2832 06c9 0A       		.uleb128 0xa
 2833 06ca 65040000 		.4byte	.LASF20
 2834 06ce 01       		.byte	0x1
 2835 06cf E304     		.2byte	0x4e3
 2836 06d1 6F000000 		.4byte	0x6f
 2837 06d5 02       		.byte	0x2
 2838 06d6 91       		.byte	0x91
 2839 06d7 6F       		.sleb128 -17
 2840 06d8 00       		.byte	0
 2841 06d9 0D       		.uleb128 0xd
 2842 06da 01       		.byte	0x1
 2843 06db 54040000 		.4byte	.LASF69
 2844 06df 01       		.byte	0x1
 2845 06e0 FE04     		.2byte	0x4fe
 2846 06e2 01       		.byte	0x1
 2847 06e3 7A000000 		.4byte	0x7a
 2848 06e7 00000000 		.4byte	.LFB34
 2849 06eb 20000000 		.4byte	.LFE34
 2850 06ef 04070000 		.4byte	.LLST34
 2851 06f3 01       		.byte	0x1
 2852 06f4 0C       		.uleb128 0xc
 2853 06f5 01       		.byte	0x1
 2854 06f6 76040000 		.4byte	.LASF70
 2855 06fa 01       		.byte	0x1
 2856 06fb 1705     		.2byte	0x517
 2857 06fd 01       		.byte	0x1
 2858 06fe 00000000 		.4byte	.LFB35
 2859 0702 18000000 		.4byte	.LFE35
 2860 0706 30070000 		.4byte	.LLST35
 2861 070a 01       		.byte	0x1
 2862 070b 1F070000 		.4byte	0x71f
 2863 070f 0B       		.uleb128 0xb
 2864 0710 D7030000 		.4byte	.LASF71
 2865 0714 01       		.byte	0x1
 2866 0715 1705     		.2byte	0x517
 2867 0717 7A000000 		.4byte	0x7a
 2868 071b 02       		.byte	0x2
 2869 071c 91       		.byte	0x91
 2870 071d 74       		.sleb128 -12
 2871 071e 00       		.byte	0
 2872 071f 0D       		.uleb128 0xd
 2873 0720 01       		.byte	0x1
 2874 0721 A2040000 		.4byte	.LASF72
 2875 0725 01       		.byte	0x1
 2876 0726 2E05     		.2byte	0x52e
ARM GAS  C:\Users\OEBN\AppData\Local\Temp\cc2uhR5V.s 			page 76


 2877 0728 01       		.byte	0x1
 2878 0729 7A000000 		.4byte	0x7a
 2879 072d 00000000 		.4byte	.LFB36
 2880 0731 14000000 		.4byte	.LFE36
 2881 0735 68070000 		.4byte	.LLST36
 2882 0739 01       		.byte	0x1
 2883 073a 0D       		.uleb128 0xd
 2884 073b 01       		.byte	0x1
 2885 073c CC040000 		.4byte	.LASF73
 2886 0740 01       		.byte	0x1
 2887 0741 4505     		.2byte	0x545
 2888 0743 01       		.byte	0x1
 2889 0744 7A000000 		.4byte	0x7a
 2890 0748 00000000 		.4byte	.LFB37
 2891 074c 14000000 		.4byte	.LFE37
 2892 0750 94070000 		.4byte	.LLST37
 2893 0754 01       		.byte	0x1
 2894 0755 0C       		.uleb128 0xc
 2895 0756 01       		.byte	0x1
 2896 0757 3A010000 		.4byte	.LASF74
 2897 075b 01       		.byte	0x1
 2898 075c 5C05     		.2byte	0x55c
 2899 075e 01       		.byte	0x1
 2900 075f 00000000 		.4byte	.LFB38
 2901 0763 18000000 		.4byte	.LFE38
 2902 0767 C0070000 		.4byte	.LLST38
 2903 076b 01       		.byte	0x1
 2904 076c 80070000 		.4byte	0x780
 2905 0770 0B       		.uleb128 0xb
 2906 0771 D7030000 		.4byte	.LASF71
 2907 0775 01       		.byte	0x1
 2908 0776 5C05     		.2byte	0x55c
 2909 0778 7A000000 		.4byte	0x7a
 2910 077c 02       		.byte	0x2
 2911 077d 91       		.byte	0x91
 2912 077e 74       		.sleb128 -12
 2913 077f 00       		.byte	0
 2914 0780 0C       		.uleb128 0xc
 2915 0781 01       		.byte	0x1
 2916 0782 E5030000 		.4byte	.LASF75
 2917 0786 01       		.byte	0x1
 2918 0787 7305     		.2byte	0x573
 2919 0789 01       		.byte	0x1
 2920 078a 00000000 		.4byte	.LFB39
 2921 078e 18000000 		.4byte	.LFE39
 2922 0792 F8070000 		.4byte	.LLST39
 2923 0796 01       		.byte	0x1
 2924 0797 AB070000 		.4byte	0x7ab
 2925 079b 0B       		.uleb128 0xb
 2926 079c D7030000 		.4byte	.LASF71
 2927 07a0 01       		.byte	0x1
 2928 07a1 7305     		.2byte	0x573
 2929 07a3 7A000000 		.4byte	0x7a
 2930 07a7 02       		.byte	0x2
 2931 07a8 91       		.byte	0x91
 2932 07a9 74       		.sleb128 -12
 2933 07aa 00       		.byte	0
ARM GAS  C:\Users\OEBN\AppData\Local\Temp\cc2uhR5V.s 			page 77


 2934 07ab 0E       		.uleb128 0xe
 2935 07ac 24000000 		.4byte	.LASF79
 2936 07b0 01       		.byte	0x1
 2937 07b1 16       		.byte	0x16
 2938 07b2 6F000000 		.4byte	0x6f
 2939 07b6 01       		.byte	0x1
 2940 07b7 05       		.byte	0x5
 2941 07b8 03       		.byte	0x3
 2942 07b9 00000000 		.4byte	PWM_2_initVar
 2943 07bd 00       		.byte	0
 2944              		.section	.debug_abbrev,"",%progbits
 2945              	.Ldebug_abbrev0:
 2946 0000 01       		.uleb128 0x1
 2947 0001 11       		.uleb128 0x11
 2948 0002 01       		.byte	0x1
 2949 0003 25       		.uleb128 0x25
 2950 0004 0E       		.uleb128 0xe
 2951 0005 13       		.uleb128 0x13
 2952 0006 0B       		.uleb128 0xb
 2953 0007 03       		.uleb128 0x3
 2954 0008 0E       		.uleb128 0xe
 2955 0009 1B       		.uleb128 0x1b
 2956 000a 0E       		.uleb128 0xe
 2957 000b 55       		.uleb128 0x55
 2958 000c 06       		.uleb128 0x6
 2959 000d 11       		.uleb128 0x11
 2960 000e 01       		.uleb128 0x1
 2961 000f 52       		.uleb128 0x52
 2962 0010 01       		.uleb128 0x1
 2963 0011 10       		.uleb128 0x10
 2964 0012 06       		.uleb128 0x6
 2965 0013 00       		.byte	0
 2966 0014 00       		.byte	0
 2967 0015 02       		.uleb128 0x2
 2968 0016 24       		.uleb128 0x24
 2969 0017 00       		.byte	0
 2970 0018 0B       		.uleb128 0xb
 2971 0019 0B       		.uleb128 0xb
 2972 001a 3E       		.uleb128 0x3e
 2973 001b 0B       		.uleb128 0xb
 2974 001c 03       		.uleb128 0x3
 2975 001d 0E       		.uleb128 0xe
 2976 001e 00       		.byte	0
 2977 001f 00       		.byte	0
 2978 0020 03       		.uleb128 0x3
 2979 0021 24       		.uleb128 0x24
 2980 0022 00       		.byte	0
 2981 0023 0B       		.uleb128 0xb
 2982 0024 0B       		.uleb128 0xb
 2983 0025 3E       		.uleb128 0x3e
 2984 0026 0B       		.uleb128 0xb
 2985 0027 03       		.uleb128 0x3
 2986 0028 08       		.uleb128 0x8
 2987 0029 00       		.byte	0
 2988 002a 00       		.byte	0
 2989 002b 04       		.uleb128 0x4
 2990 002c 16       		.uleb128 0x16
ARM GAS  C:\Users\OEBN\AppData\Local\Temp\cc2uhR5V.s 			page 78


 2991 002d 00       		.byte	0
 2992 002e 03       		.uleb128 0x3
 2993 002f 0E       		.uleb128 0xe
 2994 0030 3A       		.uleb128 0x3a
 2995 0031 0B       		.uleb128 0xb
 2996 0032 3B       		.uleb128 0x3b
 2997 0033 0B       		.uleb128 0xb
 2998 0034 49       		.uleb128 0x49
 2999 0035 13       		.uleb128 0x13
 3000 0036 00       		.byte	0
 3001 0037 00       		.byte	0
 3002 0038 05       		.uleb128 0x5
 3003 0039 35       		.uleb128 0x35
 3004 003a 00       		.byte	0
 3005 003b 49       		.uleb128 0x49
 3006 003c 13       		.uleb128 0x13
 3007 003d 00       		.byte	0
 3008 003e 00       		.byte	0
 3009 003f 06       		.uleb128 0x6
 3010 0040 2E       		.uleb128 0x2e
 3011 0041 00       		.byte	0
 3012 0042 3F       		.uleb128 0x3f
 3013 0043 0C       		.uleb128 0xc
 3014 0044 03       		.uleb128 0x3
 3015 0045 0E       		.uleb128 0xe
 3016 0046 3A       		.uleb128 0x3a
 3017 0047 0B       		.uleb128 0xb
 3018 0048 3B       		.uleb128 0x3b
 3019 0049 0B       		.uleb128 0xb
 3020 004a 27       		.uleb128 0x27
 3021 004b 0C       		.uleb128 0xc
 3022 004c 11       		.uleb128 0x11
 3023 004d 01       		.uleb128 0x1
 3024 004e 12       		.uleb128 0x12
 3025 004f 01       		.uleb128 0x1
 3026 0050 40       		.uleb128 0x40
 3027 0051 06       		.uleb128 0x6
 3028 0052 9642     		.uleb128 0x2116
 3029 0054 0C       		.uleb128 0xc
 3030 0055 00       		.byte	0
 3031 0056 00       		.byte	0
 3032 0057 07       		.uleb128 0x7
 3033 0058 2E       		.uleb128 0x2e
 3034 0059 01       		.byte	0x1
 3035 005a 3F       		.uleb128 0x3f
 3036 005b 0C       		.uleb128 0xc
 3037 005c 03       		.uleb128 0x3
 3038 005d 0E       		.uleb128 0xe
 3039 005e 3A       		.uleb128 0x3a
 3040 005f 0B       		.uleb128 0xb
 3041 0060 3B       		.uleb128 0x3b
 3042 0061 0B       		.uleb128 0xb
 3043 0062 27       		.uleb128 0x27
 3044 0063 0C       		.uleb128 0xc
 3045 0064 11       		.uleb128 0x11
 3046 0065 01       		.uleb128 0x1
 3047 0066 12       		.uleb128 0x12
ARM GAS  C:\Users\OEBN\AppData\Local\Temp\cc2uhR5V.s 			page 79


 3048 0067 01       		.uleb128 0x1
 3049 0068 40       		.uleb128 0x40
 3050 0069 06       		.uleb128 0x6
 3051 006a 9642     		.uleb128 0x2116
 3052 006c 0C       		.uleb128 0xc
 3053 006d 01       		.uleb128 0x1
 3054 006e 13       		.uleb128 0x13
 3055 006f 00       		.byte	0
 3056 0070 00       		.byte	0
 3057 0071 08       		.uleb128 0x8
 3058 0072 34       		.uleb128 0x34
 3059 0073 00       		.byte	0
 3060 0074 03       		.uleb128 0x3
 3061 0075 0E       		.uleb128 0xe
 3062 0076 3A       		.uleb128 0x3a
 3063 0077 0B       		.uleb128 0xb
 3064 0078 3B       		.uleb128 0x3b
 3065 0079 0B       		.uleb128 0xb
 3066 007a 49       		.uleb128 0x49
 3067 007b 13       		.uleb128 0x13
 3068 007c 02       		.uleb128 0x2
 3069 007d 0A       		.uleb128 0xa
 3070 007e 00       		.byte	0
 3071 007f 00       		.byte	0
 3072 0080 09       		.uleb128 0x9
 3073 0081 2E       		.uleb128 0x2e
 3074 0082 01       		.byte	0x1
 3075 0083 3F       		.uleb128 0x3f
 3076 0084 0C       		.uleb128 0xc
 3077 0085 03       		.uleb128 0x3
 3078 0086 0E       		.uleb128 0xe
 3079 0087 3A       		.uleb128 0x3a
 3080 0088 0B       		.uleb128 0xb
 3081 0089 3B       		.uleb128 0x3b
 3082 008a 05       		.uleb128 0x5
 3083 008b 27       		.uleb128 0x27
 3084 008c 0C       		.uleb128 0xc
 3085 008d 11       		.uleb128 0x11
 3086 008e 01       		.uleb128 0x1
 3087 008f 12       		.uleb128 0x12
 3088 0090 01       		.uleb128 0x1
 3089 0091 40       		.uleb128 0x40
 3090 0092 06       		.uleb128 0x6
 3091 0093 9642     		.uleb128 0x2116
 3092 0095 0C       		.uleb128 0xc
 3093 0096 01       		.uleb128 0x1
 3094 0097 13       		.uleb128 0x13
 3095 0098 00       		.byte	0
 3096 0099 00       		.byte	0
 3097 009a 0A       		.uleb128 0xa
 3098 009b 34       		.uleb128 0x34
 3099 009c 00       		.byte	0
 3100 009d 03       		.uleb128 0x3
 3101 009e 0E       		.uleb128 0xe
 3102 009f 3A       		.uleb128 0x3a
 3103 00a0 0B       		.uleb128 0xb
 3104 00a1 3B       		.uleb128 0x3b
ARM GAS  C:\Users\OEBN\AppData\Local\Temp\cc2uhR5V.s 			page 80


 3105 00a2 05       		.uleb128 0x5
 3106 00a3 49       		.uleb128 0x49
 3107 00a4 13       		.uleb128 0x13
 3108 00a5 02       		.uleb128 0x2
 3109 00a6 0A       		.uleb128 0xa
 3110 00a7 00       		.byte	0
 3111 00a8 00       		.byte	0
 3112 00a9 0B       		.uleb128 0xb
 3113 00aa 05       		.uleb128 0x5
 3114 00ab 00       		.byte	0
 3115 00ac 03       		.uleb128 0x3
 3116 00ad 0E       		.uleb128 0xe
 3117 00ae 3A       		.uleb128 0x3a
 3118 00af 0B       		.uleb128 0xb
 3119 00b0 3B       		.uleb128 0x3b
 3120 00b1 05       		.uleb128 0x5
 3121 00b2 49       		.uleb128 0x49
 3122 00b3 13       		.uleb128 0x13
 3123 00b4 02       		.uleb128 0x2
 3124 00b5 0A       		.uleb128 0xa
 3125 00b6 00       		.byte	0
 3126 00b7 00       		.byte	0
 3127 00b8 0C       		.uleb128 0xc
 3128 00b9 2E       		.uleb128 0x2e
 3129 00ba 01       		.byte	0x1
 3130 00bb 3F       		.uleb128 0x3f
 3131 00bc 0C       		.uleb128 0xc
 3132 00bd 03       		.uleb128 0x3
 3133 00be 0E       		.uleb128 0xe
 3134 00bf 3A       		.uleb128 0x3a
 3135 00c0 0B       		.uleb128 0xb
 3136 00c1 3B       		.uleb128 0x3b
 3137 00c2 05       		.uleb128 0x5
 3138 00c3 27       		.uleb128 0x27
 3139 00c4 0C       		.uleb128 0xc
 3140 00c5 11       		.uleb128 0x11
 3141 00c6 01       		.uleb128 0x1
 3142 00c7 12       		.uleb128 0x12
 3143 00c8 01       		.uleb128 0x1
 3144 00c9 40       		.uleb128 0x40
 3145 00ca 06       		.uleb128 0x6
 3146 00cb 9742     		.uleb128 0x2117
 3147 00cd 0C       		.uleb128 0xc
 3148 00ce 01       		.uleb128 0x1
 3149 00cf 13       		.uleb128 0x13
 3150 00d0 00       		.byte	0
 3151 00d1 00       		.byte	0
 3152 00d2 0D       		.uleb128 0xd
 3153 00d3 2E       		.uleb128 0x2e
 3154 00d4 00       		.byte	0
 3155 00d5 3F       		.uleb128 0x3f
 3156 00d6 0C       		.uleb128 0xc
 3157 00d7 03       		.uleb128 0x3
 3158 00d8 0E       		.uleb128 0xe
 3159 00d9 3A       		.uleb128 0x3a
 3160 00da 0B       		.uleb128 0xb
 3161 00db 3B       		.uleb128 0x3b
ARM GAS  C:\Users\OEBN\AppData\Local\Temp\cc2uhR5V.s 			page 81


 3162 00dc 05       		.uleb128 0x5
 3163 00dd 27       		.uleb128 0x27
 3164 00de 0C       		.uleb128 0xc
 3165 00df 49       		.uleb128 0x49
 3166 00e0 13       		.uleb128 0x13
 3167 00e1 11       		.uleb128 0x11
 3168 00e2 01       		.uleb128 0x1
 3169 00e3 12       		.uleb128 0x12
 3170 00e4 01       		.uleb128 0x1
 3171 00e5 40       		.uleb128 0x40
 3172 00e6 06       		.uleb128 0x6
 3173 00e7 9742     		.uleb128 0x2117
 3174 00e9 0C       		.uleb128 0xc
 3175 00ea 00       		.byte	0
 3176 00eb 00       		.byte	0
 3177 00ec 0E       		.uleb128 0xe
 3178 00ed 34       		.uleb128 0x34
 3179 00ee 00       		.byte	0
 3180 00ef 03       		.uleb128 0x3
 3181 00f0 0E       		.uleb128 0xe
 3182 00f1 3A       		.uleb128 0x3a
 3183 00f2 0B       		.uleb128 0xb
 3184 00f3 3B       		.uleb128 0x3b
 3185 00f4 0B       		.uleb128 0xb
 3186 00f5 49       		.uleb128 0x49
 3187 00f6 13       		.uleb128 0x13
 3188 00f7 3F       		.uleb128 0x3f
 3189 00f8 0C       		.uleb128 0xc
 3190 00f9 02       		.uleb128 0x2
 3191 00fa 0A       		.uleb128 0xa
 3192 00fb 00       		.byte	0
 3193 00fc 00       		.byte	0
 3194 00fd 00       		.byte	0
 3195              		.section	.debug_loc,"",%progbits
 3196              	.Ldebug_loc0:
 3197              	.LLST0:
 3198 0000 00000000 		.4byte	.LFB0
 3199 0004 02000000 		.4byte	.LCFI0
 3200 0008 0200     		.2byte	0x2
 3201 000a 7D       		.byte	0x7d
 3202 000b 00       		.sleb128 0
 3203 000c 02000000 		.4byte	.LCFI0
 3204 0010 04000000 		.4byte	.LCFI1
 3205 0014 0200     		.2byte	0x2
 3206 0016 7D       		.byte	0x7d
 3207 0017 08       		.sleb128 8
 3208 0018 04000000 		.4byte	.LCFI1
 3209 001c 58000000 		.4byte	.LFE0
 3210 0020 0200     		.2byte	0x2
 3211 0022 77       		.byte	0x77
 3212 0023 08       		.sleb128 8
 3213 0024 00000000 		.4byte	0
 3214 0028 00000000 		.4byte	0
 3215              	.LLST1:
 3216 002c 00000000 		.4byte	.LFB1
 3217 0030 02000000 		.4byte	.LCFI2
 3218 0034 0200     		.2byte	0x2
ARM GAS  C:\Users\OEBN\AppData\Local\Temp\cc2uhR5V.s 			page 82


 3219 0036 7D       		.byte	0x7d
 3220 0037 00       		.sleb128 0
 3221 0038 02000000 		.4byte	.LCFI2
 3222 003c 04000000 		.4byte	.LCFI3
 3223 0040 0200     		.2byte	0x2
 3224 0042 7D       		.byte	0x7d
 3225 0043 0C       		.sleb128 12
 3226 0044 04000000 		.4byte	.LCFI3
 3227 0048 06000000 		.4byte	.LCFI4
 3228 004c 0200     		.2byte	0x2
 3229 004e 7D       		.byte	0x7d
 3230 004f 18       		.sleb128 24
 3231 0050 06000000 		.4byte	.LCFI4
 3232 0054 38000000 		.4byte	.LFE1
 3233 0058 0200     		.2byte	0x2
 3234 005a 77       		.byte	0x77
 3235 005b 18       		.sleb128 24
 3236 005c 00000000 		.4byte	0
 3237 0060 00000000 		.4byte	0
 3238              	.LLST2:
 3239 0064 00000000 		.4byte	.LFB2
 3240 0068 02000000 		.4byte	.LCFI5
 3241 006c 0200     		.2byte	0x2
 3242 006e 7D       		.byte	0x7d
 3243 006f 00       		.sleb128 0
 3244 0070 02000000 		.4byte	.LCFI5
 3245 0074 04000000 		.4byte	.LCFI6
 3246 0078 0200     		.2byte	0x2
 3247 007a 7D       		.byte	0x7d
 3248 007b 08       		.sleb128 8
 3249 007c 04000000 		.4byte	.LCFI6
 3250 0080 24000000 		.4byte	.LFE2
 3251 0084 0200     		.2byte	0x2
 3252 0086 77       		.byte	0x77
 3253 0087 08       		.sleb128 8
 3254 0088 00000000 		.4byte	0
 3255 008c 00000000 		.4byte	0
 3256              	.LLST3:
 3257 0090 00000000 		.4byte	.LFB3
 3258 0094 02000000 		.4byte	.LCFI7
 3259 0098 0200     		.2byte	0x2
 3260 009a 7D       		.byte	0x7d
 3261 009b 00       		.sleb128 0
 3262 009c 02000000 		.4byte	.LCFI7
 3263 00a0 04000000 		.4byte	.LCFI8
 3264 00a4 0200     		.2byte	0x2
 3265 00a6 7D       		.byte	0x7d
 3266 00a7 0C       		.sleb128 12
 3267 00a8 04000000 		.4byte	.LCFI8
 3268 00ac 06000000 		.4byte	.LCFI9
 3269 00b0 0200     		.2byte	0x2
 3270 00b2 7D       		.byte	0x7d
 3271 00b3 18       		.sleb128 24
 3272 00b4 06000000 		.4byte	.LCFI9
 3273 00b8 30000000 		.4byte	.LFE3
 3274 00bc 0200     		.2byte	0x2
 3275 00be 77       		.byte	0x77
ARM GAS  C:\Users\OEBN\AppData\Local\Temp\cc2uhR5V.s 			page 83


 3276 00bf 18       		.sleb128 24
 3277 00c0 00000000 		.4byte	0
 3278 00c4 00000000 		.4byte	0
 3279              	.LLST4:
 3280 00c8 00000000 		.4byte	.LFB4
 3281 00cc 02000000 		.4byte	.LCFI10
 3282 00d0 0200     		.2byte	0x2
 3283 00d2 7D       		.byte	0x7d
 3284 00d3 00       		.sleb128 0
 3285 00d4 02000000 		.4byte	.LCFI10
 3286 00d8 04000000 		.4byte	.LCFI11
 3287 00dc 0200     		.2byte	0x2
 3288 00de 7D       		.byte	0x7d
 3289 00df 0C       		.sleb128 12
 3290 00e0 04000000 		.4byte	.LCFI11
 3291 00e4 06000000 		.4byte	.LCFI12
 3292 00e8 0200     		.2byte	0x2
 3293 00ea 7D       		.byte	0x7d
 3294 00eb 20       		.sleb128 32
 3295 00ec 06000000 		.4byte	.LCFI12
 3296 00f0 48000000 		.4byte	.LFE4
 3297 00f4 0200     		.2byte	0x2
 3298 00f6 77       		.byte	0x77
 3299 00f7 20       		.sleb128 32
 3300 00f8 00000000 		.4byte	0
 3301 00fc 00000000 		.4byte	0
 3302              	.LLST5:
 3303 0100 00000000 		.4byte	.LFB5
 3304 0104 02000000 		.4byte	.LCFI13
 3305 0108 0200     		.2byte	0x2
 3306 010a 7D       		.byte	0x7d
 3307 010b 00       		.sleb128 0
 3308 010c 02000000 		.4byte	.LCFI13
 3309 0110 04000000 		.4byte	.LCFI14
 3310 0114 0200     		.2byte	0x2
 3311 0116 7D       		.byte	0x7d
 3312 0117 0C       		.sleb128 12
 3313 0118 04000000 		.4byte	.LCFI14
 3314 011c 06000000 		.4byte	.LCFI15
 3315 0120 0200     		.2byte	0x2
 3316 0122 7D       		.byte	0x7d
 3317 0123 20       		.sleb128 32
 3318 0124 06000000 		.4byte	.LCFI15
 3319 0128 48000000 		.4byte	.LFE5
 3320 012c 0200     		.2byte	0x2
 3321 012e 77       		.byte	0x77
 3322 012f 20       		.sleb128 32
 3323 0130 00000000 		.4byte	0
 3324 0134 00000000 		.4byte	0
 3325              	.LLST6:
 3326 0138 00000000 		.4byte	.LFB6
 3327 013c 02000000 		.4byte	.LCFI16
 3328 0140 0200     		.2byte	0x2
 3329 0142 7D       		.byte	0x7d
 3330 0143 00       		.sleb128 0
 3331 0144 02000000 		.4byte	.LCFI16
 3332 0148 04000000 		.4byte	.LCFI17
ARM GAS  C:\Users\OEBN\AppData\Local\Temp\cc2uhR5V.s 			page 84


 3333 014c 0200     		.2byte	0x2
 3334 014e 7D       		.byte	0x7d
 3335 014f 0C       		.sleb128 12
 3336 0150 04000000 		.4byte	.LCFI17
 3337 0154 06000000 		.4byte	.LCFI18
 3338 0158 0200     		.2byte	0x2
 3339 015a 7D       		.byte	0x7d
 3340 015b 20       		.sleb128 32
 3341 015c 06000000 		.4byte	.LCFI18
 3342 0160 48000000 		.4byte	.LFE6
 3343 0164 0200     		.2byte	0x2
 3344 0166 77       		.byte	0x77
 3345 0167 20       		.sleb128 32
 3346 0168 00000000 		.4byte	0
 3347 016c 00000000 		.4byte	0
 3348              	.LLST7:
 3349 0170 00000000 		.4byte	.LFB7
 3350 0174 02000000 		.4byte	.LCFI19
 3351 0178 0200     		.2byte	0x2
 3352 017a 7D       		.byte	0x7d
 3353 017b 00       		.sleb128 0
 3354 017c 02000000 		.4byte	.LCFI19
 3355 0180 04000000 		.4byte	.LCFI20
 3356 0184 0200     		.2byte	0x2
 3357 0186 7D       		.byte	0x7d
 3358 0187 0C       		.sleb128 12
 3359 0188 04000000 		.4byte	.LCFI20
 3360 018c 06000000 		.4byte	.LCFI21
 3361 0190 0200     		.2byte	0x2
 3362 0192 7D       		.byte	0x7d
 3363 0193 20       		.sleb128 32
 3364 0194 06000000 		.4byte	.LCFI21
 3365 0198 4C000000 		.4byte	.LFE7
 3366 019c 0200     		.2byte	0x2
 3367 019e 77       		.byte	0x77
 3368 019f 20       		.sleb128 32
 3369 01a0 00000000 		.4byte	0
 3370 01a4 00000000 		.4byte	0
 3371              	.LLST8:
 3372 01a8 00000000 		.4byte	.LFB8
 3373 01ac 02000000 		.4byte	.LCFI22
 3374 01b0 0200     		.2byte	0x2
 3375 01b2 7D       		.byte	0x7d
 3376 01b3 00       		.sleb128 0
 3377 01b4 02000000 		.4byte	.LCFI22
 3378 01b8 04000000 		.4byte	.LCFI23
 3379 01bc 0200     		.2byte	0x2
 3380 01be 7D       		.byte	0x7d
 3381 01bf 08       		.sleb128 8
 3382 01c0 04000000 		.4byte	.LCFI23
 3383 01c4 06000000 		.4byte	.LCFI24
 3384 01c8 0200     		.2byte	0x2
 3385 01ca 7D       		.byte	0x7d
 3386 01cb 10       		.sleb128 16
 3387 01cc 06000000 		.4byte	.LCFI24
 3388 01d0 1C000000 		.4byte	.LFE8
 3389 01d4 0200     		.2byte	0x2
ARM GAS  C:\Users\OEBN\AppData\Local\Temp\cc2uhR5V.s 			page 85


 3390 01d6 77       		.byte	0x77
 3391 01d7 10       		.sleb128 16
 3392 01d8 00000000 		.4byte	0
 3393 01dc 00000000 		.4byte	0
 3394              	.LLST9:
 3395 01e0 00000000 		.4byte	.LFB9
 3396 01e4 02000000 		.4byte	.LCFI25
 3397 01e8 0200     		.2byte	0x2
 3398 01ea 7D       		.byte	0x7d
 3399 01eb 00       		.sleb128 0
 3400 01ec 02000000 		.4byte	.LCFI25
 3401 01f0 04000000 		.4byte	.LCFI26
 3402 01f4 0200     		.2byte	0x2
 3403 01f6 7D       		.byte	0x7d
 3404 01f7 0C       		.sleb128 12
 3405 01f8 04000000 		.4byte	.LCFI26
 3406 01fc 06000000 		.4byte	.LCFI27
 3407 0200 0200     		.2byte	0x2
 3408 0202 7D       		.byte	0x7d
 3409 0203 20       		.sleb128 32
 3410 0204 06000000 		.4byte	.LCFI27
 3411 0208 48000000 		.4byte	.LFE9
 3412 020c 0200     		.2byte	0x2
 3413 020e 77       		.byte	0x77
 3414 020f 20       		.sleb128 32
 3415 0210 00000000 		.4byte	0
 3416 0214 00000000 		.4byte	0
 3417              	.LLST10:
 3418 0218 00000000 		.4byte	.LFB10
 3419 021c 02000000 		.4byte	.LCFI28
 3420 0220 0200     		.2byte	0x2
 3421 0222 7D       		.byte	0x7d
 3422 0223 00       		.sleb128 0
 3423 0224 02000000 		.4byte	.LCFI28
 3424 0228 04000000 		.4byte	.LCFI29
 3425 022c 0200     		.2byte	0x2
 3426 022e 7D       		.byte	0x7d
 3427 022f 0C       		.sleb128 12
 3428 0230 04000000 		.4byte	.LCFI29
 3429 0234 06000000 		.4byte	.LCFI30
 3430 0238 0200     		.2byte	0x2
 3431 023a 7D       		.byte	0x7d
 3432 023b 20       		.sleb128 32
 3433 023c 06000000 		.4byte	.LCFI30
 3434 0240 48000000 		.4byte	.LFE10
 3435 0244 0200     		.2byte	0x2
 3436 0246 77       		.byte	0x77
 3437 0247 20       		.sleb128 32
 3438 0248 00000000 		.4byte	0
 3439 024c 00000000 		.4byte	0
 3440              	.LLST11:
 3441 0250 00000000 		.4byte	.LFB11
 3442 0254 02000000 		.4byte	.LCFI31
 3443 0258 0200     		.2byte	0x2
 3444 025a 7D       		.byte	0x7d
 3445 025b 00       		.sleb128 0
 3446 025c 02000000 		.4byte	.LCFI31
ARM GAS  C:\Users\OEBN\AppData\Local\Temp\cc2uhR5V.s 			page 86


 3447 0260 04000000 		.4byte	.LCFI32
 3448 0264 0200     		.2byte	0x2
 3449 0266 7D       		.byte	0x7d
 3450 0267 0C       		.sleb128 12
 3451 0268 04000000 		.4byte	.LCFI32
 3452 026c 06000000 		.4byte	.LCFI33
 3453 0270 0200     		.2byte	0x2
 3454 0272 7D       		.byte	0x7d
 3455 0273 20       		.sleb128 32
 3456 0274 06000000 		.4byte	.LCFI33
 3457 0278 4C000000 		.4byte	.LFE11
 3458 027c 0200     		.2byte	0x2
 3459 027e 77       		.byte	0x77
 3460 027f 20       		.sleb128 32
 3461 0280 00000000 		.4byte	0
 3462 0284 00000000 		.4byte	0
 3463              	.LLST12:
 3464 0288 00000000 		.4byte	.LFB12
 3465 028c 02000000 		.4byte	.LCFI34
 3466 0290 0200     		.2byte	0x2
 3467 0292 7D       		.byte	0x7d
 3468 0293 00       		.sleb128 0
 3469 0294 02000000 		.4byte	.LCFI34
 3470 0298 04000000 		.4byte	.LCFI35
 3471 029c 0200     		.2byte	0x2
 3472 029e 7D       		.byte	0x7d
 3473 029f 0C       		.sleb128 12
 3474 02a0 04000000 		.4byte	.LCFI35
 3475 02a4 06000000 		.4byte	.LCFI36
 3476 02a8 0200     		.2byte	0x2
 3477 02aa 7D       		.byte	0x7d
 3478 02ab 20       		.sleb128 32
 3479 02ac 06000000 		.4byte	.LCFI36
 3480 02b0 48000000 		.4byte	.LFE12
 3481 02b4 0200     		.2byte	0x2
 3482 02b6 77       		.byte	0x77
 3483 02b7 20       		.sleb128 32
 3484 02b8 00000000 		.4byte	0
 3485 02bc 00000000 		.4byte	0
 3486              	.LLST13:
 3487 02c0 00000000 		.4byte	.LFB13
 3488 02c4 02000000 		.4byte	.LCFI37
 3489 02c8 0200     		.2byte	0x2
 3490 02ca 7D       		.byte	0x7d
 3491 02cb 00       		.sleb128 0
 3492 02cc 02000000 		.4byte	.LCFI37
 3493 02d0 04000000 		.4byte	.LCFI38
 3494 02d4 0200     		.2byte	0x2
 3495 02d6 7D       		.byte	0x7d
 3496 02d7 08       		.sleb128 8
 3497 02d8 04000000 		.4byte	.LCFI38
 3498 02dc 06000000 		.4byte	.LCFI39
 3499 02e0 0200     		.2byte	0x2
 3500 02e2 7D       		.byte	0x7d
 3501 02e3 10       		.sleb128 16
 3502 02e4 06000000 		.4byte	.LCFI39
 3503 02e8 1C000000 		.4byte	.LFE13
ARM GAS  C:\Users\OEBN\AppData\Local\Temp\cc2uhR5V.s 			page 87


 3504 02ec 0200     		.2byte	0x2
 3505 02ee 77       		.byte	0x77
 3506 02ef 10       		.sleb128 16
 3507 02f0 00000000 		.4byte	0
 3508 02f4 00000000 		.4byte	0
 3509              	.LLST14:
 3510 02f8 00000000 		.4byte	.LFB14
 3511 02fc 02000000 		.4byte	.LCFI40
 3512 0300 0200     		.2byte	0x2
 3513 0302 7D       		.byte	0x7d
 3514 0303 00       		.sleb128 0
 3515 0304 02000000 		.4byte	.LCFI40
 3516 0308 04000000 		.4byte	.LCFI41
 3517 030c 0200     		.2byte	0x2
 3518 030e 7D       		.byte	0x7d
 3519 030f 08       		.sleb128 8
 3520 0310 04000000 		.4byte	.LCFI41
 3521 0314 18000000 		.4byte	.LFE14
 3522 0318 0200     		.2byte	0x2
 3523 031a 77       		.byte	0x77
 3524 031b 08       		.sleb128 8
 3525 031c 00000000 		.4byte	0
 3526 0320 00000000 		.4byte	0
 3527              	.LLST15:
 3528 0324 00000000 		.4byte	.LFB15
 3529 0328 02000000 		.4byte	.LCFI42
 3530 032c 0200     		.2byte	0x2
 3531 032e 7D       		.byte	0x7d
 3532 032f 00       		.sleb128 0
 3533 0330 02000000 		.4byte	.LCFI42
 3534 0334 04000000 		.4byte	.LCFI43
 3535 0338 0200     		.2byte	0x2
 3536 033a 7D       		.byte	0x7d
 3537 033b 0C       		.sleb128 12
 3538 033c 04000000 		.4byte	.LCFI43
 3539 0340 06000000 		.4byte	.LCFI44
 3540 0344 0200     		.2byte	0x2
 3541 0346 7D       		.byte	0x7d
 3542 0347 20       		.sleb128 32
 3543 0348 06000000 		.4byte	.LCFI44
 3544 034c 48000000 		.4byte	.LFE15
 3545 0350 0200     		.2byte	0x2
 3546 0352 77       		.byte	0x77
 3547 0353 20       		.sleb128 32
 3548 0354 00000000 		.4byte	0
 3549 0358 00000000 		.4byte	0
 3550              	.LLST16:
 3551 035c 00000000 		.4byte	.LFB16
 3552 0360 02000000 		.4byte	.LCFI45
 3553 0364 0200     		.2byte	0x2
 3554 0366 7D       		.byte	0x7d
 3555 0367 00       		.sleb128 0
 3556 0368 02000000 		.4byte	.LCFI45
 3557 036c 04000000 		.4byte	.LCFI46
 3558 0370 0200     		.2byte	0x2
 3559 0372 7D       		.byte	0x7d
 3560 0373 08       		.sleb128 8
ARM GAS  C:\Users\OEBN\AppData\Local\Temp\cc2uhR5V.s 			page 88


 3561 0374 04000000 		.4byte	.LCFI46
 3562 0378 06000000 		.4byte	.LCFI47
 3563 037c 0200     		.2byte	0x2
 3564 037e 7D       		.byte	0x7d
 3565 037f 10       		.sleb128 16
 3566 0380 06000000 		.4byte	.LCFI47
 3567 0384 1C000000 		.4byte	.LFE16
 3568 0388 0200     		.2byte	0x2
 3569 038a 77       		.byte	0x77
 3570 038b 10       		.sleb128 16
 3571 038c 00000000 		.4byte	0
 3572 0390 00000000 		.4byte	0
 3573              	.LLST17:
 3574 0394 00000000 		.4byte	.LFB17
 3575 0398 02000000 		.4byte	.LCFI48
 3576 039c 0200     		.2byte	0x2
 3577 039e 7D       		.byte	0x7d
 3578 039f 00       		.sleb128 0
 3579 03a0 02000000 		.4byte	.LCFI48
 3580 03a4 04000000 		.4byte	.LCFI49
 3581 03a8 0200     		.2byte	0x2
 3582 03aa 7D       		.byte	0x7d
 3583 03ab 08       		.sleb128 8
 3584 03ac 04000000 		.4byte	.LCFI49
 3585 03b0 18000000 		.4byte	.LFE17
 3586 03b4 0200     		.2byte	0x2
 3587 03b6 77       		.byte	0x77
 3588 03b7 08       		.sleb128 8
 3589 03b8 00000000 		.4byte	0
 3590 03bc 00000000 		.4byte	0
 3591              	.LLST18:
 3592 03c0 00000000 		.4byte	.LFB18
 3593 03c4 02000000 		.4byte	.LCFI50
 3594 03c8 0200     		.2byte	0x2
 3595 03ca 7D       		.byte	0x7d
 3596 03cb 00       		.sleb128 0
 3597 03cc 02000000 		.4byte	.LCFI50
 3598 03d0 04000000 		.4byte	.LCFI51
 3599 03d4 0200     		.2byte	0x2
 3600 03d6 7D       		.byte	0x7d
 3601 03d7 0C       		.sleb128 12
 3602 03d8 04000000 		.4byte	.LCFI51
 3603 03dc 06000000 		.4byte	.LCFI52
 3604 03e0 0200     		.2byte	0x2
 3605 03e2 7D       		.byte	0x7d
 3606 03e3 20       		.sleb128 32
 3607 03e4 06000000 		.4byte	.LCFI52
 3608 03e8 48000000 		.4byte	.LFE18
 3609 03ec 0200     		.2byte	0x2
 3610 03ee 77       		.byte	0x77
 3611 03ef 20       		.sleb128 32
 3612 03f0 00000000 		.4byte	0
 3613 03f4 00000000 		.4byte	0
 3614              	.LLST19:
 3615 03f8 00000000 		.4byte	.LFB19
 3616 03fc 02000000 		.4byte	.LCFI53
 3617 0400 0200     		.2byte	0x2
ARM GAS  C:\Users\OEBN\AppData\Local\Temp\cc2uhR5V.s 			page 89


 3618 0402 7D       		.byte	0x7d
 3619 0403 00       		.sleb128 0
 3620 0404 02000000 		.4byte	.LCFI53
 3621 0408 04000000 		.4byte	.LCFI54
 3622 040c 0200     		.2byte	0x2
 3623 040e 7D       		.byte	0x7d
 3624 040f 08       		.sleb128 8
 3625 0410 04000000 		.4byte	.LCFI54
 3626 0414 06000000 		.4byte	.LCFI55
 3627 0418 0200     		.2byte	0x2
 3628 041a 7D       		.byte	0x7d
 3629 041b 10       		.sleb128 16
 3630 041c 06000000 		.4byte	.LCFI55
 3631 0420 1C000000 		.4byte	.LFE19
 3632 0424 0200     		.2byte	0x2
 3633 0426 77       		.byte	0x77
 3634 0427 10       		.sleb128 16
 3635 0428 00000000 		.4byte	0
 3636 042c 00000000 		.4byte	0
 3637              	.LLST20:
 3638 0430 00000000 		.4byte	.LFB20
 3639 0434 02000000 		.4byte	.LCFI56
 3640 0438 0200     		.2byte	0x2
 3641 043a 7D       		.byte	0x7d
 3642 043b 00       		.sleb128 0
 3643 043c 02000000 		.4byte	.LCFI56
 3644 0440 04000000 		.4byte	.LCFI57
 3645 0444 0200     		.2byte	0x2
 3646 0446 7D       		.byte	0x7d
 3647 0447 08       		.sleb128 8
 3648 0448 04000000 		.4byte	.LCFI57
 3649 044c 18000000 		.4byte	.LFE20
 3650 0450 0200     		.2byte	0x2
 3651 0452 77       		.byte	0x77
 3652 0453 08       		.sleb128 8
 3653 0454 00000000 		.4byte	0
 3654 0458 00000000 		.4byte	0
 3655              	.LLST21:
 3656 045c 00000000 		.4byte	.LFB21
 3657 0460 02000000 		.4byte	.LCFI58
 3658 0464 0200     		.2byte	0x2
 3659 0466 7D       		.byte	0x7d
 3660 0467 00       		.sleb128 0
 3661 0468 02000000 		.4byte	.LCFI58
 3662 046c 04000000 		.4byte	.LCFI59
 3663 0470 0200     		.2byte	0x2
 3664 0472 7D       		.byte	0x7d
 3665 0473 0C       		.sleb128 12
 3666 0474 04000000 		.4byte	.LCFI59
 3667 0478 06000000 		.4byte	.LCFI60
 3668 047c 0200     		.2byte	0x2
 3669 047e 7D       		.byte	0x7d
 3670 047f 20       		.sleb128 32
 3671 0480 06000000 		.4byte	.LCFI60
 3672 0484 48000000 		.4byte	.LFE21
 3673 0488 0200     		.2byte	0x2
 3674 048a 77       		.byte	0x77
ARM GAS  C:\Users\OEBN\AppData\Local\Temp\cc2uhR5V.s 			page 90


 3675 048b 20       		.sleb128 32
 3676 048c 00000000 		.4byte	0
 3677 0490 00000000 		.4byte	0
 3678              	.LLST22:
 3679 0494 00000000 		.4byte	.LFB22
 3680 0498 02000000 		.4byte	.LCFI61
 3681 049c 0200     		.2byte	0x2
 3682 049e 7D       		.byte	0x7d
 3683 049f 00       		.sleb128 0
 3684 04a0 02000000 		.4byte	.LCFI61
 3685 04a4 04000000 		.4byte	.LCFI62
 3686 04a8 0200     		.2byte	0x2
 3687 04aa 7D       		.byte	0x7d
 3688 04ab 08       		.sleb128 8
 3689 04ac 04000000 		.4byte	.LCFI62
 3690 04b0 06000000 		.4byte	.LCFI63
 3691 04b4 0200     		.2byte	0x2
 3692 04b6 7D       		.byte	0x7d
 3693 04b7 10       		.sleb128 16
 3694 04b8 06000000 		.4byte	.LCFI63
 3695 04bc 1C000000 		.4byte	.LFE22
 3696 04c0 0200     		.2byte	0x2
 3697 04c2 77       		.byte	0x77
 3698 04c3 10       		.sleb128 16
 3699 04c4 00000000 		.4byte	0
 3700 04c8 00000000 		.4byte	0
 3701              	.LLST23:
 3702 04cc 00000000 		.4byte	.LFB23
 3703 04d0 02000000 		.4byte	.LCFI64
 3704 04d4 0200     		.2byte	0x2
 3705 04d6 7D       		.byte	0x7d
 3706 04d7 00       		.sleb128 0
 3707 04d8 02000000 		.4byte	.LCFI64
 3708 04dc 04000000 		.4byte	.LCFI65
 3709 04e0 0200     		.2byte	0x2
 3710 04e2 7D       		.byte	0x7d
 3711 04e3 08       		.sleb128 8
 3712 04e4 04000000 		.4byte	.LCFI65
 3713 04e8 18000000 		.4byte	.LFE23
 3714 04ec 0200     		.2byte	0x2
 3715 04ee 77       		.byte	0x77
 3716 04ef 08       		.sleb128 8
 3717 04f0 00000000 		.4byte	0
 3718 04f4 00000000 		.4byte	0
 3719              	.LLST24:
 3720 04f8 00000000 		.4byte	.LFB24
 3721 04fc 02000000 		.4byte	.LCFI66
 3722 0500 0200     		.2byte	0x2
 3723 0502 7D       		.byte	0x7d
 3724 0503 00       		.sleb128 0
 3725 0504 02000000 		.4byte	.LCFI66
 3726 0508 04000000 		.4byte	.LCFI67
 3727 050c 0200     		.2byte	0x2
 3728 050e 7D       		.byte	0x7d
 3729 050f 08       		.sleb128 8
 3730 0510 04000000 		.4byte	.LCFI67
 3731 0514 06000000 		.4byte	.LCFI68
ARM GAS  C:\Users\OEBN\AppData\Local\Temp\cc2uhR5V.s 			page 91


 3732 0518 0200     		.2byte	0x2
 3733 051a 7D       		.byte	0x7d
 3734 051b 10       		.sleb128 16
 3735 051c 06000000 		.4byte	.LCFI68
 3736 0520 1C000000 		.4byte	.LFE24
 3737 0524 0200     		.2byte	0x2
 3738 0526 77       		.byte	0x77
 3739 0527 10       		.sleb128 16
 3740 0528 00000000 		.4byte	0
 3741 052c 00000000 		.4byte	0
 3742              	.LLST25:
 3743 0530 00000000 		.4byte	.LFB25
 3744 0534 02000000 		.4byte	.LCFI69
 3745 0538 0200     		.2byte	0x2
 3746 053a 7D       		.byte	0x7d
 3747 053b 00       		.sleb128 0
 3748 053c 02000000 		.4byte	.LCFI69
 3749 0540 04000000 		.4byte	.LCFI70
 3750 0544 0200     		.2byte	0x2
 3751 0546 7D       		.byte	0x7d
 3752 0547 08       		.sleb128 8
 3753 0548 04000000 		.4byte	.LCFI70
 3754 054c 18000000 		.4byte	.LFE25
 3755 0550 0200     		.2byte	0x2
 3756 0552 77       		.byte	0x77
 3757 0553 08       		.sleb128 8
 3758 0554 00000000 		.4byte	0
 3759 0558 00000000 		.4byte	0
 3760              	.LLST26:
 3761 055c 00000000 		.4byte	.LFB26
 3762 0560 02000000 		.4byte	.LCFI71
 3763 0564 0200     		.2byte	0x2
 3764 0566 7D       		.byte	0x7d
 3765 0567 00       		.sleb128 0
 3766 0568 02000000 		.4byte	.LCFI71
 3767 056c 04000000 		.4byte	.LCFI72
 3768 0570 0200     		.2byte	0x2
 3769 0572 7D       		.byte	0x7d
 3770 0573 08       		.sleb128 8
 3771 0574 04000000 		.4byte	.LCFI72
 3772 0578 18000000 		.4byte	.LFE26
 3773 057c 0200     		.2byte	0x2
 3774 057e 77       		.byte	0x77
 3775 057f 08       		.sleb128 8
 3776 0580 00000000 		.4byte	0
 3777 0584 00000000 		.4byte	0
 3778              	.LLST27:
 3779 0588 00000000 		.4byte	.LFB27
 3780 058c 02000000 		.4byte	.LCFI73
 3781 0590 0200     		.2byte	0x2
 3782 0592 7D       		.byte	0x7d
 3783 0593 00       		.sleb128 0
 3784 0594 02000000 		.4byte	.LCFI73
 3785 0598 04000000 		.4byte	.LCFI74
 3786 059c 0200     		.2byte	0x2
 3787 059e 7D       		.byte	0x7d
 3788 059f 08       		.sleb128 8
ARM GAS  C:\Users\OEBN\AppData\Local\Temp\cc2uhR5V.s 			page 92


 3789 05a0 04000000 		.4byte	.LCFI74
 3790 05a4 18000000 		.4byte	.LFE27
 3791 05a8 0200     		.2byte	0x2
 3792 05aa 77       		.byte	0x77
 3793 05ab 08       		.sleb128 8
 3794 05ac 00000000 		.4byte	0
 3795 05b0 00000000 		.4byte	0
 3796              	.LLST28:
 3797 05b4 00000000 		.4byte	.LFB28
 3798 05b8 02000000 		.4byte	.LCFI75
 3799 05bc 0200     		.2byte	0x2
 3800 05be 7D       		.byte	0x7d
 3801 05bf 00       		.sleb128 0
 3802 05c0 02000000 		.4byte	.LCFI75
 3803 05c4 04000000 		.4byte	.LCFI76
 3804 05c8 0200     		.2byte	0x2
 3805 05ca 7D       		.byte	0x7d
 3806 05cb 0C       		.sleb128 12
 3807 05cc 04000000 		.4byte	.LCFI76
 3808 05d0 06000000 		.4byte	.LCFI77
 3809 05d4 0200     		.2byte	0x2
 3810 05d6 7D       		.byte	0x7d
 3811 05d7 20       		.sleb128 32
 3812 05d8 06000000 		.4byte	.LCFI77
 3813 05dc 44000000 		.4byte	.LFE28
 3814 05e0 0200     		.2byte	0x2
 3815 05e2 77       		.byte	0x77
 3816 05e3 20       		.sleb128 32
 3817 05e4 00000000 		.4byte	0
 3818 05e8 00000000 		.4byte	0
 3819              	.LLST29:
 3820 05ec 00000000 		.4byte	.LFB29
 3821 05f0 02000000 		.4byte	.LCFI78
 3822 05f4 0200     		.2byte	0x2
 3823 05f6 7D       		.byte	0x7d
 3824 05f7 00       		.sleb128 0
 3825 05f8 02000000 		.4byte	.LCFI78
 3826 05fc 04000000 		.4byte	.LCFI79
 3827 0600 0200     		.2byte	0x2
 3828 0602 7D       		.byte	0x7d
 3829 0603 0C       		.sleb128 12
 3830 0604 04000000 		.4byte	.LCFI79
 3831 0608 06000000 		.4byte	.LCFI80
 3832 060c 0200     		.2byte	0x2
 3833 060e 7D       		.byte	0x7d
 3834 060f 20       		.sleb128 32
 3835 0610 06000000 		.4byte	.LCFI80
 3836 0614 44000000 		.4byte	.LFE29
 3837 0618 0200     		.2byte	0x2
 3838 061a 77       		.byte	0x77
 3839 061b 20       		.sleb128 32
 3840 061c 00000000 		.4byte	0
 3841 0620 00000000 		.4byte	0
 3842              	.LLST30:
 3843 0624 00000000 		.4byte	.LFB30
 3844 0628 02000000 		.4byte	.LCFI81
 3845 062c 0200     		.2byte	0x2
ARM GAS  C:\Users\OEBN\AppData\Local\Temp\cc2uhR5V.s 			page 93


 3846 062e 7D       		.byte	0x7d
 3847 062f 00       		.sleb128 0
 3848 0630 02000000 		.4byte	.LCFI81
 3849 0634 04000000 		.4byte	.LCFI82
 3850 0638 0200     		.2byte	0x2
 3851 063a 7D       		.byte	0x7d
 3852 063b 0C       		.sleb128 12
 3853 063c 04000000 		.4byte	.LCFI82
 3854 0640 06000000 		.4byte	.LCFI83
 3855 0644 0200     		.2byte	0x2
 3856 0646 7D       		.byte	0x7d
 3857 0647 20       		.sleb128 32
 3858 0648 06000000 		.4byte	.LCFI83
 3859 064c 48000000 		.4byte	.LFE30
 3860 0650 0200     		.2byte	0x2
 3861 0652 77       		.byte	0x77
 3862 0653 20       		.sleb128 32
 3863 0654 00000000 		.4byte	0
 3864 0658 00000000 		.4byte	0
 3865              	.LLST31:
 3866 065c 00000000 		.4byte	.LFB31
 3867 0660 02000000 		.4byte	.LCFI84
 3868 0664 0200     		.2byte	0x2
 3869 0666 7D       		.byte	0x7d
 3870 0667 00       		.sleb128 0
 3871 0668 02000000 		.4byte	.LCFI84
 3872 066c 04000000 		.4byte	.LCFI85
 3873 0670 0200     		.2byte	0x2
 3874 0672 7D       		.byte	0x7d
 3875 0673 0C       		.sleb128 12
 3876 0674 04000000 		.4byte	.LCFI85
 3877 0678 06000000 		.4byte	.LCFI86
 3878 067c 0200     		.2byte	0x2
 3879 067e 7D       		.byte	0x7d
 3880 067f 20       		.sleb128 32
 3881 0680 06000000 		.4byte	.LCFI86
 3882 0684 44000000 		.4byte	.LFE31
 3883 0688 0200     		.2byte	0x2
 3884 068a 77       		.byte	0x77
 3885 068b 20       		.sleb128 32
 3886 068c 00000000 		.4byte	0
 3887 0690 00000000 		.4byte	0
 3888              	.LLST32:
 3889 0694 00000000 		.4byte	.LFB32
 3890 0698 02000000 		.4byte	.LCFI87
 3891 069c 0200     		.2byte	0x2
 3892 069e 7D       		.byte	0x7d
 3893 069f 00       		.sleb128 0
 3894 06a0 02000000 		.4byte	.LCFI87
 3895 06a4 04000000 		.4byte	.LCFI88
 3896 06a8 0200     		.2byte	0x2
 3897 06aa 7D       		.byte	0x7d
 3898 06ab 0C       		.sleb128 12
 3899 06ac 04000000 		.4byte	.LCFI88
 3900 06b0 06000000 		.4byte	.LCFI89
 3901 06b4 0200     		.2byte	0x2
 3902 06b6 7D       		.byte	0x7d
ARM GAS  C:\Users\OEBN\AppData\Local\Temp\cc2uhR5V.s 			page 94


 3903 06b7 20       		.sleb128 32
 3904 06b8 06000000 		.4byte	.LCFI89
 3905 06bc 44000000 		.4byte	.LFE32
 3906 06c0 0200     		.2byte	0x2
 3907 06c2 77       		.byte	0x77
 3908 06c3 20       		.sleb128 32
 3909 06c4 00000000 		.4byte	0
 3910 06c8 00000000 		.4byte	0
 3911              	.LLST33:
 3912 06cc 00000000 		.4byte	.LFB33
 3913 06d0 02000000 		.4byte	.LCFI90
 3914 06d4 0200     		.2byte	0x2
 3915 06d6 7D       		.byte	0x7d
 3916 06d7 00       		.sleb128 0
 3917 06d8 02000000 		.4byte	.LCFI90
 3918 06dc 04000000 		.4byte	.LCFI91
 3919 06e0 0200     		.2byte	0x2
 3920 06e2 7D       		.byte	0x7d
 3921 06e3 0C       		.sleb128 12
 3922 06e4 04000000 		.4byte	.LCFI91
 3923 06e8 06000000 		.4byte	.LCFI92
 3924 06ec 0200     		.2byte	0x2
 3925 06ee 7D       		.byte	0x7d
 3926 06ef 20       		.sleb128 32
 3927 06f0 06000000 		.4byte	.LCFI92
 3928 06f4 3C000000 		.4byte	.LFE33
 3929 06f8 0200     		.2byte	0x2
 3930 06fa 77       		.byte	0x77
 3931 06fb 20       		.sleb128 32
 3932 06fc 00000000 		.4byte	0
 3933 0700 00000000 		.4byte	0
 3934              	.LLST34:
 3935 0704 00000000 		.4byte	.LFB34
 3936 0708 02000000 		.4byte	.LCFI93
 3937 070c 0200     		.2byte	0x2
 3938 070e 7D       		.byte	0x7d
 3939 070f 00       		.sleb128 0
 3940 0710 02000000 		.4byte	.LCFI93
 3941 0714 04000000 		.4byte	.LCFI94
 3942 0718 0200     		.2byte	0x2
 3943 071a 7D       		.byte	0x7d
 3944 071b 08       		.sleb128 8
 3945 071c 04000000 		.4byte	.LCFI94
 3946 0720 20000000 		.4byte	.LFE34
 3947 0724 0200     		.2byte	0x2
 3948 0726 77       		.byte	0x77
 3949 0727 08       		.sleb128 8
 3950 0728 00000000 		.4byte	0
 3951 072c 00000000 		.4byte	0
 3952              	.LLST35:
 3953 0730 00000000 		.4byte	.LFB35
 3954 0734 02000000 		.4byte	.LCFI95
 3955 0738 0200     		.2byte	0x2
 3956 073a 7D       		.byte	0x7d
 3957 073b 00       		.sleb128 0
 3958 073c 02000000 		.4byte	.LCFI95
 3959 0740 04000000 		.4byte	.LCFI96
ARM GAS  C:\Users\OEBN\AppData\Local\Temp\cc2uhR5V.s 			page 95


 3960 0744 0200     		.2byte	0x2
 3961 0746 7D       		.byte	0x7d
 3962 0747 08       		.sleb128 8
 3963 0748 04000000 		.4byte	.LCFI96
 3964 074c 06000000 		.4byte	.LCFI97
 3965 0750 0200     		.2byte	0x2
 3966 0752 7D       		.byte	0x7d
 3967 0753 10       		.sleb128 16
 3968 0754 06000000 		.4byte	.LCFI97
 3969 0758 18000000 		.4byte	.LFE35
 3970 075c 0200     		.2byte	0x2
 3971 075e 77       		.byte	0x77
 3972 075f 10       		.sleb128 16
 3973 0760 00000000 		.4byte	0
 3974 0764 00000000 		.4byte	0
 3975              	.LLST36:
 3976 0768 00000000 		.4byte	.LFB36
 3977 076c 02000000 		.4byte	.LCFI98
 3978 0770 0200     		.2byte	0x2
 3979 0772 7D       		.byte	0x7d
 3980 0773 00       		.sleb128 0
 3981 0774 02000000 		.4byte	.LCFI98
 3982 0778 04000000 		.4byte	.LCFI99
 3983 077c 0200     		.2byte	0x2
 3984 077e 7D       		.byte	0x7d
 3985 077f 08       		.sleb128 8
 3986 0780 04000000 		.4byte	.LCFI99
 3987 0784 14000000 		.4byte	.LFE36
 3988 0788 0200     		.2byte	0x2
 3989 078a 77       		.byte	0x77
 3990 078b 08       		.sleb128 8
 3991 078c 00000000 		.4byte	0
 3992 0790 00000000 		.4byte	0
 3993              	.LLST37:
 3994 0794 00000000 		.4byte	.LFB37
 3995 0798 02000000 		.4byte	.LCFI100
 3996 079c 0200     		.2byte	0x2
 3997 079e 7D       		.byte	0x7d
 3998 079f 00       		.sleb128 0
 3999 07a0 02000000 		.4byte	.LCFI100
 4000 07a4 04000000 		.4byte	.LCFI101
 4001 07a8 0200     		.2byte	0x2
 4002 07aa 7D       		.byte	0x7d
 4003 07ab 08       		.sleb128 8
 4004 07ac 04000000 		.4byte	.LCFI101
 4005 07b0 14000000 		.4byte	.LFE37
 4006 07b4 0200     		.2byte	0x2
 4007 07b6 77       		.byte	0x77
 4008 07b7 08       		.sleb128 8
 4009 07b8 00000000 		.4byte	0
 4010 07bc 00000000 		.4byte	0
 4011              	.LLST38:
 4012 07c0 00000000 		.4byte	.LFB38
 4013 07c4 02000000 		.4byte	.LCFI102
 4014 07c8 0200     		.2byte	0x2
 4015 07ca 7D       		.byte	0x7d
 4016 07cb 00       		.sleb128 0
ARM GAS  C:\Users\OEBN\AppData\Local\Temp\cc2uhR5V.s 			page 96


 4017 07cc 02000000 		.4byte	.LCFI102
 4018 07d0 04000000 		.4byte	.LCFI103
 4019 07d4 0200     		.2byte	0x2
 4020 07d6 7D       		.byte	0x7d
 4021 07d7 08       		.sleb128 8
 4022 07d8 04000000 		.4byte	.LCFI103
 4023 07dc 06000000 		.4byte	.LCFI104
 4024 07e0 0200     		.2byte	0x2
 4025 07e2 7D       		.byte	0x7d
 4026 07e3 10       		.sleb128 16
 4027 07e4 06000000 		.4byte	.LCFI104
 4028 07e8 18000000 		.4byte	.LFE38
 4029 07ec 0200     		.2byte	0x2
 4030 07ee 77       		.byte	0x77
 4031 07ef 10       		.sleb128 16
 4032 07f0 00000000 		.4byte	0
 4033 07f4 00000000 		.4byte	0
 4034              	.LLST39:
 4035 07f8 00000000 		.4byte	.LFB39
 4036 07fc 02000000 		.4byte	.LCFI105
 4037 0800 0200     		.2byte	0x2
 4038 0802 7D       		.byte	0x7d
 4039 0803 00       		.sleb128 0
 4040 0804 02000000 		.4byte	.LCFI105
 4041 0808 04000000 		.4byte	.LCFI106
 4042 080c 0200     		.2byte	0x2
 4043 080e 7D       		.byte	0x7d
 4044 080f 08       		.sleb128 8
 4045 0810 04000000 		.4byte	.LCFI106
 4046 0814 06000000 		.4byte	.LCFI107
 4047 0818 0200     		.2byte	0x2
 4048 081a 7D       		.byte	0x7d
 4049 081b 10       		.sleb128 16
 4050 081c 06000000 		.4byte	.LCFI107
 4051 0820 18000000 		.4byte	.LFE39
 4052 0824 0200     		.2byte	0x2
 4053 0826 77       		.byte	0x77
 4054 0827 10       		.sleb128 16
 4055 0828 00000000 		.4byte	0
 4056 082c 00000000 		.4byte	0
 4057              		.section	.debug_aranges,"",%progbits
 4058 0000 54010000 		.4byte	0x154
 4059 0004 0200     		.2byte	0x2
 4060 0006 00000000 		.4byte	.Ldebug_info0
 4061 000a 04       		.byte	0x4
 4062 000b 00       		.byte	0
 4063 000c 0000     		.2byte	0
 4064 000e 0000     		.2byte	0
 4065 0010 00000000 		.4byte	.LFB0
 4066 0014 58000000 		.4byte	.LFE0-.LFB0
 4067 0018 00000000 		.4byte	.LFB1
 4068 001c 38000000 		.4byte	.LFE1-.LFB1
 4069 0020 00000000 		.4byte	.LFB2
 4070 0024 24000000 		.4byte	.LFE2-.LFB2
 4071 0028 00000000 		.4byte	.LFB3
 4072 002c 30000000 		.4byte	.LFE3-.LFB3
 4073 0030 00000000 		.4byte	.LFB4
ARM GAS  C:\Users\OEBN\AppData\Local\Temp\cc2uhR5V.s 			page 97


 4074 0034 48000000 		.4byte	.LFE4-.LFB4
 4075 0038 00000000 		.4byte	.LFB5
 4076 003c 48000000 		.4byte	.LFE5-.LFB5
 4077 0040 00000000 		.4byte	.LFB6
 4078 0044 48000000 		.4byte	.LFE6-.LFB6
 4079 0048 00000000 		.4byte	.LFB7
 4080 004c 4C000000 		.4byte	.LFE7-.LFB7
 4081 0050 00000000 		.4byte	.LFB8
 4082 0054 1C000000 		.4byte	.LFE8-.LFB8
 4083 0058 00000000 		.4byte	.LFB9
 4084 005c 48000000 		.4byte	.LFE9-.LFB9
 4085 0060 00000000 		.4byte	.LFB10
 4086 0064 48000000 		.4byte	.LFE10-.LFB10
 4087 0068 00000000 		.4byte	.LFB11
 4088 006c 4C000000 		.4byte	.LFE11-.LFB11
 4089 0070 00000000 		.4byte	.LFB12
 4090 0074 48000000 		.4byte	.LFE12-.LFB12
 4091 0078 00000000 		.4byte	.LFB13
 4092 007c 1C000000 		.4byte	.LFE13-.LFB13
 4093 0080 00000000 		.4byte	.LFB14
 4094 0084 18000000 		.4byte	.LFE14-.LFB14
 4095 0088 00000000 		.4byte	.LFB15
 4096 008c 48000000 		.4byte	.LFE15-.LFB15
 4097 0090 00000000 		.4byte	.LFB16
 4098 0094 1C000000 		.4byte	.LFE16-.LFB16
 4099 0098 00000000 		.4byte	.LFB17
 4100 009c 18000000 		.4byte	.LFE17-.LFB17
 4101 00a0 00000000 		.4byte	.LFB18
 4102 00a4 48000000 		.4byte	.LFE18-.LFB18
 4103 00a8 00000000 		.4byte	.LFB19
 4104 00ac 1C000000 		.4byte	.LFE19-.LFB19
 4105 00b0 00000000 		.4byte	.LFB20
 4106 00b4 18000000 		.4byte	.LFE20-.LFB20
 4107 00b8 00000000 		.4byte	.LFB21
 4108 00bc 48000000 		.4byte	.LFE21-.LFB21
 4109 00c0 00000000 		.4byte	.LFB22
 4110 00c4 1C000000 		.4byte	.LFE22-.LFB22
 4111 00c8 00000000 		.4byte	.LFB23
 4112 00cc 18000000 		.4byte	.LFE23-.LFB23
 4113 00d0 00000000 		.4byte	.LFB24
 4114 00d4 1C000000 		.4byte	.LFE24-.LFB24
 4115 00d8 00000000 		.4byte	.LFB25
 4116 00dc 18000000 		.4byte	.LFE25-.LFB25
 4117 00e0 00000000 		.4byte	.LFB26
 4118 00e4 18000000 		.4byte	.LFE26-.LFB26
 4119 00e8 00000000 		.4byte	.LFB27
 4120 00ec 18000000 		.4byte	.LFE27-.LFB27
 4121 00f0 00000000 		.4byte	.LFB28
 4122 00f4 44000000 		.4byte	.LFE28-.LFB28
 4123 00f8 00000000 		.4byte	.LFB29
 4124 00fc 44000000 		.4byte	.LFE29-.LFB29
 4125 0100 00000000 		.4byte	.LFB30
 4126 0104 48000000 		.4byte	.LFE30-.LFB30
 4127 0108 00000000 		.4byte	.LFB31
 4128 010c 44000000 		.4byte	.LFE31-.LFB31
 4129 0110 00000000 		.4byte	.LFB32
 4130 0114 44000000 		.4byte	.LFE32-.LFB32
ARM GAS  C:\Users\OEBN\AppData\Local\Temp\cc2uhR5V.s 			page 98


 4131 0118 00000000 		.4byte	.LFB33
 4132 011c 3C000000 		.4byte	.LFE33-.LFB33
 4133 0120 00000000 		.4byte	.LFB34
 4134 0124 20000000 		.4byte	.LFE34-.LFB34
 4135 0128 00000000 		.4byte	.LFB35
 4136 012c 18000000 		.4byte	.LFE35-.LFB35
 4137 0130 00000000 		.4byte	.LFB36
 4138 0134 14000000 		.4byte	.LFE36-.LFB36
 4139 0138 00000000 		.4byte	.LFB37
 4140 013c 14000000 		.4byte	.LFE37-.LFB37
 4141 0140 00000000 		.4byte	.LFB38
 4142 0144 18000000 		.4byte	.LFE38-.LFB38
 4143 0148 00000000 		.4byte	.LFB39
 4144 014c 18000000 		.4byte	.LFE39-.LFB39
 4145 0150 00000000 		.4byte	0
 4146 0154 00000000 		.4byte	0
 4147              		.section	.debug_ranges,"",%progbits
 4148              	.Ldebug_ranges0:
 4149 0000 00000000 		.4byte	.LFB0
 4150 0004 58000000 		.4byte	.LFE0
 4151 0008 00000000 		.4byte	.LFB1
 4152 000c 38000000 		.4byte	.LFE1
 4153 0010 00000000 		.4byte	.LFB2
 4154 0014 24000000 		.4byte	.LFE2
 4155 0018 00000000 		.4byte	.LFB3
 4156 001c 30000000 		.4byte	.LFE3
 4157 0020 00000000 		.4byte	.LFB4
 4158 0024 48000000 		.4byte	.LFE4
 4159 0028 00000000 		.4byte	.LFB5
 4160 002c 48000000 		.4byte	.LFE5
 4161 0030 00000000 		.4byte	.LFB6
 4162 0034 48000000 		.4byte	.LFE6
 4163 0038 00000000 		.4byte	.LFB7
 4164 003c 4C000000 		.4byte	.LFE7
 4165 0040 00000000 		.4byte	.LFB8
 4166 0044 1C000000 		.4byte	.LFE8
 4167 0048 00000000 		.4byte	.LFB9
 4168 004c 48000000 		.4byte	.LFE9
 4169 0050 00000000 		.4byte	.LFB10
 4170 0054 48000000 		.4byte	.LFE10
 4171 0058 00000000 		.4byte	.LFB11
 4172 005c 4C000000 		.4byte	.LFE11
 4173 0060 00000000 		.4byte	.LFB12
 4174 0064 48000000 		.4byte	.LFE12
 4175 0068 00000000 		.4byte	.LFB13
 4176 006c 1C000000 		.4byte	.LFE13
 4177 0070 00000000 		.4byte	.LFB14
 4178 0074 18000000 		.4byte	.LFE14
 4179 0078 00000000 		.4byte	.LFB15
 4180 007c 48000000 		.4byte	.LFE15
 4181 0080 00000000 		.4byte	.LFB16
 4182 0084 1C000000 		.4byte	.LFE16
 4183 0088 00000000 		.4byte	.LFB17
 4184 008c 18000000 		.4byte	.LFE17
 4185 0090 00000000 		.4byte	.LFB18
 4186 0094 48000000 		.4byte	.LFE18
 4187 0098 00000000 		.4byte	.LFB19
ARM GAS  C:\Users\OEBN\AppData\Local\Temp\cc2uhR5V.s 			page 99


 4188 009c 1C000000 		.4byte	.LFE19
 4189 00a0 00000000 		.4byte	.LFB20
 4190 00a4 18000000 		.4byte	.LFE20
 4191 00a8 00000000 		.4byte	.LFB21
 4192 00ac 48000000 		.4byte	.LFE21
 4193 00b0 00000000 		.4byte	.LFB22
 4194 00b4 1C000000 		.4byte	.LFE22
 4195 00b8 00000000 		.4byte	.LFB23
 4196 00bc 18000000 		.4byte	.LFE23
 4197 00c0 00000000 		.4byte	.LFB24
 4198 00c4 1C000000 		.4byte	.LFE24
 4199 00c8 00000000 		.4byte	.LFB25
 4200 00cc 18000000 		.4byte	.LFE25
 4201 00d0 00000000 		.4byte	.LFB26
 4202 00d4 18000000 		.4byte	.LFE26
 4203 00d8 00000000 		.4byte	.LFB27
 4204 00dc 18000000 		.4byte	.LFE27
 4205 00e0 00000000 		.4byte	.LFB28
 4206 00e4 44000000 		.4byte	.LFE28
 4207 00e8 00000000 		.4byte	.LFB29
 4208 00ec 44000000 		.4byte	.LFE29
 4209 00f0 00000000 		.4byte	.LFB30
 4210 00f4 48000000 		.4byte	.LFE30
 4211 00f8 00000000 		.4byte	.LFB31
 4212 00fc 44000000 		.4byte	.LFE31
 4213 0100 00000000 		.4byte	.LFB32
 4214 0104 44000000 		.4byte	.LFE32
 4215 0108 00000000 		.4byte	.LFB33
 4216 010c 3C000000 		.4byte	.LFE33
 4217 0110 00000000 		.4byte	.LFB34
 4218 0114 20000000 		.4byte	.LFE34
 4219 0118 00000000 		.4byte	.LFB35
 4220 011c 18000000 		.4byte	.LFE35
 4221 0120 00000000 		.4byte	.LFB36
 4222 0124 14000000 		.4byte	.LFE36
 4223 0128 00000000 		.4byte	.LFB37
 4224 012c 14000000 		.4byte	.LFE37
 4225 0130 00000000 		.4byte	.LFB38
 4226 0134 18000000 		.4byte	.LFE38
 4227 0138 00000000 		.4byte	.LFB39
 4228 013c 18000000 		.4byte	.LFE39
 4229 0140 00000000 		.4byte	0
 4230 0144 00000000 		.4byte	0
 4231              		.section	.debug_line,"",%progbits
 4232              	.Ldebug_line0:
 4233 0000 76030000 		.section	.debug_str,"MS",%progbits,1
 4233      02004400 
 4233      00000201 
 4233      FB0E0D00 
 4233      01010101 
 4234              	.LASF40:
 4235 0000 636F756E 		.ascii	"count\000"
 4235      7400
 4236              	.LASF47:
 4237 0006 50574D5F 		.ascii	"PWM_2_SetCompareSwap\000"
 4237      325F5365 
 4237      74436F6D 
ARM GAS  C:\Users\OEBN\AppData\Local\Temp\cc2uhR5V.s 			page 100


 4237      70617265 
 4237      53776170 
 4238              	.LASF36:
 4239 001b 64656164 		.ascii	"deadTime\000"
 4239      54696D65 
 4239      00
 4240              	.LASF79:
 4241 0024 50574D5F 		.ascii	"PWM_2_initVar\000"
 4241      325F696E 
 4241      69745661 
 4241      7200
 4242              	.LASF30:
 4243 0032 6D6F6465 		.ascii	"modeMask\000"
 4243      4D61736B 
 4243      00
 4244              	.LASF44:
 4245 003b 70657269 		.ascii	"period\000"
 4245      6F6400
 4246              	.LASF7:
 4247 0042 6C6F6E67 		.ascii	"long long unsigned int\000"
 4247      206C6F6E 
 4247      6720756E 
 4247      7369676E 
 4247      65642069 
 4248              	.LASF51:
 4249 0059 50574D5F 		.ascii	"PWM_2_ReadPeriodBuf\000"
 4249      325F5265 
 4249      61645065 
 4249      72696F64 
 4249      42756600 
 4250              	.LASF66:
 4251 006d 50574D5F 		.ascii	"PWM_2_SetCountMode\000"
 4251      325F5365 
 4251      74436F75 
 4251      6E744D6F 
 4251      646500
 4252              	.LASF24:
 4253 0080 71644D6F 		.ascii	"qdMode\000"
 4253      646500
 4254              	.LASF31:
 4255 0087 50574D5F 		.ascii	"PWM_2_SetPWMSyncKill\000"
 4255      325F5365 
 4255      7450574D 
 4255      53796E63 
 4255      4B696C6C 
 4256              	.LASF43:
 4257 009c 50574D5F 		.ascii	"PWM_2_WritePeriod\000"
 4257      325F5772 
 4257      69746550 
 4257      6572696F 
 4257      6400
 4258              	.LASF6:
 4259 00ae 6C6F6E67 		.ascii	"long long int\000"
 4259      206C6F6E 
 4259      6720696E 
 4259      7400
 4260              	.LASF0:
ARM GAS  C:\Users\OEBN\AppData\Local\Temp\cc2uhR5V.s 			page 101


 4261 00bc 7369676E 		.ascii	"signed char\000"
 4261      65642063 
 4261      68617200 
 4262              	.LASF19:
 4263 00c8 50574D5F 		.ascii	"PWM_2_Stop\000"
 4263      325F5374 
 4263      6F7000
 4264              	.LASF52:
 4265 00d3 50574D5F 		.ascii	"PWM_2_SetPeriodSwap\000"
 4265      325F5365 
 4265      74506572 
 4265      696F6453 
 4265      77617000 
 4266              	.LASF58:
 4267 00e7 50574D5F 		.ascii	"PWM_2_ReadCompareBuf\000"
 4267      325F5265 
 4267      6164436F 
 4267      6D706172 
 4267      65427566 
 4268              	.LASF4:
 4269 00fc 6C6F6E67 		.ascii	"long int\000"
 4269      20696E74 
 4269      00
 4270              	.LASF53:
 4271 0105 50574D5F 		.ascii	"PWM_2_WriteCompare\000"
 4271      325F5772 
 4271      69746543 
 4271      6F6D7061 
 4271      726500
 4272              	.LASF9:
 4273 0118 75696E74 		.ascii	"uint8\000"
 4273      3800
 4274              	.LASF12:
 4275 011e 646F7562 		.ascii	"double\000"
 4275      6C6500
 4276              	.LASF67:
 4277 0125 50574D5F 		.ascii	"PWM_2_TriggerCommand\000"
 4277      325F5472 
 4277      69676765 
 4277      72436F6D 
 4277      6D616E64 
 4278              	.LASF74:
 4279 013a 50574D5F 		.ascii	"PWM_2_ClearInterrupt\000"
 4279      325F436C 
 4279      65617249 
 4279      6E746572 
 4279      72757074 
 4280              	.LASF10:
 4281 014f 75696E74 		.ascii	"uint32\000"
 4281      333200
 4282              	.LASF62:
 4283 0156 74726967 		.ascii	"triggerMode\000"
 4283      6765724D 
 4283      6F646500 
 4284              	.LASF38:
 4285 0162 6D61736B 		.ascii	"mask\000"
 4285      00
ARM GAS  C:\Users\OEBN\AppData\Local\Temp\cc2uhR5V.s 			page 102


 4286              	.LASF59:
 4287 0167 50574D5F 		.ascii	"PWM_2_ReadCapture\000"
 4287      325F5265 
 4287      61644361 
 4287      70747572 
 4287      6500
 4288              	.LASF78:
 4289 0179 433A5C50 		.ascii	"C:\\PSoc\\SCB_Bootloader\\FLC.cydsn\000"
 4289      536F635C 
 4289      5343425F 
 4289      426F6F74 
 4289      6C6F6164 
 4290              	.LASF8:
 4291 019a 756E7369 		.ascii	"unsigned int\000"
 4291      676E6564 
 4291      20696E74 
 4291      00
 4292              	.LASF39:
 4293 01a7 50574D5F 		.ascii	"PWM_2_WriteCounter\000"
 4293      325F5772 
 4293      69746543 
 4293      6F756E74 
 4293      657200
 4294              	.LASF68:
 4295 01ba 636F6D6D 		.ascii	"command\000"
 4295      616E6400 
 4296              	.LASF77:
 4297 01c2 2E5C4765 		.ascii	".\\Generated_Source\\PSoC4\\PWM_2.c\000"
 4297      6E657261 
 4297      7465645F 
 4297      536F7572 
 4297      63655C50 
 4298              	.LASF5:
 4299 01e3 6C6F6E67 		.ascii	"long unsigned int\000"
 4299      20756E73 
 4299      69676E65 
 4299      6420696E 
 4299      7400
 4300              	.LASF17:
 4301 01f5 50574D5F 		.ascii	"PWM_2_Start\000"
 4301      325F5374 
 4301      61727400 
 4302              	.LASF3:
 4303 0201 73686F72 		.ascii	"short unsigned int\000"
 4303      7420756E 
 4303      7369676E 
 4303      65642069 
 4303      6E7400
 4304              	.LASF35:
 4305 0214 50574D5F 		.ascii	"PWM_2_SetPWMDeadTime\000"
 4305      325F5365 
 4305      7450574D 
 4305      44656164 
 4305      54696D65 
 4306              	.LASF28:
 4307 0229 6F6E6553 		.ascii	"oneShotEnable\000"
 4307      686F7445 
ARM GAS  C:\Users\OEBN\AppData\Local\Temp\cc2uhR5V.s 			page 103


 4307      6E61626C 
 4307      6500
 4308              	.LASF56:
 4309 0237 50574D5F 		.ascii	"PWM_2_WriteCompareBuf\000"
 4309      325F5772 
 4309      69746543 
 4309      6F6D7061 
 4309      72654275 
 4310              	.LASF46:
 4311 024d 50574D5F 		.ascii	"PWM_2_ReadPeriod\000"
 4311      325F5265 
 4311      61645065 
 4311      72696F64 
 4311      00
 4312              	.LASF18:
 4313 025e 50574D5F 		.ascii	"PWM_2_Enable\000"
 4313      325F456E 
 4313      61626C65 
 4313      00
 4314              	.LASF37:
 4315 026b 50574D5F 		.ascii	"PWM_2_SetPWMInvert\000"
 4315      325F5365 
 4315      7450574D 
 4315      496E7665 
 4315      727400
 4316              	.LASF14:
 4317 027e 72656733 		.ascii	"reg32\000"
 4317      3200
 4318              	.LASF64:
 4319 0284 50574D5F 		.ascii	"PWM_2_SetStartMode\000"
 4319      325F5365 
 4319      74537461 
 4319      72744D6F 
 4319      646500
 4320              	.LASF21:
 4321 0297 50574D5F 		.ascii	"PWM_2_SetMode\000"
 4321      325F5365 
 4321      744D6F64 
 4321      6500
 4322              	.LASF27:
 4323 02a5 50574D5F 		.ascii	"PWM_2_SetOneShot\000"
 4323      325F5365 
 4323      744F6E65 
 4323      53686F74 
 4323      00
 4324              	.LASF15:
 4325 02b6 73697A65 		.ascii	"sizetype\000"
 4325      74797065 
 4325      00
 4326              	.LASF32:
 4327 02bf 73796E63 		.ascii	"syncKillEnable\000"
 4327      4B696C6C 
 4327      456E6162 
 4327      6C6500
 4328              	.LASF49:
 4329 02ce 50574D5F 		.ascii	"PWM_2_WritePeriodBuf\000"
 4329      325F5772 
ARM GAS  C:\Users\OEBN\AppData\Local\Temp\cc2uhR5V.s 			page 104


 4329      69746550 
 4329      6572696F 
 4329      64427566 
 4330              	.LASF54:
 4331 02e3 636F6D70 		.ascii	"compare\000"
 4331      61726500 
 4332              	.LASF16:
 4333 02eb 50574D5F 		.ascii	"PWM_2_Init\000"
 4333      325F496E 
 4333      697400
 4334              	.LASF11:
 4335 02f6 666C6F61 		.ascii	"float\000"
 4335      7400
 4336              	.LASF26:
 4337 02fc 70726573 		.ascii	"prescaler\000"
 4337      63616C65 
 4337      7200
 4338              	.LASF29:
 4339 0306 50574D5F 		.ascii	"PWM_2_SetPWMMode\000"
 4339      325F5365 
 4339      7450574D 
 4339      4D6F6465 
 4339      00
 4340              	.LASF76:
 4341 0317 474E5520 		.ascii	"GNU C 4.7.3 20130312 (release) [ARM/embedded-4_7-br"
 4341      4320342E 
 4341      372E3320 
 4341      32303133 
 4341      30333132 
 4342 034a 616E6368 		.ascii	"anch revision 196615]\000"
 4342      20726576 
 4342      6973696F 
 4342      6E203139 
 4342      36363135 
 4343              	.LASF60:
 4344 0360 50574D5F 		.ascii	"PWM_2_ReadCaptureBuf\000"
 4344      325F5265 
 4344      61644361 
 4344      70747572 
 4344      65427566 
 4345              	.LASF1:
 4346 0375 756E7369 		.ascii	"unsigned char\000"
 4346      676E6564 
 4346      20636861 
 4346      7200
 4347              	.LASF33:
 4348 0383 50574D5F 		.ascii	"PWM_2_SetPWMStopOnKill\000"
 4348      325F5365 
 4348      7450574D 
 4348      53746F70 
 4348      4F6E4B69 
 4349              	.LASF34:
 4350 039a 73746F70 		.ascii	"stopOnKillEnable\000"
 4350      4F6E4B69 
 4350      6C6C456E 
 4350      61626C65 
 4350      00
ARM GAS  C:\Users\OEBN\AppData\Local\Temp\cc2uhR5V.s 			page 105


 4351              	.LASF2:
 4352 03ab 73686F72 		.ascii	"short int\000"
 4352      7420696E 
 4352      7400
 4353              	.LASF22:
 4354 03b5 50574D5F 		.ascii	"PWM_2_SetQDMode\000"
 4354      325F5365 
 4354      7451444D 
 4354      6F646500 
 4355              	.LASF55:
 4356 03c5 50574D5F 		.ascii	"PWM_2_ReadCompare\000"
 4356      325F5265 
 4356      6164436F 
 4356      6D706172 
 4356      6500
 4357              	.LASF71:
 4358 03d7 696E7465 		.ascii	"interruptMask\000"
 4358      72727570 
 4358      744D6173 
 4358      6B00
 4359              	.LASF75:
 4360 03e5 50574D5F 		.ascii	"PWM_2_SetInterrupt\000"
 4360      325F5365 
 4360      74496E74 
 4360      65727275 
 4360      707400
 4361              	.LASF13:
 4362 03f8 63686172 		.ascii	"char\000"
 4362      00
 4363              	.LASF23:
 4364 03fd 6D6F6465 		.ascii	"mode\000"
 4364      00
 4365              	.LASF41:
 4366 0402 50574D5F 		.ascii	"PWM_2_SetCounterMode\000"
 4366      325F5365 
 4366      74436F75 
 4366      6E746572 
 4366      4D6F6465 
 4367              	.LASF42:
 4368 0417 636F756E 		.ascii	"counterMode\000"
 4368      7465724D 
 4368      6F646500 
 4369              	.LASF63:
 4370 0423 50574D5F 		.ascii	"PWM_2_SetReloadMode\000"
 4370      325F5365 
 4370      7452656C 
 4370      6F61644D 
 4370      6F646500 
 4371              	.LASF45:
 4372 0437 50574D5F 		.ascii	"PWM_2_ReadCounter\000"
 4372      325F5265 
 4372      6164436F 
 4372      756E7465 
 4372      7200
 4373              	.LASF57:
 4374 0449 636F6D70 		.ascii	"compareBuf\000"
 4374      61726542 
ARM GAS  C:\Users\OEBN\AppData\Local\Temp\cc2uhR5V.s 			page 106


 4374      756600
 4375              	.LASF69:
 4376 0454 50574D5F 		.ascii	"PWM_2_ReadStatus\000"
 4376      325F5265 
 4376      61645374 
 4376      61747573 
 4376      00
 4377              	.LASF20:
 4378 0465 656E6162 		.ascii	"enableInterrupts\000"
 4378      6C65496E 
 4378      74657272 
 4378      75707473 
 4378      00
 4379              	.LASF70:
 4380 0476 50574D5F 		.ascii	"PWM_2_SetInterruptMode\000"
 4380      325F5365 
 4380      74496E74 
 4380      65727275 
 4380      70744D6F 
 4381              	.LASF61:
 4382 048d 50574D5F 		.ascii	"PWM_2_SetCaptureMode\000"
 4382      325F5365 
 4382      74436170 
 4382      74757265 
 4382      4D6F6465 
 4383              	.LASF72:
 4384 04a2 50574D5F 		.ascii	"PWM_2_GetInterruptSourceMasked\000"
 4384      325F4765 
 4384      74496E74 
 4384      65727275 
 4384      7074536F 
 4385              	.LASF48:
 4386 04c1 73776170 		.ascii	"swapEnable\000"
 4386      456E6162 
 4386      6C6500
 4387              	.LASF73:
 4388 04cc 50574D5F 		.ascii	"PWM_2_GetInterruptSource\000"
 4388      325F4765 
 4388      74496E74 
 4388      65727275 
 4388      7074536F 
 4389              	.LASF25:
 4390 04e5 50574D5F 		.ascii	"PWM_2_SetPrescaler\000"
 4390      325F5365 
 4390      74507265 
 4390      7363616C 
 4390      657200
 4391              	.LASF50:
 4392 04f8 70657269 		.ascii	"periodBuf\000"
 4392      6F644275 
 4392      6600
 4393              	.LASF65:
 4394 0502 50574D5F 		.ascii	"PWM_2_SetStopMode\000"
 4394      325F5365 
 4394      7453746F 
 4394      704D6F64 
 4394      6500
ARM GAS  C:\Users\OEBN\AppData\Local\Temp\cc2uhR5V.s 			page 107


 4395              		.ident	"GCC: (GNU Tools for ARM Embedded Processors) 4.7.3 20130312 (release) [ARM/embedded-4_7-br
