ARM GAS  C:\Users\OEBN\AppData\Local\Temp\cc4YkDS7.s 			page 1


   1              		.cpu cortex-m0
   2              		.fpu softvfp
   3              		.eabi_attribute 20, 1
   4              		.eabi_attribute 21, 1
   5              		.eabi_attribute 23, 3
   6              		.eabi_attribute 24, 1
   7              		.eabi_attribute 25, 1
   8              		.eabi_attribute 26, 1
   9              		.eabi_attribute 30, 6
  10              		.eabi_attribute 34, 0
  11              		.eabi_attribute 18, 4
  12              		.code	16
  13              		.file	"PWM_Timer.c"
  14              		.text
  15              	.Ltext0:
  16              		.cfi_sections	.debug_frame
  17              		.global	PWM_Timer_initVar
  18              		.bss
  19              		.type	PWM_Timer_initVar, %object
  20              		.size	PWM_Timer_initVar, 1
  21              	PWM_Timer_initVar:
  22 0000 00       		.space	1
  23              		.section	.text.PWM_Timer_Init,"ax",%progbits
  24              		.align	2
  25              		.global	PWM_Timer_Init
  26              		.code	16
  27              		.thumb_func
  28              		.type	PWM_Timer_Init, %function
  29              	PWM_Timer_Init:
  30              	.LFB0:
  31              		.file 1 ".\\Generated_Source\\PSoC4\\PWM_Timer.c"
   1:.\Generated_Source\PSoC4/PWM_Timer.c **** /*******************************************************************************
   2:.\Generated_Source\PSoC4/PWM_Timer.c **** * File Name: PWM_Timer.c
   3:.\Generated_Source\PSoC4/PWM_Timer.c **** * Version 1.10
   4:.\Generated_Source\PSoC4/PWM_Timer.c **** *
   5:.\Generated_Source\PSoC4/PWM_Timer.c **** * Description:
   6:.\Generated_Source\PSoC4/PWM_Timer.c **** *  This file provides the source code to the API for the PWM_Timer
   7:.\Generated_Source\PSoC4/PWM_Timer.c **** *  component
   8:.\Generated_Source\PSoC4/PWM_Timer.c **** *
   9:.\Generated_Source\PSoC4/PWM_Timer.c **** * Note:
  10:.\Generated_Source\PSoC4/PWM_Timer.c **** *  None
  11:.\Generated_Source\PSoC4/PWM_Timer.c **** *
  12:.\Generated_Source\PSoC4/PWM_Timer.c **** ********************************************************************************
  13:.\Generated_Source\PSoC4/PWM_Timer.c **** * Copyright 2013-2014, Cypress Semiconductor Corporation.  All rights reserved.
  14:.\Generated_Source\PSoC4/PWM_Timer.c **** * You may use this file only in accordance with the license, terms, conditions,
  15:.\Generated_Source\PSoC4/PWM_Timer.c **** * disclaimers, and limitations in the end user license agreement accompanying
  16:.\Generated_Source\PSoC4/PWM_Timer.c **** * the software package with which this file was provided.
  17:.\Generated_Source\PSoC4/PWM_Timer.c **** *******************************************************************************/
  18:.\Generated_Source\PSoC4/PWM_Timer.c **** 
  19:.\Generated_Source\PSoC4/PWM_Timer.c **** #include "PWM_Timer.h"
  20:.\Generated_Source\PSoC4/PWM_Timer.c **** #include "CyLib.h"
  21:.\Generated_Source\PSoC4/PWM_Timer.c **** 
  22:.\Generated_Source\PSoC4/PWM_Timer.c **** uint8 PWM_Timer_initVar = 0u;
  23:.\Generated_Source\PSoC4/PWM_Timer.c **** 
  24:.\Generated_Source\PSoC4/PWM_Timer.c **** 
  25:.\Generated_Source\PSoC4/PWM_Timer.c **** /*******************************************************************************
  26:.\Generated_Source\PSoC4/PWM_Timer.c **** * Function Name: PWM_Timer_Init
ARM GAS  C:\Users\OEBN\AppData\Local\Temp\cc4YkDS7.s 			page 2


  27:.\Generated_Source\PSoC4/PWM_Timer.c **** ********************************************************************************
  28:.\Generated_Source\PSoC4/PWM_Timer.c **** *
  29:.\Generated_Source\PSoC4/PWM_Timer.c **** * Summary:
  30:.\Generated_Source\PSoC4/PWM_Timer.c **** *  Initialize/Restore default PWM_Timer configuration.
  31:.\Generated_Source\PSoC4/PWM_Timer.c **** *
  32:.\Generated_Source\PSoC4/PWM_Timer.c **** * Parameters:
  33:.\Generated_Source\PSoC4/PWM_Timer.c **** *  None
  34:.\Generated_Source\PSoC4/PWM_Timer.c **** *
  35:.\Generated_Source\PSoC4/PWM_Timer.c **** * Return:
  36:.\Generated_Source\PSoC4/PWM_Timer.c **** *  None
  37:.\Generated_Source\PSoC4/PWM_Timer.c **** *
  38:.\Generated_Source\PSoC4/PWM_Timer.c **** *******************************************************************************/
  39:.\Generated_Source\PSoC4/PWM_Timer.c **** void PWM_Timer_Init(void)
  40:.\Generated_Source\PSoC4/PWM_Timer.c **** {
  32              		.loc 1 40 0
  33              		.cfi_startproc
  34 0000 80B5     		push	{r7, lr}
  35              	.LCFI0:
  36              		.cfi_def_cfa_offset 8
  37              		.cfi_offset 7, -8
  38              		.cfi_offset 14, -4
  39 0002 00AF     		add	r7, sp, #0
  40              	.LCFI1:
  41              		.cfi_def_cfa_register 7
  41:.\Generated_Source\PSoC4/PWM_Timer.c **** 
  42:.\Generated_Source\PSoC4/PWM_Timer.c ****     /* Set values from customizer to CTRL */
  43:.\Generated_Source\PSoC4/PWM_Timer.c ****     #if (PWM_Timer__QUAD == PWM_Timer_CONFIG)
  44:.\Generated_Source\PSoC4/PWM_Timer.c ****         PWM_Timer_CONTROL_REG =
  45:.\Generated_Source\PSoC4/PWM_Timer.c ****         (((uint32)(PWM_Timer_QUAD_ENCODING_MODES     << PWM_Timer_QUAD_MODE_SHIFT))       |
  46:.\Generated_Source\PSoC4/PWM_Timer.c ****          ((uint32)(PWM_Timer_CONFIG                  << PWM_Timer_MODE_SHIFT)));
  47:.\Generated_Source\PSoC4/PWM_Timer.c ****     #endif  /* (PWM_Timer__QUAD == PWM_Timer_CONFIG) */
  48:.\Generated_Source\PSoC4/PWM_Timer.c **** 
  49:.\Generated_Source\PSoC4/PWM_Timer.c ****     #if (PWM_Timer__PWM_SEL == PWM_Timer_CONFIG)
  50:.\Generated_Source\PSoC4/PWM_Timer.c ****         PWM_Timer_CONTROL_REG =
  51:.\Generated_Source\PSoC4/PWM_Timer.c ****         (((uint32)(PWM_Timer_PWM_STOP_EVENT          << PWM_Timer_PWM_STOP_KILL_SHIFT))    |
  52:.\Generated_Source\PSoC4/PWM_Timer.c ****          ((uint32)(PWM_Timer_PWM_OUT_INVERT          << PWM_Timer_INV_OUT_SHIFT))         |
  53:.\Generated_Source\PSoC4/PWM_Timer.c ****          ((uint32)(PWM_Timer_PWM_OUT_N_INVERT        << PWM_Timer_INV_COMPL_OUT_SHIFT))     |
  54:.\Generated_Source\PSoC4/PWM_Timer.c ****          ((uint32)(PWM_Timer_PWM_MODE                << PWM_Timer_MODE_SHIFT)));
  55:.\Generated_Source\PSoC4/PWM_Timer.c **** 
  56:.\Generated_Source\PSoC4/PWM_Timer.c ****         #if (PWM_Timer__PWM_PR == PWM_Timer_PWM_MODE)
  57:.\Generated_Source\PSoC4/PWM_Timer.c ****             PWM_Timer_CONTROL_REG |=
  58:.\Generated_Source\PSoC4/PWM_Timer.c ****             ((uint32)(PWM_Timer_PWM_RUN_MODE         << PWM_Timer_ONESHOT_SHIFT));
  59:.\Generated_Source\PSoC4/PWM_Timer.c **** 
  60:.\Generated_Source\PSoC4/PWM_Timer.c ****             PWM_Timer_WriteCounter(PWM_Timer_PWM_PR_INIT_VALUE);
  61:.\Generated_Source\PSoC4/PWM_Timer.c ****         #else
  62:.\Generated_Source\PSoC4/PWM_Timer.c ****             PWM_Timer_CONTROL_REG |=
  63:.\Generated_Source\PSoC4/PWM_Timer.c ****             (((uint32)(PWM_Timer_PWM_ALIGN           << PWM_Timer_UPDOWN_SHIFT))          |
  64:.\Generated_Source\PSoC4/PWM_Timer.c ****              ((uint32)(PWM_Timer_PWM_KILL_EVENT      << PWM_Timer_PWM_SYNC_KILL_SHIFT)));
  65:.\Generated_Source\PSoC4/PWM_Timer.c ****         #endif  /* (PWM_Timer__PWM_PR == PWM_Timer_PWM_MODE) */
  66:.\Generated_Source\PSoC4/PWM_Timer.c **** 
  67:.\Generated_Source\PSoC4/PWM_Timer.c ****         #if (PWM_Timer__PWM_DT == PWM_Timer_PWM_MODE)
  68:.\Generated_Source\PSoC4/PWM_Timer.c ****             PWM_Timer_CONTROL_REG |=
  69:.\Generated_Source\PSoC4/PWM_Timer.c ****             ((uint32)(PWM_Timer_PWM_DEAD_TIME_CYCLE  << PWM_Timer_PRESCALER_SHIFT));
  70:.\Generated_Source\PSoC4/PWM_Timer.c ****         #endif  /* (PWM_Timer__PWM_DT == PWM_Timer_PWM_MODE) */
  71:.\Generated_Source\PSoC4/PWM_Timer.c **** 
  72:.\Generated_Source\PSoC4/PWM_Timer.c ****         #if (PWM_Timer__PWM == PWM_Timer_PWM_MODE)
  73:.\Generated_Source\PSoC4/PWM_Timer.c ****             PWM_Timer_CONTROL_REG |=
ARM GAS  C:\Users\OEBN\AppData\Local\Temp\cc4YkDS7.s 			page 3


  74:.\Generated_Source\PSoC4/PWM_Timer.c ****             ((uint32)PWM_Timer_PWM_PRESCALER         << PWM_Timer_PRESCALER_SHIFT);
  75:.\Generated_Source\PSoC4/PWM_Timer.c ****         #endif  /* (PWM_Timer__PWM == PWM_Timer_PWM_MODE) */
  76:.\Generated_Source\PSoC4/PWM_Timer.c ****     #endif  /* (PWM_Timer__PWM_SEL == PWM_Timer_CONFIG) */
  77:.\Generated_Source\PSoC4/PWM_Timer.c **** 
  78:.\Generated_Source\PSoC4/PWM_Timer.c ****     #if (PWM_Timer__TIMER == PWM_Timer_CONFIG)
  79:.\Generated_Source\PSoC4/PWM_Timer.c ****         PWM_Timer_CONTROL_REG =
  42              		.loc 1 79 0
  43 0004 074B     		ldr	r3, .L2
  44 0006 8022     		mov	r2, #128
  45 0008 9204     		lsl	r2, r2, #18
  46 000a 1A60     		str	r2, [r3]
  80:.\Generated_Source\PSoC4/PWM_Timer.c ****         (((uint32)(PWM_Timer_TC_PRESCALER            << PWM_Timer_PRESCALER_SHIFT))   |
  81:.\Generated_Source\PSoC4/PWM_Timer.c ****          ((uint32)(PWM_Timer_TC_COUNTER_MODE         << PWM_Timer_UPDOWN_SHIFT))      |
  82:.\Generated_Source\PSoC4/PWM_Timer.c ****          ((uint32)(PWM_Timer_TC_RUN_MODE             << PWM_Timer_ONESHOT_SHIFT))     |
  83:.\Generated_Source\PSoC4/PWM_Timer.c ****          ((uint32)(PWM_Timer_TC_COMP_CAP_MODE        << PWM_Timer_MODE_SHIFT)));
  84:.\Generated_Source\PSoC4/PWM_Timer.c ****     #endif  /* (PWM_Timer__TIMER == PWM_Timer_CONFIG) */
  85:.\Generated_Source\PSoC4/PWM_Timer.c **** 
  86:.\Generated_Source\PSoC4/PWM_Timer.c ****     /* Set values from customizer to CTRL1 */
  87:.\Generated_Source\PSoC4/PWM_Timer.c ****     #if (PWM_Timer__QUAD == PWM_Timer_CONFIG)
  88:.\Generated_Source\PSoC4/PWM_Timer.c ****         PWM_Timer_TRIG_CONTROL1_REG  =
  89:.\Generated_Source\PSoC4/PWM_Timer.c ****         (((uint32)(PWM_Timer_QUAD_PHIA_SIGNAL_MODE   << PWM_Timer_COUNT_SHIFT))       |
  90:.\Generated_Source\PSoC4/PWM_Timer.c ****          ((uint32)(PWM_Timer_QUAD_INDEX_SIGNAL_MODE  << PWM_Timer_RELOAD_SHIFT))      |
  91:.\Generated_Source\PSoC4/PWM_Timer.c ****          ((uint32)(PWM_Timer_QUAD_STOP_SIGNAL_MODE   << PWM_Timer_STOP_SHIFT))        |
  92:.\Generated_Source\PSoC4/PWM_Timer.c ****          ((uint32)(PWM_Timer_QUAD_PHIB_SIGNAL_MODE   << PWM_Timer_START_SHIFT)));
  93:.\Generated_Source\PSoC4/PWM_Timer.c ****     #endif  /* (PWM_Timer__QUAD == PWM_Timer_CONFIG) */
  94:.\Generated_Source\PSoC4/PWM_Timer.c **** 
  95:.\Generated_Source\PSoC4/PWM_Timer.c ****     #if (PWM_Timer__PWM_SEL == PWM_Timer_CONFIG)
  96:.\Generated_Source\PSoC4/PWM_Timer.c ****         PWM_Timer_TRIG_CONTROL1_REG  =
  97:.\Generated_Source\PSoC4/PWM_Timer.c ****         (((uint32)(PWM_Timer_PWM_SWITCH_SIGNAL_MODE  << PWM_Timer_CAPTURE_SHIFT))     |
  98:.\Generated_Source\PSoC4/PWM_Timer.c ****          ((uint32)(PWM_Timer_PWM_COUNT_SIGNAL_MODE   << PWM_Timer_COUNT_SHIFT))       |
  99:.\Generated_Source\PSoC4/PWM_Timer.c ****          ((uint32)(PWM_Timer_PWM_RELOAD_SIGNAL_MODE  << PWM_Timer_RELOAD_SHIFT))      |
 100:.\Generated_Source\PSoC4/PWM_Timer.c ****          ((uint32)(PWM_Timer_PWM_STOP_SIGNAL_MODE    << PWM_Timer_STOP_SHIFT))        |
 101:.\Generated_Source\PSoC4/PWM_Timer.c ****          ((uint32)(PWM_Timer_PWM_START_SIGNAL_MODE   << PWM_Timer_START_SHIFT)));
 102:.\Generated_Source\PSoC4/PWM_Timer.c ****     #endif  /* (PWM_Timer__PWM_SEL == PWM_Timer_CONFIG) */
 103:.\Generated_Source\PSoC4/PWM_Timer.c **** 
 104:.\Generated_Source\PSoC4/PWM_Timer.c ****     #if (PWM_Timer__TIMER == PWM_Timer_CONFIG)
 105:.\Generated_Source\PSoC4/PWM_Timer.c ****         PWM_Timer_TRIG_CONTROL1_REG  =
  47              		.loc 1 105 0
  48 000c 064B     		ldr	r3, .L2+4
  49 000e 0C22     		mov	r2, #12
  50 0010 1A60     		str	r2, [r3]
 106:.\Generated_Source\PSoC4/PWM_Timer.c ****         (((uint32)(PWM_Timer_TC_CAPTURE_SIGNAL_MODE  << PWM_Timer_CAPTURE_SHIFT))     |
 107:.\Generated_Source\PSoC4/PWM_Timer.c ****          ((uint32)(PWM_Timer_TC_COUNT_SIGNAL_MODE    << PWM_Timer_COUNT_SHIFT))       |
 108:.\Generated_Source\PSoC4/PWM_Timer.c ****          ((uint32)(PWM_Timer_TC_RELOAD_SIGNAL_MODE   << PWM_Timer_RELOAD_SHIFT))      |
 109:.\Generated_Source\PSoC4/PWM_Timer.c ****          ((uint32)(PWM_Timer_TC_STOP_SIGNAL_MODE     << PWM_Timer_STOP_SHIFT))        |
 110:.\Generated_Source\PSoC4/PWM_Timer.c ****          ((uint32)(PWM_Timer_TC_START_SIGNAL_MODE    << PWM_Timer_START_SHIFT)));
 111:.\Generated_Source\PSoC4/PWM_Timer.c ****     #endif  /* (PWM_Timer__TIMER == PWM_Timer_CONFIG) */
 112:.\Generated_Source\PSoC4/PWM_Timer.c **** 
 113:.\Generated_Source\PSoC4/PWM_Timer.c ****     /* Set values from customizer to INTR */
 114:.\Generated_Source\PSoC4/PWM_Timer.c ****     #if (PWM_Timer__QUAD == PWM_Timer_CONFIG)
 115:.\Generated_Source\PSoC4/PWM_Timer.c ****         PWM_Timer_SetInterruptMode(PWM_Timer_QUAD_INTERRUPT_MASK);
 116:.\Generated_Source\PSoC4/PWM_Timer.c ****     #endif  /* (PWM_Timer__QUAD == PWM_Timer_CONFIG) */
 117:.\Generated_Source\PSoC4/PWM_Timer.c **** 
 118:.\Generated_Source\PSoC4/PWM_Timer.c ****     #if (PWM_Timer__PWM_SEL == PWM_Timer_CONFIG)
 119:.\Generated_Source\PSoC4/PWM_Timer.c ****         PWM_Timer_SetInterruptMode(PWM_Timer_PWM_INTERRUPT_MASK);
 120:.\Generated_Source\PSoC4/PWM_Timer.c ****     #endif  /* (PWM_Timer__PWM_SEL == PWM_Timer_CONFIG) */
 121:.\Generated_Source\PSoC4/PWM_Timer.c **** 
ARM GAS  C:\Users\OEBN\AppData\Local\Temp\cc4YkDS7.s 			page 4


 122:.\Generated_Source\PSoC4/PWM_Timer.c ****     #if (PWM_Timer__TIMER == PWM_Timer_CONFIG)
 123:.\Generated_Source\PSoC4/PWM_Timer.c ****         PWM_Timer_SetInterruptMode(PWM_Timer_TC_INTERRUPT_MASK);
  51              		.loc 1 123 0
  52 0012 0120     		mov	r0, #1
  53 0014 FFF7FEFF 		bl	PWM_Timer_SetInterruptMode
 124:.\Generated_Source\PSoC4/PWM_Timer.c ****     #endif  /* (PWM_Timer__TIMER == PWM_Timer_CONFIG) */
 125:.\Generated_Source\PSoC4/PWM_Timer.c **** 
 126:.\Generated_Source\PSoC4/PWM_Timer.c ****     /* Set other values from customizer */
 127:.\Generated_Source\PSoC4/PWM_Timer.c ****     #if (PWM_Timer__TIMER == PWM_Timer_CONFIG)
 128:.\Generated_Source\PSoC4/PWM_Timer.c ****         PWM_Timer_WritePeriod(PWM_Timer_TC_PERIOD_VALUE );
  54              		.loc 1 128 0
  55 0018 0A20     		mov	r0, #10
  56 001a FFF7FEFF 		bl	PWM_Timer_WritePeriod
 129:.\Generated_Source\PSoC4/PWM_Timer.c **** 
 130:.\Generated_Source\PSoC4/PWM_Timer.c ****         #if (PWM_Timer__COUNT_DOWN == PWM_Timer_TC_COUNTER_MODE)
 131:.\Generated_Source\PSoC4/PWM_Timer.c ****             PWM_Timer_WriteCounter(PWM_Timer_TC_PERIOD_VALUE );
 132:.\Generated_Source\PSoC4/PWM_Timer.c ****         #endif  /* (PWM_Timer__COUNT_DOWN == PWM_Timer_TC_COUNTER_MODE) */
 133:.\Generated_Source\PSoC4/PWM_Timer.c **** 
 134:.\Generated_Source\PSoC4/PWM_Timer.c ****         #if (PWM_Timer__COMPARE == PWM_Timer_TC_COMP_CAP_MODE)
 135:.\Generated_Source\PSoC4/PWM_Timer.c ****             PWM_Timer_WriteCompare(PWM_Timer_TC_COMPARE_VALUE);
 136:.\Generated_Source\PSoC4/PWM_Timer.c **** 
 137:.\Generated_Source\PSoC4/PWM_Timer.c ****             #if (1u == PWM_Timer_TC_COMPARE_SWAP)
 138:.\Generated_Source\PSoC4/PWM_Timer.c ****                 PWM_Timer_SetCompareSwap(1u);
 139:.\Generated_Source\PSoC4/PWM_Timer.c ****                 PWM_Timer_WriteCompareBuf(PWM_Timer_TC_COMPARE_BUF_VALUE);
 140:.\Generated_Source\PSoC4/PWM_Timer.c ****             #endif  /* (1u == PWM_Timer_TC_COMPARE_SWAP) */
 141:.\Generated_Source\PSoC4/PWM_Timer.c ****         #endif  /* (PWM_Timer__COMPARE == PWM_Timer_TC_COMP_CAP_MODE) */
 142:.\Generated_Source\PSoC4/PWM_Timer.c ****     #endif  /* (PWM_Timer__TIMER == PWM_Timer_CONFIG) */
 143:.\Generated_Source\PSoC4/PWM_Timer.c **** 
 144:.\Generated_Source\PSoC4/PWM_Timer.c ****     #if (PWM_Timer__PWM_SEL == PWM_Timer_CONFIG)
 145:.\Generated_Source\PSoC4/PWM_Timer.c ****         PWM_Timer_WritePeriod(PWM_Timer_PWM_PERIOD_VALUE );
 146:.\Generated_Source\PSoC4/PWM_Timer.c ****         PWM_Timer_WriteCompare(PWM_Timer_PWM_COMPARE_VALUE);
 147:.\Generated_Source\PSoC4/PWM_Timer.c **** 
 148:.\Generated_Source\PSoC4/PWM_Timer.c ****         #if (1u == PWM_Timer_PWM_COMPARE_SWAP)
 149:.\Generated_Source\PSoC4/PWM_Timer.c ****             PWM_Timer_SetCompareSwap(1u);
 150:.\Generated_Source\PSoC4/PWM_Timer.c ****             PWM_Timer_WriteCompareBuf(PWM_Timer_PWM_COMPARE_BUF_VALUE);
 151:.\Generated_Source\PSoC4/PWM_Timer.c ****         #endif  /* (1u == PWM_Timer_PWM_COMPARE_SWAP) */
 152:.\Generated_Source\PSoC4/PWM_Timer.c **** 
 153:.\Generated_Source\PSoC4/PWM_Timer.c ****         #if (1u == PWM_Timer_PWM_PERIOD_SWAP)
 154:.\Generated_Source\PSoC4/PWM_Timer.c ****             PWM_Timer_SetPeriodSwap(1u);
 155:.\Generated_Source\PSoC4/PWM_Timer.c ****             PWM_Timer_WritePeriodBuf(PWM_Timer_PWM_PERIOD_BUF_VALUE);
 156:.\Generated_Source\PSoC4/PWM_Timer.c ****         #endif  /* (1u == PWM_Timer_PWM_PERIOD_SWAP) */
 157:.\Generated_Source\PSoC4/PWM_Timer.c **** 
 158:.\Generated_Source\PSoC4/PWM_Timer.c ****         /* Set values from customizer to CTRL2 */
 159:.\Generated_Source\PSoC4/PWM_Timer.c ****         #if (PWM_Timer__PWM_PR == PWM_Timer_PWM_MODE)
 160:.\Generated_Source\PSoC4/PWM_Timer.c ****             PWM_Timer_TRIG_CONTROL2_REG =
 161:.\Generated_Source\PSoC4/PWM_Timer.c ****                     (PWM_Timer_CC_MATCH_NO_CHANGE    |
 162:.\Generated_Source\PSoC4/PWM_Timer.c ****                     PWM_Timer_OVERLOW_NO_CHANGE      |
 163:.\Generated_Source\PSoC4/PWM_Timer.c ****                     PWM_Timer_UNDERFLOW_NO_CHANGE);
 164:.\Generated_Source\PSoC4/PWM_Timer.c ****         #else
 165:.\Generated_Source\PSoC4/PWM_Timer.c ****             #if (PWM_Timer__LEFT == PWM_Timer_PWM_ALIGN)
 166:.\Generated_Source\PSoC4/PWM_Timer.c ****                 PWM_Timer_TRIG_CONTROL2_REG = PWM_Timer_PWM_MODE_LEFT;
 167:.\Generated_Source\PSoC4/PWM_Timer.c ****             #endif  /* ( PWM_Timer_PWM_LEFT == PWM_Timer_PWM_ALIGN) */
 168:.\Generated_Source\PSoC4/PWM_Timer.c **** 
 169:.\Generated_Source\PSoC4/PWM_Timer.c ****             #if (PWM_Timer__RIGHT == PWM_Timer_PWM_ALIGN)
 170:.\Generated_Source\PSoC4/PWM_Timer.c ****                 PWM_Timer_WriteCounter(PWM_Timer_PWM_PERIOD_VALUE);
 171:.\Generated_Source\PSoC4/PWM_Timer.c ****                 PWM_Timer_TRIG_CONTROL2_REG = PWM_Timer_PWM_MODE_RIGHT;
 172:.\Generated_Source\PSoC4/PWM_Timer.c ****             #endif  /* ( PWM_Timer_PWM_RIGHT == PWM_Timer_PWM_ALIGN) */
ARM GAS  C:\Users\OEBN\AppData\Local\Temp\cc4YkDS7.s 			page 5


 173:.\Generated_Source\PSoC4/PWM_Timer.c **** 
 174:.\Generated_Source\PSoC4/PWM_Timer.c ****             #if (PWM_Timer__CENTER == PWM_Timer_PWM_ALIGN)
 175:.\Generated_Source\PSoC4/PWM_Timer.c ****                 PWM_Timer_TRIG_CONTROL2_REG = PWM_Timer_PWM_MODE_CENTER;
 176:.\Generated_Source\PSoC4/PWM_Timer.c ****             #endif  /* ( PWM_Timer_PWM_CENTER == PWM_Timer_PWM_ALIGN) */
 177:.\Generated_Source\PSoC4/PWM_Timer.c **** 
 178:.\Generated_Source\PSoC4/PWM_Timer.c ****             #if (PWM_Timer__ASYMMETRIC == PWM_Timer_PWM_ALIGN)
 179:.\Generated_Source\PSoC4/PWM_Timer.c ****                 PWM_Timer_TRIG_CONTROL2_REG = PWM_Timer_PWM_MODE_ASYM;
 180:.\Generated_Source\PSoC4/PWM_Timer.c ****             #endif  /* (PWM_Timer__ASYMMETRIC == PWM_Timer_PWM_ALIGN) */
 181:.\Generated_Source\PSoC4/PWM_Timer.c ****         #endif  /* (PWM_Timer__PWM_PR == PWM_Timer_PWM_MODE) */
 182:.\Generated_Source\PSoC4/PWM_Timer.c ****     #endif  /* (PWM_Timer__PWM_SEL == PWM_Timer_CONFIG) */
 183:.\Generated_Source\PSoC4/PWM_Timer.c **** }
  57              		.loc 1 183 0
  58 001e BD46     		mov	sp, r7
  59              		@ sp needed for prologue
  60 0020 80BD     		pop	{r7, pc}
  61              	.L3:
  62 0022 C046     		.align	2
  63              	.L2:
  64 0024 00010540 		.word	1074069760
  65 0028 24010540 		.word	1074069796
  66              		.cfi_endproc
  67              	.LFE0:
  68              		.size	PWM_Timer_Init, .-PWM_Timer_Init
  69              		.section	.text.PWM_Timer_Enable,"ax",%progbits
  70              		.align	2
  71              		.global	PWM_Timer_Enable
  72              		.code	16
  73              		.thumb_func
  74              		.type	PWM_Timer_Enable, %function
  75              	PWM_Timer_Enable:
  76              	.LFB1:
 184:.\Generated_Source\PSoC4/PWM_Timer.c **** 
 185:.\Generated_Source\PSoC4/PWM_Timer.c **** 
 186:.\Generated_Source\PSoC4/PWM_Timer.c **** /*******************************************************************************
 187:.\Generated_Source\PSoC4/PWM_Timer.c **** * Function Name: PWM_Timer_Enable
 188:.\Generated_Source\PSoC4/PWM_Timer.c **** ********************************************************************************
 189:.\Generated_Source\PSoC4/PWM_Timer.c **** *
 190:.\Generated_Source\PSoC4/PWM_Timer.c **** * Summary:
 191:.\Generated_Source\PSoC4/PWM_Timer.c **** *  Enables the PWM_Timer.
 192:.\Generated_Source\PSoC4/PWM_Timer.c **** *
 193:.\Generated_Source\PSoC4/PWM_Timer.c **** * Parameters:
 194:.\Generated_Source\PSoC4/PWM_Timer.c **** *  None
 195:.\Generated_Source\PSoC4/PWM_Timer.c **** *
 196:.\Generated_Source\PSoC4/PWM_Timer.c **** * Return:
 197:.\Generated_Source\PSoC4/PWM_Timer.c **** *  None
 198:.\Generated_Source\PSoC4/PWM_Timer.c **** *
 199:.\Generated_Source\PSoC4/PWM_Timer.c **** *******************************************************************************/
 200:.\Generated_Source\PSoC4/PWM_Timer.c **** void PWM_Timer_Enable(void)
 201:.\Generated_Source\PSoC4/PWM_Timer.c **** {
  77              		.loc 1 201 0
  78              		.cfi_startproc
  79 0000 90B5     		push	{r4, r7, lr}
  80              	.LCFI2:
  81              		.cfi_def_cfa_offset 12
  82              		.cfi_offset 4, -12
  83              		.cfi_offset 7, -8
  84              		.cfi_offset 14, -4
ARM GAS  C:\Users\OEBN\AppData\Local\Temp\cc4YkDS7.s 			page 6


  85 0002 83B0     		sub	sp, sp, #12
  86              	.LCFI3:
  87              		.cfi_def_cfa_offset 24
  88 0004 00AF     		add	r7, sp, #0
  89              	.LCFI4:
  90              		.cfi_def_cfa_register 7
 202:.\Generated_Source\PSoC4/PWM_Timer.c ****     uint8 enableInterrupts;
 203:.\Generated_Source\PSoC4/PWM_Timer.c **** 
 204:.\Generated_Source\PSoC4/PWM_Timer.c ****     enableInterrupts = CyEnterCriticalSection();
  91              		.loc 1 204 0
  92 0006 FC1D     		add	r4, r7, #7
  93 0008 FFF7FEFF 		bl	CyEnterCriticalSection
  94 000c 031C     		mov	r3, r0
  95 000e 2370     		strb	r3, [r4]
 205:.\Generated_Source\PSoC4/PWM_Timer.c ****     PWM_Timer_BLOCK_CONTROL_REG |= PWM_Timer_MASK;
  96              		.loc 1 205 0
  97 0010 084B     		ldr	r3, .L5
  98 0012 084A     		ldr	r2, .L5
  99 0014 1268     		ldr	r2, [r2]
 100 0016 0121     		mov	r1, #1
 101 0018 0A43     		orr	r2, r1
 102 001a 1A60     		str	r2, [r3]
 206:.\Generated_Source\PSoC4/PWM_Timer.c ****     CyExitCriticalSection(enableInterrupts);
 103              		.loc 1 206 0
 104 001c FB1D     		add	r3, r7, #7
 105 001e 1B78     		ldrb	r3, [r3]
 106 0020 181C     		mov	r0, r3
 107 0022 FFF7FEFF 		bl	CyExitCriticalSection
 207:.\Generated_Source\PSoC4/PWM_Timer.c **** 
 208:.\Generated_Source\PSoC4/PWM_Timer.c ****     /* Start Timer or PWM if start input is absent */
 209:.\Generated_Source\PSoC4/PWM_Timer.c ****     #if (PWM_Timer__PWM_SEL == PWM_Timer_CONFIG)
 210:.\Generated_Source\PSoC4/PWM_Timer.c ****         #if (0u == PWM_Timer_PWM_START_SIGNAL_PRESENT)
 211:.\Generated_Source\PSoC4/PWM_Timer.c ****             PWM_Timer_TriggerCommand(PWM_Timer_MASK, PWM_Timer_CMD_START);
 212:.\Generated_Source\PSoC4/PWM_Timer.c ****         #endif /* (0u == PWM_Timer_PWM_START_SIGNAL_PRESENT) */
 213:.\Generated_Source\PSoC4/PWM_Timer.c ****     #endif /* (PWM_Timer__PWM_SEL == PWM_Timer_CONFIG) */
 214:.\Generated_Source\PSoC4/PWM_Timer.c **** 
 215:.\Generated_Source\PSoC4/PWM_Timer.c ****     #if (PWM_Timer__TIMER == PWM_Timer_CONFIG)
 216:.\Generated_Source\PSoC4/PWM_Timer.c ****         #if (0u == PWM_Timer_TC_START_SIGNAL_PRESENT)
 217:.\Generated_Source\PSoC4/PWM_Timer.c ****             PWM_Timer_TriggerCommand(PWM_Timer_MASK, PWM_Timer_CMD_START);
 108              		.loc 1 217 0
 109 0026 0120     		mov	r0, #1
 110 0028 1821     		mov	r1, #24
 111 002a FFF7FEFF 		bl	PWM_Timer_TriggerCommand
 218:.\Generated_Source\PSoC4/PWM_Timer.c ****         #endif /* (0u == PWM_Timer_TC_START_SIGNAL_PRESENT) */
 219:.\Generated_Source\PSoC4/PWM_Timer.c ****     #endif /* (PWM_Timer__TIMER == PWM_Timer_CONFIG) */
 220:.\Generated_Source\PSoC4/PWM_Timer.c **** }
 112              		.loc 1 220 0
 113 002e BD46     		mov	sp, r7
 114 0030 03B0     		add	sp, sp, #12
 115              		@ sp needed for prologue
 116 0032 90BD     		pop	{r4, r7, pc}
 117              	.L6:
 118              		.align	2
 119              	.L5:
 120 0034 00000540 		.word	1074069504
 121              		.cfi_endproc
 122              	.LFE1:
ARM GAS  C:\Users\OEBN\AppData\Local\Temp\cc4YkDS7.s 			page 7


 123              		.size	PWM_Timer_Enable, .-PWM_Timer_Enable
 124              		.section	.text.PWM_Timer_Start,"ax",%progbits
 125              		.align	2
 126              		.global	PWM_Timer_Start
 127              		.code	16
 128              		.thumb_func
 129              		.type	PWM_Timer_Start, %function
 130              	PWM_Timer_Start:
 131              	.LFB2:
 221:.\Generated_Source\PSoC4/PWM_Timer.c **** 
 222:.\Generated_Source\PSoC4/PWM_Timer.c **** 
 223:.\Generated_Source\PSoC4/PWM_Timer.c **** /*******************************************************************************
 224:.\Generated_Source\PSoC4/PWM_Timer.c **** * Function Name: PWM_Timer_Start
 225:.\Generated_Source\PSoC4/PWM_Timer.c **** ********************************************************************************
 226:.\Generated_Source\PSoC4/PWM_Timer.c **** *
 227:.\Generated_Source\PSoC4/PWM_Timer.c **** * Summary:
 228:.\Generated_Source\PSoC4/PWM_Timer.c **** *  Initializes the PWM_Timer with default customizer
 229:.\Generated_Source\PSoC4/PWM_Timer.c **** *  values when called the first time and enables the PWM_Timer.
 230:.\Generated_Source\PSoC4/PWM_Timer.c **** *  For subsequent calls the configuration is left unchanged and the component is
 231:.\Generated_Source\PSoC4/PWM_Timer.c **** *  just enabled.
 232:.\Generated_Source\PSoC4/PWM_Timer.c **** *
 233:.\Generated_Source\PSoC4/PWM_Timer.c **** * Parameters:
 234:.\Generated_Source\PSoC4/PWM_Timer.c **** *  None
 235:.\Generated_Source\PSoC4/PWM_Timer.c **** *
 236:.\Generated_Source\PSoC4/PWM_Timer.c **** * Return:
 237:.\Generated_Source\PSoC4/PWM_Timer.c **** *  None
 238:.\Generated_Source\PSoC4/PWM_Timer.c **** *
 239:.\Generated_Source\PSoC4/PWM_Timer.c **** * Global variables:
 240:.\Generated_Source\PSoC4/PWM_Timer.c **** *  PWM_Timer_initVar: global variable is used to indicate initial
 241:.\Generated_Source\PSoC4/PWM_Timer.c **** *  configuration of this component.  The variable is initialized to zero and set
 242:.\Generated_Source\PSoC4/PWM_Timer.c **** *  to 1 the first time PWM_Timer_Start() is called. This allows
 243:.\Generated_Source\PSoC4/PWM_Timer.c **** *  enabling/disabling a component without re-initialization in all subsequent
 244:.\Generated_Source\PSoC4/PWM_Timer.c **** *  calls to the PWM_Timer_Start() routine.
 245:.\Generated_Source\PSoC4/PWM_Timer.c **** *
 246:.\Generated_Source\PSoC4/PWM_Timer.c **** *******************************************************************************/
 247:.\Generated_Source\PSoC4/PWM_Timer.c **** void PWM_Timer_Start(void)
 248:.\Generated_Source\PSoC4/PWM_Timer.c **** {
 132              		.loc 1 248 0
 133              		.cfi_startproc
 134 0000 80B5     		push	{r7, lr}
 135              	.LCFI5:
 136              		.cfi_def_cfa_offset 8
 137              		.cfi_offset 7, -8
 138              		.cfi_offset 14, -4
 139 0002 00AF     		add	r7, sp, #0
 140              	.LCFI6:
 141              		.cfi_def_cfa_register 7
 249:.\Generated_Source\PSoC4/PWM_Timer.c ****     if (0u == PWM_Timer_initVar)
 142              		.loc 1 249 0
 143 0004 064B     		ldr	r3, .L9
 144 0006 1B78     		ldrb	r3, [r3]
 145 0008 002B     		cmp	r3, #0
 146 000a 04D1     		bne	.L8
 250:.\Generated_Source\PSoC4/PWM_Timer.c ****     {
 251:.\Generated_Source\PSoC4/PWM_Timer.c ****         PWM_Timer_Init();
 147              		.loc 1 251 0
 148 000c FFF7FEFF 		bl	PWM_Timer_Init
ARM GAS  C:\Users\OEBN\AppData\Local\Temp\cc4YkDS7.s 			page 8


 252:.\Generated_Source\PSoC4/PWM_Timer.c ****         PWM_Timer_initVar = 1u;
 149              		.loc 1 252 0
 150 0010 034B     		ldr	r3, .L9
 151 0012 0122     		mov	r2, #1
 152 0014 1A70     		strb	r2, [r3]
 153              	.L8:
 253:.\Generated_Source\PSoC4/PWM_Timer.c ****     }
 254:.\Generated_Source\PSoC4/PWM_Timer.c **** 
 255:.\Generated_Source\PSoC4/PWM_Timer.c ****     PWM_Timer_Enable();
 154              		.loc 1 255 0
 155 0016 FFF7FEFF 		bl	PWM_Timer_Enable
 256:.\Generated_Source\PSoC4/PWM_Timer.c **** }
 156              		.loc 1 256 0
 157 001a BD46     		mov	sp, r7
 158              		@ sp needed for prologue
 159 001c 80BD     		pop	{r7, pc}
 160              	.L10:
 161 001e C046     		.align	2
 162              	.L9:
 163 0020 00000000 		.word	PWM_Timer_initVar
 164              		.cfi_endproc
 165              	.LFE2:
 166              		.size	PWM_Timer_Start, .-PWM_Timer_Start
 167              		.section	.text.PWM_Timer_Stop,"ax",%progbits
 168              		.align	2
 169              		.global	PWM_Timer_Stop
 170              		.code	16
 171              		.thumb_func
 172              		.type	PWM_Timer_Stop, %function
 173              	PWM_Timer_Stop:
 174              	.LFB3:
 257:.\Generated_Source\PSoC4/PWM_Timer.c **** 
 258:.\Generated_Source\PSoC4/PWM_Timer.c **** 
 259:.\Generated_Source\PSoC4/PWM_Timer.c **** /*******************************************************************************
 260:.\Generated_Source\PSoC4/PWM_Timer.c **** * Function Name: PWM_Timer_Stop
 261:.\Generated_Source\PSoC4/PWM_Timer.c **** ********************************************************************************
 262:.\Generated_Source\PSoC4/PWM_Timer.c **** *
 263:.\Generated_Source\PSoC4/PWM_Timer.c **** * Summary:
 264:.\Generated_Source\PSoC4/PWM_Timer.c **** *  Disables the PWM_Timer.
 265:.\Generated_Source\PSoC4/PWM_Timer.c **** *
 266:.\Generated_Source\PSoC4/PWM_Timer.c **** * Parameters:
 267:.\Generated_Source\PSoC4/PWM_Timer.c **** *  None
 268:.\Generated_Source\PSoC4/PWM_Timer.c **** *
 269:.\Generated_Source\PSoC4/PWM_Timer.c **** * Return:
 270:.\Generated_Source\PSoC4/PWM_Timer.c **** *  None
 271:.\Generated_Source\PSoC4/PWM_Timer.c **** *
 272:.\Generated_Source\PSoC4/PWM_Timer.c **** *******************************************************************************/
 273:.\Generated_Source\PSoC4/PWM_Timer.c **** void PWM_Timer_Stop(void)
 274:.\Generated_Source\PSoC4/PWM_Timer.c **** {
 175              		.loc 1 274 0
 176              		.cfi_startproc
 177 0000 90B5     		push	{r4, r7, lr}
 178              	.LCFI7:
 179              		.cfi_def_cfa_offset 12
 180              		.cfi_offset 4, -12
 181              		.cfi_offset 7, -8
 182              		.cfi_offset 14, -4
ARM GAS  C:\Users\OEBN\AppData\Local\Temp\cc4YkDS7.s 			page 9


 183 0002 83B0     		sub	sp, sp, #12
 184              	.LCFI8:
 185              		.cfi_def_cfa_offset 24
 186 0004 00AF     		add	r7, sp, #0
 187              	.LCFI9:
 188              		.cfi_def_cfa_register 7
 275:.\Generated_Source\PSoC4/PWM_Timer.c ****     uint8 enableInterrupts;
 276:.\Generated_Source\PSoC4/PWM_Timer.c **** 
 277:.\Generated_Source\PSoC4/PWM_Timer.c ****     enableInterrupts = CyEnterCriticalSection();
 189              		.loc 1 277 0
 190 0006 FC1D     		add	r4, r7, #7
 191 0008 FFF7FEFF 		bl	CyEnterCriticalSection
 192 000c 031C     		mov	r3, r0
 193 000e 2370     		strb	r3, [r4]
 278:.\Generated_Source\PSoC4/PWM_Timer.c **** 
 279:.\Generated_Source\PSoC4/PWM_Timer.c ****     PWM_Timer_BLOCK_CONTROL_REG &= (uint32)~PWM_Timer_MASK;
 194              		.loc 1 279 0
 195 0010 064B     		ldr	r3, .L12
 196 0012 064A     		ldr	r2, .L12
 197 0014 1268     		ldr	r2, [r2]
 198 0016 0121     		mov	r1, #1
 199 0018 8A43     		bic	r2, r1
 200 001a 1A60     		str	r2, [r3]
 280:.\Generated_Source\PSoC4/PWM_Timer.c **** 
 281:.\Generated_Source\PSoC4/PWM_Timer.c ****     CyExitCriticalSection(enableInterrupts);
 201              		.loc 1 281 0
 202 001c FB1D     		add	r3, r7, #7
 203 001e 1B78     		ldrb	r3, [r3]
 204 0020 181C     		mov	r0, r3
 205 0022 FFF7FEFF 		bl	CyExitCriticalSection
 282:.\Generated_Source\PSoC4/PWM_Timer.c **** }
 206              		.loc 1 282 0
 207 0026 BD46     		mov	sp, r7
 208 0028 03B0     		add	sp, sp, #12
 209              		@ sp needed for prologue
 210 002a 90BD     		pop	{r4, r7, pc}
 211              	.L13:
 212              		.align	2
 213              	.L12:
 214 002c 00000540 		.word	1074069504
 215              		.cfi_endproc
 216              	.LFE3:
 217              		.size	PWM_Timer_Stop, .-PWM_Timer_Stop
 218              		.section	.text.PWM_Timer_SetMode,"ax",%progbits
 219              		.align	2
 220              		.global	PWM_Timer_SetMode
 221              		.code	16
 222              		.thumb_func
 223              		.type	PWM_Timer_SetMode, %function
 224              	PWM_Timer_SetMode:
 225              	.LFB4:
 283:.\Generated_Source\PSoC4/PWM_Timer.c **** 
 284:.\Generated_Source\PSoC4/PWM_Timer.c **** 
 285:.\Generated_Source\PSoC4/PWM_Timer.c **** /*******************************************************************************
 286:.\Generated_Source\PSoC4/PWM_Timer.c **** * Function Name: PWM_Timer_SetMode
 287:.\Generated_Source\PSoC4/PWM_Timer.c **** ********************************************************************************
 288:.\Generated_Source\PSoC4/PWM_Timer.c **** *
ARM GAS  C:\Users\OEBN\AppData\Local\Temp\cc4YkDS7.s 			page 10


 289:.\Generated_Source\PSoC4/PWM_Timer.c **** * Summary:
 290:.\Generated_Source\PSoC4/PWM_Timer.c **** *  Sets the operation mode of the PWM_Timer. This function is used when
 291:.\Generated_Source\PSoC4/PWM_Timer.c **** *  configured as a generic PWM_Timer and the actual mode of operation is
 292:.\Generated_Source\PSoC4/PWM_Timer.c **** *  set at runtime. The mode must be set while the component is disabled.
 293:.\Generated_Source\PSoC4/PWM_Timer.c **** *
 294:.\Generated_Source\PSoC4/PWM_Timer.c **** * Parameters:
 295:.\Generated_Source\PSoC4/PWM_Timer.c **** *  mode: Mode for the PWM_Timer to operate in
 296:.\Generated_Source\PSoC4/PWM_Timer.c **** *   Values:
 297:.\Generated_Source\PSoC4/PWM_Timer.c **** *   - PWM_Timer_MODE_TIMER_COMPARE - Timer / Counter with
 298:.\Generated_Source\PSoC4/PWM_Timer.c **** *                                                 compare capability
 299:.\Generated_Source\PSoC4/PWM_Timer.c **** *         - PWM_Timer_MODE_TIMER_CAPTURE - Timer / Counter with
 300:.\Generated_Source\PSoC4/PWM_Timer.c **** *                                                 capture capability
 301:.\Generated_Source\PSoC4/PWM_Timer.c **** *         - PWM_Timer_MODE_QUAD - Quadrature decoder
 302:.\Generated_Source\PSoC4/PWM_Timer.c **** *         - PWM_Timer_MODE_PWM - PWM
 303:.\Generated_Source\PSoC4/PWM_Timer.c **** *         - PWM_Timer_MODE_PWM_DT - PWM with dead time
 304:.\Generated_Source\PSoC4/PWM_Timer.c **** *         - PWM_Timer_MODE_PWM_PR - PWM with pseudo random capability
 305:.\Generated_Source\PSoC4/PWM_Timer.c **** *
 306:.\Generated_Source\PSoC4/PWM_Timer.c **** * Return:
 307:.\Generated_Source\PSoC4/PWM_Timer.c **** *  None
 308:.\Generated_Source\PSoC4/PWM_Timer.c **** *
 309:.\Generated_Source\PSoC4/PWM_Timer.c **** *******************************************************************************/
 310:.\Generated_Source\PSoC4/PWM_Timer.c **** void PWM_Timer_SetMode(uint32 mode)
 311:.\Generated_Source\PSoC4/PWM_Timer.c **** {
 226              		.loc 1 311 0
 227              		.cfi_startproc
 228 0000 90B5     		push	{r4, r7, lr}
 229              	.LCFI10:
 230              		.cfi_def_cfa_offset 12
 231              		.cfi_offset 4, -12
 232              		.cfi_offset 7, -8
 233              		.cfi_offset 14, -4
 234 0002 85B0     		sub	sp, sp, #20
 235              	.LCFI11:
 236              		.cfi_def_cfa_offset 32
 237 0004 00AF     		add	r7, sp, #0
 238              	.LCFI12:
 239              		.cfi_def_cfa_register 7
 240 0006 7860     		str	r0, [r7, #4]
 312:.\Generated_Source\PSoC4/PWM_Timer.c ****     uint8 enableInterrupts;
 313:.\Generated_Source\PSoC4/PWM_Timer.c **** 
 314:.\Generated_Source\PSoC4/PWM_Timer.c ****     enableInterrupts = CyEnterCriticalSection();
 241              		.loc 1 314 0
 242 0008 3C1C     		mov	r4, r7
 243 000a 0F34     		add	r4, r4, #15
 244 000c FFF7FEFF 		bl	CyEnterCriticalSection
 245 0010 031C     		mov	r3, r0
 246 0012 2370     		strb	r3, [r4]
 315:.\Generated_Source\PSoC4/PWM_Timer.c **** 
 316:.\Generated_Source\PSoC4/PWM_Timer.c ****     PWM_Timer_CONTROL_REG &= (uint32)~PWM_Timer_MODE_MASK;
 247              		.loc 1 316 0
 248 0014 0A4B     		ldr	r3, .L15
 249 0016 0A4A     		ldr	r2, .L15
 250 0018 1168     		ldr	r1, [r2]
 251 001a 0A4A     		ldr	r2, .L15+4
 252 001c 0A40     		and	r2, r1
 253 001e 1A60     		str	r2, [r3]
 317:.\Generated_Source\PSoC4/PWM_Timer.c ****     PWM_Timer_CONTROL_REG |= mode;
ARM GAS  C:\Users\OEBN\AppData\Local\Temp\cc4YkDS7.s 			page 11


 254              		.loc 1 317 0
 255 0020 074B     		ldr	r3, .L15
 256 0022 074A     		ldr	r2, .L15
 257 0024 1168     		ldr	r1, [r2]
 258 0026 7A68     		ldr	r2, [r7, #4]
 259 0028 0A43     		orr	r2, r1
 260 002a 1A60     		str	r2, [r3]
 318:.\Generated_Source\PSoC4/PWM_Timer.c **** 
 319:.\Generated_Source\PSoC4/PWM_Timer.c ****     CyExitCriticalSection(enableInterrupts);
 261              		.loc 1 319 0
 262 002c 3B1C     		mov	r3, r7
 263 002e 0F33     		add	r3, r3, #15
 264 0030 1B78     		ldrb	r3, [r3]
 265 0032 181C     		mov	r0, r3
 266 0034 FFF7FEFF 		bl	CyExitCriticalSection
 320:.\Generated_Source\PSoC4/PWM_Timer.c **** }
 267              		.loc 1 320 0
 268 0038 BD46     		mov	sp, r7
 269 003a 05B0     		add	sp, sp, #20
 270              		@ sp needed for prologue
 271 003c 90BD     		pop	{r4, r7, pc}
 272              	.L16:
 273 003e C046     		.align	2
 274              	.L15:
 275 0040 00010540 		.word	1074069760
 276 0044 FFFFFFF8 		.word	-117440513
 277              		.cfi_endproc
 278              	.LFE4:
 279              		.size	PWM_Timer_SetMode, .-PWM_Timer_SetMode
 280              		.section	.text.PWM_Timer_SetQDMode,"ax",%progbits
 281              		.align	2
 282              		.global	PWM_Timer_SetQDMode
 283              		.code	16
 284              		.thumb_func
 285              		.type	PWM_Timer_SetQDMode, %function
 286              	PWM_Timer_SetQDMode:
 287              	.LFB5:
 321:.\Generated_Source\PSoC4/PWM_Timer.c **** 
 322:.\Generated_Source\PSoC4/PWM_Timer.c **** 
 323:.\Generated_Source\PSoC4/PWM_Timer.c **** /*******************************************************************************
 324:.\Generated_Source\PSoC4/PWM_Timer.c **** * Function Name: PWM_Timer_SetQDMode
 325:.\Generated_Source\PSoC4/PWM_Timer.c **** ********************************************************************************
 326:.\Generated_Source\PSoC4/PWM_Timer.c **** *
 327:.\Generated_Source\PSoC4/PWM_Timer.c **** * Summary:
 328:.\Generated_Source\PSoC4/PWM_Timer.c **** *  Sets the the Quadrature Decoder to one of the 3 supported modes.
 329:.\Generated_Source\PSoC4/PWM_Timer.c **** *  Its functionality is only applicable to Quadrature Decoder operation.
 330:.\Generated_Source\PSoC4/PWM_Timer.c **** *
 331:.\Generated_Source\PSoC4/PWM_Timer.c **** * Parameters:
 332:.\Generated_Source\PSoC4/PWM_Timer.c **** *  qdMode: Quadrature Decoder mode
 333:.\Generated_Source\PSoC4/PWM_Timer.c **** *   Values:
 334:.\Generated_Source\PSoC4/PWM_Timer.c **** *         - PWM_Timer_MODE_X1 - Counts on phi 1 rising
 335:.\Generated_Source\PSoC4/PWM_Timer.c **** *         - PWM_Timer_MODE_X2 - Counts on both edges of phi1 (2x faster)
 336:.\Generated_Source\PSoC4/PWM_Timer.c **** *         - PWM_Timer_MODE_X4 - Counts on both edges of phi1 and phi2
 337:.\Generated_Source\PSoC4/PWM_Timer.c **** *                                        (4x faster)
 338:.\Generated_Source\PSoC4/PWM_Timer.c **** *
 339:.\Generated_Source\PSoC4/PWM_Timer.c **** * Return:
 340:.\Generated_Source\PSoC4/PWM_Timer.c **** *  None
ARM GAS  C:\Users\OEBN\AppData\Local\Temp\cc4YkDS7.s 			page 12


 341:.\Generated_Source\PSoC4/PWM_Timer.c **** *
 342:.\Generated_Source\PSoC4/PWM_Timer.c **** *******************************************************************************/
 343:.\Generated_Source\PSoC4/PWM_Timer.c **** void PWM_Timer_SetQDMode(uint32 qdMode)
 344:.\Generated_Source\PSoC4/PWM_Timer.c **** {
 288              		.loc 1 344 0
 289              		.cfi_startproc
 290 0000 90B5     		push	{r4, r7, lr}
 291              	.LCFI13:
 292              		.cfi_def_cfa_offset 12
 293              		.cfi_offset 4, -12
 294              		.cfi_offset 7, -8
 295              		.cfi_offset 14, -4
 296 0002 85B0     		sub	sp, sp, #20
 297              	.LCFI14:
 298              		.cfi_def_cfa_offset 32
 299 0004 00AF     		add	r7, sp, #0
 300              	.LCFI15:
 301              		.cfi_def_cfa_register 7
 302 0006 7860     		str	r0, [r7, #4]
 345:.\Generated_Source\PSoC4/PWM_Timer.c ****     uint8 enableInterrupts;
 346:.\Generated_Source\PSoC4/PWM_Timer.c **** 
 347:.\Generated_Source\PSoC4/PWM_Timer.c ****     enableInterrupts = CyEnterCriticalSection();
 303              		.loc 1 347 0
 304 0008 3C1C     		mov	r4, r7
 305 000a 0F34     		add	r4, r4, #15
 306 000c FFF7FEFF 		bl	CyEnterCriticalSection
 307 0010 031C     		mov	r3, r0
 308 0012 2370     		strb	r3, [r4]
 348:.\Generated_Source\PSoC4/PWM_Timer.c **** 
 349:.\Generated_Source\PSoC4/PWM_Timer.c ****     PWM_Timer_CONTROL_REG &= (uint32)~PWM_Timer_QUAD_MODE_MASK;
 309              		.loc 1 349 0
 310 0014 0A4B     		ldr	r3, .L18
 311 0016 0A4A     		ldr	r2, .L18
 312 0018 1168     		ldr	r1, [r2]
 313 001a 0A4A     		ldr	r2, .L18+4
 314 001c 0A40     		and	r2, r1
 315 001e 1A60     		str	r2, [r3]
 350:.\Generated_Source\PSoC4/PWM_Timer.c ****     PWM_Timer_CONTROL_REG |= qdMode;
 316              		.loc 1 350 0
 317 0020 074B     		ldr	r3, .L18
 318 0022 074A     		ldr	r2, .L18
 319 0024 1168     		ldr	r1, [r2]
 320 0026 7A68     		ldr	r2, [r7, #4]
 321 0028 0A43     		orr	r2, r1
 322 002a 1A60     		str	r2, [r3]
 351:.\Generated_Source\PSoC4/PWM_Timer.c **** 
 352:.\Generated_Source\PSoC4/PWM_Timer.c ****     CyExitCriticalSection(enableInterrupts);
 323              		.loc 1 352 0
 324 002c 3B1C     		mov	r3, r7
 325 002e 0F33     		add	r3, r3, #15
 326 0030 1B78     		ldrb	r3, [r3]
 327 0032 181C     		mov	r0, r3
 328 0034 FFF7FEFF 		bl	CyExitCriticalSection
 353:.\Generated_Source\PSoC4/PWM_Timer.c **** }
 329              		.loc 1 353 0
 330 0038 BD46     		mov	sp, r7
 331 003a 05B0     		add	sp, sp, #20
ARM GAS  C:\Users\OEBN\AppData\Local\Temp\cc4YkDS7.s 			page 13


 332              		@ sp needed for prologue
 333 003c 90BD     		pop	{r4, r7, pc}
 334              	.L19:
 335 003e C046     		.align	2
 336              	.L18:
 337 0040 00010540 		.word	1074069760
 338 0044 FFFF8FFF 		.word	-7340033
 339              		.cfi_endproc
 340              	.LFE5:
 341              		.size	PWM_Timer_SetQDMode, .-PWM_Timer_SetQDMode
 342              		.section	.text.PWM_Timer_SetPrescaler,"ax",%progbits
 343              		.align	2
 344              		.global	PWM_Timer_SetPrescaler
 345              		.code	16
 346              		.thumb_func
 347              		.type	PWM_Timer_SetPrescaler, %function
 348              	PWM_Timer_SetPrescaler:
 349              	.LFB6:
 354:.\Generated_Source\PSoC4/PWM_Timer.c **** 
 355:.\Generated_Source\PSoC4/PWM_Timer.c **** 
 356:.\Generated_Source\PSoC4/PWM_Timer.c **** /*******************************************************************************
 357:.\Generated_Source\PSoC4/PWM_Timer.c **** * Function Name: PWM_Timer_SetPrescaler
 358:.\Generated_Source\PSoC4/PWM_Timer.c **** ********************************************************************************
 359:.\Generated_Source\PSoC4/PWM_Timer.c **** *
 360:.\Generated_Source\PSoC4/PWM_Timer.c **** * Summary:
 361:.\Generated_Source\PSoC4/PWM_Timer.c **** *  Sets the prescaler value that is applied to the clock input.  Not applicable
 362:.\Generated_Source\PSoC4/PWM_Timer.c **** *  to a PWM with the dead time mode or Quadrature Decoder mode.
 363:.\Generated_Source\PSoC4/PWM_Timer.c **** *
 364:.\Generated_Source\PSoC4/PWM_Timer.c **** * Parameters:
 365:.\Generated_Source\PSoC4/PWM_Timer.c **** *  prescaler: Prescaler divider value
 366:.\Generated_Source\PSoC4/PWM_Timer.c **** *   Values:
 367:.\Generated_Source\PSoC4/PWM_Timer.c **** *         - PWM_Timer_PRESCALE_DIVBY1    - Divide by 1 (no prescaling)
 368:.\Generated_Source\PSoC4/PWM_Timer.c **** *         - PWM_Timer_PRESCALE_DIVBY2    - Divide by 2
 369:.\Generated_Source\PSoC4/PWM_Timer.c **** *         - PWM_Timer_PRESCALE_DIVBY4    - Divide by 4
 370:.\Generated_Source\PSoC4/PWM_Timer.c **** *         - PWM_Timer_PRESCALE_DIVBY8    - Divide by 8
 371:.\Generated_Source\PSoC4/PWM_Timer.c **** *         - PWM_Timer_PRESCALE_DIVBY16   - Divide by 16
 372:.\Generated_Source\PSoC4/PWM_Timer.c **** *         - PWM_Timer_PRESCALE_DIVBY32   - Divide by 32
 373:.\Generated_Source\PSoC4/PWM_Timer.c **** *         - PWM_Timer_PRESCALE_DIVBY64   - Divide by 64
 374:.\Generated_Source\PSoC4/PWM_Timer.c **** *         - PWM_Timer_PRESCALE_DIVBY128  - Divide by 128
 375:.\Generated_Source\PSoC4/PWM_Timer.c **** *
 376:.\Generated_Source\PSoC4/PWM_Timer.c **** * Return:
 377:.\Generated_Source\PSoC4/PWM_Timer.c **** *  None
 378:.\Generated_Source\PSoC4/PWM_Timer.c **** *
 379:.\Generated_Source\PSoC4/PWM_Timer.c **** *******************************************************************************/
 380:.\Generated_Source\PSoC4/PWM_Timer.c **** void PWM_Timer_SetPrescaler(uint32 prescaler)
 381:.\Generated_Source\PSoC4/PWM_Timer.c **** {
 350              		.loc 1 381 0
 351              		.cfi_startproc
 352 0000 90B5     		push	{r4, r7, lr}
 353              	.LCFI16:
 354              		.cfi_def_cfa_offset 12
 355              		.cfi_offset 4, -12
 356              		.cfi_offset 7, -8
 357              		.cfi_offset 14, -4
 358 0002 85B0     		sub	sp, sp, #20
 359              	.LCFI17:
 360              		.cfi_def_cfa_offset 32
ARM GAS  C:\Users\OEBN\AppData\Local\Temp\cc4YkDS7.s 			page 14


 361 0004 00AF     		add	r7, sp, #0
 362              	.LCFI18:
 363              		.cfi_def_cfa_register 7
 364 0006 7860     		str	r0, [r7, #4]
 382:.\Generated_Source\PSoC4/PWM_Timer.c ****     uint8 enableInterrupts;
 383:.\Generated_Source\PSoC4/PWM_Timer.c **** 
 384:.\Generated_Source\PSoC4/PWM_Timer.c ****     enableInterrupts = CyEnterCriticalSection();
 365              		.loc 1 384 0
 366 0008 3C1C     		mov	r4, r7
 367 000a 0F34     		add	r4, r4, #15
 368 000c FFF7FEFF 		bl	CyEnterCriticalSection
 369 0010 031C     		mov	r3, r0
 370 0012 2370     		strb	r3, [r4]
 385:.\Generated_Source\PSoC4/PWM_Timer.c **** 
 386:.\Generated_Source\PSoC4/PWM_Timer.c ****     PWM_Timer_CONTROL_REG &= (uint32)~PWM_Timer_PRESCALER_MASK;
 371              		.loc 1 386 0
 372 0014 0A4B     		ldr	r3, .L21
 373 0016 0A4A     		ldr	r2, .L21
 374 0018 1168     		ldr	r1, [r2]
 375 001a 0A4A     		ldr	r2, .L21+4
 376 001c 0A40     		and	r2, r1
 377 001e 1A60     		str	r2, [r3]
 387:.\Generated_Source\PSoC4/PWM_Timer.c ****     PWM_Timer_CONTROL_REG |= prescaler;
 378              		.loc 1 387 0
 379 0020 074B     		ldr	r3, .L21
 380 0022 074A     		ldr	r2, .L21
 381 0024 1168     		ldr	r1, [r2]
 382 0026 7A68     		ldr	r2, [r7, #4]
 383 0028 0A43     		orr	r2, r1
 384 002a 1A60     		str	r2, [r3]
 388:.\Generated_Source\PSoC4/PWM_Timer.c **** 
 389:.\Generated_Source\PSoC4/PWM_Timer.c ****     CyExitCriticalSection(enableInterrupts);
 385              		.loc 1 389 0
 386 002c 3B1C     		mov	r3, r7
 387 002e 0F33     		add	r3, r3, #15
 388 0030 1B78     		ldrb	r3, [r3]
 389 0032 181C     		mov	r0, r3
 390 0034 FFF7FEFF 		bl	CyExitCriticalSection
 390:.\Generated_Source\PSoC4/PWM_Timer.c **** }
 391              		.loc 1 390 0
 392 0038 BD46     		mov	sp, r7
 393 003a 05B0     		add	sp, sp, #20
 394              		@ sp needed for prologue
 395 003c 90BD     		pop	{r4, r7, pc}
 396              	.L22:
 397 003e C046     		.align	2
 398              	.L21:
 399 0040 00010540 		.word	1074069760
 400 0044 FF00FFFF 		.word	-65281
 401              		.cfi_endproc
 402              	.LFE6:
 403              		.size	PWM_Timer_SetPrescaler, .-PWM_Timer_SetPrescaler
 404              		.section	.text.PWM_Timer_SetOneShot,"ax",%progbits
 405              		.align	2
 406              		.global	PWM_Timer_SetOneShot
 407              		.code	16
 408              		.thumb_func
ARM GAS  C:\Users\OEBN\AppData\Local\Temp\cc4YkDS7.s 			page 15


 409              		.type	PWM_Timer_SetOneShot, %function
 410              	PWM_Timer_SetOneShot:
 411              	.LFB7:
 391:.\Generated_Source\PSoC4/PWM_Timer.c **** 
 392:.\Generated_Source\PSoC4/PWM_Timer.c **** 
 393:.\Generated_Source\PSoC4/PWM_Timer.c **** /*******************************************************************************
 394:.\Generated_Source\PSoC4/PWM_Timer.c **** * Function Name: PWM_Timer_SetOneShot
 395:.\Generated_Source\PSoC4/PWM_Timer.c **** ********************************************************************************
 396:.\Generated_Source\PSoC4/PWM_Timer.c **** *
 397:.\Generated_Source\PSoC4/PWM_Timer.c **** * Summary:
 398:.\Generated_Source\PSoC4/PWM_Timer.c **** *  Writes the register that controls whether the PWM_Timer runs
 399:.\Generated_Source\PSoC4/PWM_Timer.c **** *  continuously or stops when terminal count is reached.  By default the
 400:.\Generated_Source\PSoC4/PWM_Timer.c **** *  PWM_Timer operates in the continuous mode.
 401:.\Generated_Source\PSoC4/PWM_Timer.c **** *
 402:.\Generated_Source\PSoC4/PWM_Timer.c **** * Parameters:
 403:.\Generated_Source\PSoC4/PWM_Timer.c **** *  oneShotEnable
 404:.\Generated_Source\PSoC4/PWM_Timer.c **** *   Values:
 405:.\Generated_Source\PSoC4/PWM_Timer.c **** *     - 0 - Continuous
 406:.\Generated_Source\PSoC4/PWM_Timer.c **** *     - 1 - Enable One Shot
 407:.\Generated_Source\PSoC4/PWM_Timer.c **** *
 408:.\Generated_Source\PSoC4/PWM_Timer.c **** * Return:
 409:.\Generated_Source\PSoC4/PWM_Timer.c **** *  None
 410:.\Generated_Source\PSoC4/PWM_Timer.c **** *
 411:.\Generated_Source\PSoC4/PWM_Timer.c **** *******************************************************************************/
 412:.\Generated_Source\PSoC4/PWM_Timer.c **** void PWM_Timer_SetOneShot(uint32 oneShotEnable)
 413:.\Generated_Source\PSoC4/PWM_Timer.c **** {
 412              		.loc 1 413 0
 413              		.cfi_startproc
 414 0000 90B5     		push	{r4, r7, lr}
 415              	.LCFI19:
 416              		.cfi_def_cfa_offset 12
 417              		.cfi_offset 4, -12
 418              		.cfi_offset 7, -8
 419              		.cfi_offset 14, -4
 420 0002 85B0     		sub	sp, sp, #20
 421              	.LCFI20:
 422              		.cfi_def_cfa_offset 32
 423 0004 00AF     		add	r7, sp, #0
 424              	.LCFI21:
 425              		.cfi_def_cfa_register 7
 426 0006 7860     		str	r0, [r7, #4]
 414:.\Generated_Source\PSoC4/PWM_Timer.c ****     uint8 enableInterrupts;
 415:.\Generated_Source\PSoC4/PWM_Timer.c **** 
 416:.\Generated_Source\PSoC4/PWM_Timer.c ****     enableInterrupts = CyEnterCriticalSection();
 427              		.loc 1 416 0
 428 0008 3C1C     		mov	r4, r7
 429 000a 0F34     		add	r4, r4, #15
 430 000c FFF7FEFF 		bl	CyEnterCriticalSection
 431 0010 031C     		mov	r3, r0
 432 0012 2370     		strb	r3, [r4]
 417:.\Generated_Source\PSoC4/PWM_Timer.c **** 
 418:.\Generated_Source\PSoC4/PWM_Timer.c ****     PWM_Timer_CONTROL_REG &= (uint32)~PWM_Timer_ONESHOT_MASK;
 433              		.loc 1 418 0
 434 0014 0B4B     		ldr	r3, .L24
 435 0016 0B4A     		ldr	r2, .L24
 436 0018 1168     		ldr	r1, [r2]
 437 001a 0B4A     		ldr	r2, .L24+4
ARM GAS  C:\Users\OEBN\AppData\Local\Temp\cc4YkDS7.s 			page 16


 438 001c 0A40     		and	r2, r1
 439 001e 1A60     		str	r2, [r3]
 419:.\Generated_Source\PSoC4/PWM_Timer.c ****     PWM_Timer_CONTROL_REG |= ((uint32)((oneShotEnable & PWM_Timer_1BIT_MASK) <<
 440              		.loc 1 419 0
 441 0020 084B     		ldr	r3, .L24
 442 0022 084A     		ldr	r2, .L24
 443 0024 1168     		ldr	r1, [r2]
 444 0026 7868     		ldr	r0, [r7, #4]
 445 0028 0122     		mov	r2, #1
 446 002a 0240     		and	r2, r0
 447 002c 9204     		lsl	r2, r2, #18
 448 002e 0A43     		orr	r2, r1
 449 0030 1A60     		str	r2, [r3]
 420:.\Generated_Source\PSoC4/PWM_Timer.c ****                                                                PWM_Timer_ONESHOT_SHIFT));
 421:.\Generated_Source\PSoC4/PWM_Timer.c **** 
 422:.\Generated_Source\PSoC4/PWM_Timer.c ****     CyExitCriticalSection(enableInterrupts);
 450              		.loc 1 422 0
 451 0032 3B1C     		mov	r3, r7
 452 0034 0F33     		add	r3, r3, #15
 453 0036 1B78     		ldrb	r3, [r3]
 454 0038 181C     		mov	r0, r3
 455 003a FFF7FEFF 		bl	CyExitCriticalSection
 423:.\Generated_Source\PSoC4/PWM_Timer.c **** }
 456              		.loc 1 423 0
 457 003e BD46     		mov	sp, r7
 458 0040 05B0     		add	sp, sp, #20
 459              		@ sp needed for prologue
 460 0042 90BD     		pop	{r4, r7, pc}
 461              	.L25:
 462              		.align	2
 463              	.L24:
 464 0044 00010540 		.word	1074069760
 465 0048 FFFFFBFF 		.word	-262145
 466              		.cfi_endproc
 467              	.LFE7:
 468              		.size	PWM_Timer_SetOneShot, .-PWM_Timer_SetOneShot
 469              		.section	.text.PWM_Timer_SetPWMMode,"ax",%progbits
 470              		.align	2
 471              		.global	PWM_Timer_SetPWMMode
 472              		.code	16
 473              		.thumb_func
 474              		.type	PWM_Timer_SetPWMMode, %function
 475              	PWM_Timer_SetPWMMode:
 476              	.LFB8:
 424:.\Generated_Source\PSoC4/PWM_Timer.c **** 
 425:.\Generated_Source\PSoC4/PWM_Timer.c **** 
 426:.\Generated_Source\PSoC4/PWM_Timer.c **** /*******************************************************************************
 427:.\Generated_Source\PSoC4/PWM_Timer.c **** * Function Name: PWM_Timer_SetPWMMode
 428:.\Generated_Source\PSoC4/PWM_Timer.c **** ********************************************************************************
 429:.\Generated_Source\PSoC4/PWM_Timer.c **** *
 430:.\Generated_Source\PSoC4/PWM_Timer.c **** * Summary:
 431:.\Generated_Source\PSoC4/PWM_Timer.c **** *  Writes the control register that determines what mode of operation the PWM
 432:.\Generated_Source\PSoC4/PWM_Timer.c **** *  output lines are driven in.  There is a setting for what to do on a
 433:.\Generated_Source\PSoC4/PWM_Timer.c **** *  comparison match (CC_MATCH), on an overflow (OVERFLOW) and on an underflow
 434:.\Generated_Source\PSoC4/PWM_Timer.c **** *  (UNDERFLOW).  The value for each of the three must be ORed together to form
 435:.\Generated_Source\PSoC4/PWM_Timer.c **** *  the mode.
 436:.\Generated_Source\PSoC4/PWM_Timer.c **** *
ARM GAS  C:\Users\OEBN\AppData\Local\Temp\cc4YkDS7.s 			page 17


 437:.\Generated_Source\PSoC4/PWM_Timer.c **** * Parameters:
 438:.\Generated_Source\PSoC4/PWM_Timer.c **** *  modeMask: A combination of three mode settings.  Mask must include a value
 439:.\Generated_Source\PSoC4/PWM_Timer.c **** *  for each of the three or use one of the preconfigured PWM settings.
 440:.\Generated_Source\PSoC4/PWM_Timer.c **** *   Values:
 441:.\Generated_Source\PSoC4/PWM_Timer.c **** *     - CC_MATCH_SET        - Set on comparison match
 442:.\Generated_Source\PSoC4/PWM_Timer.c **** *     - CC_MATCH_CLEAR      - Clear on comparison match
 443:.\Generated_Source\PSoC4/PWM_Timer.c **** *     - CC_MATCH_INVERT     - Invert on comparison match
 444:.\Generated_Source\PSoC4/PWM_Timer.c **** *     - CC_MATCH_NO_CHANGE  - No change on comparison match
 445:.\Generated_Source\PSoC4/PWM_Timer.c **** *     - OVERLOW_SET         - Set on overflow
 446:.\Generated_Source\PSoC4/PWM_Timer.c **** *     - OVERLOW_CLEAR       - Clear on  overflow
 447:.\Generated_Source\PSoC4/PWM_Timer.c **** *     - OVERLOW_INVERT      - Invert on overflow
 448:.\Generated_Source\PSoC4/PWM_Timer.c **** *     - OVERLOW_NO_CHANGE   - No change on overflow
 449:.\Generated_Source\PSoC4/PWM_Timer.c **** *     - UNDERFLOW_SET       - Set on underflow
 450:.\Generated_Source\PSoC4/PWM_Timer.c **** *     - UNDERFLOW_CLEAR     - Clear on underflow
 451:.\Generated_Source\PSoC4/PWM_Timer.c **** *     - UNDERFLOW_INVERT    - Invert on underflow
 452:.\Generated_Source\PSoC4/PWM_Timer.c **** *     - UNDERFLOW_NO_CHANGE - No change on underflow
 453:.\Generated_Source\PSoC4/PWM_Timer.c **** *     - PWM_MODE_LEFT       - Setting for left aligned PWM.  Should be combined
 454:.\Generated_Source\PSoC4/PWM_Timer.c **** *                             with up counting mode
 455:.\Generated_Source\PSoC4/PWM_Timer.c **** *     - PWM_MODE_RIGHT      - Setting for right aligned PWM.  Should be combined
 456:.\Generated_Source\PSoC4/PWM_Timer.c **** *                             with down counting mode
 457:.\Generated_Source\PSoC4/PWM_Timer.c **** *     - PWM_MODE_CENTER     - Setting for center aligned PWM.  Should be
 458:.\Generated_Source\PSoC4/PWM_Timer.c **** *                             combined with up/down 0 mode
 459:.\Generated_Source\PSoC4/PWM_Timer.c **** *     - PWM_MODE_ASYM       - Setting for asymmetric PWM.  Should be combined
 460:.\Generated_Source\PSoC4/PWM_Timer.c **** *                             with up/down 1 mode
 461:.\Generated_Source\PSoC4/PWM_Timer.c **** *
 462:.\Generated_Source\PSoC4/PWM_Timer.c **** * Return:
 463:.\Generated_Source\PSoC4/PWM_Timer.c **** *  None
 464:.\Generated_Source\PSoC4/PWM_Timer.c **** *
 465:.\Generated_Source\PSoC4/PWM_Timer.c **** *******************************************************************************/
 466:.\Generated_Source\PSoC4/PWM_Timer.c **** void PWM_Timer_SetPWMMode(uint32 modeMask)
 467:.\Generated_Source\PSoC4/PWM_Timer.c **** {
 477              		.loc 1 467 0
 478              		.cfi_startproc
 479 0000 80B5     		push	{r7, lr}
 480              	.LCFI22:
 481              		.cfi_def_cfa_offset 8
 482              		.cfi_offset 7, -8
 483              		.cfi_offset 14, -4
 484 0002 82B0     		sub	sp, sp, #8
 485              	.LCFI23:
 486              		.cfi_def_cfa_offset 16
 487 0004 00AF     		add	r7, sp, #0
 488              	.LCFI24:
 489              		.cfi_def_cfa_register 7
 490 0006 7860     		str	r0, [r7, #4]
 468:.\Generated_Source\PSoC4/PWM_Timer.c ****     PWM_Timer_TRIG_CONTROL2_REG = (modeMask & PWM_Timer_6BIT_MASK);
 491              		.loc 1 468 0
 492 0008 034B     		ldr	r3, .L27
 493 000a 7968     		ldr	r1, [r7, #4]
 494 000c 3F22     		mov	r2, #63
 495 000e 0A40     		and	r2, r1
 496 0010 1A60     		str	r2, [r3]
 469:.\Generated_Source\PSoC4/PWM_Timer.c **** }
 497              		.loc 1 469 0
 498 0012 BD46     		mov	sp, r7
 499 0014 02B0     		add	sp, sp, #8
 500              		@ sp needed for prologue
ARM GAS  C:\Users\OEBN\AppData\Local\Temp\cc4YkDS7.s 			page 18


 501 0016 80BD     		pop	{r7, pc}
 502              	.L28:
 503              		.align	2
 504              	.L27:
 505 0018 28010540 		.word	1074069800
 506              		.cfi_endproc
 507              	.LFE8:
 508              		.size	PWM_Timer_SetPWMMode, .-PWM_Timer_SetPWMMode
 509              		.section	.text.PWM_Timer_SetPWMSyncKill,"ax",%progbits
 510              		.align	2
 511              		.global	PWM_Timer_SetPWMSyncKill
 512              		.code	16
 513              		.thumb_func
 514              		.type	PWM_Timer_SetPWMSyncKill, %function
 515              	PWM_Timer_SetPWMSyncKill:
 516              	.LFB9:
 470:.\Generated_Source\PSoC4/PWM_Timer.c **** 
 471:.\Generated_Source\PSoC4/PWM_Timer.c **** 
 472:.\Generated_Source\PSoC4/PWM_Timer.c **** 
 473:.\Generated_Source\PSoC4/PWM_Timer.c **** /*******************************************************************************
 474:.\Generated_Source\PSoC4/PWM_Timer.c **** * Function Name: PWM_Timer_SetPWMSyncKill
 475:.\Generated_Source\PSoC4/PWM_Timer.c **** ********************************************************************************
 476:.\Generated_Source\PSoC4/PWM_Timer.c **** *
 477:.\Generated_Source\PSoC4/PWM_Timer.c **** * Summary:
 478:.\Generated_Source\PSoC4/PWM_Timer.c **** *  Writes the register that controls whether the PWM kill signal (stop input)
 479:.\Generated_Source\PSoC4/PWM_Timer.c **** *  causes asynchronous or synchronous kill operation.  By default the kill
 480:.\Generated_Source\PSoC4/PWM_Timer.c **** *  operation is asynchronous.  This functionality is only applicable to the PWM
 481:.\Generated_Source\PSoC4/PWM_Timer.c **** *  and PWM with dead time modes.
 482:.\Generated_Source\PSoC4/PWM_Timer.c **** *
 483:.\Generated_Source\PSoC4/PWM_Timer.c **** *  For Synchronous mode the kill signal disables both the line and line_n
 484:.\Generated_Source\PSoC4/PWM_Timer.c **** *  signals until the next terminal count.
 485:.\Generated_Source\PSoC4/PWM_Timer.c **** *
 486:.\Generated_Source\PSoC4/PWM_Timer.c **** *  For Asynchronous mode the kill signal disables both the line and line_n
 487:.\Generated_Source\PSoC4/PWM_Timer.c **** *  signals when the kill signal is present.  This mode should only be used
 488:.\Generated_Source\PSoC4/PWM_Timer.c **** *  when the kill signal (stop input) is configured in the pass through mode
 489:.\Generated_Source\PSoC4/PWM_Timer.c **** *  (Level sensitive signal).
 490:.\Generated_Source\PSoC4/PWM_Timer.c **** 
 491:.\Generated_Source\PSoC4/PWM_Timer.c **** *
 492:.\Generated_Source\PSoC4/PWM_Timer.c **** * Parameters:
 493:.\Generated_Source\PSoC4/PWM_Timer.c **** *  syncKillEnable
 494:.\Generated_Source\PSoC4/PWM_Timer.c **** *   Values:
 495:.\Generated_Source\PSoC4/PWM_Timer.c **** *     - 0 - Asynchronous
 496:.\Generated_Source\PSoC4/PWM_Timer.c **** *     - 1 - Synchronous
 497:.\Generated_Source\PSoC4/PWM_Timer.c **** *
 498:.\Generated_Source\PSoC4/PWM_Timer.c **** * Return:
 499:.\Generated_Source\PSoC4/PWM_Timer.c **** *  None
 500:.\Generated_Source\PSoC4/PWM_Timer.c **** *
 501:.\Generated_Source\PSoC4/PWM_Timer.c **** *******************************************************************************/
 502:.\Generated_Source\PSoC4/PWM_Timer.c **** void PWM_Timer_SetPWMSyncKill(uint32 syncKillEnable)
 503:.\Generated_Source\PSoC4/PWM_Timer.c **** {
 517              		.loc 1 503 0
 518              		.cfi_startproc
 519 0000 90B5     		push	{r4, r7, lr}
 520              	.LCFI25:
 521              		.cfi_def_cfa_offset 12
 522              		.cfi_offset 4, -12
 523              		.cfi_offset 7, -8
ARM GAS  C:\Users\OEBN\AppData\Local\Temp\cc4YkDS7.s 			page 19


 524              		.cfi_offset 14, -4
 525 0002 85B0     		sub	sp, sp, #20
 526              	.LCFI26:
 527              		.cfi_def_cfa_offset 32
 528 0004 00AF     		add	r7, sp, #0
 529              	.LCFI27:
 530              		.cfi_def_cfa_register 7
 531 0006 7860     		str	r0, [r7, #4]
 504:.\Generated_Source\PSoC4/PWM_Timer.c ****     uint8 enableInterrupts;
 505:.\Generated_Source\PSoC4/PWM_Timer.c **** 
 506:.\Generated_Source\PSoC4/PWM_Timer.c ****     enableInterrupts = CyEnterCriticalSection();
 532              		.loc 1 506 0
 533 0008 3C1C     		mov	r4, r7
 534 000a 0F34     		add	r4, r4, #15
 535 000c FFF7FEFF 		bl	CyEnterCriticalSection
 536 0010 031C     		mov	r3, r0
 537 0012 2370     		strb	r3, [r4]
 507:.\Generated_Source\PSoC4/PWM_Timer.c **** 
 508:.\Generated_Source\PSoC4/PWM_Timer.c ****     PWM_Timer_CONTROL_REG &= (uint32)~PWM_Timer_PWM_SYNC_KILL_MASK;
 538              		.loc 1 508 0
 539 0014 0B4B     		ldr	r3, .L30
 540 0016 0B4A     		ldr	r2, .L30
 541 0018 1268     		ldr	r2, [r2]
 542 001a 0421     		mov	r1, #4
 543 001c 8A43     		bic	r2, r1
 544 001e 1A60     		str	r2, [r3]
 509:.\Generated_Source\PSoC4/PWM_Timer.c ****     PWM_Timer_CONTROL_REG |= ((uint32)((syncKillEnable & PWM_Timer_1BIT_MASK)  <<
 545              		.loc 1 509 0
 546 0020 084B     		ldr	r3, .L30
 547 0022 084A     		ldr	r2, .L30
 548 0024 1168     		ldr	r1, [r2]
 549 0026 7868     		ldr	r0, [r7, #4]
 550 0028 0122     		mov	r2, #1
 551 002a 0240     		and	r2, r0
 552 002c 9200     		lsl	r2, r2, #2
 553 002e 0A43     		orr	r2, r1
 554 0030 1A60     		str	r2, [r3]
 510:.\Generated_Source\PSoC4/PWM_Timer.c ****                                                PWM_Timer_PWM_SYNC_KILL_SHIFT));
 511:.\Generated_Source\PSoC4/PWM_Timer.c **** 
 512:.\Generated_Source\PSoC4/PWM_Timer.c ****     CyExitCriticalSection(enableInterrupts);
 555              		.loc 1 512 0
 556 0032 3B1C     		mov	r3, r7
 557 0034 0F33     		add	r3, r3, #15
 558 0036 1B78     		ldrb	r3, [r3]
 559 0038 181C     		mov	r0, r3
 560 003a FFF7FEFF 		bl	CyExitCriticalSection
 513:.\Generated_Source\PSoC4/PWM_Timer.c **** }
 561              		.loc 1 513 0
 562 003e BD46     		mov	sp, r7
 563 0040 05B0     		add	sp, sp, #20
 564              		@ sp needed for prologue
 565 0042 90BD     		pop	{r4, r7, pc}
 566              	.L31:
 567              		.align	2
 568              	.L30:
 569 0044 00010540 		.word	1074069760
 570              		.cfi_endproc
ARM GAS  C:\Users\OEBN\AppData\Local\Temp\cc4YkDS7.s 			page 20


 571              	.LFE9:
 572              		.size	PWM_Timer_SetPWMSyncKill, .-PWM_Timer_SetPWMSyncKill
 573              		.section	.text.PWM_Timer_SetPWMStopOnKill,"ax",%progbits
 574              		.align	2
 575              		.global	PWM_Timer_SetPWMStopOnKill
 576              		.code	16
 577              		.thumb_func
 578              		.type	PWM_Timer_SetPWMStopOnKill, %function
 579              	PWM_Timer_SetPWMStopOnKill:
 580              	.LFB10:
 514:.\Generated_Source\PSoC4/PWM_Timer.c **** 
 515:.\Generated_Source\PSoC4/PWM_Timer.c **** 
 516:.\Generated_Source\PSoC4/PWM_Timer.c **** /*******************************************************************************
 517:.\Generated_Source\PSoC4/PWM_Timer.c **** * Function Name: PWM_Timer_SetPWMStopOnKill
 518:.\Generated_Source\PSoC4/PWM_Timer.c **** ********************************************************************************
 519:.\Generated_Source\PSoC4/PWM_Timer.c **** *
 520:.\Generated_Source\PSoC4/PWM_Timer.c **** * Summary:
 521:.\Generated_Source\PSoC4/PWM_Timer.c **** *  Writes the register that controls whether the PWM kill signal (stop input)
 522:.\Generated_Source\PSoC4/PWM_Timer.c **** *  causes the PWM counter to stop.  By default the kill operation does not stop
 523:.\Generated_Source\PSoC4/PWM_Timer.c **** *  the counter.  This functionality is only applicable to the three PWM modes.
 524:.\Generated_Source\PSoC4/PWM_Timer.c **** *
 525:.\Generated_Source\PSoC4/PWM_Timer.c **** *
 526:.\Generated_Source\PSoC4/PWM_Timer.c **** * Parameters:
 527:.\Generated_Source\PSoC4/PWM_Timer.c **** *  stopOnKillEnable
 528:.\Generated_Source\PSoC4/PWM_Timer.c **** *   Values:
 529:.\Generated_Source\PSoC4/PWM_Timer.c **** *     - 0 - Don't stop
 530:.\Generated_Source\PSoC4/PWM_Timer.c **** *     - 1 - Stop
 531:.\Generated_Source\PSoC4/PWM_Timer.c **** *
 532:.\Generated_Source\PSoC4/PWM_Timer.c **** * Return:
 533:.\Generated_Source\PSoC4/PWM_Timer.c **** *  None
 534:.\Generated_Source\PSoC4/PWM_Timer.c **** *
 535:.\Generated_Source\PSoC4/PWM_Timer.c **** *******************************************************************************/
 536:.\Generated_Source\PSoC4/PWM_Timer.c **** void PWM_Timer_SetPWMStopOnKill(uint32 stopOnKillEnable)
 537:.\Generated_Source\PSoC4/PWM_Timer.c **** {
 581              		.loc 1 537 0
 582              		.cfi_startproc
 583 0000 90B5     		push	{r4, r7, lr}
 584              	.LCFI28:
 585              		.cfi_def_cfa_offset 12
 586              		.cfi_offset 4, -12
 587              		.cfi_offset 7, -8
 588              		.cfi_offset 14, -4
 589 0002 85B0     		sub	sp, sp, #20
 590              	.LCFI29:
 591              		.cfi_def_cfa_offset 32
 592 0004 00AF     		add	r7, sp, #0
 593              	.LCFI30:
 594              		.cfi_def_cfa_register 7
 595 0006 7860     		str	r0, [r7, #4]
 538:.\Generated_Source\PSoC4/PWM_Timer.c ****     uint8 enableInterrupts;
 539:.\Generated_Source\PSoC4/PWM_Timer.c **** 
 540:.\Generated_Source\PSoC4/PWM_Timer.c ****     enableInterrupts = CyEnterCriticalSection();
 596              		.loc 1 540 0
 597 0008 3C1C     		mov	r4, r7
 598 000a 0F34     		add	r4, r4, #15
 599 000c FFF7FEFF 		bl	CyEnterCriticalSection
 600 0010 031C     		mov	r3, r0
ARM GAS  C:\Users\OEBN\AppData\Local\Temp\cc4YkDS7.s 			page 21


 601 0012 2370     		strb	r3, [r4]
 541:.\Generated_Source\PSoC4/PWM_Timer.c **** 
 542:.\Generated_Source\PSoC4/PWM_Timer.c ****     PWM_Timer_CONTROL_REG &= (uint32)~PWM_Timer_PWM_STOP_KILL_MASK;
 602              		.loc 1 542 0
 603 0014 0B4B     		ldr	r3, .L33
 604 0016 0B4A     		ldr	r2, .L33
 605 0018 1268     		ldr	r2, [r2]
 606 001a 0821     		mov	r1, #8
 607 001c 8A43     		bic	r2, r1
 608 001e 1A60     		str	r2, [r3]
 543:.\Generated_Source\PSoC4/PWM_Timer.c ****     PWM_Timer_CONTROL_REG |= ((uint32)((stopOnKillEnable & PWM_Timer_1BIT_MASK)  <<
 609              		.loc 1 543 0
 610 0020 084B     		ldr	r3, .L33
 611 0022 084A     		ldr	r2, .L33
 612 0024 1168     		ldr	r1, [r2]
 613 0026 7868     		ldr	r0, [r7, #4]
 614 0028 0122     		mov	r2, #1
 615 002a 0240     		and	r2, r0
 616 002c D200     		lsl	r2, r2, #3
 617 002e 0A43     		orr	r2, r1
 618 0030 1A60     		str	r2, [r3]
 544:.\Generated_Source\PSoC4/PWM_Timer.c ****                                                          PWM_Timer_PWM_STOP_KILL_SHIFT));
 545:.\Generated_Source\PSoC4/PWM_Timer.c **** 
 546:.\Generated_Source\PSoC4/PWM_Timer.c ****     CyExitCriticalSection(enableInterrupts);
 619              		.loc 1 546 0
 620 0032 3B1C     		mov	r3, r7
 621 0034 0F33     		add	r3, r3, #15
 622 0036 1B78     		ldrb	r3, [r3]
 623 0038 181C     		mov	r0, r3
 624 003a FFF7FEFF 		bl	CyExitCriticalSection
 547:.\Generated_Source\PSoC4/PWM_Timer.c **** }
 625              		.loc 1 547 0
 626 003e BD46     		mov	sp, r7
 627 0040 05B0     		add	sp, sp, #20
 628              		@ sp needed for prologue
 629 0042 90BD     		pop	{r4, r7, pc}
 630              	.L34:
 631              		.align	2
 632              	.L33:
 633 0044 00010540 		.word	1074069760
 634              		.cfi_endproc
 635              	.LFE10:
 636              		.size	PWM_Timer_SetPWMStopOnKill, .-PWM_Timer_SetPWMStopOnKill
 637              		.section	.text.PWM_Timer_SetPWMDeadTime,"ax",%progbits
 638              		.align	2
 639              		.global	PWM_Timer_SetPWMDeadTime
 640              		.code	16
 641              		.thumb_func
 642              		.type	PWM_Timer_SetPWMDeadTime, %function
 643              	PWM_Timer_SetPWMDeadTime:
 644              	.LFB11:
 548:.\Generated_Source\PSoC4/PWM_Timer.c **** 
 549:.\Generated_Source\PSoC4/PWM_Timer.c **** 
 550:.\Generated_Source\PSoC4/PWM_Timer.c **** /*******************************************************************************
 551:.\Generated_Source\PSoC4/PWM_Timer.c **** * Function Name: PWM_Timer_SetPWMDeadTime
 552:.\Generated_Source\PSoC4/PWM_Timer.c **** ********************************************************************************
 553:.\Generated_Source\PSoC4/PWM_Timer.c **** *
ARM GAS  C:\Users\OEBN\AppData\Local\Temp\cc4YkDS7.s 			page 22


 554:.\Generated_Source\PSoC4/PWM_Timer.c **** * Summary:
 555:.\Generated_Source\PSoC4/PWM_Timer.c **** *  Writes the dead time control value.  This value delays the rising edge of
 556:.\Generated_Source\PSoC4/PWM_Timer.c **** *  both the line and line_n signals the designated number of cycles resulting
 557:.\Generated_Source\PSoC4/PWM_Timer.c **** *  in both signals being inactive for that many cycles.  This functionality is
 558:.\Generated_Source\PSoC4/PWM_Timer.c **** *  only applicable to the PWM in the dead time mode.
 559:.\Generated_Source\PSoC4/PWM_Timer.c **** 
 560:.\Generated_Source\PSoC4/PWM_Timer.c **** *
 561:.\Generated_Source\PSoC4/PWM_Timer.c **** * Parameters:
 562:.\Generated_Source\PSoC4/PWM_Timer.c **** *  Dead time to insert
 563:.\Generated_Source\PSoC4/PWM_Timer.c **** *   Values: 0 to 255
 564:.\Generated_Source\PSoC4/PWM_Timer.c **** *
 565:.\Generated_Source\PSoC4/PWM_Timer.c **** * Return:
 566:.\Generated_Source\PSoC4/PWM_Timer.c **** *  None
 567:.\Generated_Source\PSoC4/PWM_Timer.c **** *
 568:.\Generated_Source\PSoC4/PWM_Timer.c **** *******************************************************************************/
 569:.\Generated_Source\PSoC4/PWM_Timer.c **** void PWM_Timer_SetPWMDeadTime(uint32 deadTime)
 570:.\Generated_Source\PSoC4/PWM_Timer.c **** {
 645              		.loc 1 570 0
 646              		.cfi_startproc
 647 0000 90B5     		push	{r4, r7, lr}
 648              	.LCFI31:
 649              		.cfi_def_cfa_offset 12
 650              		.cfi_offset 4, -12
 651              		.cfi_offset 7, -8
 652              		.cfi_offset 14, -4
 653 0002 85B0     		sub	sp, sp, #20
 654              	.LCFI32:
 655              		.cfi_def_cfa_offset 32
 656 0004 00AF     		add	r7, sp, #0
 657              	.LCFI33:
 658              		.cfi_def_cfa_register 7
 659 0006 7860     		str	r0, [r7, #4]
 571:.\Generated_Source\PSoC4/PWM_Timer.c ****     uint8 enableInterrupts;
 572:.\Generated_Source\PSoC4/PWM_Timer.c **** 
 573:.\Generated_Source\PSoC4/PWM_Timer.c ****     enableInterrupts = CyEnterCriticalSection();
 660              		.loc 1 573 0
 661 0008 3C1C     		mov	r4, r7
 662 000a 0F34     		add	r4, r4, #15
 663 000c FFF7FEFF 		bl	CyEnterCriticalSection
 664 0010 031C     		mov	r3, r0
 665 0012 2370     		strb	r3, [r4]
 574:.\Generated_Source\PSoC4/PWM_Timer.c **** 
 575:.\Generated_Source\PSoC4/PWM_Timer.c ****     PWM_Timer_CONTROL_REG &= (uint32)~PWM_Timer_PRESCALER_MASK;
 666              		.loc 1 575 0
 667 0014 0B4B     		ldr	r3, .L36
 668 0016 0B4A     		ldr	r2, .L36
 669 0018 1168     		ldr	r1, [r2]
 670 001a 0B4A     		ldr	r2, .L36+4
 671 001c 0A40     		and	r2, r1
 672 001e 1A60     		str	r2, [r3]
 576:.\Generated_Source\PSoC4/PWM_Timer.c ****     PWM_Timer_CONTROL_REG |= ((uint32)((deadTime & PWM_Timer_8BIT_MASK) <<
 673              		.loc 1 576 0
 674 0020 084B     		ldr	r3, .L36
 675 0022 084A     		ldr	r2, .L36
 676 0024 1168     		ldr	r1, [r2]
 677 0026 7A68     		ldr	r2, [r7, #4]
 678 0028 1202     		lsl	r2, r2, #8
ARM GAS  C:\Users\OEBN\AppData\Local\Temp\cc4YkDS7.s 			page 23


 679 002a 1204     		lsl	r2, r2, #16
 680 002c 120C     		lsr	r2, r2, #16
 681 002e 0A43     		orr	r2, r1
 682 0030 1A60     		str	r2, [r3]
 577:.\Generated_Source\PSoC4/PWM_Timer.c ****                                                           PWM_Timer_PRESCALER_SHIFT));
 578:.\Generated_Source\PSoC4/PWM_Timer.c **** 
 579:.\Generated_Source\PSoC4/PWM_Timer.c ****     CyExitCriticalSection(enableInterrupts);
 683              		.loc 1 579 0
 684 0032 3B1C     		mov	r3, r7
 685 0034 0F33     		add	r3, r3, #15
 686 0036 1B78     		ldrb	r3, [r3]
 687 0038 181C     		mov	r0, r3
 688 003a FFF7FEFF 		bl	CyExitCriticalSection
 580:.\Generated_Source\PSoC4/PWM_Timer.c **** }
 689              		.loc 1 580 0
 690 003e BD46     		mov	sp, r7
 691 0040 05B0     		add	sp, sp, #20
 692              		@ sp needed for prologue
 693 0042 90BD     		pop	{r4, r7, pc}
 694              	.L37:
 695              		.align	2
 696              	.L36:
 697 0044 00010540 		.word	1074069760
 698 0048 FF00FFFF 		.word	-65281
 699              		.cfi_endproc
 700              	.LFE11:
 701              		.size	PWM_Timer_SetPWMDeadTime, .-PWM_Timer_SetPWMDeadTime
 702              		.section	.text.PWM_Timer_SetPWMInvert,"ax",%progbits
 703              		.align	2
 704              		.global	PWM_Timer_SetPWMInvert
 705              		.code	16
 706              		.thumb_func
 707              		.type	PWM_Timer_SetPWMInvert, %function
 708              	PWM_Timer_SetPWMInvert:
 709              	.LFB12:
 581:.\Generated_Source\PSoC4/PWM_Timer.c **** 
 582:.\Generated_Source\PSoC4/PWM_Timer.c **** 
 583:.\Generated_Source\PSoC4/PWM_Timer.c **** /*******************************************************************************
 584:.\Generated_Source\PSoC4/PWM_Timer.c **** * Function Name: PWM_Timer_SetPWMInvert
 585:.\Generated_Source\PSoC4/PWM_Timer.c **** ********************************************************************************
 586:.\Generated_Source\PSoC4/PWM_Timer.c **** *
 587:.\Generated_Source\PSoC4/PWM_Timer.c **** * Summary:
 588:.\Generated_Source\PSoC4/PWM_Timer.c **** *  Writes the bits that control whether the line and line_n outputs are
 589:.\Generated_Source\PSoC4/PWM_Timer.c **** *  inverted from their normal output values.  This functionality is only
 590:.\Generated_Source\PSoC4/PWM_Timer.c **** *  applicable to the three PWM modes.
 591:.\Generated_Source\PSoC4/PWM_Timer.c **** *
 592:.\Generated_Source\PSoC4/PWM_Timer.c **** * Parameters:
 593:.\Generated_Source\PSoC4/PWM_Timer.c **** *  mask: Mask of outputs to invert.
 594:.\Generated_Source\PSoC4/PWM_Timer.c **** *   Values:
 595:.\Generated_Source\PSoC4/PWM_Timer.c **** *         - PWM_Timer_INVERT_LINE   - Inverts the line output
 596:.\Generated_Source\PSoC4/PWM_Timer.c **** *         - PWM_Timer_INVERT_LINE_N - Inverts the line_n output
 597:.\Generated_Source\PSoC4/PWM_Timer.c **** *
 598:.\Generated_Source\PSoC4/PWM_Timer.c **** * Return:
 599:.\Generated_Source\PSoC4/PWM_Timer.c **** *  None
 600:.\Generated_Source\PSoC4/PWM_Timer.c **** *
 601:.\Generated_Source\PSoC4/PWM_Timer.c **** *******************************************************************************/
 602:.\Generated_Source\PSoC4/PWM_Timer.c **** void PWM_Timer_SetPWMInvert(uint32 mask)
ARM GAS  C:\Users\OEBN\AppData\Local\Temp\cc4YkDS7.s 			page 24


 603:.\Generated_Source\PSoC4/PWM_Timer.c **** {
 710              		.loc 1 603 0
 711              		.cfi_startproc
 712 0000 90B5     		push	{r4, r7, lr}
 713              	.LCFI34:
 714              		.cfi_def_cfa_offset 12
 715              		.cfi_offset 4, -12
 716              		.cfi_offset 7, -8
 717              		.cfi_offset 14, -4
 718 0002 85B0     		sub	sp, sp, #20
 719              	.LCFI35:
 720              		.cfi_def_cfa_offset 32
 721 0004 00AF     		add	r7, sp, #0
 722              	.LCFI36:
 723              		.cfi_def_cfa_register 7
 724 0006 7860     		str	r0, [r7, #4]
 604:.\Generated_Source\PSoC4/PWM_Timer.c ****     uint8 enableInterrupts;
 605:.\Generated_Source\PSoC4/PWM_Timer.c **** 
 606:.\Generated_Source\PSoC4/PWM_Timer.c ****     enableInterrupts = CyEnterCriticalSection();
 725              		.loc 1 606 0
 726 0008 3C1C     		mov	r4, r7
 727 000a 0F34     		add	r4, r4, #15
 728 000c FFF7FEFF 		bl	CyEnterCriticalSection
 729 0010 031C     		mov	r3, r0
 730 0012 2370     		strb	r3, [r4]
 607:.\Generated_Source\PSoC4/PWM_Timer.c **** 
 608:.\Generated_Source\PSoC4/PWM_Timer.c ****     PWM_Timer_CONTROL_REG &= (uint32)~PWM_Timer_INV_OUT_MASK;
 731              		.loc 1 608 0
 732 0014 0A4B     		ldr	r3, .L39
 733 0016 0A4A     		ldr	r2, .L39
 734 0018 1168     		ldr	r1, [r2]
 735 001a 0A4A     		ldr	r2, .L39+4
 736 001c 0A40     		and	r2, r1
 737 001e 1A60     		str	r2, [r3]
 609:.\Generated_Source\PSoC4/PWM_Timer.c ****     PWM_Timer_CONTROL_REG |= mask;
 738              		.loc 1 609 0
 739 0020 074B     		ldr	r3, .L39
 740 0022 074A     		ldr	r2, .L39
 741 0024 1168     		ldr	r1, [r2]
 742 0026 7A68     		ldr	r2, [r7, #4]
 743 0028 0A43     		orr	r2, r1
 744 002a 1A60     		str	r2, [r3]
 610:.\Generated_Source\PSoC4/PWM_Timer.c **** 
 611:.\Generated_Source\PSoC4/PWM_Timer.c ****     CyExitCriticalSection(enableInterrupts);
 745              		.loc 1 611 0
 746 002c 3B1C     		mov	r3, r7
 747 002e 0F33     		add	r3, r3, #15
 748 0030 1B78     		ldrb	r3, [r3]
 749 0032 181C     		mov	r0, r3
 750 0034 FFF7FEFF 		bl	CyExitCriticalSection
 612:.\Generated_Source\PSoC4/PWM_Timer.c **** }
 751              		.loc 1 612 0
 752 0038 BD46     		mov	sp, r7
 753 003a 05B0     		add	sp, sp, #20
 754              		@ sp needed for prologue
 755 003c 90BD     		pop	{r4, r7, pc}
 756              	.L40:
ARM GAS  C:\Users\OEBN\AppData\Local\Temp\cc4YkDS7.s 			page 25


 757 003e C046     		.align	2
 758              	.L39:
 759 0040 00010540 		.word	1074069760
 760 0044 FFFFCFFF 		.word	-3145729
 761              		.cfi_endproc
 762              	.LFE12:
 763              		.size	PWM_Timer_SetPWMInvert, .-PWM_Timer_SetPWMInvert
 764              		.section	.text.PWM_Timer_WriteCounter,"ax",%progbits
 765              		.align	2
 766              		.global	PWM_Timer_WriteCounter
 767              		.code	16
 768              		.thumb_func
 769              		.type	PWM_Timer_WriteCounter, %function
 770              	PWM_Timer_WriteCounter:
 771              	.LFB13:
 613:.\Generated_Source\PSoC4/PWM_Timer.c **** 
 614:.\Generated_Source\PSoC4/PWM_Timer.c **** 
 615:.\Generated_Source\PSoC4/PWM_Timer.c **** 
 616:.\Generated_Source\PSoC4/PWM_Timer.c **** /*******************************************************************************
 617:.\Generated_Source\PSoC4/PWM_Timer.c **** * Function Name: PWM_Timer_WriteCounter
 618:.\Generated_Source\PSoC4/PWM_Timer.c **** ********************************************************************************
 619:.\Generated_Source\PSoC4/PWM_Timer.c **** *
 620:.\Generated_Source\PSoC4/PWM_Timer.c **** * Summary:
 621:.\Generated_Source\PSoC4/PWM_Timer.c **** *  Writes a new 16bit counter value directly into the counter register, thus
 622:.\Generated_Source\PSoC4/PWM_Timer.c **** *  setting the counter (not the period) to the value written. It is not
 623:.\Generated_Source\PSoC4/PWM_Timer.c **** *  advised to write to this field when the counter is running.
 624:.\Generated_Source\PSoC4/PWM_Timer.c **** *
 625:.\Generated_Source\PSoC4/PWM_Timer.c **** * Parameters:
 626:.\Generated_Source\PSoC4/PWM_Timer.c **** *  count: value to write
 627:.\Generated_Source\PSoC4/PWM_Timer.c **** *
 628:.\Generated_Source\PSoC4/PWM_Timer.c **** * Return:
 629:.\Generated_Source\PSoC4/PWM_Timer.c **** *  None
 630:.\Generated_Source\PSoC4/PWM_Timer.c **** *
 631:.\Generated_Source\PSoC4/PWM_Timer.c **** *******************************************************************************/
 632:.\Generated_Source\PSoC4/PWM_Timer.c **** void PWM_Timer_WriteCounter(uint32 count)
 633:.\Generated_Source\PSoC4/PWM_Timer.c **** {
 772              		.loc 1 633 0
 773              		.cfi_startproc
 774 0000 80B5     		push	{r7, lr}
 775              	.LCFI37:
 776              		.cfi_def_cfa_offset 8
 777              		.cfi_offset 7, -8
 778              		.cfi_offset 14, -4
 779 0002 82B0     		sub	sp, sp, #8
 780              	.LCFI38:
 781              		.cfi_def_cfa_offset 16
 782 0004 00AF     		add	r7, sp, #0
 783              	.LCFI39:
 784              		.cfi_def_cfa_register 7
 785 0006 7860     		str	r0, [r7, #4]
 634:.\Generated_Source\PSoC4/PWM_Timer.c ****     PWM_Timer_COUNTER_REG = (count & PWM_Timer_16BIT_MASK);
 786              		.loc 1 634 0
 787 0008 034B     		ldr	r3, .L42
 788 000a 7A68     		ldr	r2, [r7, #4]
 789 000c 1204     		lsl	r2, r2, #16
 790 000e 120C     		lsr	r2, r2, #16
 791 0010 1A60     		str	r2, [r3]
ARM GAS  C:\Users\OEBN\AppData\Local\Temp\cc4YkDS7.s 			page 26


 635:.\Generated_Source\PSoC4/PWM_Timer.c **** }
 792              		.loc 1 635 0
 793 0012 BD46     		mov	sp, r7
 794 0014 02B0     		add	sp, sp, #8
 795              		@ sp needed for prologue
 796 0016 80BD     		pop	{r7, pc}
 797              	.L43:
 798              		.align	2
 799              	.L42:
 800 0018 08010540 		.word	1074069768
 801              		.cfi_endproc
 802              	.LFE13:
 803              		.size	PWM_Timer_WriteCounter, .-PWM_Timer_WriteCounter
 804              		.section	.text.PWM_Timer_ReadCounter,"ax",%progbits
 805              		.align	2
 806              		.global	PWM_Timer_ReadCounter
 807              		.code	16
 808              		.thumb_func
 809              		.type	PWM_Timer_ReadCounter, %function
 810              	PWM_Timer_ReadCounter:
 811              	.LFB14:
 636:.\Generated_Source\PSoC4/PWM_Timer.c **** 
 637:.\Generated_Source\PSoC4/PWM_Timer.c **** 
 638:.\Generated_Source\PSoC4/PWM_Timer.c **** /*******************************************************************************
 639:.\Generated_Source\PSoC4/PWM_Timer.c **** * Function Name: PWM_Timer_ReadCounter
 640:.\Generated_Source\PSoC4/PWM_Timer.c **** ********************************************************************************
 641:.\Generated_Source\PSoC4/PWM_Timer.c **** *
 642:.\Generated_Source\PSoC4/PWM_Timer.c **** * Summary:
 643:.\Generated_Source\PSoC4/PWM_Timer.c **** *  Reads the current counter value.
 644:.\Generated_Source\PSoC4/PWM_Timer.c **** *
 645:.\Generated_Source\PSoC4/PWM_Timer.c **** * Parameters:
 646:.\Generated_Source\PSoC4/PWM_Timer.c **** *  None
 647:.\Generated_Source\PSoC4/PWM_Timer.c **** *
 648:.\Generated_Source\PSoC4/PWM_Timer.c **** * Return:
 649:.\Generated_Source\PSoC4/PWM_Timer.c **** *  Current counter value
 650:.\Generated_Source\PSoC4/PWM_Timer.c **** *
 651:.\Generated_Source\PSoC4/PWM_Timer.c **** *******************************************************************************/
 652:.\Generated_Source\PSoC4/PWM_Timer.c **** uint32 PWM_Timer_ReadCounter(void)
 653:.\Generated_Source\PSoC4/PWM_Timer.c **** {
 812              		.loc 1 653 0
 813              		.cfi_startproc
 814 0000 80B5     		push	{r7, lr}
 815              	.LCFI40:
 816              		.cfi_def_cfa_offset 8
 817              		.cfi_offset 7, -8
 818              		.cfi_offset 14, -4
 819 0002 00AF     		add	r7, sp, #0
 820              	.LCFI41:
 821              		.cfi_def_cfa_register 7
 654:.\Generated_Source\PSoC4/PWM_Timer.c ****     return (PWM_Timer_COUNTER_REG & PWM_Timer_16BIT_MASK);
 822              		.loc 1 654 0
 823 0004 034B     		ldr	r3, .L46
 824 0006 1B68     		ldr	r3, [r3]
 825 0008 1B04     		lsl	r3, r3, #16
 826 000a 1B0C     		lsr	r3, r3, #16
 655:.\Generated_Source\PSoC4/PWM_Timer.c **** }
 827              		.loc 1 655 0
ARM GAS  C:\Users\OEBN\AppData\Local\Temp\cc4YkDS7.s 			page 27


 828 000c 181C     		mov	r0, r3
 829 000e BD46     		mov	sp, r7
 830              		@ sp needed for prologue
 831 0010 80BD     		pop	{r7, pc}
 832              	.L47:
 833 0012 C046     		.align	2
 834              	.L46:
 835 0014 08010540 		.word	1074069768
 836              		.cfi_endproc
 837              	.LFE14:
 838              		.size	PWM_Timer_ReadCounter, .-PWM_Timer_ReadCounter
 839              		.section	.text.PWM_Timer_SetCounterMode,"ax",%progbits
 840              		.align	2
 841              		.global	PWM_Timer_SetCounterMode
 842              		.code	16
 843              		.thumb_func
 844              		.type	PWM_Timer_SetCounterMode, %function
 845              	PWM_Timer_SetCounterMode:
 846              	.LFB15:
 656:.\Generated_Source\PSoC4/PWM_Timer.c **** 
 657:.\Generated_Source\PSoC4/PWM_Timer.c **** 
 658:.\Generated_Source\PSoC4/PWM_Timer.c **** /*******************************************************************************
 659:.\Generated_Source\PSoC4/PWM_Timer.c **** * Function Name: PWM_Timer_SetCounterMode
 660:.\Generated_Source\PSoC4/PWM_Timer.c **** ********************************************************************************
 661:.\Generated_Source\PSoC4/PWM_Timer.c **** *
 662:.\Generated_Source\PSoC4/PWM_Timer.c **** * Summary:
 663:.\Generated_Source\PSoC4/PWM_Timer.c **** *  Sets the counter mode.  Applicable to all modes except Quadrature Decoder
 664:.\Generated_Source\PSoC4/PWM_Timer.c **** *  and the PWM with a pseudo random output.
 665:.\Generated_Source\PSoC4/PWM_Timer.c **** *
 666:.\Generated_Source\PSoC4/PWM_Timer.c **** * Parameters:
 667:.\Generated_Source\PSoC4/PWM_Timer.c **** *  counterMode: Enumerated counter type values
 668:.\Generated_Source\PSoC4/PWM_Timer.c **** *   Values:
 669:.\Generated_Source\PSoC4/PWM_Timer.c **** *     - PWM_Timer_COUNT_UP       - Counts up
 670:.\Generated_Source\PSoC4/PWM_Timer.c **** *     - PWM_Timer_COUNT_DOWN     - Counts down
 671:.\Generated_Source\PSoC4/PWM_Timer.c **** *     - PWM_Timer_COUNT_UPDOWN0  - Counts up and down. Terminal count
 672:.\Generated_Source\PSoC4/PWM_Timer.c **** *                                         generated when counter reaches 0
 673:.\Generated_Source\PSoC4/PWM_Timer.c **** *     - PWM_Timer_COUNT_UPDOWN1  - Counts up and down. Terminal count
 674:.\Generated_Source\PSoC4/PWM_Timer.c **** *                                         generated both when counter reaches 0
 675:.\Generated_Source\PSoC4/PWM_Timer.c **** *                                         and period
 676:.\Generated_Source\PSoC4/PWM_Timer.c **** *
 677:.\Generated_Source\PSoC4/PWM_Timer.c **** * Return:
 678:.\Generated_Source\PSoC4/PWM_Timer.c **** *  None
 679:.\Generated_Source\PSoC4/PWM_Timer.c **** *
 680:.\Generated_Source\PSoC4/PWM_Timer.c **** *******************************************************************************/
 681:.\Generated_Source\PSoC4/PWM_Timer.c **** void PWM_Timer_SetCounterMode(uint32 counterMode)
 682:.\Generated_Source\PSoC4/PWM_Timer.c **** {
 847              		.loc 1 682 0
 848              		.cfi_startproc
 849 0000 90B5     		push	{r4, r7, lr}
 850              	.LCFI42:
 851              		.cfi_def_cfa_offset 12
 852              		.cfi_offset 4, -12
 853              		.cfi_offset 7, -8
 854              		.cfi_offset 14, -4
 855 0002 85B0     		sub	sp, sp, #20
 856              	.LCFI43:
 857              		.cfi_def_cfa_offset 32
ARM GAS  C:\Users\OEBN\AppData\Local\Temp\cc4YkDS7.s 			page 28


 858 0004 00AF     		add	r7, sp, #0
 859              	.LCFI44:
 860              		.cfi_def_cfa_register 7
 861 0006 7860     		str	r0, [r7, #4]
 683:.\Generated_Source\PSoC4/PWM_Timer.c ****     uint8 enableInterrupts;
 684:.\Generated_Source\PSoC4/PWM_Timer.c **** 
 685:.\Generated_Source\PSoC4/PWM_Timer.c ****     enableInterrupts = CyEnterCriticalSection();
 862              		.loc 1 685 0
 863 0008 3C1C     		mov	r4, r7
 864 000a 0F34     		add	r4, r4, #15
 865 000c FFF7FEFF 		bl	CyEnterCriticalSection
 866 0010 031C     		mov	r3, r0
 867 0012 2370     		strb	r3, [r4]
 686:.\Generated_Source\PSoC4/PWM_Timer.c **** 
 687:.\Generated_Source\PSoC4/PWM_Timer.c ****     PWM_Timer_CONTROL_REG &= (uint32)~PWM_Timer_UPDOWN_MASK;
 868              		.loc 1 687 0
 869 0014 0A4B     		ldr	r3, .L49
 870 0016 0A4A     		ldr	r2, .L49
 871 0018 1168     		ldr	r1, [r2]
 872 001a 0A4A     		ldr	r2, .L49+4
 873 001c 0A40     		and	r2, r1
 874 001e 1A60     		str	r2, [r3]
 688:.\Generated_Source\PSoC4/PWM_Timer.c ****     PWM_Timer_CONTROL_REG |= counterMode;
 875              		.loc 1 688 0
 876 0020 074B     		ldr	r3, .L49
 877 0022 074A     		ldr	r2, .L49
 878 0024 1168     		ldr	r1, [r2]
 879 0026 7A68     		ldr	r2, [r7, #4]
 880 0028 0A43     		orr	r2, r1
 881 002a 1A60     		str	r2, [r3]
 689:.\Generated_Source\PSoC4/PWM_Timer.c **** 
 690:.\Generated_Source\PSoC4/PWM_Timer.c ****     CyExitCriticalSection(enableInterrupts);
 882              		.loc 1 690 0
 883 002c 3B1C     		mov	r3, r7
 884 002e 0F33     		add	r3, r3, #15
 885 0030 1B78     		ldrb	r3, [r3]
 886 0032 181C     		mov	r0, r3
 887 0034 FFF7FEFF 		bl	CyExitCriticalSection
 691:.\Generated_Source\PSoC4/PWM_Timer.c **** }
 888              		.loc 1 691 0
 889 0038 BD46     		mov	sp, r7
 890 003a 05B0     		add	sp, sp, #20
 891              		@ sp needed for prologue
 892 003c 90BD     		pop	{r4, r7, pc}
 893              	.L50:
 894 003e C046     		.align	2
 895              	.L49:
 896 0040 00010540 		.word	1074069760
 897 0044 FFFFFCFF 		.word	-196609
 898              		.cfi_endproc
 899              	.LFE15:
 900              		.size	PWM_Timer_SetCounterMode, .-PWM_Timer_SetCounterMode
 901              		.section	.text.PWM_Timer_WritePeriod,"ax",%progbits
 902              		.align	2
 903              		.global	PWM_Timer_WritePeriod
 904              		.code	16
 905              		.thumb_func
ARM GAS  C:\Users\OEBN\AppData\Local\Temp\cc4YkDS7.s 			page 29


 906              		.type	PWM_Timer_WritePeriod, %function
 907              	PWM_Timer_WritePeriod:
 908              	.LFB16:
 692:.\Generated_Source\PSoC4/PWM_Timer.c **** 
 693:.\Generated_Source\PSoC4/PWM_Timer.c **** 
 694:.\Generated_Source\PSoC4/PWM_Timer.c **** /*******************************************************************************
 695:.\Generated_Source\PSoC4/PWM_Timer.c **** * Function Name: PWM_Timer_WritePeriod
 696:.\Generated_Source\PSoC4/PWM_Timer.c **** ********************************************************************************
 697:.\Generated_Source\PSoC4/PWM_Timer.c **** *
 698:.\Generated_Source\PSoC4/PWM_Timer.c **** * Summary:
 699:.\Generated_Source\PSoC4/PWM_Timer.c **** *  Writes the 16 bit period register with the new period value.
 700:.\Generated_Source\PSoC4/PWM_Timer.c **** *  To cause the counter to count for N cycles this register should be written
 701:.\Generated_Source\PSoC4/PWM_Timer.c **** *  with N-1 (counts from 0 to period inclusive).
 702:.\Generated_Source\PSoC4/PWM_Timer.c **** *
 703:.\Generated_Source\PSoC4/PWM_Timer.c **** * Parameters:
 704:.\Generated_Source\PSoC4/PWM_Timer.c **** *  period: Period value
 705:.\Generated_Source\PSoC4/PWM_Timer.c **** *
 706:.\Generated_Source\PSoC4/PWM_Timer.c **** * Return:
 707:.\Generated_Source\PSoC4/PWM_Timer.c **** *  None
 708:.\Generated_Source\PSoC4/PWM_Timer.c **** *
 709:.\Generated_Source\PSoC4/PWM_Timer.c **** *******************************************************************************/
 710:.\Generated_Source\PSoC4/PWM_Timer.c **** void PWM_Timer_WritePeriod(uint32 period)
 711:.\Generated_Source\PSoC4/PWM_Timer.c **** {
 909              		.loc 1 711 0
 910              		.cfi_startproc
 911 0000 80B5     		push	{r7, lr}
 912              	.LCFI45:
 913              		.cfi_def_cfa_offset 8
 914              		.cfi_offset 7, -8
 915              		.cfi_offset 14, -4
 916 0002 82B0     		sub	sp, sp, #8
 917              	.LCFI46:
 918              		.cfi_def_cfa_offset 16
 919 0004 00AF     		add	r7, sp, #0
 920              	.LCFI47:
 921              		.cfi_def_cfa_register 7
 922 0006 7860     		str	r0, [r7, #4]
 712:.\Generated_Source\PSoC4/PWM_Timer.c ****     PWM_Timer_PERIOD_REG = (period & PWM_Timer_16BIT_MASK);
 923              		.loc 1 712 0
 924 0008 034B     		ldr	r3, .L52
 925 000a 7A68     		ldr	r2, [r7, #4]
 926 000c 1204     		lsl	r2, r2, #16
 927 000e 120C     		lsr	r2, r2, #16
 928 0010 1A60     		str	r2, [r3]
 713:.\Generated_Source\PSoC4/PWM_Timer.c **** }
 929              		.loc 1 713 0
 930 0012 BD46     		mov	sp, r7
 931 0014 02B0     		add	sp, sp, #8
 932              		@ sp needed for prologue
 933 0016 80BD     		pop	{r7, pc}
 934              	.L53:
 935              		.align	2
 936              	.L52:
 937 0018 14010540 		.word	1074069780
 938              		.cfi_endproc
 939              	.LFE16:
 940              		.size	PWM_Timer_WritePeriod, .-PWM_Timer_WritePeriod
ARM GAS  C:\Users\OEBN\AppData\Local\Temp\cc4YkDS7.s 			page 30


 941              		.section	.text.PWM_Timer_ReadPeriod,"ax",%progbits
 942              		.align	2
 943              		.global	PWM_Timer_ReadPeriod
 944              		.code	16
 945              		.thumb_func
 946              		.type	PWM_Timer_ReadPeriod, %function
 947              	PWM_Timer_ReadPeriod:
 948              	.LFB17:
 714:.\Generated_Source\PSoC4/PWM_Timer.c **** 
 715:.\Generated_Source\PSoC4/PWM_Timer.c **** 
 716:.\Generated_Source\PSoC4/PWM_Timer.c **** /*******************************************************************************
 717:.\Generated_Source\PSoC4/PWM_Timer.c **** * Function Name: PWM_Timer_ReadPeriod
 718:.\Generated_Source\PSoC4/PWM_Timer.c **** ********************************************************************************
 719:.\Generated_Source\PSoC4/PWM_Timer.c **** *
 720:.\Generated_Source\PSoC4/PWM_Timer.c **** * Summary:
 721:.\Generated_Source\PSoC4/PWM_Timer.c **** *  Reads the 16 bit period register.
 722:.\Generated_Source\PSoC4/PWM_Timer.c **** *
 723:.\Generated_Source\PSoC4/PWM_Timer.c **** * Parameters:
 724:.\Generated_Source\PSoC4/PWM_Timer.c **** *  None
 725:.\Generated_Source\PSoC4/PWM_Timer.c **** *
 726:.\Generated_Source\PSoC4/PWM_Timer.c **** * Return:
 727:.\Generated_Source\PSoC4/PWM_Timer.c **** *  Period value
 728:.\Generated_Source\PSoC4/PWM_Timer.c **** *
 729:.\Generated_Source\PSoC4/PWM_Timer.c **** *******************************************************************************/
 730:.\Generated_Source\PSoC4/PWM_Timer.c **** uint32 PWM_Timer_ReadPeriod(void)
 731:.\Generated_Source\PSoC4/PWM_Timer.c **** {
 949              		.loc 1 731 0
 950              		.cfi_startproc
 951 0000 80B5     		push	{r7, lr}
 952              	.LCFI48:
 953              		.cfi_def_cfa_offset 8
 954              		.cfi_offset 7, -8
 955              		.cfi_offset 14, -4
 956 0002 00AF     		add	r7, sp, #0
 957              	.LCFI49:
 958              		.cfi_def_cfa_register 7
 732:.\Generated_Source\PSoC4/PWM_Timer.c ****     return (PWM_Timer_PERIOD_REG & PWM_Timer_16BIT_MASK);
 959              		.loc 1 732 0
 960 0004 034B     		ldr	r3, .L56
 961 0006 1B68     		ldr	r3, [r3]
 962 0008 1B04     		lsl	r3, r3, #16
 963 000a 1B0C     		lsr	r3, r3, #16
 733:.\Generated_Source\PSoC4/PWM_Timer.c **** }
 964              		.loc 1 733 0
 965 000c 181C     		mov	r0, r3
 966 000e BD46     		mov	sp, r7
 967              		@ sp needed for prologue
 968 0010 80BD     		pop	{r7, pc}
 969              	.L57:
 970 0012 C046     		.align	2
 971              	.L56:
 972 0014 14010540 		.word	1074069780
 973              		.cfi_endproc
 974              	.LFE17:
 975              		.size	PWM_Timer_ReadPeriod, .-PWM_Timer_ReadPeriod
 976              		.section	.text.PWM_Timer_SetCompareSwap,"ax",%progbits
 977              		.align	2
ARM GAS  C:\Users\OEBN\AppData\Local\Temp\cc4YkDS7.s 			page 31


 978              		.global	PWM_Timer_SetCompareSwap
 979              		.code	16
 980              		.thumb_func
 981              		.type	PWM_Timer_SetCompareSwap, %function
 982              	PWM_Timer_SetCompareSwap:
 983              	.LFB18:
 734:.\Generated_Source\PSoC4/PWM_Timer.c **** 
 735:.\Generated_Source\PSoC4/PWM_Timer.c **** 
 736:.\Generated_Source\PSoC4/PWM_Timer.c **** /*******************************************************************************
 737:.\Generated_Source\PSoC4/PWM_Timer.c **** * Function Name: PWM_Timer_SetCompareSwap
 738:.\Generated_Source\PSoC4/PWM_Timer.c **** ********************************************************************************
 739:.\Generated_Source\PSoC4/PWM_Timer.c **** *
 740:.\Generated_Source\PSoC4/PWM_Timer.c **** * Summary:
 741:.\Generated_Source\PSoC4/PWM_Timer.c **** *  Writes the register that controls whether the compare registers are
 742:.\Generated_Source\PSoC4/PWM_Timer.c **** *  swapped. When enabled in the Timer/Counter mode(without capture) the swap
 743:.\Generated_Source\PSoC4/PWM_Timer.c **** *  occurs at a TC event. In the PWM mode the swap occurs at the next TC event
 744:.\Generated_Source\PSoC4/PWM_Timer.c **** *  following a hardware switch event.
 745:.\Generated_Source\PSoC4/PWM_Timer.c **** *
 746:.\Generated_Source\PSoC4/PWM_Timer.c **** * Parameters:
 747:.\Generated_Source\PSoC4/PWM_Timer.c **** *  swapEnable
 748:.\Generated_Source\PSoC4/PWM_Timer.c **** *   Values:
 749:.\Generated_Source\PSoC4/PWM_Timer.c **** *     - 0 - Disable swap
 750:.\Generated_Source\PSoC4/PWM_Timer.c **** *     - 1 - Enable swap
 751:.\Generated_Source\PSoC4/PWM_Timer.c **** *
 752:.\Generated_Source\PSoC4/PWM_Timer.c **** * Return:
 753:.\Generated_Source\PSoC4/PWM_Timer.c **** *  None
 754:.\Generated_Source\PSoC4/PWM_Timer.c **** *
 755:.\Generated_Source\PSoC4/PWM_Timer.c **** *******************************************************************************/
 756:.\Generated_Source\PSoC4/PWM_Timer.c **** void PWM_Timer_SetCompareSwap(uint32 swapEnable)
 757:.\Generated_Source\PSoC4/PWM_Timer.c **** {
 984              		.loc 1 757 0
 985              		.cfi_startproc
 986 0000 90B5     		push	{r4, r7, lr}
 987              	.LCFI50:
 988              		.cfi_def_cfa_offset 12
 989              		.cfi_offset 4, -12
 990              		.cfi_offset 7, -8
 991              		.cfi_offset 14, -4
 992 0002 85B0     		sub	sp, sp, #20
 993              	.LCFI51:
 994              		.cfi_def_cfa_offset 32
 995 0004 00AF     		add	r7, sp, #0
 996              	.LCFI52:
 997              		.cfi_def_cfa_register 7
 998 0006 7860     		str	r0, [r7, #4]
 758:.\Generated_Source\PSoC4/PWM_Timer.c ****     uint8 enableInterrupts;
 759:.\Generated_Source\PSoC4/PWM_Timer.c **** 
 760:.\Generated_Source\PSoC4/PWM_Timer.c ****     enableInterrupts = CyEnterCriticalSection();
 999              		.loc 1 760 0
 1000 0008 3C1C     		mov	r4, r7
 1001 000a 0F34     		add	r4, r4, #15
 1002 000c FFF7FEFF 		bl	CyEnterCriticalSection
 1003 0010 031C     		mov	r3, r0
 1004 0012 2370     		strb	r3, [r4]
 761:.\Generated_Source\PSoC4/PWM_Timer.c **** 
 762:.\Generated_Source\PSoC4/PWM_Timer.c ****     PWM_Timer_CONTROL_REG &= (uint32)~PWM_Timer_RELOAD_CC_MASK;
 1005              		.loc 1 762 0
ARM GAS  C:\Users\OEBN\AppData\Local\Temp\cc4YkDS7.s 			page 32


 1006 0014 0B4B     		ldr	r3, .L59
 1007 0016 0B4A     		ldr	r2, .L59
 1008 0018 1268     		ldr	r2, [r2]
 1009 001a 0121     		mov	r1, #1
 1010 001c 8A43     		bic	r2, r1
 1011 001e 1A60     		str	r2, [r3]
 763:.\Generated_Source\PSoC4/PWM_Timer.c ****     PWM_Timer_CONTROL_REG |= (swapEnable & PWM_Timer_1BIT_MASK);
 1012              		.loc 1 763 0
 1013 0020 084B     		ldr	r3, .L59
 1014 0022 084A     		ldr	r2, .L59
 1015 0024 1168     		ldr	r1, [r2]
 1016 0026 7868     		ldr	r0, [r7, #4]
 1017 0028 0122     		mov	r2, #1
 1018 002a 0240     		and	r2, r0
 1019 002c 0A43     		orr	r2, r1
 1020 002e 1A60     		str	r2, [r3]
 764:.\Generated_Source\PSoC4/PWM_Timer.c **** 
 765:.\Generated_Source\PSoC4/PWM_Timer.c ****     CyExitCriticalSection(enableInterrupts);
 1021              		.loc 1 765 0
 1022 0030 3B1C     		mov	r3, r7
 1023 0032 0F33     		add	r3, r3, #15
 1024 0034 1B78     		ldrb	r3, [r3]
 1025 0036 181C     		mov	r0, r3
 1026 0038 FFF7FEFF 		bl	CyExitCriticalSection
 766:.\Generated_Source\PSoC4/PWM_Timer.c **** }
 1027              		.loc 1 766 0
 1028 003c BD46     		mov	sp, r7
 1029 003e 05B0     		add	sp, sp, #20
 1030              		@ sp needed for prologue
 1031 0040 90BD     		pop	{r4, r7, pc}
 1032              	.L60:
 1033 0042 C046     		.align	2
 1034              	.L59:
 1035 0044 00010540 		.word	1074069760
 1036              		.cfi_endproc
 1037              	.LFE18:
 1038              		.size	PWM_Timer_SetCompareSwap, .-PWM_Timer_SetCompareSwap
 1039              		.section	.text.PWM_Timer_WritePeriodBuf,"ax",%progbits
 1040              		.align	2
 1041              		.global	PWM_Timer_WritePeriodBuf
 1042              		.code	16
 1043              		.thumb_func
 1044              		.type	PWM_Timer_WritePeriodBuf, %function
 1045              	PWM_Timer_WritePeriodBuf:
 1046              	.LFB19:
 767:.\Generated_Source\PSoC4/PWM_Timer.c **** 
 768:.\Generated_Source\PSoC4/PWM_Timer.c **** 
 769:.\Generated_Source\PSoC4/PWM_Timer.c **** /*******************************************************************************
 770:.\Generated_Source\PSoC4/PWM_Timer.c **** * Function Name: PWM_Timer_WritePeriodBuf
 771:.\Generated_Source\PSoC4/PWM_Timer.c **** ********************************************************************************
 772:.\Generated_Source\PSoC4/PWM_Timer.c **** *
 773:.\Generated_Source\PSoC4/PWM_Timer.c **** * Summary:
 774:.\Generated_Source\PSoC4/PWM_Timer.c **** *  Writes the 16 bit period buf register with the new period value.
 775:.\Generated_Source\PSoC4/PWM_Timer.c **** *
 776:.\Generated_Source\PSoC4/PWM_Timer.c **** * Parameters:
 777:.\Generated_Source\PSoC4/PWM_Timer.c **** *  periodBuf: Period value
 778:.\Generated_Source\PSoC4/PWM_Timer.c **** *
ARM GAS  C:\Users\OEBN\AppData\Local\Temp\cc4YkDS7.s 			page 33


 779:.\Generated_Source\PSoC4/PWM_Timer.c **** * Return:
 780:.\Generated_Source\PSoC4/PWM_Timer.c **** *  None
 781:.\Generated_Source\PSoC4/PWM_Timer.c **** *
 782:.\Generated_Source\PSoC4/PWM_Timer.c **** *******************************************************************************/
 783:.\Generated_Source\PSoC4/PWM_Timer.c **** void PWM_Timer_WritePeriodBuf(uint32 periodBuf)
 784:.\Generated_Source\PSoC4/PWM_Timer.c **** {
 1047              		.loc 1 784 0
 1048              		.cfi_startproc
 1049 0000 80B5     		push	{r7, lr}
 1050              	.LCFI53:
 1051              		.cfi_def_cfa_offset 8
 1052              		.cfi_offset 7, -8
 1053              		.cfi_offset 14, -4
 1054 0002 82B0     		sub	sp, sp, #8
 1055              	.LCFI54:
 1056              		.cfi_def_cfa_offset 16
 1057 0004 00AF     		add	r7, sp, #0
 1058              	.LCFI55:
 1059              		.cfi_def_cfa_register 7
 1060 0006 7860     		str	r0, [r7, #4]
 785:.\Generated_Source\PSoC4/PWM_Timer.c ****     PWM_Timer_PERIOD_BUF_REG = (periodBuf & PWM_Timer_16BIT_MASK);
 1061              		.loc 1 785 0
 1062 0008 034B     		ldr	r3, .L62
 1063 000a 7A68     		ldr	r2, [r7, #4]
 1064 000c 1204     		lsl	r2, r2, #16
 1065 000e 120C     		lsr	r2, r2, #16
 1066 0010 1A60     		str	r2, [r3]
 786:.\Generated_Source\PSoC4/PWM_Timer.c **** }
 1067              		.loc 1 786 0
 1068 0012 BD46     		mov	sp, r7
 1069 0014 02B0     		add	sp, sp, #8
 1070              		@ sp needed for prologue
 1071 0016 80BD     		pop	{r7, pc}
 1072              	.L63:
 1073              		.align	2
 1074              	.L62:
 1075 0018 18010540 		.word	1074069784
 1076              		.cfi_endproc
 1077              	.LFE19:
 1078              		.size	PWM_Timer_WritePeriodBuf, .-PWM_Timer_WritePeriodBuf
 1079              		.section	.text.PWM_Timer_ReadPeriodBuf,"ax",%progbits
 1080              		.align	2
 1081              		.global	PWM_Timer_ReadPeriodBuf
 1082              		.code	16
 1083              		.thumb_func
 1084              		.type	PWM_Timer_ReadPeriodBuf, %function
 1085              	PWM_Timer_ReadPeriodBuf:
 1086              	.LFB20:
 787:.\Generated_Source\PSoC4/PWM_Timer.c **** 
 788:.\Generated_Source\PSoC4/PWM_Timer.c **** 
 789:.\Generated_Source\PSoC4/PWM_Timer.c **** /*******************************************************************************
 790:.\Generated_Source\PSoC4/PWM_Timer.c **** * Function Name: PWM_Timer_ReadPeriodBuf
 791:.\Generated_Source\PSoC4/PWM_Timer.c **** ********************************************************************************
 792:.\Generated_Source\PSoC4/PWM_Timer.c **** *
 793:.\Generated_Source\PSoC4/PWM_Timer.c **** * Summary:
 794:.\Generated_Source\PSoC4/PWM_Timer.c **** *  Reads the 16 bit period buf register.
 795:.\Generated_Source\PSoC4/PWM_Timer.c **** *
ARM GAS  C:\Users\OEBN\AppData\Local\Temp\cc4YkDS7.s 			page 34


 796:.\Generated_Source\PSoC4/PWM_Timer.c **** * Parameters:
 797:.\Generated_Source\PSoC4/PWM_Timer.c **** *  None
 798:.\Generated_Source\PSoC4/PWM_Timer.c **** *
 799:.\Generated_Source\PSoC4/PWM_Timer.c **** * Return:
 800:.\Generated_Source\PSoC4/PWM_Timer.c **** *  Period value
 801:.\Generated_Source\PSoC4/PWM_Timer.c **** *
 802:.\Generated_Source\PSoC4/PWM_Timer.c **** *******************************************************************************/
 803:.\Generated_Source\PSoC4/PWM_Timer.c **** uint32 PWM_Timer_ReadPeriodBuf(void)
 804:.\Generated_Source\PSoC4/PWM_Timer.c **** {
 1087              		.loc 1 804 0
 1088              		.cfi_startproc
 1089 0000 80B5     		push	{r7, lr}
 1090              	.LCFI56:
 1091              		.cfi_def_cfa_offset 8
 1092              		.cfi_offset 7, -8
 1093              		.cfi_offset 14, -4
 1094 0002 00AF     		add	r7, sp, #0
 1095              	.LCFI57:
 1096              		.cfi_def_cfa_register 7
 805:.\Generated_Source\PSoC4/PWM_Timer.c ****     return (PWM_Timer_PERIOD_BUF_REG & PWM_Timer_16BIT_MASK);
 1097              		.loc 1 805 0
 1098 0004 034B     		ldr	r3, .L66
 1099 0006 1B68     		ldr	r3, [r3]
 1100 0008 1B04     		lsl	r3, r3, #16
 1101 000a 1B0C     		lsr	r3, r3, #16
 806:.\Generated_Source\PSoC4/PWM_Timer.c **** }
 1102              		.loc 1 806 0
 1103 000c 181C     		mov	r0, r3
 1104 000e BD46     		mov	sp, r7
 1105              		@ sp needed for prologue
 1106 0010 80BD     		pop	{r7, pc}
 1107              	.L67:
 1108 0012 C046     		.align	2
 1109              	.L66:
 1110 0014 18010540 		.word	1074069784
 1111              		.cfi_endproc
 1112              	.LFE20:
 1113              		.size	PWM_Timer_ReadPeriodBuf, .-PWM_Timer_ReadPeriodBuf
 1114              		.section	.text.PWM_Timer_SetPeriodSwap,"ax",%progbits
 1115              		.align	2
 1116              		.global	PWM_Timer_SetPeriodSwap
 1117              		.code	16
 1118              		.thumb_func
 1119              		.type	PWM_Timer_SetPeriodSwap, %function
 1120              	PWM_Timer_SetPeriodSwap:
 1121              	.LFB21:
 807:.\Generated_Source\PSoC4/PWM_Timer.c **** 
 808:.\Generated_Source\PSoC4/PWM_Timer.c **** 
 809:.\Generated_Source\PSoC4/PWM_Timer.c **** /*******************************************************************************
 810:.\Generated_Source\PSoC4/PWM_Timer.c **** * Function Name: PWM_Timer_SetPeriodSwap
 811:.\Generated_Source\PSoC4/PWM_Timer.c **** ********************************************************************************
 812:.\Generated_Source\PSoC4/PWM_Timer.c **** *
 813:.\Generated_Source\PSoC4/PWM_Timer.c **** * Summary:
 814:.\Generated_Source\PSoC4/PWM_Timer.c **** *  Writes the register that controls whether the period registers are
 815:.\Generated_Source\PSoC4/PWM_Timer.c **** *  swapped. When enabled in Timer/Counter mode the swap occurs at a TC event.
 816:.\Generated_Source\PSoC4/PWM_Timer.c **** *  In the PWM mode the swap occurs at the next TC event following a hardware
 817:.\Generated_Source\PSoC4/PWM_Timer.c **** *  switch event.
ARM GAS  C:\Users\OEBN\AppData\Local\Temp\cc4YkDS7.s 			page 35


 818:.\Generated_Source\PSoC4/PWM_Timer.c **** *
 819:.\Generated_Source\PSoC4/PWM_Timer.c **** * Parameters:
 820:.\Generated_Source\PSoC4/PWM_Timer.c **** *  swapEnable
 821:.\Generated_Source\PSoC4/PWM_Timer.c **** *   Values:
 822:.\Generated_Source\PSoC4/PWM_Timer.c **** *     - 0 - Disable swap
 823:.\Generated_Source\PSoC4/PWM_Timer.c **** *     - 1 - Enable swap
 824:.\Generated_Source\PSoC4/PWM_Timer.c **** *
 825:.\Generated_Source\PSoC4/PWM_Timer.c **** * Return:
 826:.\Generated_Source\PSoC4/PWM_Timer.c **** *  None
 827:.\Generated_Source\PSoC4/PWM_Timer.c **** *
 828:.\Generated_Source\PSoC4/PWM_Timer.c **** *******************************************************************************/
 829:.\Generated_Source\PSoC4/PWM_Timer.c **** void PWM_Timer_SetPeriodSwap(uint32 swapEnable)
 830:.\Generated_Source\PSoC4/PWM_Timer.c **** {
 1122              		.loc 1 830 0
 1123              		.cfi_startproc
 1124 0000 90B5     		push	{r4, r7, lr}
 1125              	.LCFI58:
 1126              		.cfi_def_cfa_offset 12
 1127              		.cfi_offset 4, -12
 1128              		.cfi_offset 7, -8
 1129              		.cfi_offset 14, -4
 1130 0002 85B0     		sub	sp, sp, #20
 1131              	.LCFI59:
 1132              		.cfi_def_cfa_offset 32
 1133 0004 00AF     		add	r7, sp, #0
 1134              	.LCFI60:
 1135              		.cfi_def_cfa_register 7
 1136 0006 7860     		str	r0, [r7, #4]
 831:.\Generated_Source\PSoC4/PWM_Timer.c ****     uint8 enableInterrupts;
 832:.\Generated_Source\PSoC4/PWM_Timer.c **** 
 833:.\Generated_Source\PSoC4/PWM_Timer.c ****     enableInterrupts = CyEnterCriticalSection();
 1137              		.loc 1 833 0
 1138 0008 3C1C     		mov	r4, r7
 1139 000a 0F34     		add	r4, r4, #15
 1140 000c FFF7FEFF 		bl	CyEnterCriticalSection
 1141 0010 031C     		mov	r3, r0
 1142 0012 2370     		strb	r3, [r4]
 834:.\Generated_Source\PSoC4/PWM_Timer.c **** 
 835:.\Generated_Source\PSoC4/PWM_Timer.c ****     PWM_Timer_CONTROL_REG &= (uint32)~PWM_Timer_RELOAD_PERIOD_MASK;
 1143              		.loc 1 835 0
 1144 0014 0B4B     		ldr	r3, .L69
 1145 0016 0B4A     		ldr	r2, .L69
 1146 0018 1268     		ldr	r2, [r2]
 1147 001a 0221     		mov	r1, #2
 1148 001c 8A43     		bic	r2, r1
 1149 001e 1A60     		str	r2, [r3]
 836:.\Generated_Source\PSoC4/PWM_Timer.c ****     PWM_Timer_CONTROL_REG |= ((uint32)((swapEnable & PWM_Timer_1BIT_MASK) <<
 1150              		.loc 1 836 0
 1151 0020 084B     		ldr	r3, .L69
 1152 0022 084A     		ldr	r2, .L69
 1153 0024 1168     		ldr	r1, [r2]
 1154 0026 7868     		ldr	r0, [r7, #4]
 1155 0028 0122     		mov	r2, #1
 1156 002a 0240     		and	r2, r0
 1157 002c 5200     		lsl	r2, r2, #1
 1158 002e 0A43     		orr	r2, r1
 1159 0030 1A60     		str	r2, [r3]
ARM GAS  C:\Users\OEBN\AppData\Local\Temp\cc4YkDS7.s 			page 36


 837:.\Generated_Source\PSoC4/PWM_Timer.c ****                                                             PWM_Timer_RELOAD_PERIOD_SHIFT));
 838:.\Generated_Source\PSoC4/PWM_Timer.c **** 
 839:.\Generated_Source\PSoC4/PWM_Timer.c ****     CyExitCriticalSection(enableInterrupts);
 1160              		.loc 1 839 0
 1161 0032 3B1C     		mov	r3, r7
 1162 0034 0F33     		add	r3, r3, #15
 1163 0036 1B78     		ldrb	r3, [r3]
 1164 0038 181C     		mov	r0, r3
 1165 003a FFF7FEFF 		bl	CyExitCriticalSection
 840:.\Generated_Source\PSoC4/PWM_Timer.c **** }
 1166              		.loc 1 840 0
 1167 003e BD46     		mov	sp, r7
 1168 0040 05B0     		add	sp, sp, #20
 1169              		@ sp needed for prologue
 1170 0042 90BD     		pop	{r4, r7, pc}
 1171              	.L70:
 1172              		.align	2
 1173              	.L69:
 1174 0044 00010540 		.word	1074069760
 1175              		.cfi_endproc
 1176              	.LFE21:
 1177              		.size	PWM_Timer_SetPeriodSwap, .-PWM_Timer_SetPeriodSwap
 1178              		.section	.text.PWM_Timer_WriteCompare,"ax",%progbits
 1179              		.align	2
 1180              		.global	PWM_Timer_WriteCompare
 1181              		.code	16
 1182              		.thumb_func
 1183              		.type	PWM_Timer_WriteCompare, %function
 1184              	PWM_Timer_WriteCompare:
 1185              	.LFB22:
 841:.\Generated_Source\PSoC4/PWM_Timer.c **** 
 842:.\Generated_Source\PSoC4/PWM_Timer.c **** 
 843:.\Generated_Source\PSoC4/PWM_Timer.c **** /*******************************************************************************
 844:.\Generated_Source\PSoC4/PWM_Timer.c **** * Function Name: PWM_Timer_WriteCompare
 845:.\Generated_Source\PSoC4/PWM_Timer.c **** ********************************************************************************
 846:.\Generated_Source\PSoC4/PWM_Timer.c **** *
 847:.\Generated_Source\PSoC4/PWM_Timer.c **** * Summary:
 848:.\Generated_Source\PSoC4/PWM_Timer.c **** *  Writes the 16 bit compare register with the new compare value. Not
 849:.\Generated_Source\PSoC4/PWM_Timer.c **** *  applicable for Timer/Counter with Capture or in Quadrature Decoder modes.
 850:.\Generated_Source\PSoC4/PWM_Timer.c **** *
 851:.\Generated_Source\PSoC4/PWM_Timer.c **** * Parameters:
 852:.\Generated_Source\PSoC4/PWM_Timer.c **** *  compare: Compare value
 853:.\Generated_Source\PSoC4/PWM_Timer.c **** *
 854:.\Generated_Source\PSoC4/PWM_Timer.c **** * Return:
 855:.\Generated_Source\PSoC4/PWM_Timer.c **** *  None
 856:.\Generated_Source\PSoC4/PWM_Timer.c **** *
 857:.\Generated_Source\PSoC4/PWM_Timer.c **** *******************************************************************************/
 858:.\Generated_Source\PSoC4/PWM_Timer.c **** void PWM_Timer_WriteCompare(uint32 compare)
 859:.\Generated_Source\PSoC4/PWM_Timer.c **** {
 1186              		.loc 1 859 0
 1187              		.cfi_startproc
 1188 0000 80B5     		push	{r7, lr}
 1189              	.LCFI61:
 1190              		.cfi_def_cfa_offset 8
 1191              		.cfi_offset 7, -8
 1192              		.cfi_offset 14, -4
 1193 0002 82B0     		sub	sp, sp, #8
ARM GAS  C:\Users\OEBN\AppData\Local\Temp\cc4YkDS7.s 			page 37


 1194              	.LCFI62:
 1195              		.cfi_def_cfa_offset 16
 1196 0004 00AF     		add	r7, sp, #0
 1197              	.LCFI63:
 1198              		.cfi_def_cfa_register 7
 1199 0006 7860     		str	r0, [r7, #4]
 860:.\Generated_Source\PSoC4/PWM_Timer.c ****     #if (PWM_Timer_CY_TCPWM_V2)
 861:.\Generated_Source\PSoC4/PWM_Timer.c ****         uint32 currentMode;
 862:.\Generated_Source\PSoC4/PWM_Timer.c ****     #endif /* (PWM_Timer_CY_TCPWM_V2) */
 863:.\Generated_Source\PSoC4/PWM_Timer.c **** 
 864:.\Generated_Source\PSoC4/PWM_Timer.c ****     #if (PWM_Timer_CY_TCPWM_V2)
 865:.\Generated_Source\PSoC4/PWM_Timer.c ****         currentMode = ((PWM_Timer_CONTROL_REG & PWM_Timer_UPDOWN_MASK) >> PWM_Timer_UPDOWN_SHIFT);
 866:.\Generated_Source\PSoC4/PWM_Timer.c **** 
 867:.\Generated_Source\PSoC4/PWM_Timer.c ****         if (PWM_Timer__COUNT_DOWN == currentMode)
 868:.\Generated_Source\PSoC4/PWM_Timer.c ****         {
 869:.\Generated_Source\PSoC4/PWM_Timer.c ****             PWM_Timer_COMP_CAP_REG = ((compare + 1u) & PWM_Timer_16BIT_MASK);
 870:.\Generated_Source\PSoC4/PWM_Timer.c ****         }
 871:.\Generated_Source\PSoC4/PWM_Timer.c ****         else if (PWM_Timer__COUNT_UP == currentMode)
 872:.\Generated_Source\PSoC4/PWM_Timer.c ****         {
 873:.\Generated_Source\PSoC4/PWM_Timer.c ****             PWM_Timer_COMP_CAP_REG = ((compare - 1u) & PWM_Timer_16BIT_MASK);
 874:.\Generated_Source\PSoC4/PWM_Timer.c ****         }
 875:.\Generated_Source\PSoC4/PWM_Timer.c ****         else
 876:.\Generated_Source\PSoC4/PWM_Timer.c ****         {
 877:.\Generated_Source\PSoC4/PWM_Timer.c ****             PWM_Timer_COMP_CAP_REG = (compare & PWM_Timer_16BIT_MASK);
 878:.\Generated_Source\PSoC4/PWM_Timer.c ****         }
 879:.\Generated_Source\PSoC4/PWM_Timer.c ****     #else
 880:.\Generated_Source\PSoC4/PWM_Timer.c ****         PWM_Timer_COMP_CAP_REG = (compare & PWM_Timer_16BIT_MASK);
 1200              		.loc 1 880 0
 1201 0008 034B     		ldr	r3, .L72
 1202 000a 7A68     		ldr	r2, [r7, #4]
 1203 000c 1204     		lsl	r2, r2, #16
 1204 000e 120C     		lsr	r2, r2, #16
 1205 0010 1A60     		str	r2, [r3]
 881:.\Generated_Source\PSoC4/PWM_Timer.c ****     #endif /* (PWM_Timer_CY_TCPWM_V2) */
 882:.\Generated_Source\PSoC4/PWM_Timer.c **** }
 1206              		.loc 1 882 0
 1207 0012 BD46     		mov	sp, r7
 1208 0014 02B0     		add	sp, sp, #8
 1209              		@ sp needed for prologue
 1210 0016 80BD     		pop	{r7, pc}
 1211              	.L73:
 1212              		.align	2
 1213              	.L72:
 1214 0018 0C010540 		.word	1074069772
 1215              		.cfi_endproc
 1216              	.LFE22:
 1217              		.size	PWM_Timer_WriteCompare, .-PWM_Timer_WriteCompare
 1218              		.section	.text.PWM_Timer_ReadCompare,"ax",%progbits
 1219              		.align	2
 1220              		.global	PWM_Timer_ReadCompare
 1221              		.code	16
 1222              		.thumb_func
 1223              		.type	PWM_Timer_ReadCompare, %function
 1224              	PWM_Timer_ReadCompare:
 1225              	.LFB23:
 883:.\Generated_Source\PSoC4/PWM_Timer.c **** 
 884:.\Generated_Source\PSoC4/PWM_Timer.c **** 
ARM GAS  C:\Users\OEBN\AppData\Local\Temp\cc4YkDS7.s 			page 38


 885:.\Generated_Source\PSoC4/PWM_Timer.c **** /*******************************************************************************
 886:.\Generated_Source\PSoC4/PWM_Timer.c **** * Function Name: PWM_Timer_ReadCompare
 887:.\Generated_Source\PSoC4/PWM_Timer.c **** ********************************************************************************
 888:.\Generated_Source\PSoC4/PWM_Timer.c **** *
 889:.\Generated_Source\PSoC4/PWM_Timer.c **** * Summary:
 890:.\Generated_Source\PSoC4/PWM_Timer.c **** *  Reads the compare register. Not applicable for Timer/Counter with Capture
 891:.\Generated_Source\PSoC4/PWM_Timer.c **** *  or in Quadrature Decoder modes.
 892:.\Generated_Source\PSoC4/PWM_Timer.c **** *
 893:.\Generated_Source\PSoC4/PWM_Timer.c **** * Parameters:
 894:.\Generated_Source\PSoC4/PWM_Timer.c **** *  None
 895:.\Generated_Source\PSoC4/PWM_Timer.c **** *
 896:.\Generated_Source\PSoC4/PWM_Timer.c **** * Return:
 897:.\Generated_Source\PSoC4/PWM_Timer.c **** *  Compare value
 898:.\Generated_Source\PSoC4/PWM_Timer.c **** *
 899:.\Generated_Source\PSoC4/PWM_Timer.c **** *******************************************************************************/
 900:.\Generated_Source\PSoC4/PWM_Timer.c **** uint32 PWM_Timer_ReadCompare(void)
 901:.\Generated_Source\PSoC4/PWM_Timer.c **** {
 1226              		.loc 1 901 0
 1227              		.cfi_startproc
 1228 0000 80B5     		push	{r7, lr}
 1229              	.LCFI64:
 1230              		.cfi_def_cfa_offset 8
 1231              		.cfi_offset 7, -8
 1232              		.cfi_offset 14, -4
 1233 0002 00AF     		add	r7, sp, #0
 1234              	.LCFI65:
 1235              		.cfi_def_cfa_register 7
 902:.\Generated_Source\PSoC4/PWM_Timer.c ****     #if (PWM_Timer_CY_TCPWM_V2)
 903:.\Generated_Source\PSoC4/PWM_Timer.c ****         uint32 currentMode;
 904:.\Generated_Source\PSoC4/PWM_Timer.c ****         uint32 regVal;
 905:.\Generated_Source\PSoC4/PWM_Timer.c ****     #endif /* (PWM_Timer_CY_TCPWM_V2) */
 906:.\Generated_Source\PSoC4/PWM_Timer.c **** 
 907:.\Generated_Source\PSoC4/PWM_Timer.c ****     #if (PWM_Timer_CY_TCPWM_V2)
 908:.\Generated_Source\PSoC4/PWM_Timer.c ****         currentMode = ((PWM_Timer_CONTROL_REG & PWM_Timer_UPDOWN_MASK) >> PWM_Timer_UPDOWN_SHIFT);
 909:.\Generated_Source\PSoC4/PWM_Timer.c **** 
 910:.\Generated_Source\PSoC4/PWM_Timer.c ****         if (PWM_Timer__COUNT_DOWN == currentMode)
 911:.\Generated_Source\PSoC4/PWM_Timer.c ****         {
 912:.\Generated_Source\PSoC4/PWM_Timer.c ****             regVal = ((PWM_Timer_COMP_CAP_REG - 1u) & PWM_Timer_16BIT_MASK);
 913:.\Generated_Source\PSoC4/PWM_Timer.c ****         }
 914:.\Generated_Source\PSoC4/PWM_Timer.c ****         else if (PWM_Timer__COUNT_UP == currentMode)
 915:.\Generated_Source\PSoC4/PWM_Timer.c ****         {
 916:.\Generated_Source\PSoC4/PWM_Timer.c ****             regVal = ((PWM_Timer_COMP_CAP_REG + 1u) & PWM_Timer_16BIT_MASK);
 917:.\Generated_Source\PSoC4/PWM_Timer.c ****         }
 918:.\Generated_Source\PSoC4/PWM_Timer.c ****         else
 919:.\Generated_Source\PSoC4/PWM_Timer.c ****         {
 920:.\Generated_Source\PSoC4/PWM_Timer.c ****             regVal = (PWM_Timer_COMP_CAP_REG & PWM_Timer_16BIT_MASK);
 921:.\Generated_Source\PSoC4/PWM_Timer.c ****         }
 922:.\Generated_Source\PSoC4/PWM_Timer.c ****         return (regVal);
 923:.\Generated_Source\PSoC4/PWM_Timer.c ****     #else
 924:.\Generated_Source\PSoC4/PWM_Timer.c ****         return (PWM_Timer_COMP_CAP_REG & PWM_Timer_16BIT_MASK);
 1236              		.loc 1 924 0
 1237 0004 034B     		ldr	r3, .L76
 1238 0006 1B68     		ldr	r3, [r3]
 1239 0008 1B04     		lsl	r3, r3, #16
 1240 000a 1B0C     		lsr	r3, r3, #16
 925:.\Generated_Source\PSoC4/PWM_Timer.c ****     #endif /* (PWM_Timer_CY_TCPWM_V2) */
 926:.\Generated_Source\PSoC4/PWM_Timer.c **** }
ARM GAS  C:\Users\OEBN\AppData\Local\Temp\cc4YkDS7.s 			page 39


 1241              		.loc 1 926 0
 1242 000c 181C     		mov	r0, r3
 1243 000e BD46     		mov	sp, r7
 1244              		@ sp needed for prologue
 1245 0010 80BD     		pop	{r7, pc}
 1246              	.L77:
 1247 0012 C046     		.align	2
 1248              	.L76:
 1249 0014 0C010540 		.word	1074069772
 1250              		.cfi_endproc
 1251              	.LFE23:
 1252              		.size	PWM_Timer_ReadCompare, .-PWM_Timer_ReadCompare
 1253              		.section	.text.PWM_Timer_WriteCompareBuf,"ax",%progbits
 1254              		.align	2
 1255              		.global	PWM_Timer_WriteCompareBuf
 1256              		.code	16
 1257              		.thumb_func
 1258              		.type	PWM_Timer_WriteCompareBuf, %function
 1259              	PWM_Timer_WriteCompareBuf:
 1260              	.LFB24:
 927:.\Generated_Source\PSoC4/PWM_Timer.c **** 
 928:.\Generated_Source\PSoC4/PWM_Timer.c **** 
 929:.\Generated_Source\PSoC4/PWM_Timer.c **** /*******************************************************************************
 930:.\Generated_Source\PSoC4/PWM_Timer.c **** * Function Name: PWM_Timer_WriteCompareBuf
 931:.\Generated_Source\PSoC4/PWM_Timer.c **** ********************************************************************************
 932:.\Generated_Source\PSoC4/PWM_Timer.c **** *
 933:.\Generated_Source\PSoC4/PWM_Timer.c **** * Summary:
 934:.\Generated_Source\PSoC4/PWM_Timer.c **** *  Writes the 16 bit compare buffer register with the new compare value. Not
 935:.\Generated_Source\PSoC4/PWM_Timer.c **** *  applicable for Timer/Counter with Capture or in Quadrature Decoder modes.
 936:.\Generated_Source\PSoC4/PWM_Timer.c **** *
 937:.\Generated_Source\PSoC4/PWM_Timer.c **** * Parameters:
 938:.\Generated_Source\PSoC4/PWM_Timer.c **** *  compareBuf: Compare value
 939:.\Generated_Source\PSoC4/PWM_Timer.c **** *
 940:.\Generated_Source\PSoC4/PWM_Timer.c **** * Return:
 941:.\Generated_Source\PSoC4/PWM_Timer.c **** *  None
 942:.\Generated_Source\PSoC4/PWM_Timer.c **** *
 943:.\Generated_Source\PSoC4/PWM_Timer.c **** *******************************************************************************/
 944:.\Generated_Source\PSoC4/PWM_Timer.c **** void PWM_Timer_WriteCompareBuf(uint32 compareBuf)
 945:.\Generated_Source\PSoC4/PWM_Timer.c **** {
 1261              		.loc 1 945 0
 1262              		.cfi_startproc
 1263 0000 80B5     		push	{r7, lr}
 1264              	.LCFI66:
 1265              		.cfi_def_cfa_offset 8
 1266              		.cfi_offset 7, -8
 1267              		.cfi_offset 14, -4
 1268 0002 82B0     		sub	sp, sp, #8
 1269              	.LCFI67:
 1270              		.cfi_def_cfa_offset 16
 1271 0004 00AF     		add	r7, sp, #0
 1272              	.LCFI68:
 1273              		.cfi_def_cfa_register 7
 1274 0006 7860     		str	r0, [r7, #4]
 946:.\Generated_Source\PSoC4/PWM_Timer.c ****     #if (PWM_Timer_CY_TCPWM_V2)
 947:.\Generated_Source\PSoC4/PWM_Timer.c ****         uint32 currentMode;
 948:.\Generated_Source\PSoC4/PWM_Timer.c ****     #endif /* (PWM_Timer_CY_TCPWM_V2) */
 949:.\Generated_Source\PSoC4/PWM_Timer.c **** 
ARM GAS  C:\Users\OEBN\AppData\Local\Temp\cc4YkDS7.s 			page 40


 950:.\Generated_Source\PSoC4/PWM_Timer.c ****     #if (PWM_Timer_CY_TCPWM_V2)
 951:.\Generated_Source\PSoC4/PWM_Timer.c ****         currentMode = ((PWM_Timer_CONTROL_REG & PWM_Timer_UPDOWN_MASK) >> PWM_Timer_UPDOWN_SHIFT);
 952:.\Generated_Source\PSoC4/PWM_Timer.c **** 
 953:.\Generated_Source\PSoC4/PWM_Timer.c ****         if (PWM_Timer__COUNT_DOWN == currentMode)
 954:.\Generated_Source\PSoC4/PWM_Timer.c ****         {
 955:.\Generated_Source\PSoC4/PWM_Timer.c ****             PWM_Timer_COMP_CAP_BUF_REG = ((compareBuf + 1u) & PWM_Timer_16BIT_MASK);
 956:.\Generated_Source\PSoC4/PWM_Timer.c ****         }
 957:.\Generated_Source\PSoC4/PWM_Timer.c ****         else if (PWM_Timer__COUNT_UP == currentMode)
 958:.\Generated_Source\PSoC4/PWM_Timer.c ****         {
 959:.\Generated_Source\PSoC4/PWM_Timer.c ****             PWM_Timer_COMP_CAP_BUF_REG = ((compareBuf - 1u) & PWM_Timer_16BIT_MASK);
 960:.\Generated_Source\PSoC4/PWM_Timer.c ****         }
 961:.\Generated_Source\PSoC4/PWM_Timer.c ****         else
 962:.\Generated_Source\PSoC4/PWM_Timer.c ****         {
 963:.\Generated_Source\PSoC4/PWM_Timer.c ****             PWM_Timer_COMP_CAP_BUF_REG = (compareBuf & PWM_Timer_16BIT_MASK);
 964:.\Generated_Source\PSoC4/PWM_Timer.c ****         }
 965:.\Generated_Source\PSoC4/PWM_Timer.c ****     #else
 966:.\Generated_Source\PSoC4/PWM_Timer.c ****         PWM_Timer_COMP_CAP_BUF_REG = (compareBuf & PWM_Timer_16BIT_MASK);
 1275              		.loc 1 966 0
 1276 0008 034B     		ldr	r3, .L79
 1277 000a 7A68     		ldr	r2, [r7, #4]
 1278 000c 1204     		lsl	r2, r2, #16
 1279 000e 120C     		lsr	r2, r2, #16
 1280 0010 1A60     		str	r2, [r3]
 967:.\Generated_Source\PSoC4/PWM_Timer.c ****     #endif /* (PWM_Timer_CY_TCPWM_V2) */
 968:.\Generated_Source\PSoC4/PWM_Timer.c **** }
 1281              		.loc 1 968 0
 1282 0012 BD46     		mov	sp, r7
 1283 0014 02B0     		add	sp, sp, #8
 1284              		@ sp needed for prologue
 1285 0016 80BD     		pop	{r7, pc}
 1286              	.L80:
 1287              		.align	2
 1288              	.L79:
 1289 0018 10010540 		.word	1074069776
 1290              		.cfi_endproc
 1291              	.LFE24:
 1292              		.size	PWM_Timer_WriteCompareBuf, .-PWM_Timer_WriteCompareBuf
 1293              		.section	.text.PWM_Timer_ReadCompareBuf,"ax",%progbits
 1294              		.align	2
 1295              		.global	PWM_Timer_ReadCompareBuf
 1296              		.code	16
 1297              		.thumb_func
 1298              		.type	PWM_Timer_ReadCompareBuf, %function
 1299              	PWM_Timer_ReadCompareBuf:
 1300              	.LFB25:
 969:.\Generated_Source\PSoC4/PWM_Timer.c **** 
 970:.\Generated_Source\PSoC4/PWM_Timer.c **** 
 971:.\Generated_Source\PSoC4/PWM_Timer.c **** /*******************************************************************************
 972:.\Generated_Source\PSoC4/PWM_Timer.c **** * Function Name: PWM_Timer_ReadCompareBuf
 973:.\Generated_Source\PSoC4/PWM_Timer.c **** ********************************************************************************
 974:.\Generated_Source\PSoC4/PWM_Timer.c **** *
 975:.\Generated_Source\PSoC4/PWM_Timer.c **** * Summary:
 976:.\Generated_Source\PSoC4/PWM_Timer.c **** *  Reads the compare buffer register. Not applicable for Timer/Counter with
 977:.\Generated_Source\PSoC4/PWM_Timer.c **** *  Capture or in Quadrature Decoder modes.
 978:.\Generated_Source\PSoC4/PWM_Timer.c **** *
 979:.\Generated_Source\PSoC4/PWM_Timer.c **** * Parameters:
 980:.\Generated_Source\PSoC4/PWM_Timer.c **** *  None
ARM GAS  C:\Users\OEBN\AppData\Local\Temp\cc4YkDS7.s 			page 41


 981:.\Generated_Source\PSoC4/PWM_Timer.c **** *
 982:.\Generated_Source\PSoC4/PWM_Timer.c **** * Return:
 983:.\Generated_Source\PSoC4/PWM_Timer.c **** *  Compare buffer value
 984:.\Generated_Source\PSoC4/PWM_Timer.c **** *
 985:.\Generated_Source\PSoC4/PWM_Timer.c **** *******************************************************************************/
 986:.\Generated_Source\PSoC4/PWM_Timer.c **** uint32 PWM_Timer_ReadCompareBuf(void)
 987:.\Generated_Source\PSoC4/PWM_Timer.c **** {
 1301              		.loc 1 987 0
 1302              		.cfi_startproc
 1303 0000 80B5     		push	{r7, lr}
 1304              	.LCFI69:
 1305              		.cfi_def_cfa_offset 8
 1306              		.cfi_offset 7, -8
 1307              		.cfi_offset 14, -4
 1308 0002 00AF     		add	r7, sp, #0
 1309              	.LCFI70:
 1310              		.cfi_def_cfa_register 7
 988:.\Generated_Source\PSoC4/PWM_Timer.c ****     #if (PWM_Timer_CY_TCPWM_V2)
 989:.\Generated_Source\PSoC4/PWM_Timer.c ****         uint32 currentMode;
 990:.\Generated_Source\PSoC4/PWM_Timer.c ****         uint32 regVal;
 991:.\Generated_Source\PSoC4/PWM_Timer.c ****     #endif /* (PWM_Timer_CY_TCPWM_V2) */
 992:.\Generated_Source\PSoC4/PWM_Timer.c **** 
 993:.\Generated_Source\PSoC4/PWM_Timer.c ****     #if (PWM_Timer_CY_TCPWM_V2)
 994:.\Generated_Source\PSoC4/PWM_Timer.c ****         currentMode = ((PWM_Timer_CONTROL_REG & PWM_Timer_UPDOWN_MASK) >> PWM_Timer_UPDOWN_SHIFT);
 995:.\Generated_Source\PSoC4/PWM_Timer.c **** 
 996:.\Generated_Source\PSoC4/PWM_Timer.c ****         if (PWM_Timer__COUNT_DOWN == currentMode)
 997:.\Generated_Source\PSoC4/PWM_Timer.c ****         {
 998:.\Generated_Source\PSoC4/PWM_Timer.c ****             regVal = ((PWM_Timer_COMP_CAP_BUF_REG - 1u) & PWM_Timer_16BIT_MASK);
 999:.\Generated_Source\PSoC4/PWM_Timer.c ****         }
1000:.\Generated_Source\PSoC4/PWM_Timer.c ****         else if (PWM_Timer__COUNT_UP == currentMode)
1001:.\Generated_Source\PSoC4/PWM_Timer.c ****         {
1002:.\Generated_Source\PSoC4/PWM_Timer.c ****             regVal = ((PWM_Timer_COMP_CAP_BUF_REG + 1u) & PWM_Timer_16BIT_MASK);
1003:.\Generated_Source\PSoC4/PWM_Timer.c ****         }
1004:.\Generated_Source\PSoC4/PWM_Timer.c ****         else
1005:.\Generated_Source\PSoC4/PWM_Timer.c ****         {
1006:.\Generated_Source\PSoC4/PWM_Timer.c ****             regVal = (PWM_Timer_COMP_CAP_BUF_REG & PWM_Timer_16BIT_MASK);
1007:.\Generated_Source\PSoC4/PWM_Timer.c ****         }
1008:.\Generated_Source\PSoC4/PWM_Timer.c ****         return (regVal);
1009:.\Generated_Source\PSoC4/PWM_Timer.c ****     #else
1010:.\Generated_Source\PSoC4/PWM_Timer.c ****         return (PWM_Timer_COMP_CAP_BUF_REG & PWM_Timer_16BIT_MASK);
 1311              		.loc 1 1010 0
 1312 0004 034B     		ldr	r3, .L83
 1313 0006 1B68     		ldr	r3, [r3]
 1314 0008 1B04     		lsl	r3, r3, #16
 1315 000a 1B0C     		lsr	r3, r3, #16
1011:.\Generated_Source\PSoC4/PWM_Timer.c ****     #endif /* (PWM_Timer_CY_TCPWM_V2) */
1012:.\Generated_Source\PSoC4/PWM_Timer.c **** }
 1316              		.loc 1 1012 0
 1317 000c 181C     		mov	r0, r3
 1318 000e BD46     		mov	sp, r7
 1319              		@ sp needed for prologue
 1320 0010 80BD     		pop	{r7, pc}
 1321              	.L84:
 1322 0012 C046     		.align	2
 1323              	.L83:
 1324 0014 10010540 		.word	1074069776
 1325              		.cfi_endproc
ARM GAS  C:\Users\OEBN\AppData\Local\Temp\cc4YkDS7.s 			page 42


 1326              	.LFE25:
 1327              		.size	PWM_Timer_ReadCompareBuf, .-PWM_Timer_ReadCompareBuf
 1328              		.section	.text.PWM_Timer_ReadCapture,"ax",%progbits
 1329              		.align	2
 1330              		.global	PWM_Timer_ReadCapture
 1331              		.code	16
 1332              		.thumb_func
 1333              		.type	PWM_Timer_ReadCapture, %function
 1334              	PWM_Timer_ReadCapture:
 1335              	.LFB26:
1013:.\Generated_Source\PSoC4/PWM_Timer.c **** 
1014:.\Generated_Source\PSoC4/PWM_Timer.c **** 
1015:.\Generated_Source\PSoC4/PWM_Timer.c **** /*******************************************************************************
1016:.\Generated_Source\PSoC4/PWM_Timer.c **** * Function Name: PWM_Timer_ReadCapture
1017:.\Generated_Source\PSoC4/PWM_Timer.c **** ********************************************************************************
1018:.\Generated_Source\PSoC4/PWM_Timer.c **** *
1019:.\Generated_Source\PSoC4/PWM_Timer.c **** * Summary:
1020:.\Generated_Source\PSoC4/PWM_Timer.c **** *  Reads the captured counter value. This API is applicable only for
1021:.\Generated_Source\PSoC4/PWM_Timer.c **** *  Timer/Counter with the capture mode and Quadrature Decoder modes.
1022:.\Generated_Source\PSoC4/PWM_Timer.c **** *
1023:.\Generated_Source\PSoC4/PWM_Timer.c **** * Parameters:
1024:.\Generated_Source\PSoC4/PWM_Timer.c **** *  None
1025:.\Generated_Source\PSoC4/PWM_Timer.c **** *
1026:.\Generated_Source\PSoC4/PWM_Timer.c **** * Return:
1027:.\Generated_Source\PSoC4/PWM_Timer.c **** *  Capture value
1028:.\Generated_Source\PSoC4/PWM_Timer.c **** *
1029:.\Generated_Source\PSoC4/PWM_Timer.c **** *******************************************************************************/
1030:.\Generated_Source\PSoC4/PWM_Timer.c **** uint32 PWM_Timer_ReadCapture(void)
1031:.\Generated_Source\PSoC4/PWM_Timer.c **** {
 1336              		.loc 1 1031 0
 1337              		.cfi_startproc
 1338 0000 80B5     		push	{r7, lr}
 1339              	.LCFI71:
 1340              		.cfi_def_cfa_offset 8
 1341              		.cfi_offset 7, -8
 1342              		.cfi_offset 14, -4
 1343 0002 00AF     		add	r7, sp, #0
 1344              	.LCFI72:
 1345              		.cfi_def_cfa_register 7
1032:.\Generated_Source\PSoC4/PWM_Timer.c ****     return (PWM_Timer_COMP_CAP_REG & PWM_Timer_16BIT_MASK);
 1346              		.loc 1 1032 0
 1347 0004 034B     		ldr	r3, .L87
 1348 0006 1B68     		ldr	r3, [r3]
 1349 0008 1B04     		lsl	r3, r3, #16
 1350 000a 1B0C     		lsr	r3, r3, #16
1033:.\Generated_Source\PSoC4/PWM_Timer.c **** }
 1351              		.loc 1 1033 0
 1352 000c 181C     		mov	r0, r3
 1353 000e BD46     		mov	sp, r7
 1354              		@ sp needed for prologue
 1355 0010 80BD     		pop	{r7, pc}
 1356              	.L88:
 1357 0012 C046     		.align	2
 1358              	.L87:
 1359 0014 0C010540 		.word	1074069772
 1360              		.cfi_endproc
 1361              	.LFE26:
ARM GAS  C:\Users\OEBN\AppData\Local\Temp\cc4YkDS7.s 			page 43


 1362              		.size	PWM_Timer_ReadCapture, .-PWM_Timer_ReadCapture
 1363              		.section	.text.PWM_Timer_ReadCaptureBuf,"ax",%progbits
 1364              		.align	2
 1365              		.global	PWM_Timer_ReadCaptureBuf
 1366              		.code	16
 1367              		.thumb_func
 1368              		.type	PWM_Timer_ReadCaptureBuf, %function
 1369              	PWM_Timer_ReadCaptureBuf:
 1370              	.LFB27:
1034:.\Generated_Source\PSoC4/PWM_Timer.c **** 
1035:.\Generated_Source\PSoC4/PWM_Timer.c **** 
1036:.\Generated_Source\PSoC4/PWM_Timer.c **** /*******************************************************************************
1037:.\Generated_Source\PSoC4/PWM_Timer.c **** * Function Name: PWM_Timer_ReadCaptureBuf
1038:.\Generated_Source\PSoC4/PWM_Timer.c **** ********************************************************************************
1039:.\Generated_Source\PSoC4/PWM_Timer.c **** *
1040:.\Generated_Source\PSoC4/PWM_Timer.c **** * Summary:
1041:.\Generated_Source\PSoC4/PWM_Timer.c **** *  Reads the capture buffer register. This API is applicable only for
1042:.\Generated_Source\PSoC4/PWM_Timer.c **** *  Timer/Counter with the capture mode and Quadrature Decoder modes.
1043:.\Generated_Source\PSoC4/PWM_Timer.c **** *
1044:.\Generated_Source\PSoC4/PWM_Timer.c **** * Parameters:
1045:.\Generated_Source\PSoC4/PWM_Timer.c **** *  None
1046:.\Generated_Source\PSoC4/PWM_Timer.c **** *
1047:.\Generated_Source\PSoC4/PWM_Timer.c **** * Return:
1048:.\Generated_Source\PSoC4/PWM_Timer.c **** *  Capture buffer value
1049:.\Generated_Source\PSoC4/PWM_Timer.c **** *
1050:.\Generated_Source\PSoC4/PWM_Timer.c **** *******************************************************************************/
1051:.\Generated_Source\PSoC4/PWM_Timer.c **** uint32 PWM_Timer_ReadCaptureBuf(void)
1052:.\Generated_Source\PSoC4/PWM_Timer.c **** {
 1371              		.loc 1 1052 0
 1372              		.cfi_startproc
 1373 0000 80B5     		push	{r7, lr}
 1374              	.LCFI73:
 1375              		.cfi_def_cfa_offset 8
 1376              		.cfi_offset 7, -8
 1377              		.cfi_offset 14, -4
 1378 0002 00AF     		add	r7, sp, #0
 1379              	.LCFI74:
 1380              		.cfi_def_cfa_register 7
1053:.\Generated_Source\PSoC4/PWM_Timer.c ****     return (PWM_Timer_COMP_CAP_BUF_REG & PWM_Timer_16BIT_MASK);
 1381              		.loc 1 1053 0
 1382 0004 034B     		ldr	r3, .L91
 1383 0006 1B68     		ldr	r3, [r3]
 1384 0008 1B04     		lsl	r3, r3, #16
 1385 000a 1B0C     		lsr	r3, r3, #16
1054:.\Generated_Source\PSoC4/PWM_Timer.c **** }
 1386              		.loc 1 1054 0
 1387 000c 181C     		mov	r0, r3
 1388 000e BD46     		mov	sp, r7
 1389              		@ sp needed for prologue
 1390 0010 80BD     		pop	{r7, pc}
 1391              	.L92:
 1392 0012 C046     		.align	2
 1393              	.L91:
 1394 0014 10010540 		.word	1074069776
 1395              		.cfi_endproc
 1396              	.LFE27:
 1397              		.size	PWM_Timer_ReadCaptureBuf, .-PWM_Timer_ReadCaptureBuf
ARM GAS  C:\Users\OEBN\AppData\Local\Temp\cc4YkDS7.s 			page 44


 1398              		.section	.text.PWM_Timer_SetCaptureMode,"ax",%progbits
 1399              		.align	2
 1400              		.global	PWM_Timer_SetCaptureMode
 1401              		.code	16
 1402              		.thumb_func
 1403              		.type	PWM_Timer_SetCaptureMode, %function
 1404              	PWM_Timer_SetCaptureMode:
 1405              	.LFB28:
1055:.\Generated_Source\PSoC4/PWM_Timer.c **** 
1056:.\Generated_Source\PSoC4/PWM_Timer.c **** 
1057:.\Generated_Source\PSoC4/PWM_Timer.c **** /*******************************************************************************
1058:.\Generated_Source\PSoC4/PWM_Timer.c **** * Function Name: PWM_Timer_SetCaptureMode
1059:.\Generated_Source\PSoC4/PWM_Timer.c **** ********************************************************************************
1060:.\Generated_Source\PSoC4/PWM_Timer.c **** *
1061:.\Generated_Source\PSoC4/PWM_Timer.c **** * Summary:
1062:.\Generated_Source\PSoC4/PWM_Timer.c **** *  Sets the capture trigger mode. For PWM mode this is the switch input.
1063:.\Generated_Source\PSoC4/PWM_Timer.c **** *  This input is not applicable to the Timer/Counter without Capture and
1064:.\Generated_Source\PSoC4/PWM_Timer.c **** *  Quadrature Decoder modes.
1065:.\Generated_Source\PSoC4/PWM_Timer.c **** *
1066:.\Generated_Source\PSoC4/PWM_Timer.c **** * Parameters:
1067:.\Generated_Source\PSoC4/PWM_Timer.c **** *  triggerMode: Enumerated trigger mode value
1068:.\Generated_Source\PSoC4/PWM_Timer.c **** *   Values:
1069:.\Generated_Source\PSoC4/PWM_Timer.c **** *     - PWM_Timer_TRIG_LEVEL     - Level
1070:.\Generated_Source\PSoC4/PWM_Timer.c **** *     - PWM_Timer_TRIG_RISING    - Rising edge
1071:.\Generated_Source\PSoC4/PWM_Timer.c **** *     - PWM_Timer_TRIG_FALLING   - Falling edge
1072:.\Generated_Source\PSoC4/PWM_Timer.c **** *     - PWM_Timer_TRIG_BOTH      - Both rising and falling edge
1073:.\Generated_Source\PSoC4/PWM_Timer.c **** *
1074:.\Generated_Source\PSoC4/PWM_Timer.c **** * Return:
1075:.\Generated_Source\PSoC4/PWM_Timer.c **** *  None
1076:.\Generated_Source\PSoC4/PWM_Timer.c **** *
1077:.\Generated_Source\PSoC4/PWM_Timer.c **** *******************************************************************************/
1078:.\Generated_Source\PSoC4/PWM_Timer.c **** void PWM_Timer_SetCaptureMode(uint32 triggerMode)
1079:.\Generated_Source\PSoC4/PWM_Timer.c **** {
 1406              		.loc 1 1079 0
 1407              		.cfi_startproc
 1408 0000 90B5     		push	{r4, r7, lr}
 1409              	.LCFI75:
 1410              		.cfi_def_cfa_offset 12
 1411              		.cfi_offset 4, -12
 1412              		.cfi_offset 7, -8
 1413              		.cfi_offset 14, -4
 1414 0002 85B0     		sub	sp, sp, #20
 1415              	.LCFI76:
 1416              		.cfi_def_cfa_offset 32
 1417 0004 00AF     		add	r7, sp, #0
 1418              	.LCFI77:
 1419              		.cfi_def_cfa_register 7
 1420 0006 7860     		str	r0, [r7, #4]
1080:.\Generated_Source\PSoC4/PWM_Timer.c ****     uint8 enableInterrupts;
1081:.\Generated_Source\PSoC4/PWM_Timer.c **** 
1082:.\Generated_Source\PSoC4/PWM_Timer.c ****     enableInterrupts = CyEnterCriticalSection();
 1421              		.loc 1 1082 0
 1422 0008 3C1C     		mov	r4, r7
 1423 000a 0F34     		add	r4, r4, #15
 1424 000c FFF7FEFF 		bl	CyEnterCriticalSection
 1425 0010 031C     		mov	r3, r0
 1426 0012 2370     		strb	r3, [r4]
ARM GAS  C:\Users\OEBN\AppData\Local\Temp\cc4YkDS7.s 			page 45


1083:.\Generated_Source\PSoC4/PWM_Timer.c **** 
1084:.\Generated_Source\PSoC4/PWM_Timer.c ****     PWM_Timer_TRIG_CONTROL1_REG &= (uint32)~PWM_Timer_CAPTURE_MASK;
 1427              		.loc 1 1084 0
 1428 0014 0A4B     		ldr	r3, .L94
 1429 0016 0A4A     		ldr	r2, .L94
 1430 0018 1268     		ldr	r2, [r2]
 1431 001a 0321     		mov	r1, #3
 1432 001c 8A43     		bic	r2, r1
 1433 001e 1A60     		str	r2, [r3]
1085:.\Generated_Source\PSoC4/PWM_Timer.c ****     PWM_Timer_TRIG_CONTROL1_REG |= triggerMode;
 1434              		.loc 1 1085 0
 1435 0020 074B     		ldr	r3, .L94
 1436 0022 074A     		ldr	r2, .L94
 1437 0024 1168     		ldr	r1, [r2]
 1438 0026 7A68     		ldr	r2, [r7, #4]
 1439 0028 0A43     		orr	r2, r1
 1440 002a 1A60     		str	r2, [r3]
1086:.\Generated_Source\PSoC4/PWM_Timer.c **** 
1087:.\Generated_Source\PSoC4/PWM_Timer.c ****     CyExitCriticalSection(enableInterrupts);
 1441              		.loc 1 1087 0
 1442 002c 3B1C     		mov	r3, r7
 1443 002e 0F33     		add	r3, r3, #15
 1444 0030 1B78     		ldrb	r3, [r3]
 1445 0032 181C     		mov	r0, r3
 1446 0034 FFF7FEFF 		bl	CyExitCriticalSection
1088:.\Generated_Source\PSoC4/PWM_Timer.c **** }
 1447              		.loc 1 1088 0
 1448 0038 BD46     		mov	sp, r7
 1449 003a 05B0     		add	sp, sp, #20
 1450              		@ sp needed for prologue
 1451 003c 90BD     		pop	{r4, r7, pc}
 1452              	.L95:
 1453 003e C046     		.align	2
 1454              	.L94:
 1455 0040 24010540 		.word	1074069796
 1456              		.cfi_endproc
 1457              	.LFE28:
 1458              		.size	PWM_Timer_SetCaptureMode, .-PWM_Timer_SetCaptureMode
 1459              		.section	.text.PWM_Timer_SetReloadMode,"ax",%progbits
 1460              		.align	2
 1461              		.global	PWM_Timer_SetReloadMode
 1462              		.code	16
 1463              		.thumb_func
 1464              		.type	PWM_Timer_SetReloadMode, %function
 1465              	PWM_Timer_SetReloadMode:
 1466              	.LFB29:
1089:.\Generated_Source\PSoC4/PWM_Timer.c **** 
1090:.\Generated_Source\PSoC4/PWM_Timer.c **** 
1091:.\Generated_Source\PSoC4/PWM_Timer.c **** /*******************************************************************************
1092:.\Generated_Source\PSoC4/PWM_Timer.c **** * Function Name: PWM_Timer_SetReloadMode
1093:.\Generated_Source\PSoC4/PWM_Timer.c **** ********************************************************************************
1094:.\Generated_Source\PSoC4/PWM_Timer.c **** *
1095:.\Generated_Source\PSoC4/PWM_Timer.c **** * Summary:
1096:.\Generated_Source\PSoC4/PWM_Timer.c **** *  Sets the reload trigger mode. For Quadrature Decoder mode this is the index
1097:.\Generated_Source\PSoC4/PWM_Timer.c **** *  input.
1098:.\Generated_Source\PSoC4/PWM_Timer.c **** *
1099:.\Generated_Source\PSoC4/PWM_Timer.c **** * Parameters:
ARM GAS  C:\Users\OEBN\AppData\Local\Temp\cc4YkDS7.s 			page 46


1100:.\Generated_Source\PSoC4/PWM_Timer.c **** *  triggerMode: Enumerated trigger mode value
1101:.\Generated_Source\PSoC4/PWM_Timer.c **** *   Values:
1102:.\Generated_Source\PSoC4/PWM_Timer.c **** *     - PWM_Timer_TRIG_LEVEL     - Level
1103:.\Generated_Source\PSoC4/PWM_Timer.c **** *     - PWM_Timer_TRIG_RISING    - Rising edge
1104:.\Generated_Source\PSoC4/PWM_Timer.c **** *     - PWM_Timer_TRIG_FALLING   - Falling edge
1105:.\Generated_Source\PSoC4/PWM_Timer.c **** *     - PWM_Timer_TRIG_BOTH      - Both rising and falling edge
1106:.\Generated_Source\PSoC4/PWM_Timer.c **** *
1107:.\Generated_Source\PSoC4/PWM_Timer.c **** * Return:
1108:.\Generated_Source\PSoC4/PWM_Timer.c **** *  None
1109:.\Generated_Source\PSoC4/PWM_Timer.c **** *
1110:.\Generated_Source\PSoC4/PWM_Timer.c **** *******************************************************************************/
1111:.\Generated_Source\PSoC4/PWM_Timer.c **** void PWM_Timer_SetReloadMode(uint32 triggerMode)
1112:.\Generated_Source\PSoC4/PWM_Timer.c **** {
 1467              		.loc 1 1112 0
 1468              		.cfi_startproc
 1469 0000 90B5     		push	{r4, r7, lr}
 1470              	.LCFI78:
 1471              		.cfi_def_cfa_offset 12
 1472              		.cfi_offset 4, -12
 1473              		.cfi_offset 7, -8
 1474              		.cfi_offset 14, -4
 1475 0002 85B0     		sub	sp, sp, #20
 1476              	.LCFI79:
 1477              		.cfi_def_cfa_offset 32
 1478 0004 00AF     		add	r7, sp, #0
 1479              	.LCFI80:
 1480              		.cfi_def_cfa_register 7
 1481 0006 7860     		str	r0, [r7, #4]
1113:.\Generated_Source\PSoC4/PWM_Timer.c ****     uint8 enableInterrupts;
1114:.\Generated_Source\PSoC4/PWM_Timer.c **** 
1115:.\Generated_Source\PSoC4/PWM_Timer.c ****     enableInterrupts = CyEnterCriticalSection();
 1482              		.loc 1 1115 0
 1483 0008 3C1C     		mov	r4, r7
 1484 000a 0F34     		add	r4, r4, #15
 1485 000c FFF7FEFF 		bl	CyEnterCriticalSection
 1486 0010 031C     		mov	r3, r0
 1487 0012 2370     		strb	r3, [r4]
1116:.\Generated_Source\PSoC4/PWM_Timer.c **** 
1117:.\Generated_Source\PSoC4/PWM_Timer.c ****     PWM_Timer_TRIG_CONTROL1_REG &= (uint32)~PWM_Timer_RELOAD_MASK;
 1488              		.loc 1 1117 0
 1489 0014 0A4B     		ldr	r3, .L97
 1490 0016 0A4A     		ldr	r2, .L97
 1491 0018 1268     		ldr	r2, [r2]
 1492 001a 3021     		mov	r1, #48
 1493 001c 8A43     		bic	r2, r1
 1494 001e 1A60     		str	r2, [r3]
1118:.\Generated_Source\PSoC4/PWM_Timer.c ****     PWM_Timer_TRIG_CONTROL1_REG |= ((uint32)(triggerMode << PWM_Timer_RELOAD_SHIFT));
 1495              		.loc 1 1118 0
 1496 0020 074B     		ldr	r3, .L97
 1497 0022 074A     		ldr	r2, .L97
 1498 0024 1168     		ldr	r1, [r2]
 1499 0026 7A68     		ldr	r2, [r7, #4]
 1500 0028 1201     		lsl	r2, r2, #4
 1501 002a 0A43     		orr	r2, r1
 1502 002c 1A60     		str	r2, [r3]
1119:.\Generated_Source\PSoC4/PWM_Timer.c **** 
1120:.\Generated_Source\PSoC4/PWM_Timer.c ****     CyExitCriticalSection(enableInterrupts);
ARM GAS  C:\Users\OEBN\AppData\Local\Temp\cc4YkDS7.s 			page 47


 1503              		.loc 1 1120 0
 1504 002e 3B1C     		mov	r3, r7
 1505 0030 0F33     		add	r3, r3, #15
 1506 0032 1B78     		ldrb	r3, [r3]
 1507 0034 181C     		mov	r0, r3
 1508 0036 FFF7FEFF 		bl	CyExitCriticalSection
1121:.\Generated_Source\PSoC4/PWM_Timer.c **** }
 1509              		.loc 1 1121 0
 1510 003a BD46     		mov	sp, r7
 1511 003c 05B0     		add	sp, sp, #20
 1512              		@ sp needed for prologue
 1513 003e 90BD     		pop	{r4, r7, pc}
 1514              	.L98:
 1515              		.align	2
 1516              	.L97:
 1517 0040 24010540 		.word	1074069796
 1518              		.cfi_endproc
 1519              	.LFE29:
 1520              		.size	PWM_Timer_SetReloadMode, .-PWM_Timer_SetReloadMode
 1521              		.section	.text.PWM_Timer_SetStartMode,"ax",%progbits
 1522              		.align	2
 1523              		.global	PWM_Timer_SetStartMode
 1524              		.code	16
 1525              		.thumb_func
 1526              		.type	PWM_Timer_SetStartMode, %function
 1527              	PWM_Timer_SetStartMode:
 1528              	.LFB30:
1122:.\Generated_Source\PSoC4/PWM_Timer.c **** 
1123:.\Generated_Source\PSoC4/PWM_Timer.c **** 
1124:.\Generated_Source\PSoC4/PWM_Timer.c **** /*******************************************************************************
1125:.\Generated_Source\PSoC4/PWM_Timer.c **** * Function Name: PWM_Timer_SetStartMode
1126:.\Generated_Source\PSoC4/PWM_Timer.c **** ********************************************************************************
1127:.\Generated_Source\PSoC4/PWM_Timer.c **** *
1128:.\Generated_Source\PSoC4/PWM_Timer.c **** * Summary:
1129:.\Generated_Source\PSoC4/PWM_Timer.c **** *  Sets the start trigger mode. For Quadrature Decoder mode this is the
1130:.\Generated_Source\PSoC4/PWM_Timer.c **** *  phiB input.
1131:.\Generated_Source\PSoC4/PWM_Timer.c **** *
1132:.\Generated_Source\PSoC4/PWM_Timer.c **** * Parameters:
1133:.\Generated_Source\PSoC4/PWM_Timer.c **** *  triggerMode: Enumerated trigger mode value
1134:.\Generated_Source\PSoC4/PWM_Timer.c **** *   Values:
1135:.\Generated_Source\PSoC4/PWM_Timer.c **** *     - PWM_Timer_TRIG_LEVEL     - Level
1136:.\Generated_Source\PSoC4/PWM_Timer.c **** *     - PWM_Timer_TRIG_RISING    - Rising edge
1137:.\Generated_Source\PSoC4/PWM_Timer.c **** *     - PWM_Timer_TRIG_FALLING   - Falling edge
1138:.\Generated_Source\PSoC4/PWM_Timer.c **** *     - PWM_Timer_TRIG_BOTH      - Both rising and falling edge
1139:.\Generated_Source\PSoC4/PWM_Timer.c **** *
1140:.\Generated_Source\PSoC4/PWM_Timer.c **** * Return:
1141:.\Generated_Source\PSoC4/PWM_Timer.c **** *  None
1142:.\Generated_Source\PSoC4/PWM_Timer.c **** *
1143:.\Generated_Source\PSoC4/PWM_Timer.c **** *******************************************************************************/
1144:.\Generated_Source\PSoC4/PWM_Timer.c **** void PWM_Timer_SetStartMode(uint32 triggerMode)
1145:.\Generated_Source\PSoC4/PWM_Timer.c **** {
 1529              		.loc 1 1145 0
 1530              		.cfi_startproc
 1531 0000 90B5     		push	{r4, r7, lr}
 1532              	.LCFI81:
 1533              		.cfi_def_cfa_offset 12
 1534              		.cfi_offset 4, -12
ARM GAS  C:\Users\OEBN\AppData\Local\Temp\cc4YkDS7.s 			page 48


 1535              		.cfi_offset 7, -8
 1536              		.cfi_offset 14, -4
 1537 0002 85B0     		sub	sp, sp, #20
 1538              	.LCFI82:
 1539              		.cfi_def_cfa_offset 32
 1540 0004 00AF     		add	r7, sp, #0
 1541              	.LCFI83:
 1542              		.cfi_def_cfa_register 7
 1543 0006 7860     		str	r0, [r7, #4]
1146:.\Generated_Source\PSoC4/PWM_Timer.c ****     uint8 enableInterrupts;
1147:.\Generated_Source\PSoC4/PWM_Timer.c **** 
1148:.\Generated_Source\PSoC4/PWM_Timer.c ****     enableInterrupts = CyEnterCriticalSection();
 1544              		.loc 1 1148 0
 1545 0008 3C1C     		mov	r4, r7
 1546 000a 0F34     		add	r4, r4, #15
 1547 000c FFF7FEFF 		bl	CyEnterCriticalSection
 1548 0010 031C     		mov	r3, r0
 1549 0012 2370     		strb	r3, [r4]
1149:.\Generated_Source\PSoC4/PWM_Timer.c **** 
1150:.\Generated_Source\PSoC4/PWM_Timer.c ****     PWM_Timer_TRIG_CONTROL1_REG &= (uint32)~PWM_Timer_START_MASK;
 1550              		.loc 1 1150 0
 1551 0014 0A4B     		ldr	r3, .L100
 1552 0016 0A4A     		ldr	r2, .L100
 1553 0018 1168     		ldr	r1, [r2]
 1554 001a 0A4A     		ldr	r2, .L100+4
 1555 001c 0A40     		and	r2, r1
 1556 001e 1A60     		str	r2, [r3]
1151:.\Generated_Source\PSoC4/PWM_Timer.c ****     PWM_Timer_TRIG_CONTROL1_REG |= ((uint32)(triggerMode << PWM_Timer_START_SHIFT));
 1557              		.loc 1 1151 0
 1558 0020 074B     		ldr	r3, .L100
 1559 0022 074A     		ldr	r2, .L100
 1560 0024 1168     		ldr	r1, [r2]
 1561 0026 7A68     		ldr	r2, [r7, #4]
 1562 0028 1202     		lsl	r2, r2, #8
 1563 002a 0A43     		orr	r2, r1
 1564 002c 1A60     		str	r2, [r3]
1152:.\Generated_Source\PSoC4/PWM_Timer.c **** 
1153:.\Generated_Source\PSoC4/PWM_Timer.c ****     CyExitCriticalSection(enableInterrupts);
 1565              		.loc 1 1153 0
 1566 002e 3B1C     		mov	r3, r7
 1567 0030 0F33     		add	r3, r3, #15
 1568 0032 1B78     		ldrb	r3, [r3]
 1569 0034 181C     		mov	r0, r3
 1570 0036 FFF7FEFF 		bl	CyExitCriticalSection
1154:.\Generated_Source\PSoC4/PWM_Timer.c **** }
 1571              		.loc 1 1154 0
 1572 003a BD46     		mov	sp, r7
 1573 003c 05B0     		add	sp, sp, #20
 1574              		@ sp needed for prologue
 1575 003e 90BD     		pop	{r4, r7, pc}
 1576              	.L101:
 1577              		.align	2
 1578              	.L100:
 1579 0040 24010540 		.word	1074069796
 1580 0044 FFFCFFFF 		.word	-769
 1581              		.cfi_endproc
 1582              	.LFE30:
ARM GAS  C:\Users\OEBN\AppData\Local\Temp\cc4YkDS7.s 			page 49


 1583              		.size	PWM_Timer_SetStartMode, .-PWM_Timer_SetStartMode
 1584              		.section	.text.PWM_Timer_SetStopMode,"ax",%progbits
 1585              		.align	2
 1586              		.global	PWM_Timer_SetStopMode
 1587              		.code	16
 1588              		.thumb_func
 1589              		.type	PWM_Timer_SetStopMode, %function
 1590              	PWM_Timer_SetStopMode:
 1591              	.LFB31:
1155:.\Generated_Source\PSoC4/PWM_Timer.c **** 
1156:.\Generated_Source\PSoC4/PWM_Timer.c **** 
1157:.\Generated_Source\PSoC4/PWM_Timer.c **** /*******************************************************************************
1158:.\Generated_Source\PSoC4/PWM_Timer.c **** * Function Name: PWM_Timer_SetStopMode
1159:.\Generated_Source\PSoC4/PWM_Timer.c **** ********************************************************************************
1160:.\Generated_Source\PSoC4/PWM_Timer.c **** *
1161:.\Generated_Source\PSoC4/PWM_Timer.c **** * Summary:
1162:.\Generated_Source\PSoC4/PWM_Timer.c **** *  Sets the stop trigger mode. For PWM mode this is the kill input.
1163:.\Generated_Source\PSoC4/PWM_Timer.c **** *
1164:.\Generated_Source\PSoC4/PWM_Timer.c **** * Parameters:
1165:.\Generated_Source\PSoC4/PWM_Timer.c **** *  triggerMode: Enumerated trigger mode value
1166:.\Generated_Source\PSoC4/PWM_Timer.c **** *   Values:
1167:.\Generated_Source\PSoC4/PWM_Timer.c **** *     - PWM_Timer_TRIG_LEVEL     - Level
1168:.\Generated_Source\PSoC4/PWM_Timer.c **** *     - PWM_Timer_TRIG_RISING    - Rising edge
1169:.\Generated_Source\PSoC4/PWM_Timer.c **** *     - PWM_Timer_TRIG_FALLING   - Falling edge
1170:.\Generated_Source\PSoC4/PWM_Timer.c **** *     - PWM_Timer_TRIG_BOTH      - Both rising and falling edge
1171:.\Generated_Source\PSoC4/PWM_Timer.c **** *
1172:.\Generated_Source\PSoC4/PWM_Timer.c **** * Return:
1173:.\Generated_Source\PSoC4/PWM_Timer.c **** *  None
1174:.\Generated_Source\PSoC4/PWM_Timer.c **** *
1175:.\Generated_Source\PSoC4/PWM_Timer.c **** *******************************************************************************/
1176:.\Generated_Source\PSoC4/PWM_Timer.c **** void PWM_Timer_SetStopMode(uint32 triggerMode)
1177:.\Generated_Source\PSoC4/PWM_Timer.c **** {
 1592              		.loc 1 1177 0
 1593              		.cfi_startproc
 1594 0000 90B5     		push	{r4, r7, lr}
 1595              	.LCFI84:
 1596              		.cfi_def_cfa_offset 12
 1597              		.cfi_offset 4, -12
 1598              		.cfi_offset 7, -8
 1599              		.cfi_offset 14, -4
 1600 0002 85B0     		sub	sp, sp, #20
 1601              	.LCFI85:
 1602              		.cfi_def_cfa_offset 32
 1603 0004 00AF     		add	r7, sp, #0
 1604              	.LCFI86:
 1605              		.cfi_def_cfa_register 7
 1606 0006 7860     		str	r0, [r7, #4]
1178:.\Generated_Source\PSoC4/PWM_Timer.c ****     uint8 enableInterrupts;
1179:.\Generated_Source\PSoC4/PWM_Timer.c **** 
1180:.\Generated_Source\PSoC4/PWM_Timer.c ****     enableInterrupts = CyEnterCriticalSection();
 1607              		.loc 1 1180 0
 1608 0008 3C1C     		mov	r4, r7
 1609 000a 0F34     		add	r4, r4, #15
 1610 000c FFF7FEFF 		bl	CyEnterCriticalSection
 1611 0010 031C     		mov	r3, r0
 1612 0012 2370     		strb	r3, [r4]
1181:.\Generated_Source\PSoC4/PWM_Timer.c **** 
ARM GAS  C:\Users\OEBN\AppData\Local\Temp\cc4YkDS7.s 			page 50


1182:.\Generated_Source\PSoC4/PWM_Timer.c ****     PWM_Timer_TRIG_CONTROL1_REG &= (uint32)~PWM_Timer_STOP_MASK;
 1613              		.loc 1 1182 0
 1614 0014 0A4B     		ldr	r3, .L103
 1615 0016 0A4A     		ldr	r2, .L103
 1616 0018 1268     		ldr	r2, [r2]
 1617 001a C021     		mov	r1, #192
 1618 001c 8A43     		bic	r2, r1
 1619 001e 1A60     		str	r2, [r3]
1183:.\Generated_Source\PSoC4/PWM_Timer.c ****     PWM_Timer_TRIG_CONTROL1_REG |= ((uint32)(triggerMode << PWM_Timer_STOP_SHIFT));
 1620              		.loc 1 1183 0
 1621 0020 074B     		ldr	r3, .L103
 1622 0022 074A     		ldr	r2, .L103
 1623 0024 1168     		ldr	r1, [r2]
 1624 0026 7A68     		ldr	r2, [r7, #4]
 1625 0028 9201     		lsl	r2, r2, #6
 1626 002a 0A43     		orr	r2, r1
 1627 002c 1A60     		str	r2, [r3]
1184:.\Generated_Source\PSoC4/PWM_Timer.c **** 
1185:.\Generated_Source\PSoC4/PWM_Timer.c ****     CyExitCriticalSection(enableInterrupts);
 1628              		.loc 1 1185 0
 1629 002e 3B1C     		mov	r3, r7
 1630 0030 0F33     		add	r3, r3, #15
 1631 0032 1B78     		ldrb	r3, [r3]
 1632 0034 181C     		mov	r0, r3
 1633 0036 FFF7FEFF 		bl	CyExitCriticalSection
1186:.\Generated_Source\PSoC4/PWM_Timer.c **** }
 1634              		.loc 1 1186 0
 1635 003a BD46     		mov	sp, r7
 1636 003c 05B0     		add	sp, sp, #20
 1637              		@ sp needed for prologue
 1638 003e 90BD     		pop	{r4, r7, pc}
 1639              	.L104:
 1640              		.align	2
 1641              	.L103:
 1642 0040 24010540 		.word	1074069796
 1643              		.cfi_endproc
 1644              	.LFE31:
 1645              		.size	PWM_Timer_SetStopMode, .-PWM_Timer_SetStopMode
 1646              		.section	.text.PWM_Timer_SetCountMode,"ax",%progbits
 1647              		.align	2
 1648              		.global	PWM_Timer_SetCountMode
 1649              		.code	16
 1650              		.thumb_func
 1651              		.type	PWM_Timer_SetCountMode, %function
 1652              	PWM_Timer_SetCountMode:
 1653              	.LFB32:
1187:.\Generated_Source\PSoC4/PWM_Timer.c **** 
1188:.\Generated_Source\PSoC4/PWM_Timer.c **** 
1189:.\Generated_Source\PSoC4/PWM_Timer.c **** /*******************************************************************************
1190:.\Generated_Source\PSoC4/PWM_Timer.c **** * Function Name: PWM_Timer_SetCountMode
1191:.\Generated_Source\PSoC4/PWM_Timer.c **** ********************************************************************************
1192:.\Generated_Source\PSoC4/PWM_Timer.c **** *
1193:.\Generated_Source\PSoC4/PWM_Timer.c **** * Summary:
1194:.\Generated_Source\PSoC4/PWM_Timer.c **** *  Sets the count trigger mode. For Quadrature Decoder mode this is the phiA
1195:.\Generated_Source\PSoC4/PWM_Timer.c **** *  input.
1196:.\Generated_Source\PSoC4/PWM_Timer.c **** *
1197:.\Generated_Source\PSoC4/PWM_Timer.c **** * Parameters:
ARM GAS  C:\Users\OEBN\AppData\Local\Temp\cc4YkDS7.s 			page 51


1198:.\Generated_Source\PSoC4/PWM_Timer.c **** *  triggerMode: Enumerated trigger mode value
1199:.\Generated_Source\PSoC4/PWM_Timer.c **** *   Values:
1200:.\Generated_Source\PSoC4/PWM_Timer.c **** *     - PWM_Timer_TRIG_LEVEL     - Level
1201:.\Generated_Source\PSoC4/PWM_Timer.c **** *     - PWM_Timer_TRIG_RISING    - Rising edge
1202:.\Generated_Source\PSoC4/PWM_Timer.c **** *     - PWM_Timer_TRIG_FALLING   - Falling edge
1203:.\Generated_Source\PSoC4/PWM_Timer.c **** *     - PWM_Timer_TRIG_BOTH      - Both rising and falling edge
1204:.\Generated_Source\PSoC4/PWM_Timer.c **** *
1205:.\Generated_Source\PSoC4/PWM_Timer.c **** * Return:
1206:.\Generated_Source\PSoC4/PWM_Timer.c **** *  None
1207:.\Generated_Source\PSoC4/PWM_Timer.c **** *
1208:.\Generated_Source\PSoC4/PWM_Timer.c **** *******************************************************************************/
1209:.\Generated_Source\PSoC4/PWM_Timer.c **** void PWM_Timer_SetCountMode(uint32 triggerMode)
1210:.\Generated_Source\PSoC4/PWM_Timer.c **** {
 1654              		.loc 1 1210 0
 1655              		.cfi_startproc
 1656 0000 90B5     		push	{r4, r7, lr}
 1657              	.LCFI87:
 1658              		.cfi_def_cfa_offset 12
 1659              		.cfi_offset 4, -12
 1660              		.cfi_offset 7, -8
 1661              		.cfi_offset 14, -4
 1662 0002 85B0     		sub	sp, sp, #20
 1663              	.LCFI88:
 1664              		.cfi_def_cfa_offset 32
 1665 0004 00AF     		add	r7, sp, #0
 1666              	.LCFI89:
 1667              		.cfi_def_cfa_register 7
 1668 0006 7860     		str	r0, [r7, #4]
1211:.\Generated_Source\PSoC4/PWM_Timer.c ****     uint8 enableInterrupts;
1212:.\Generated_Source\PSoC4/PWM_Timer.c **** 
1213:.\Generated_Source\PSoC4/PWM_Timer.c ****     enableInterrupts = CyEnterCriticalSection();
 1669              		.loc 1 1213 0
 1670 0008 3C1C     		mov	r4, r7
 1671 000a 0F34     		add	r4, r4, #15
 1672 000c FFF7FEFF 		bl	CyEnterCriticalSection
 1673 0010 031C     		mov	r3, r0
 1674 0012 2370     		strb	r3, [r4]
1214:.\Generated_Source\PSoC4/PWM_Timer.c **** 
1215:.\Generated_Source\PSoC4/PWM_Timer.c ****     PWM_Timer_TRIG_CONTROL1_REG &= (uint32)~PWM_Timer_COUNT_MASK;
 1675              		.loc 1 1215 0
 1676 0014 0A4B     		ldr	r3, .L106
 1677 0016 0A4A     		ldr	r2, .L106
 1678 0018 1268     		ldr	r2, [r2]
 1679 001a 0C21     		mov	r1, #12
 1680 001c 8A43     		bic	r2, r1
 1681 001e 1A60     		str	r2, [r3]
1216:.\Generated_Source\PSoC4/PWM_Timer.c ****     PWM_Timer_TRIG_CONTROL1_REG |= ((uint32)(triggerMode << PWM_Timer_COUNT_SHIFT));
 1682              		.loc 1 1216 0
 1683 0020 074B     		ldr	r3, .L106
 1684 0022 074A     		ldr	r2, .L106
 1685 0024 1168     		ldr	r1, [r2]
 1686 0026 7A68     		ldr	r2, [r7, #4]
 1687 0028 9200     		lsl	r2, r2, #2
 1688 002a 0A43     		orr	r2, r1
 1689 002c 1A60     		str	r2, [r3]
1217:.\Generated_Source\PSoC4/PWM_Timer.c **** 
1218:.\Generated_Source\PSoC4/PWM_Timer.c ****     CyExitCriticalSection(enableInterrupts);
ARM GAS  C:\Users\OEBN\AppData\Local\Temp\cc4YkDS7.s 			page 52


 1690              		.loc 1 1218 0
 1691 002e 3B1C     		mov	r3, r7
 1692 0030 0F33     		add	r3, r3, #15
 1693 0032 1B78     		ldrb	r3, [r3]
 1694 0034 181C     		mov	r0, r3
 1695 0036 FFF7FEFF 		bl	CyExitCriticalSection
1219:.\Generated_Source\PSoC4/PWM_Timer.c **** }
 1696              		.loc 1 1219 0
 1697 003a BD46     		mov	sp, r7
 1698 003c 05B0     		add	sp, sp, #20
 1699              		@ sp needed for prologue
 1700 003e 90BD     		pop	{r4, r7, pc}
 1701              	.L107:
 1702              		.align	2
 1703              	.L106:
 1704 0040 24010540 		.word	1074069796
 1705              		.cfi_endproc
 1706              	.LFE32:
 1707              		.size	PWM_Timer_SetCountMode, .-PWM_Timer_SetCountMode
 1708              		.section	.text.PWM_Timer_TriggerCommand,"ax",%progbits
 1709              		.align	2
 1710              		.global	PWM_Timer_TriggerCommand
 1711              		.code	16
 1712              		.thumb_func
 1713              		.type	PWM_Timer_TriggerCommand, %function
 1714              	PWM_Timer_TriggerCommand:
 1715              	.LFB33:
1220:.\Generated_Source\PSoC4/PWM_Timer.c **** 
1221:.\Generated_Source\PSoC4/PWM_Timer.c **** 
1222:.\Generated_Source\PSoC4/PWM_Timer.c **** /*******************************************************************************
1223:.\Generated_Source\PSoC4/PWM_Timer.c **** * Function Name: PWM_Timer_TriggerCommand
1224:.\Generated_Source\PSoC4/PWM_Timer.c **** ********************************************************************************
1225:.\Generated_Source\PSoC4/PWM_Timer.c **** *
1226:.\Generated_Source\PSoC4/PWM_Timer.c **** * Summary:
1227:.\Generated_Source\PSoC4/PWM_Timer.c **** *  Triggers the designated command to occur on the designated TCPWM instances.
1228:.\Generated_Source\PSoC4/PWM_Timer.c **** *  The mask can be used to apply this command simultaneously to more than one
1229:.\Generated_Source\PSoC4/PWM_Timer.c **** *  instance.  This allows multiple TCPWM instances to be synchronized.
1230:.\Generated_Source\PSoC4/PWM_Timer.c **** *
1231:.\Generated_Source\PSoC4/PWM_Timer.c **** * Parameters:
1232:.\Generated_Source\PSoC4/PWM_Timer.c **** *  mask: A combination of mask bits for each instance of the TCPWM that the
1233:.\Generated_Source\PSoC4/PWM_Timer.c **** *        command should apply to.  This function from one instance can be used
1234:.\Generated_Source\PSoC4/PWM_Timer.c **** *        to apply the command to any of the instances in the design.
1235:.\Generated_Source\PSoC4/PWM_Timer.c **** *        The mask value for a specific instance is available with the MASK
1236:.\Generated_Source\PSoC4/PWM_Timer.c **** *        define.
1237:.\Generated_Source\PSoC4/PWM_Timer.c **** *  command: Enumerated command values. Capture command only applicable for
1238:.\Generated_Source\PSoC4/PWM_Timer.c **** *           Timer/Counter with Capture and PWM modes.
1239:.\Generated_Source\PSoC4/PWM_Timer.c **** *   Values:
1240:.\Generated_Source\PSoC4/PWM_Timer.c **** *     - PWM_Timer_CMD_CAPTURE    - Trigger Capture command
1241:.\Generated_Source\PSoC4/PWM_Timer.c **** *     - PWM_Timer_CMD_RELOAD     - Trigger Reload command
1242:.\Generated_Source\PSoC4/PWM_Timer.c **** *     - PWM_Timer_CMD_STOP       - Trigger Stop command
1243:.\Generated_Source\PSoC4/PWM_Timer.c **** *     - PWM_Timer_CMD_START      - Trigger Start command
1244:.\Generated_Source\PSoC4/PWM_Timer.c **** *
1245:.\Generated_Source\PSoC4/PWM_Timer.c **** * Return:
1246:.\Generated_Source\PSoC4/PWM_Timer.c **** *  None
1247:.\Generated_Source\PSoC4/PWM_Timer.c **** *
1248:.\Generated_Source\PSoC4/PWM_Timer.c **** *******************************************************************************/
1249:.\Generated_Source\PSoC4/PWM_Timer.c **** void PWM_Timer_TriggerCommand(uint32 mask, uint32 command)
ARM GAS  C:\Users\OEBN\AppData\Local\Temp\cc4YkDS7.s 			page 53


1250:.\Generated_Source\PSoC4/PWM_Timer.c **** {
 1716              		.loc 1 1250 0
 1717              		.cfi_startproc
 1718 0000 90B5     		push	{r4, r7, lr}
 1719              	.LCFI90:
 1720              		.cfi_def_cfa_offset 12
 1721              		.cfi_offset 4, -12
 1722              		.cfi_offset 7, -8
 1723              		.cfi_offset 14, -4
 1724 0002 85B0     		sub	sp, sp, #20
 1725              	.LCFI91:
 1726              		.cfi_def_cfa_offset 32
 1727 0004 00AF     		add	r7, sp, #0
 1728              	.LCFI92:
 1729              		.cfi_def_cfa_register 7
 1730 0006 7860     		str	r0, [r7, #4]
 1731 0008 3960     		str	r1, [r7]
1251:.\Generated_Source\PSoC4/PWM_Timer.c ****     uint8 enableInterrupts;
1252:.\Generated_Source\PSoC4/PWM_Timer.c **** 
1253:.\Generated_Source\PSoC4/PWM_Timer.c ****     enableInterrupts = CyEnterCriticalSection();
 1732              		.loc 1 1253 0
 1733 000a 3C1C     		mov	r4, r7
 1734 000c 0F34     		add	r4, r4, #15
 1735 000e FFF7FEFF 		bl	CyEnterCriticalSection
 1736 0012 031C     		mov	r3, r0
 1737 0014 2370     		strb	r3, [r4]
1254:.\Generated_Source\PSoC4/PWM_Timer.c **** 
1255:.\Generated_Source\PSoC4/PWM_Timer.c ****     PWM_Timer_COMMAND_REG = ((uint32)(mask << command));
 1738              		.loc 1 1255 0
 1739 0016 084B     		ldr	r3, .L109
 1740 0018 3A68     		ldr	r2, [r7]
 1741 001a 7968     		ldr	r1, [r7, #4]
 1742 001c 081C     		mov	r0, r1
 1743 001e 9040     		lsl	r0, r0, r2
 1744 0020 021C     		mov	r2, r0
 1745 0022 1A60     		str	r2, [r3]
1256:.\Generated_Source\PSoC4/PWM_Timer.c **** 
1257:.\Generated_Source\PSoC4/PWM_Timer.c ****     CyExitCriticalSection(enableInterrupts);
 1746              		.loc 1 1257 0
 1747 0024 3B1C     		mov	r3, r7
 1748 0026 0F33     		add	r3, r3, #15
 1749 0028 1B78     		ldrb	r3, [r3]
 1750 002a 181C     		mov	r0, r3
 1751 002c FFF7FEFF 		bl	CyExitCriticalSection
1258:.\Generated_Source\PSoC4/PWM_Timer.c **** }
 1752              		.loc 1 1258 0
 1753 0030 BD46     		mov	sp, r7
 1754 0032 05B0     		add	sp, sp, #20
 1755              		@ sp needed for prologue
 1756 0034 90BD     		pop	{r4, r7, pc}
 1757              	.L110:
 1758 0036 C046     		.align	2
 1759              	.L109:
 1760 0038 08000540 		.word	1074069512
 1761              		.cfi_endproc
 1762              	.LFE33:
 1763              		.size	PWM_Timer_TriggerCommand, .-PWM_Timer_TriggerCommand
ARM GAS  C:\Users\OEBN\AppData\Local\Temp\cc4YkDS7.s 			page 54


 1764              		.section	.text.PWM_Timer_ReadStatus,"ax",%progbits
 1765              		.align	2
 1766              		.global	PWM_Timer_ReadStatus
 1767              		.code	16
 1768              		.thumb_func
 1769              		.type	PWM_Timer_ReadStatus, %function
 1770              	PWM_Timer_ReadStatus:
 1771              	.LFB34:
1259:.\Generated_Source\PSoC4/PWM_Timer.c **** 
1260:.\Generated_Source\PSoC4/PWM_Timer.c **** 
1261:.\Generated_Source\PSoC4/PWM_Timer.c **** /*******************************************************************************
1262:.\Generated_Source\PSoC4/PWM_Timer.c **** * Function Name: PWM_Timer_ReadStatus
1263:.\Generated_Source\PSoC4/PWM_Timer.c **** ********************************************************************************
1264:.\Generated_Source\PSoC4/PWM_Timer.c **** *
1265:.\Generated_Source\PSoC4/PWM_Timer.c **** * Summary:
1266:.\Generated_Source\PSoC4/PWM_Timer.c **** *  Reads the status of the PWM_Timer.
1267:.\Generated_Source\PSoC4/PWM_Timer.c **** *
1268:.\Generated_Source\PSoC4/PWM_Timer.c **** * Parameters:
1269:.\Generated_Source\PSoC4/PWM_Timer.c **** *  None
1270:.\Generated_Source\PSoC4/PWM_Timer.c **** *
1271:.\Generated_Source\PSoC4/PWM_Timer.c **** * Return:
1272:.\Generated_Source\PSoC4/PWM_Timer.c **** *  Status
1273:.\Generated_Source\PSoC4/PWM_Timer.c **** *   Values:
1274:.\Generated_Source\PSoC4/PWM_Timer.c **** *     - PWM_Timer_STATUS_DOWN    - Set if counting down
1275:.\Generated_Source\PSoC4/PWM_Timer.c **** *     - PWM_Timer_STATUS_RUNNING - Set if counter is running
1276:.\Generated_Source\PSoC4/PWM_Timer.c **** *
1277:.\Generated_Source\PSoC4/PWM_Timer.c **** *******************************************************************************/
1278:.\Generated_Source\PSoC4/PWM_Timer.c **** uint32 PWM_Timer_ReadStatus(void)
1279:.\Generated_Source\PSoC4/PWM_Timer.c **** {
 1772              		.loc 1 1279 0
 1773              		.cfi_startproc
 1774 0000 80B5     		push	{r7, lr}
 1775              	.LCFI93:
 1776              		.cfi_def_cfa_offset 8
 1777              		.cfi_offset 7, -8
 1778              		.cfi_offset 14, -4
 1779 0002 00AF     		add	r7, sp, #0
 1780              	.LCFI94:
 1781              		.cfi_def_cfa_register 7
1280:.\Generated_Source\PSoC4/PWM_Timer.c ****     return ((PWM_Timer_STATUS_REG >> PWM_Timer_RUNNING_STATUS_SHIFT) |
 1782              		.loc 1 1280 0
 1783 0004 054B     		ldr	r3, .L113
 1784 0006 1B68     		ldr	r3, [r3]
 1785 0008 9A0F     		lsr	r2, r3, #30
1281:.\Generated_Source\PSoC4/PWM_Timer.c ****             (PWM_Timer_STATUS_REG & PWM_Timer_STATUS_DOWN));
 1786              		.loc 1 1281 0
 1787 000a 044B     		ldr	r3, .L113
 1788 000c 1968     		ldr	r1, [r3]
 1789 000e 0123     		mov	r3, #1
 1790 0010 0B40     		and	r3, r1
1280:.\Generated_Source\PSoC4/PWM_Timer.c ****     return ((PWM_Timer_STATUS_REG >> PWM_Timer_RUNNING_STATUS_SHIFT) |
 1791              		.loc 1 1280 0
 1792 0012 1343     		orr	r3, r2
1282:.\Generated_Source\PSoC4/PWM_Timer.c **** }
 1793              		.loc 1 1282 0
 1794 0014 181C     		mov	r0, r3
 1795 0016 BD46     		mov	sp, r7
ARM GAS  C:\Users\OEBN\AppData\Local\Temp\cc4YkDS7.s 			page 55


 1796              		@ sp needed for prologue
 1797 0018 80BD     		pop	{r7, pc}
 1798              	.L114:
 1799 001a C046     		.align	2
 1800              	.L113:
 1801 001c 04010540 		.word	1074069764
 1802              		.cfi_endproc
 1803              	.LFE34:
 1804              		.size	PWM_Timer_ReadStatus, .-PWM_Timer_ReadStatus
 1805              		.section	.text.PWM_Timer_SetInterruptMode,"ax",%progbits
 1806              		.align	2
 1807              		.global	PWM_Timer_SetInterruptMode
 1808              		.code	16
 1809              		.thumb_func
 1810              		.type	PWM_Timer_SetInterruptMode, %function
 1811              	PWM_Timer_SetInterruptMode:
 1812              	.LFB35:
1283:.\Generated_Source\PSoC4/PWM_Timer.c **** 
1284:.\Generated_Source\PSoC4/PWM_Timer.c **** 
1285:.\Generated_Source\PSoC4/PWM_Timer.c **** /*******************************************************************************
1286:.\Generated_Source\PSoC4/PWM_Timer.c **** * Function Name: PWM_Timer_SetInterruptMode
1287:.\Generated_Source\PSoC4/PWM_Timer.c **** ********************************************************************************
1288:.\Generated_Source\PSoC4/PWM_Timer.c **** *
1289:.\Generated_Source\PSoC4/PWM_Timer.c **** * Summary:
1290:.\Generated_Source\PSoC4/PWM_Timer.c **** *  Sets the interrupt mask to control which interrupt
1291:.\Generated_Source\PSoC4/PWM_Timer.c **** *  requests generate the interrupt signal.
1292:.\Generated_Source\PSoC4/PWM_Timer.c **** *
1293:.\Generated_Source\PSoC4/PWM_Timer.c **** * Parameters:
1294:.\Generated_Source\PSoC4/PWM_Timer.c **** *   interruptMask: Mask of bits to be enabled
1295:.\Generated_Source\PSoC4/PWM_Timer.c **** *   Values:
1296:.\Generated_Source\PSoC4/PWM_Timer.c **** *     - PWM_Timer_INTR_MASK_TC       - Terminal count mask
1297:.\Generated_Source\PSoC4/PWM_Timer.c **** *     - PWM_Timer_INTR_MASK_CC_MATCH - Compare count / capture mask
1298:.\Generated_Source\PSoC4/PWM_Timer.c **** *
1299:.\Generated_Source\PSoC4/PWM_Timer.c **** * Return:
1300:.\Generated_Source\PSoC4/PWM_Timer.c **** *  None
1301:.\Generated_Source\PSoC4/PWM_Timer.c **** *
1302:.\Generated_Source\PSoC4/PWM_Timer.c **** *******************************************************************************/
1303:.\Generated_Source\PSoC4/PWM_Timer.c **** void PWM_Timer_SetInterruptMode(uint32 interruptMask)
1304:.\Generated_Source\PSoC4/PWM_Timer.c **** {
 1813              		.loc 1 1304 0
 1814              		.cfi_startproc
 1815 0000 80B5     		push	{r7, lr}
 1816              	.LCFI95:
 1817              		.cfi_def_cfa_offset 8
 1818              		.cfi_offset 7, -8
 1819              		.cfi_offset 14, -4
 1820 0002 82B0     		sub	sp, sp, #8
 1821              	.LCFI96:
 1822              		.cfi_def_cfa_offset 16
 1823 0004 00AF     		add	r7, sp, #0
 1824              	.LCFI97:
 1825              		.cfi_def_cfa_register 7
 1826 0006 7860     		str	r0, [r7, #4]
1305:.\Generated_Source\PSoC4/PWM_Timer.c ****     PWM_Timer_INTERRUPT_MASK_REG =  interruptMask;
 1827              		.loc 1 1305 0
 1828 0008 024B     		ldr	r3, .L116
 1829 000a 7A68     		ldr	r2, [r7, #4]
ARM GAS  C:\Users\OEBN\AppData\Local\Temp\cc4YkDS7.s 			page 56


 1830 000c 1A60     		str	r2, [r3]
1306:.\Generated_Source\PSoC4/PWM_Timer.c **** }
 1831              		.loc 1 1306 0
 1832 000e BD46     		mov	sp, r7
 1833 0010 02B0     		add	sp, sp, #8
 1834              		@ sp needed for prologue
 1835 0012 80BD     		pop	{r7, pc}
 1836              	.L117:
 1837              		.align	2
 1838              	.L116:
 1839 0014 38010540 		.word	1074069816
 1840              		.cfi_endproc
 1841              	.LFE35:
 1842              		.size	PWM_Timer_SetInterruptMode, .-PWM_Timer_SetInterruptMode
 1843              		.section	.text.PWM_Timer_GetInterruptSourceMasked,"ax",%progbits
 1844              		.align	2
 1845              		.global	PWM_Timer_GetInterruptSourceMasked
 1846              		.code	16
 1847              		.thumb_func
 1848              		.type	PWM_Timer_GetInterruptSourceMasked, %function
 1849              	PWM_Timer_GetInterruptSourceMasked:
 1850              	.LFB36:
1307:.\Generated_Source\PSoC4/PWM_Timer.c **** 
1308:.\Generated_Source\PSoC4/PWM_Timer.c **** 
1309:.\Generated_Source\PSoC4/PWM_Timer.c **** /*******************************************************************************
1310:.\Generated_Source\PSoC4/PWM_Timer.c **** * Function Name: PWM_Timer_GetInterruptSourceMasked
1311:.\Generated_Source\PSoC4/PWM_Timer.c **** ********************************************************************************
1312:.\Generated_Source\PSoC4/PWM_Timer.c **** *
1313:.\Generated_Source\PSoC4/PWM_Timer.c **** * Summary:
1314:.\Generated_Source\PSoC4/PWM_Timer.c **** *  Gets the interrupt requests masked by the interrupt mask.
1315:.\Generated_Source\PSoC4/PWM_Timer.c **** *
1316:.\Generated_Source\PSoC4/PWM_Timer.c **** * Parameters:
1317:.\Generated_Source\PSoC4/PWM_Timer.c **** *   None
1318:.\Generated_Source\PSoC4/PWM_Timer.c **** *
1319:.\Generated_Source\PSoC4/PWM_Timer.c **** * Return:
1320:.\Generated_Source\PSoC4/PWM_Timer.c **** *  Masked interrupt source
1321:.\Generated_Source\PSoC4/PWM_Timer.c **** *   Values:
1322:.\Generated_Source\PSoC4/PWM_Timer.c **** *     - PWM_Timer_INTR_MASK_TC       - Terminal count mask
1323:.\Generated_Source\PSoC4/PWM_Timer.c **** *     - PWM_Timer_INTR_MASK_CC_MATCH - Compare count / capture mask
1324:.\Generated_Source\PSoC4/PWM_Timer.c **** *
1325:.\Generated_Source\PSoC4/PWM_Timer.c **** *******************************************************************************/
1326:.\Generated_Source\PSoC4/PWM_Timer.c **** uint32 PWM_Timer_GetInterruptSourceMasked(void)
1327:.\Generated_Source\PSoC4/PWM_Timer.c **** {
 1851              		.loc 1 1327 0
 1852              		.cfi_startproc
 1853 0000 80B5     		push	{r7, lr}
 1854              	.LCFI98:
 1855              		.cfi_def_cfa_offset 8
 1856              		.cfi_offset 7, -8
 1857              		.cfi_offset 14, -4
 1858 0002 00AF     		add	r7, sp, #0
 1859              	.LCFI99:
 1860              		.cfi_def_cfa_register 7
1328:.\Generated_Source\PSoC4/PWM_Timer.c ****     return (PWM_Timer_INTERRUPT_MASKED_REG);
 1861              		.loc 1 1328 0
 1862 0004 024B     		ldr	r3, .L120
 1863 0006 1B68     		ldr	r3, [r3]
ARM GAS  C:\Users\OEBN\AppData\Local\Temp\cc4YkDS7.s 			page 57


1329:.\Generated_Source\PSoC4/PWM_Timer.c **** }
 1864              		.loc 1 1329 0
 1865 0008 181C     		mov	r0, r3
 1866 000a BD46     		mov	sp, r7
 1867              		@ sp needed for prologue
 1868 000c 80BD     		pop	{r7, pc}
 1869              	.L121:
 1870 000e C046     		.align	2
 1871              	.L120:
 1872 0010 3C010540 		.word	1074069820
 1873              		.cfi_endproc
 1874              	.LFE36:
 1875              		.size	PWM_Timer_GetInterruptSourceMasked, .-PWM_Timer_GetInterruptSourceMasked
 1876              		.section	.text.PWM_Timer_GetInterruptSource,"ax",%progbits
 1877              		.align	2
 1878              		.global	PWM_Timer_GetInterruptSource
 1879              		.code	16
 1880              		.thumb_func
 1881              		.type	PWM_Timer_GetInterruptSource, %function
 1882              	PWM_Timer_GetInterruptSource:
 1883              	.LFB37:
1330:.\Generated_Source\PSoC4/PWM_Timer.c **** 
1331:.\Generated_Source\PSoC4/PWM_Timer.c **** 
1332:.\Generated_Source\PSoC4/PWM_Timer.c **** /*******************************************************************************
1333:.\Generated_Source\PSoC4/PWM_Timer.c **** * Function Name: PWM_Timer_GetInterruptSource
1334:.\Generated_Source\PSoC4/PWM_Timer.c **** ********************************************************************************
1335:.\Generated_Source\PSoC4/PWM_Timer.c **** *
1336:.\Generated_Source\PSoC4/PWM_Timer.c **** * Summary:
1337:.\Generated_Source\PSoC4/PWM_Timer.c **** *  Gets the interrupt requests (without masking).
1338:.\Generated_Source\PSoC4/PWM_Timer.c **** *
1339:.\Generated_Source\PSoC4/PWM_Timer.c **** * Parameters:
1340:.\Generated_Source\PSoC4/PWM_Timer.c **** *  None
1341:.\Generated_Source\PSoC4/PWM_Timer.c **** *
1342:.\Generated_Source\PSoC4/PWM_Timer.c **** * Return:
1343:.\Generated_Source\PSoC4/PWM_Timer.c **** *  Interrupt request value
1344:.\Generated_Source\PSoC4/PWM_Timer.c **** *   Values:
1345:.\Generated_Source\PSoC4/PWM_Timer.c **** *     - PWM_Timer_INTR_MASK_TC       - Terminal count mask
1346:.\Generated_Source\PSoC4/PWM_Timer.c **** *     - PWM_Timer_INTR_MASK_CC_MATCH - Compare count / capture mask
1347:.\Generated_Source\PSoC4/PWM_Timer.c **** *
1348:.\Generated_Source\PSoC4/PWM_Timer.c **** *******************************************************************************/
1349:.\Generated_Source\PSoC4/PWM_Timer.c **** uint32 PWM_Timer_GetInterruptSource(void)
1350:.\Generated_Source\PSoC4/PWM_Timer.c **** {
 1884              		.loc 1 1350 0
 1885              		.cfi_startproc
 1886 0000 80B5     		push	{r7, lr}
 1887              	.LCFI100:
 1888              		.cfi_def_cfa_offset 8
 1889              		.cfi_offset 7, -8
 1890              		.cfi_offset 14, -4
 1891 0002 00AF     		add	r7, sp, #0
 1892              	.LCFI101:
 1893              		.cfi_def_cfa_register 7
1351:.\Generated_Source\PSoC4/PWM_Timer.c ****     return (PWM_Timer_INTERRUPT_REQ_REG);
 1894              		.loc 1 1351 0
 1895 0004 024B     		ldr	r3, .L124
 1896 0006 1B68     		ldr	r3, [r3]
1352:.\Generated_Source\PSoC4/PWM_Timer.c **** }
ARM GAS  C:\Users\OEBN\AppData\Local\Temp\cc4YkDS7.s 			page 58


 1897              		.loc 1 1352 0
 1898 0008 181C     		mov	r0, r3
 1899 000a BD46     		mov	sp, r7
 1900              		@ sp needed for prologue
 1901 000c 80BD     		pop	{r7, pc}
 1902              	.L125:
 1903 000e C046     		.align	2
 1904              	.L124:
 1905 0010 30010540 		.word	1074069808
 1906              		.cfi_endproc
 1907              	.LFE37:
 1908              		.size	PWM_Timer_GetInterruptSource, .-PWM_Timer_GetInterruptSource
 1909              		.section	.text.PWM_Timer_ClearInterrupt,"ax",%progbits
 1910              		.align	2
 1911              		.global	PWM_Timer_ClearInterrupt
 1912              		.code	16
 1913              		.thumb_func
 1914              		.type	PWM_Timer_ClearInterrupt, %function
 1915              	PWM_Timer_ClearInterrupt:
 1916              	.LFB38:
1353:.\Generated_Source\PSoC4/PWM_Timer.c **** 
1354:.\Generated_Source\PSoC4/PWM_Timer.c **** 
1355:.\Generated_Source\PSoC4/PWM_Timer.c **** /*******************************************************************************
1356:.\Generated_Source\PSoC4/PWM_Timer.c **** * Function Name: PWM_Timer_ClearInterrupt
1357:.\Generated_Source\PSoC4/PWM_Timer.c **** ********************************************************************************
1358:.\Generated_Source\PSoC4/PWM_Timer.c **** *
1359:.\Generated_Source\PSoC4/PWM_Timer.c **** * Summary:
1360:.\Generated_Source\PSoC4/PWM_Timer.c **** *  Clears the interrupt request.
1361:.\Generated_Source\PSoC4/PWM_Timer.c **** *
1362:.\Generated_Source\PSoC4/PWM_Timer.c **** * Parameters:
1363:.\Generated_Source\PSoC4/PWM_Timer.c **** *   interruptMask: Mask of interrupts to clear
1364:.\Generated_Source\PSoC4/PWM_Timer.c **** *   Values:
1365:.\Generated_Source\PSoC4/PWM_Timer.c **** *     - PWM_Timer_INTR_MASK_TC       - Terminal count mask
1366:.\Generated_Source\PSoC4/PWM_Timer.c **** *     - PWM_Timer_INTR_MASK_CC_MATCH - Compare count / capture mask
1367:.\Generated_Source\PSoC4/PWM_Timer.c **** *
1368:.\Generated_Source\PSoC4/PWM_Timer.c **** * Return:
1369:.\Generated_Source\PSoC4/PWM_Timer.c **** *  None
1370:.\Generated_Source\PSoC4/PWM_Timer.c **** *
1371:.\Generated_Source\PSoC4/PWM_Timer.c **** *******************************************************************************/
1372:.\Generated_Source\PSoC4/PWM_Timer.c **** void PWM_Timer_ClearInterrupt(uint32 interruptMask)
1373:.\Generated_Source\PSoC4/PWM_Timer.c **** {
 1917              		.loc 1 1373 0
 1918              		.cfi_startproc
 1919 0000 80B5     		push	{r7, lr}
 1920              	.LCFI102:
 1921              		.cfi_def_cfa_offset 8
 1922              		.cfi_offset 7, -8
 1923              		.cfi_offset 14, -4
 1924 0002 82B0     		sub	sp, sp, #8
 1925              	.LCFI103:
 1926              		.cfi_def_cfa_offset 16
 1927 0004 00AF     		add	r7, sp, #0
 1928              	.LCFI104:
 1929              		.cfi_def_cfa_register 7
 1930 0006 7860     		str	r0, [r7, #4]
1374:.\Generated_Source\PSoC4/PWM_Timer.c ****     PWM_Timer_INTERRUPT_REQ_REG = interruptMask;
 1931              		.loc 1 1374 0
ARM GAS  C:\Users\OEBN\AppData\Local\Temp\cc4YkDS7.s 			page 59


 1932 0008 024B     		ldr	r3, .L127
 1933 000a 7A68     		ldr	r2, [r7, #4]
 1934 000c 1A60     		str	r2, [r3]
1375:.\Generated_Source\PSoC4/PWM_Timer.c **** }
 1935              		.loc 1 1375 0
 1936 000e BD46     		mov	sp, r7
 1937 0010 02B0     		add	sp, sp, #8
 1938              		@ sp needed for prologue
 1939 0012 80BD     		pop	{r7, pc}
 1940              	.L128:
 1941              		.align	2
 1942              	.L127:
 1943 0014 30010540 		.word	1074069808
 1944              		.cfi_endproc
 1945              	.LFE38:
 1946              		.size	PWM_Timer_ClearInterrupt, .-PWM_Timer_ClearInterrupt
 1947              		.section	.text.PWM_Timer_SetInterrupt,"ax",%progbits
 1948              		.align	2
 1949              		.global	PWM_Timer_SetInterrupt
 1950              		.code	16
 1951              		.thumb_func
 1952              		.type	PWM_Timer_SetInterrupt, %function
 1953              	PWM_Timer_SetInterrupt:
 1954              	.LFB39:
1376:.\Generated_Source\PSoC4/PWM_Timer.c **** 
1377:.\Generated_Source\PSoC4/PWM_Timer.c **** 
1378:.\Generated_Source\PSoC4/PWM_Timer.c **** /*******************************************************************************
1379:.\Generated_Source\PSoC4/PWM_Timer.c **** * Function Name: PWM_Timer_SetInterrupt
1380:.\Generated_Source\PSoC4/PWM_Timer.c **** ********************************************************************************
1381:.\Generated_Source\PSoC4/PWM_Timer.c **** *
1382:.\Generated_Source\PSoC4/PWM_Timer.c **** * Summary:
1383:.\Generated_Source\PSoC4/PWM_Timer.c **** *  Sets a software interrupt request.
1384:.\Generated_Source\PSoC4/PWM_Timer.c **** *
1385:.\Generated_Source\PSoC4/PWM_Timer.c **** * Parameters:
1386:.\Generated_Source\PSoC4/PWM_Timer.c **** *   interruptMask: Mask of interrupts to set
1387:.\Generated_Source\PSoC4/PWM_Timer.c **** *   Values:
1388:.\Generated_Source\PSoC4/PWM_Timer.c **** *     - PWM_Timer_INTR_MASK_TC       - Terminal count mask
1389:.\Generated_Source\PSoC4/PWM_Timer.c **** *     - PWM_Timer_INTR_MASK_CC_MATCH - Compare count / capture mask
1390:.\Generated_Source\PSoC4/PWM_Timer.c **** *
1391:.\Generated_Source\PSoC4/PWM_Timer.c **** * Return:
1392:.\Generated_Source\PSoC4/PWM_Timer.c **** *  None
1393:.\Generated_Source\PSoC4/PWM_Timer.c **** *
1394:.\Generated_Source\PSoC4/PWM_Timer.c **** *******************************************************************************/
1395:.\Generated_Source\PSoC4/PWM_Timer.c **** void PWM_Timer_SetInterrupt(uint32 interruptMask)
1396:.\Generated_Source\PSoC4/PWM_Timer.c **** {
 1955              		.loc 1 1396 0
 1956              		.cfi_startproc
 1957 0000 80B5     		push	{r7, lr}
 1958              	.LCFI105:
 1959              		.cfi_def_cfa_offset 8
 1960              		.cfi_offset 7, -8
 1961              		.cfi_offset 14, -4
 1962 0002 82B0     		sub	sp, sp, #8
 1963              	.LCFI106:
 1964              		.cfi_def_cfa_offset 16
 1965 0004 00AF     		add	r7, sp, #0
 1966              	.LCFI107:
ARM GAS  C:\Users\OEBN\AppData\Local\Temp\cc4YkDS7.s 			page 60


 1967              		.cfi_def_cfa_register 7
 1968 0006 7860     		str	r0, [r7, #4]
1397:.\Generated_Source\PSoC4/PWM_Timer.c ****     PWM_Timer_INTERRUPT_SET_REG = interruptMask;
 1969              		.loc 1 1397 0
 1970 0008 024B     		ldr	r3, .L130
 1971 000a 7A68     		ldr	r2, [r7, #4]
 1972 000c 1A60     		str	r2, [r3]
1398:.\Generated_Source\PSoC4/PWM_Timer.c **** }
 1973              		.loc 1 1398 0
 1974 000e BD46     		mov	sp, r7
 1975 0010 02B0     		add	sp, sp, #8
 1976              		@ sp needed for prologue
 1977 0012 80BD     		pop	{r7, pc}
 1978              	.L131:
 1979              		.align	2
 1980              	.L130:
 1981 0014 34010540 		.word	1074069812
 1982              		.cfi_endproc
 1983              	.LFE39:
 1984              		.size	PWM_Timer_SetInterrupt, .-PWM_Timer_SetInterrupt
 1985              		.text
 1986              	.Letext0:
 1987              		.file 2 ".\\Generated_Source\\PSoC4\\cytypes.h"
 1988              		.section	.debug_info,"",%progbits
 1989              	.Ldebug_info0:
 1990 0000 BA070000 		.4byte	0x7ba
 1991 0004 0200     		.2byte	0x2
 1992 0006 00000000 		.4byte	.Ldebug_abbrev0
 1993 000a 04       		.byte	0x4
 1994 000b 01       		.uleb128 0x1
 1995 000c E7030000 		.4byte	.LASF76
 1996 0010 01       		.byte	0x1
 1997 0011 A1030000 		.4byte	.LASF77
 1998 0015 57010000 		.4byte	.LASF78
 1999 0019 00000000 		.4byte	.Ldebug_ranges0+0
 2000 001d 00000000 		.4byte	0
 2001 0021 00000000 		.4byte	0
 2002 0025 00000000 		.4byte	.Ldebug_line0
 2003 0029 02       		.uleb128 0x2
 2004 002a 01       		.byte	0x1
 2005 002b 06       		.byte	0x6
 2006 002c 58000000 		.4byte	.LASF0
 2007 0030 02       		.uleb128 0x2
 2008 0031 01       		.byte	0x1
 2009 0032 08       		.byte	0x8
 2010 0033 5E040000 		.4byte	.LASF1
 2011 0037 02       		.uleb128 0x2
 2012 0038 02       		.byte	0x2
 2013 0039 05       		.byte	0x5
 2014 003a 96040000 		.4byte	.LASF2
 2015 003e 02       		.uleb128 0x2
 2016 003f 02       		.byte	0x2
 2017 0040 07       		.byte	0x7
 2018 0041 06020000 		.4byte	.LASF3
 2019 0045 02       		.uleb128 0x2
 2020 0046 04       		.byte	0x4
 2021 0047 05       		.byte	0x5
ARM GAS  C:\Users\OEBN\AppData\Local\Temp\cc4YkDS7.s 			page 61


 2022 0048 A0000000 		.4byte	.LASF4
 2023 004c 02       		.uleb128 0x2
 2024 004d 04       		.byte	0x4
 2025 004e 07       		.byte	0x7
 2026 004f D2010000 		.4byte	.LASF5
 2027 0053 02       		.uleb128 0x2
 2028 0054 08       		.byte	0x8
 2029 0055 05       		.byte	0x5
 2030 0056 4A000000 		.4byte	.LASF6
 2031 005a 02       		.uleb128 0x2
 2032 005b 08       		.byte	0x8
 2033 005c 07       		.byte	0x7
 2034 005d 16000000 		.4byte	.LASF7
 2035 0061 03       		.uleb128 0x3
 2036 0062 04       		.byte	0x4
 2037 0063 05       		.byte	0x5
 2038 0064 696E7400 		.ascii	"int\000"
 2039 0068 02       		.uleb128 0x2
 2040 0069 04       		.byte	0x4
 2041 006a 07       		.byte	0x7
 2042 006b 78010000 		.4byte	.LASF8
 2043 006f 04       		.uleb128 0x4
 2044 0070 C6000000 		.4byte	.LASF9
 2045 0074 02       		.byte	0x2
 2046 0075 5B       		.byte	0x5b
 2047 0076 30000000 		.4byte	0x30
 2048 007a 04       		.uleb128 0x4
 2049 007b EC000000 		.4byte	.LASF10
 2050 007f 02       		.byte	0x2
 2051 0080 5D       		.byte	0x5d
 2052 0081 4C000000 		.4byte	0x4c
 2053 0085 02       		.uleb128 0x2
 2054 0086 04       		.byte	0x4
 2055 0087 04       		.byte	0x4
 2056 0088 8B050000 		.4byte	.LASF11
 2057 008c 02       		.uleb128 0x2
 2058 008d 08       		.byte	0x8
 2059 008e 04       		.byte	0x4
 2060 008f E5000000 		.4byte	.LASF12
 2061 0093 02       		.uleb128 0x2
 2062 0094 01       		.byte	0x1
 2063 0095 08       		.byte	0x8
 2064 0096 24050000 		.4byte	.LASF13
 2065 009a 04       		.uleb128 0x4
 2066 009b BE020000 		.4byte	.LASF14
 2067 009f 02       		.byte	0x2
 2068 00a0 F2       		.byte	0xf2
 2069 00a1 A5000000 		.4byte	0xa5
 2070 00a5 05       		.uleb128 0x5
 2071 00a6 7A000000 		.4byte	0x7a
 2072 00aa 02       		.uleb128 0x2
 2073 00ab 04       		.byte	0x4
 2074 00ac 07       		.byte	0x7
 2075 00ad EF020000 		.4byte	.LASF15
 2076 00b1 06       		.uleb128 0x6
 2077 00b2 01       		.byte	0x1
 2078 00b3 51050000 		.4byte	.LASF16
ARM GAS  C:\Users\OEBN\AppData\Local\Temp\cc4YkDS7.s 			page 62


 2079 00b7 01       		.byte	0x1
 2080 00b8 27       		.byte	0x27
 2081 00b9 01       		.byte	0x1
 2082 00ba 00000000 		.4byte	.LFB0
 2083 00be 2C000000 		.4byte	.LFE0
 2084 00c2 00000000 		.4byte	.LLST0
 2085 00c6 01       		.byte	0x1
 2086 00c7 07       		.uleb128 0x7
 2087 00c8 01       		.byte	0x1
 2088 00c9 B5040000 		.4byte	.LASF18
 2089 00cd 01       		.byte	0x1
 2090 00ce C8       		.byte	0xc8
 2091 00cf 01       		.byte	0x1
 2092 00d0 00000000 		.4byte	.LFB1
 2093 00d4 38000000 		.4byte	.LFE1
 2094 00d8 2C000000 		.4byte	.LLST1
 2095 00dc 01       		.byte	0x1
 2096 00dd F0000000 		.4byte	0xf0
 2097 00e1 08       		.uleb128 0x8
 2098 00e2 75050000 		.4byte	.LASF20
 2099 00e6 01       		.byte	0x1
 2100 00e7 CA       		.byte	0xca
 2101 00e8 6F000000 		.4byte	0x6f
 2102 00ec 02       		.byte	0x2
 2103 00ed 91       		.byte	0x91
 2104 00ee 6F       		.sleb128 -17
 2105 00ef 00       		.byte	0
 2106 00f0 06       		.uleb128 0x6
 2107 00f1 01       		.byte	0x1
 2108 00f2 31010000 		.4byte	.LASF17
 2109 00f6 01       		.byte	0x1
 2110 00f7 F7       		.byte	0xf7
 2111 00f8 01       		.byte	0x1
 2112 00f9 00000000 		.4byte	.LFB2
 2113 00fd 24000000 		.4byte	.LFE2
 2114 0101 64000000 		.4byte	.LLST2
 2115 0105 01       		.byte	0x1
 2116 0106 09       		.uleb128 0x9
 2117 0107 01       		.byte	0x1
 2118 0108 6B020000 		.4byte	.LASF19
 2119 010c 01       		.byte	0x1
 2120 010d 1101     		.2byte	0x111
 2121 010f 01       		.byte	0x1
 2122 0110 00000000 		.4byte	.LFB3
 2123 0114 30000000 		.4byte	.LFE3
 2124 0118 90000000 		.4byte	.LLST3
 2125 011c 01       		.byte	0x1
 2126 011d 31010000 		.4byte	0x131
 2127 0121 0A       		.uleb128 0xa
 2128 0122 75050000 		.4byte	.LASF20
 2129 0126 01       		.byte	0x1
 2130 0127 1301     		.2byte	0x113
 2131 0129 6F000000 		.4byte	0x6f
 2132 012d 02       		.byte	0x2
 2133 012e 91       		.byte	0x91
 2134 012f 6F       		.sleb128 -17
 2135 0130 00       		.byte	0
ARM GAS  C:\Users\OEBN\AppData\Local\Temp\cc4YkDS7.s 			page 63


 2136 0131 09       		.uleb128 0x9
 2137 0132 01       		.byte	0x1
 2138 0133 A0010000 		.4byte	.LASF21
 2139 0137 01       		.byte	0x1
 2140 0138 3601     		.2byte	0x136
 2141 013a 01       		.byte	0x1
 2142 013b 00000000 		.4byte	.LFB4
 2143 013f 48000000 		.4byte	.LFE4
 2144 0143 C8000000 		.4byte	.LLST4
 2145 0147 01       		.byte	0x1
 2146 0148 6B010000 		.4byte	0x16b
 2147 014c 0B       		.uleb128 0xb
 2148 014d 29050000 		.4byte	.LASF23
 2149 0151 01       		.byte	0x1
 2150 0152 3601     		.2byte	0x136
 2151 0154 7A000000 		.4byte	0x7a
 2152 0158 02       		.byte	0x2
 2153 0159 91       		.byte	0x91
 2154 015a 64       		.sleb128 -28
 2155 015b 0A       		.uleb128 0xa
 2156 015c 75050000 		.4byte	.LASF20
 2157 0160 01       		.byte	0x1
 2158 0161 3801     		.2byte	0x138
 2159 0163 6F000000 		.4byte	0x6f
 2160 0167 02       		.byte	0x2
 2161 0168 91       		.byte	0x91
 2162 0169 6F       		.sleb128 -17
 2163 016a 00       		.byte	0
 2164 016b 09       		.uleb128 0x9
 2165 016c 01       		.byte	0x1
 2166 016d C4020000 		.4byte	.LASF22
 2167 0171 01       		.byte	0x1
 2168 0172 5701     		.2byte	0x157
 2169 0174 01       		.byte	0x1
 2170 0175 00000000 		.4byte	.LFB5
 2171 0179 48000000 		.4byte	.LFE5
 2172 017d 00010000 		.4byte	.LLST5
 2173 0181 01       		.byte	0x1
 2174 0182 A5010000 		.4byte	0x1a5
 2175 0186 0B       		.uleb128 0xb
 2176 0187 43000000 		.4byte	.LASF24
 2177 018b 01       		.byte	0x1
 2178 018c 5701     		.2byte	0x157
 2179 018e 7A000000 		.4byte	0x7a
 2180 0192 02       		.byte	0x2
 2181 0193 91       		.byte	0x91
 2182 0194 64       		.sleb128 -28
 2183 0195 0A       		.uleb128 0xa
 2184 0196 75050000 		.4byte	.LASF20
 2185 019a 01       		.byte	0x1
 2186 019b 5901     		.2byte	0x159
 2187 019d 6F000000 		.4byte	0x6f
 2188 01a1 02       		.byte	0x2
 2189 01a2 91       		.byte	0x91
 2190 01a3 6F       		.sleb128 -17
 2191 01a4 00       		.byte	0
 2192 01a5 09       		.uleb128 0x9
ARM GAS  C:\Users\OEBN\AppData\Local\Temp\cc4YkDS7.s 			page 64


 2193 01a6 01       		.byte	0x1
 2194 01a7 30040000 		.4byte	.LASF25
 2195 01ab 01       		.byte	0x1
 2196 01ac 7C01     		.2byte	0x17c
 2197 01ae 01       		.byte	0x1
 2198 01af 00000000 		.4byte	.LFB6
 2199 01b3 48000000 		.4byte	.LFE6
 2200 01b7 38010000 		.4byte	.LLST6
 2201 01bb 01       		.byte	0x1
 2202 01bc DF010000 		.4byte	0x1df
 2203 01c0 0B       		.uleb128 0xb
 2204 01c1 C6030000 		.4byte	.LASF26
 2205 01c5 01       		.byte	0x1
 2206 01c6 7C01     		.2byte	0x17c
 2207 01c8 7A000000 		.4byte	0x7a
 2208 01cc 02       		.byte	0x2
 2209 01cd 91       		.byte	0x91
 2210 01ce 64       		.sleb128 -28
 2211 01cf 0A       		.uleb128 0xa
 2212 01d0 75050000 		.4byte	.LASF20
 2213 01d4 01       		.byte	0x1
 2214 01d5 7E01     		.2byte	0x17e
 2215 01d7 6F000000 		.4byte	0x6f
 2216 01db 02       		.byte	0x2
 2217 01dc 91       		.byte	0x91
 2218 01dd 6F       		.sleb128 -17
 2219 01de 00       		.byte	0
 2220 01df 09       		.uleb128 0x9
 2221 01e0 01       		.byte	0x1
 2222 01e1 31020000 		.4byte	.LASF27
 2223 01e5 01       		.byte	0x1
 2224 01e6 9C01     		.2byte	0x19c
 2225 01e8 01       		.byte	0x1
 2226 01e9 00000000 		.4byte	.LFB7
 2227 01ed 4C000000 		.4byte	.LFE7
 2228 01f1 70010000 		.4byte	.LLST7
 2229 01f5 01       		.byte	0x1
 2230 01f6 19020000 		.4byte	0x219
 2231 01fa 0B       		.uleb128 0xb
 2232 01fb 5D020000 		.4byte	.LASF28
 2233 01ff 01       		.byte	0x1
 2234 0200 9C01     		.2byte	0x19c
 2235 0202 7A000000 		.4byte	0x7a
 2236 0206 02       		.byte	0x2
 2237 0207 91       		.byte	0x91
 2238 0208 64       		.sleb128 -28
 2239 0209 0A       		.uleb128 0xa
 2240 020a 75050000 		.4byte	.LASF20
 2241 020e 01       		.byte	0x1
 2242 020f 9E01     		.2byte	0x19e
 2243 0211 6F000000 		.4byte	0x6f
 2244 0215 02       		.byte	0x2
 2245 0216 91       		.byte	0x91
 2246 0217 6F       		.sleb128 -17
 2247 0218 00       		.byte	0
 2248 0219 0C       		.uleb128 0xc
 2249 021a 01       		.byte	0x1
ARM GAS  C:\Users\OEBN\AppData\Local\Temp\cc4YkDS7.s 			page 65


 2250 021b 60050000 		.4byte	.LASF29
 2251 021f 01       		.byte	0x1
 2252 0220 D201     		.2byte	0x1d2
 2253 0222 01       		.byte	0x1
 2254 0223 00000000 		.4byte	.LFB8
 2255 0227 1C000000 		.4byte	.LFE8
 2256 022b A8010000 		.4byte	.LLST8
 2257 022f 01       		.byte	0x1
 2258 0230 44020000 		.4byte	0x244
 2259 0234 0B       		.uleb128 0xb
 2260 0235 E4010000 		.4byte	.LASF30
 2261 0239 01       		.byte	0x1
 2262 023a D201     		.2byte	0x1d2
 2263 023c 7A000000 		.4byte	0x7a
 2264 0240 02       		.byte	0x2
 2265 0241 91       		.byte	0x91
 2266 0242 74       		.sleb128 -12
 2267 0243 00       		.byte	0
 2268 0244 09       		.uleb128 0x9
 2269 0245 01       		.byte	0x1
 2270 0246 90020000 		.4byte	.LASF31
 2271 024a 01       		.byte	0x1
 2272 024b F601     		.2byte	0x1f6
 2273 024d 01       		.byte	0x1
 2274 024e 00000000 		.4byte	.LFB9
 2275 0252 48000000 		.4byte	.LFE9
 2276 0256 E0010000 		.4byte	.LLST9
 2277 025a 01       		.byte	0x1
 2278 025b 7E020000 		.4byte	0x27e
 2279 025f 0B       		.uleb128 0xb
 2280 0260 0F030000 		.4byte	.LASF32
 2281 0264 01       		.byte	0x1
 2282 0265 F601     		.2byte	0x1f6
 2283 0267 7A000000 		.4byte	0x7a
 2284 026b 02       		.byte	0x2
 2285 026c 91       		.byte	0x91
 2286 026d 64       		.sleb128 -28
 2287 026e 0A       		.uleb128 0xa
 2288 026f 75050000 		.4byte	.LASF20
 2289 0273 01       		.byte	0x1
 2290 0274 F801     		.2byte	0x1f8
 2291 0276 6F000000 		.4byte	0x6f
 2292 027a 02       		.byte	0x2
 2293 027b 91       		.byte	0x91
 2294 027c 6F       		.sleb128 -17
 2295 027d 00       		.byte	0
 2296 027e 09       		.uleb128 0x9
 2297 027f 01       		.byte	0x1
 2298 0280 85010000 		.4byte	.LASF33
 2299 0284 01       		.byte	0x1
 2300 0285 1802     		.2byte	0x218
 2301 0287 01       		.byte	0x1
 2302 0288 00000000 		.4byte	.LFB10
 2303 028c 48000000 		.4byte	.LFE10
 2304 0290 18020000 		.4byte	.LLST10
 2305 0294 01       		.byte	0x1
 2306 0295 B8020000 		.4byte	0x2b8
ARM GAS  C:\Users\OEBN\AppData\Local\Temp\cc4YkDS7.s 			page 66


 2307 0299 0B       		.uleb128 0xb
 2308 029a 6C040000 		.4byte	.LASF34
 2309 029e 01       		.byte	0x1
 2310 029f 1802     		.2byte	0x218
 2311 02a1 7A000000 		.4byte	0x7a
 2312 02a5 02       		.byte	0x2
 2313 02a6 91       		.byte	0x91
 2314 02a7 64       		.sleb128 -28
 2315 02a8 0A       		.uleb128 0xa
 2316 02a9 75050000 		.4byte	.LASF20
 2317 02ad 01       		.byte	0x1
 2318 02ae 1A02     		.2byte	0x21a
 2319 02b0 6F000000 		.4byte	0x6f
 2320 02b4 02       		.byte	0x2
 2321 02b5 91       		.byte	0x91
 2322 02b6 6F       		.sleb128 -17
 2323 02b7 00       		.byte	0
 2324 02b8 09       		.uleb128 0x9
 2325 02b9 01       		.byte	0x1
 2326 02ba 0B050000 		.4byte	.LASF35
 2327 02be 01       		.byte	0x1
 2328 02bf 3902     		.2byte	0x239
 2329 02c1 01       		.byte	0x1
 2330 02c2 00000000 		.4byte	.LFB11
 2331 02c6 4C000000 		.4byte	.LFE11
 2332 02ca 50020000 		.4byte	.LLST11
 2333 02ce 01       		.byte	0x1
 2334 02cf F2020000 		.4byte	0x2f2
 2335 02d3 0B       		.uleb128 0xb
 2336 02d4 06000000 		.4byte	.LASF36
 2337 02d8 01       		.byte	0x1
 2338 02d9 3902     		.2byte	0x239
 2339 02db 7A000000 		.4byte	0x7a
 2340 02df 02       		.byte	0x2
 2341 02e0 91       		.byte	0x91
 2342 02e1 64       		.sleb128 -28
 2343 02e2 0A       		.uleb128 0xa
 2344 02e3 75050000 		.4byte	.LASF20
 2345 02e7 01       		.byte	0x1
 2346 02e8 3B02     		.2byte	0x23b
 2347 02ea 6F000000 		.4byte	0x6f
 2348 02ee 02       		.byte	0x2
 2349 02ef 91       		.byte	0x91
 2350 02f0 6F       		.sleb128 -17
 2351 02f1 00       		.byte	0
 2352 02f2 09       		.uleb128 0x9
 2353 02f3 01       		.byte	0x1
 2354 02f4 2E050000 		.4byte	.LASF37
 2355 02f8 01       		.byte	0x1
 2356 02f9 5A02     		.2byte	0x25a
 2357 02fb 01       		.byte	0x1
 2358 02fc 00000000 		.4byte	.LFB12
 2359 0300 48000000 		.4byte	.LFE12
 2360 0304 88020000 		.4byte	.LLST12
 2361 0308 01       		.byte	0x1
 2362 0309 2C030000 		.4byte	0x32c
 2363 030d 0B       		.uleb128 0xb
ARM GAS  C:\Users\OEBN\AppData\Local\Temp\cc4YkDS7.s 			page 67


 2364 030e 86050000 		.4byte	.LASF38
 2365 0312 01       		.byte	0x1
 2366 0313 5A02     		.2byte	0x25a
 2367 0315 7A000000 		.4byte	0x7a
 2368 0319 02       		.byte	0x2
 2369 031a 91       		.byte	0x91
 2370 031b 64       		.sleb128 -28
 2371 031c 0A       		.uleb128 0xa
 2372 031d 75050000 		.4byte	.LASF20
 2373 0321 01       		.byte	0x1
 2374 0322 5C02     		.2byte	0x25c
 2375 0324 6F000000 		.4byte	0x6f
 2376 0328 02       		.byte	0x2
 2377 0329 91       		.byte	0x91
 2378 032a 6F       		.sleb128 -17
 2379 032b 00       		.byte	0
 2380 032c 0C       		.uleb128 0xc
 2381 032d 01       		.byte	0x1
 2382 032e 47040000 		.4byte	.LASF39
 2383 0332 01       		.byte	0x1
 2384 0333 7802     		.2byte	0x278
 2385 0335 01       		.byte	0x1
 2386 0336 00000000 		.4byte	.LFB13
 2387 033a 1C000000 		.4byte	.LFE13
 2388 033e C0020000 		.4byte	.LLST13
 2389 0342 01       		.byte	0x1
 2390 0343 57030000 		.4byte	0x357
 2391 0347 0B       		.uleb128 0xb
 2392 0348 00000000 		.4byte	.LASF40
 2393 034c 01       		.byte	0x1
 2394 034d 7802     		.2byte	0x278
 2395 034f 7A000000 		.4byte	0x7a
 2396 0353 02       		.byte	0x2
 2397 0354 91       		.byte	0x91
 2398 0355 74       		.sleb128 -12
 2399 0356 00       		.byte	0
 2400 0357 0D       		.uleb128 0xd
 2401 0358 01       		.byte	0x1
 2402 0359 2D000000 		.4byte	.LASF45
 2403 035d 01       		.byte	0x1
 2404 035e 8C02     		.2byte	0x28c
 2405 0360 01       		.byte	0x1
 2406 0361 7A000000 		.4byte	0x7a
 2407 0365 00000000 		.4byte	.LFB14
 2408 0369 18000000 		.4byte	.LFE14
 2409 036d F8020000 		.4byte	.LLST14
 2410 0371 01       		.byte	0x1
 2411 0372 09       		.uleb128 0x9
 2412 0373 01       		.byte	0x1
 2413 0374 26030000 		.4byte	.LASF41
 2414 0378 01       		.byte	0x1
 2415 0379 A902     		.2byte	0x2a9
 2416 037b 01       		.byte	0x1
 2417 037c 00000000 		.4byte	.LFB15
 2418 0380 48000000 		.4byte	.LFE15
 2419 0384 24030000 		.4byte	.LLST15
 2420 0388 01       		.byte	0x1
ARM GAS  C:\Users\OEBN\AppData\Local\Temp\cc4YkDS7.s 			page 68


 2421 0389 AC030000 		.4byte	0x3ac
 2422 038d 0B       		.uleb128 0xb
 2423 038e 45050000 		.4byte	.LASF42
 2424 0392 01       		.byte	0x1
 2425 0393 A902     		.2byte	0x2a9
 2426 0395 7A000000 		.4byte	0x7a
 2427 0399 02       		.byte	0x2
 2428 039a 91       		.byte	0x91
 2429 039b 64       		.sleb128 -28
 2430 039c 0A       		.uleb128 0xa
 2431 039d 75050000 		.4byte	.LASF20
 2432 03a1 01       		.byte	0x1
 2433 03a2 AB02     		.2byte	0x2ab
 2434 03a4 6F000000 		.4byte	0x6f
 2435 03a8 02       		.byte	0x2
 2436 03a9 91       		.byte	0x91
 2437 03aa 6F       		.sleb128 -17
 2438 03ab 00       		.byte	0
 2439 03ac 0C       		.uleb128 0xc
 2440 03ad 01       		.byte	0x1
 2441 03ae 7A020000 		.4byte	.LASF43
 2442 03b2 01       		.byte	0x1
 2443 03b3 C602     		.2byte	0x2c6
 2444 03b5 01       		.byte	0x1
 2445 03b6 00000000 		.4byte	.LFB16
 2446 03ba 1C000000 		.4byte	.LFE16
 2447 03be 5C030000 		.4byte	.LLST16
 2448 03c2 01       		.byte	0x1
 2449 03c3 D7030000 		.4byte	0x3d7
 2450 03c7 0B       		.uleb128 0xb
 2451 03c8 0F000000 		.4byte	.LASF44
 2452 03cc 01       		.byte	0x1
 2453 03cd C602     		.2byte	0x2c6
 2454 03cf 7A000000 		.4byte	0x7a
 2455 03d3 02       		.byte	0x2
 2456 03d4 91       		.byte	0x91
 2457 03d5 74       		.sleb128 -12
 2458 03d6 00       		.byte	0
 2459 03d7 0D       		.uleb128 0xd
 2460 03d8 01       		.byte	0x1
 2461 03d9 A0040000 		.4byte	.LASF46
 2462 03dd 01       		.byte	0x1
 2463 03de DA02     		.2byte	0x2da
 2464 03e0 01       		.byte	0x1
 2465 03e1 7A000000 		.4byte	0x7a
 2466 03e5 00000000 		.4byte	.LFB17
 2467 03e9 18000000 		.4byte	.LFE17
 2468 03ed 94030000 		.4byte	.LLST17
 2469 03f1 01       		.byte	0x1
 2470 03f2 09       		.uleb128 0x9
 2471 03f3 01       		.byte	0x1
 2472 03f4 ED010000 		.4byte	.LASF47
 2473 03f8 01       		.byte	0x1
 2474 03f9 F402     		.2byte	0x2f4
 2475 03fb 01       		.byte	0x1
 2476 03fc 00000000 		.4byte	.LFB18
 2477 0400 48000000 		.4byte	.LFE18
ARM GAS  C:\Users\OEBN\AppData\Local\Temp\cc4YkDS7.s 			page 69


 2478 0404 C0030000 		.4byte	.LLST18
 2479 0408 01       		.byte	0x1
 2480 0409 2C040000 		.4byte	0x42c
 2481 040d 0B       		.uleb128 0xb
 2482 040e 91050000 		.4byte	.LASF48
 2483 0412 01       		.byte	0x1
 2484 0413 F402     		.2byte	0x2f4
 2485 0415 7A000000 		.4byte	0x7a
 2486 0419 02       		.byte	0x2
 2487 041a 91       		.byte	0x91
 2488 041b 64       		.sleb128 -28
 2489 041c 0A       		.uleb128 0xa
 2490 041d 75050000 		.4byte	.LASF20
 2491 0421 01       		.byte	0x1
 2492 0422 F602     		.2byte	0x2f6
 2493 0424 6F000000 		.4byte	0x6f
 2494 0428 02       		.byte	0x2
 2495 0429 91       		.byte	0x91
 2496 042a 6F       		.sleb128 -17
 2497 042b 00       		.byte	0
 2498 042c 0C       		.uleb128 0xc
 2499 042d 01       		.byte	0x1
 2500 042e 64000000 		.4byte	.LASF49
 2501 0432 01       		.byte	0x1
 2502 0433 0F03     		.2byte	0x30f
 2503 0435 01       		.byte	0x1
 2504 0436 00000000 		.4byte	.LFB19
 2505 043a 1C000000 		.4byte	.LFE19
 2506 043e F8030000 		.4byte	.LLST19
 2507 0442 01       		.byte	0x1
 2508 0443 57040000 		.4byte	0x457
 2509 0447 0B       		.uleb128 0xb
 2510 0448 B2050000 		.4byte	.LASF50
 2511 044c 01       		.byte	0x1
 2512 044d 0F03     		.2byte	0x30f
 2513 044f 7A000000 		.4byte	0x7a
 2514 0453 02       		.byte	0x2
 2515 0454 91       		.byte	0x91
 2516 0455 74       		.sleb128 -12
 2517 0456 00       		.byte	0
 2518 0457 0D       		.uleb128 0xd
 2519 0458 01       		.byte	0x1
 2520 0459 B2010000 		.4byte	.LASF51
 2521 045d 01       		.byte	0x1
 2522 045e 2303     		.2byte	0x323
 2523 0460 01       		.byte	0x1
 2524 0461 7A000000 		.4byte	0x7a
 2525 0465 00000000 		.4byte	.LFB20
 2526 0469 18000000 		.4byte	.LFE20
 2527 046d 30040000 		.4byte	.LLST20
 2528 0471 01       		.byte	0x1
 2529 0472 09       		.uleb128 0x9
 2530 0473 01       		.byte	0x1
 2531 0474 19020000 		.4byte	.LASF52
 2532 0478 01       		.byte	0x1
 2533 0479 3D03     		.2byte	0x33d
 2534 047b 01       		.byte	0x1
ARM GAS  C:\Users\OEBN\AppData\Local\Temp\cc4YkDS7.s 			page 70


 2535 047c 00000000 		.4byte	.LFB21
 2536 0480 48000000 		.4byte	.LFE21
 2537 0484 5C040000 		.4byte	.LLST21
 2538 0488 01       		.byte	0x1
 2539 0489 AC040000 		.4byte	0x4ac
 2540 048d 0B       		.uleb128 0xb
 2541 048e 91050000 		.4byte	.LASF48
 2542 0492 01       		.byte	0x1
 2543 0493 3D03     		.2byte	0x33d
 2544 0495 7A000000 		.4byte	0x7a
 2545 0499 02       		.byte	0x2
 2546 049a 91       		.byte	0x91
 2547 049b 64       		.sleb128 -28
 2548 049c 0A       		.uleb128 0xa
 2549 049d 75050000 		.4byte	.LASF20
 2550 04a1 01       		.byte	0x1
 2551 04a2 3F03     		.2byte	0x33f
 2552 04a4 6F000000 		.4byte	0x6f
 2553 04a8 02       		.byte	0x2
 2554 04a9 91       		.byte	0x91
 2555 04aa 6F       		.sleb128 -17
 2556 04ab 00       		.byte	0
 2557 04ac 0C       		.uleb128 0xc
 2558 04ad 01       		.byte	0x1
 2559 04ae F8020000 		.4byte	.LASF53
 2560 04b2 01       		.byte	0x1
 2561 04b3 5A03     		.2byte	0x35a
 2562 04b5 01       		.byte	0x1
 2563 04b6 00000000 		.4byte	.LFB22
 2564 04ba 1C000000 		.4byte	.LFE22
 2565 04be 94040000 		.4byte	.LLST22
 2566 04c2 01       		.byte	0x1
 2567 04c3 D7040000 		.4byte	0x4d7
 2568 04c7 0B       		.uleb128 0xb
 2569 04c8 1E030000 		.4byte	.LASF54
 2570 04cc 01       		.byte	0x1
 2571 04cd 5A03     		.2byte	0x35a
 2572 04cf 7A000000 		.4byte	0x7a
 2573 04d3 02       		.byte	0x2
 2574 04d4 91       		.byte	0x91
 2575 04d5 74       		.sleb128 -12
 2576 04d6 00       		.byte	0
 2577 04d7 0D       		.uleb128 0xd
 2578 04d8 01       		.byte	0x1
 2579 04d9 9C050000 		.4byte	.LASF55
 2580 04dd 01       		.byte	0x1
 2581 04de 8403     		.2byte	0x384
 2582 04e0 01       		.byte	0x1
 2583 04e1 7A000000 		.4byte	0x7a
 2584 04e5 00000000 		.4byte	.LFB23
 2585 04e9 18000000 		.4byte	.LFE23
 2586 04ed CC040000 		.4byte	.LLST23
 2587 04f1 01       		.byte	0x1
 2588 04f2 0C       		.uleb128 0xc
 2589 04f3 01       		.byte	0x1
 2590 04f4 C6040000 		.4byte	.LASF56
 2591 04f8 01       		.byte	0x1
ARM GAS  C:\Users\OEBN\AppData\Local\Temp\cc4YkDS7.s 			page 71


 2592 04f9 B003     		.2byte	0x3b0
 2593 04fb 01       		.byte	0x1
 2594 04fc 00000000 		.4byte	.LFB24
 2595 0500 1C000000 		.4byte	.LFE24
 2596 0504 F8040000 		.4byte	.LLST24
 2597 0508 01       		.byte	0x1
 2598 0509 1D050000 		.4byte	0x51d
 2599 050d 0B       		.uleb128 0xb
 2600 050e BB000000 		.4byte	.LASF57
 2601 0512 01       		.byte	0x1
 2602 0513 B003     		.2byte	0x3b0
 2603 0515 7A000000 		.4byte	0x7a
 2604 0519 02       		.byte	0x2
 2605 051a 91       		.byte	0x91
 2606 051b 74       		.sleb128 -12
 2607 051c 00       		.byte	0
 2608 051d 0D       		.uleb128 0xd
 2609 051e 01       		.byte	0x1
 2610 051f 7D040000 		.4byte	.LASF58
 2611 0523 01       		.byte	0x1
 2612 0524 DA03     		.2byte	0x3da
 2613 0526 01       		.byte	0x1
 2614 0527 7A000000 		.4byte	0x7a
 2615 052b 00000000 		.4byte	.LFB25
 2616 052f 18000000 		.4byte	.LFE25
 2617 0533 30050000 		.4byte	.LLST25
 2618 0537 01       		.byte	0x1
 2619 0538 0D       		.uleb128 0xd
 2620 0539 01       		.byte	0x1
 2621 053a 8B030000 		.4byte	.LASF59
 2622 053e 01       		.byte	0x1
 2623 053f 0604     		.2byte	0x406
 2624 0541 01       		.byte	0x1
 2625 0542 7A000000 		.4byte	0x7a
 2626 0546 00000000 		.4byte	.LFB26
 2627 054a 18000000 		.4byte	.LFE26
 2628 054e 5C050000 		.4byte	.LLST26
 2629 0552 01       		.byte	0x1
 2630 0553 0D       		.uleb128 0xd
 2631 0554 01       		.byte	0x1
 2632 0555 18010000 		.4byte	.LASF60
 2633 0559 01       		.byte	0x1
 2634 055a 1B04     		.2byte	0x41b
 2635 055c 01       		.byte	0x1
 2636 055d 7A000000 		.4byte	0x7a
 2637 0561 00000000 		.4byte	.LFB27
 2638 0565 18000000 		.4byte	.LFE27
 2639 0569 88050000 		.4byte	.LLST27
 2640 056d 01       		.byte	0x1
 2641 056e 09       		.uleb128 0x9
 2642 056f 01       		.byte	0x1
 2643 0570 CC000000 		.4byte	.LASF61
 2644 0574 01       		.byte	0x1
 2645 0575 3604     		.2byte	0x436
 2646 0577 01       		.byte	0x1
 2647 0578 00000000 		.4byte	.LFB28
 2648 057c 44000000 		.4byte	.LFE28
ARM GAS  C:\Users\OEBN\AppData\Local\Temp\cc4YkDS7.s 			page 72


 2649 0580 B4050000 		.4byte	.LLST28
 2650 0584 01       		.byte	0x1
 2651 0585 A8050000 		.4byte	0x5a8
 2652 0589 0B       		.uleb128 0xb
 2653 058a 0C010000 		.4byte	.LASF62
 2654 058e 01       		.byte	0x1
 2655 058f 3604     		.2byte	0x436
 2656 0591 7A000000 		.4byte	0x7a
 2657 0595 02       		.byte	0x2
 2658 0596 91       		.byte	0x91
 2659 0597 64       		.sleb128 -28
 2660 0598 0A       		.uleb128 0xa
 2661 0599 75050000 		.4byte	.LASF20
 2662 059d 01       		.byte	0x1
 2663 059e 3804     		.2byte	0x438
 2664 05a0 6F000000 		.4byte	0x6f
 2665 05a4 02       		.byte	0x2
 2666 05a5 91       		.byte	0x91
 2667 05a6 6F       		.sleb128 -17
 2668 05a7 00       		.byte	0
 2669 05a8 09       		.uleb128 0x9
 2670 05a9 01       		.byte	0x1
 2671 05aa 73030000 		.4byte	.LASF63
 2672 05ae 01       		.byte	0x1
 2673 05af 5704     		.2byte	0x457
 2674 05b1 01       		.byte	0x1
 2675 05b2 00000000 		.4byte	.LFB29
 2676 05b6 44000000 		.4byte	.LFE29
 2677 05ba EC050000 		.4byte	.LLST29
 2678 05be 01       		.byte	0x1
 2679 05bf E2050000 		.4byte	0x5e2
 2680 05c3 0B       		.uleb128 0xb
 2681 05c4 0C010000 		.4byte	.LASF62
 2682 05c8 01       		.byte	0x1
 2683 05c9 5704     		.2byte	0x457
 2684 05cb 7A000000 		.4byte	0x7a
 2685 05cf 02       		.byte	0x2
 2686 05d0 91       		.byte	0x91
 2687 05d1 64       		.sleb128 -28
 2688 05d2 0A       		.uleb128 0xa
 2689 05d3 75050000 		.4byte	.LASF20
 2690 05d7 01       		.byte	0x1
 2691 05d8 5904     		.2byte	0x459
 2692 05da 6F000000 		.4byte	0x6f
 2693 05de 02       		.byte	0x2
 2694 05df 91       		.byte	0x91
 2695 05e0 6F       		.sleb128 -17
 2696 05e1 00       		.byte	0
 2697 05e2 09       		.uleb128 0x9
 2698 05e3 01       		.byte	0x1
 2699 05e4 D8020000 		.4byte	.LASF64
 2700 05e8 01       		.byte	0x1
 2701 05e9 7804     		.2byte	0x478
 2702 05eb 01       		.byte	0x1
 2703 05ec 00000000 		.4byte	.LFB30
 2704 05f0 48000000 		.4byte	.LFE30
 2705 05f4 24060000 		.4byte	.LLST30
ARM GAS  C:\Users\OEBN\AppData\Local\Temp\cc4YkDS7.s 			page 73


 2706 05f8 01       		.byte	0x1
 2707 05f9 1C060000 		.4byte	0x61c
 2708 05fd 0B       		.uleb128 0xb
 2709 05fe 0C010000 		.4byte	.LASF62
 2710 0602 01       		.byte	0x1
 2711 0603 7804     		.2byte	0x478
 2712 0605 7A000000 		.4byte	0x7a
 2713 0609 02       		.byte	0x2
 2714 060a 91       		.byte	0x91
 2715 060b 64       		.sleb128 -28
 2716 060c 0A       		.uleb128 0xa
 2717 060d 75050000 		.4byte	.LASF20
 2718 0611 01       		.byte	0x1
 2719 0612 7A04     		.2byte	0x47a
 2720 0614 6F000000 		.4byte	0x6f
 2721 0618 02       		.byte	0x2
 2722 0619 91       		.byte	0x91
 2723 061a 6F       		.sleb128 -17
 2724 061b 00       		.byte	0
 2725 061c 09       		.uleb128 0x9
 2726 061d 01       		.byte	0x1
 2727 061e 41010000 		.4byte	.LASF65
 2728 0622 01       		.byte	0x1
 2729 0623 9804     		.2byte	0x498
 2730 0625 01       		.byte	0x1
 2731 0626 00000000 		.4byte	.LFB31
 2732 062a 44000000 		.4byte	.LFE31
 2733 062e 5C060000 		.4byte	.LLST31
 2734 0632 01       		.byte	0x1
 2735 0633 56060000 		.4byte	0x656
 2736 0637 0B       		.uleb128 0xb
 2737 0638 0C010000 		.4byte	.LASF62
 2738 063c 01       		.byte	0x1
 2739 063d 9804     		.2byte	0x498
 2740 063f 7A000000 		.4byte	0x7a
 2741 0643 02       		.byte	0x2
 2742 0644 91       		.byte	0x91
 2743 0645 64       		.sleb128 -28
 2744 0646 0A       		.uleb128 0xa
 2745 0647 75050000 		.4byte	.LASF20
 2746 064b 01       		.byte	0x1
 2747 064c 9A04     		.2byte	0x49a
 2748 064e 6F000000 		.4byte	0x6f
 2749 0652 02       		.byte	0x2
 2750 0653 91       		.byte	0x91
 2751 0654 6F       		.sleb128 -17
 2752 0655 00       		.byte	0
 2753 0656 09       		.uleb128 0x9
 2754 0657 01       		.byte	0x1
 2755 0658 46020000 		.4byte	.LASF66
 2756 065c 01       		.byte	0x1
 2757 065d B904     		.2byte	0x4b9
 2758 065f 01       		.byte	0x1
 2759 0660 00000000 		.4byte	.LFB32
 2760 0664 44000000 		.4byte	.LFE32
 2761 0668 94060000 		.4byte	.LLST32
 2762 066c 01       		.byte	0x1
ARM GAS  C:\Users\OEBN\AppData\Local\Temp\cc4YkDS7.s 			page 74


 2763 066d 90060000 		.4byte	0x690
 2764 0671 0B       		.uleb128 0xb
 2765 0672 0C010000 		.4byte	.LASF62
 2766 0676 01       		.byte	0x1
 2767 0677 B904     		.2byte	0x4b9
 2768 0679 7A000000 		.4byte	0x7a
 2769 067d 02       		.byte	0x2
 2770 067e 91       		.byte	0x91
 2771 067f 64       		.sleb128 -28
 2772 0680 0A       		.uleb128 0xa
 2773 0681 75050000 		.4byte	.LASF20
 2774 0685 01       		.byte	0x1
 2775 0686 BB04     		.2byte	0x4bb
 2776 0688 6F000000 		.4byte	0x6f
 2777 068c 02       		.byte	0x2
 2778 068d 91       		.byte	0x91
 2779 068e 6F       		.sleb128 -17
 2780 068f 00       		.byte	0
 2781 0690 09       		.uleb128 0x9
 2782 0691 01       		.byte	0x1
 2783 0692 5A030000 		.4byte	.LASF67
 2784 0696 01       		.byte	0x1
 2785 0697 E104     		.2byte	0x4e1
 2786 0699 01       		.byte	0x1
 2787 069a 00000000 		.4byte	.LFB33
 2788 069e 3C000000 		.4byte	.LFE33
 2789 06a2 CC060000 		.4byte	.LLST33
 2790 06a6 01       		.byte	0x1
 2791 06a7 D9060000 		.4byte	0x6d9
 2792 06ab 0B       		.uleb128 0xb
 2793 06ac 86050000 		.4byte	.LASF38
 2794 06b0 01       		.byte	0x1
 2795 06b1 E104     		.2byte	0x4e1
 2796 06b3 7A000000 		.4byte	0x7a
 2797 06b7 02       		.byte	0x2
 2798 06b8 91       		.byte	0x91
 2799 06b9 64       		.sleb128 -28
 2800 06ba 0B       		.uleb128 0xb
 2801 06bb CA010000 		.4byte	.LASF68
 2802 06bf 01       		.byte	0x1
 2803 06c0 E104     		.2byte	0x4e1
 2804 06c2 7A000000 		.4byte	0x7a
 2805 06c6 02       		.byte	0x2
 2806 06c7 91       		.byte	0x91
 2807 06c8 60       		.sleb128 -32
 2808 06c9 0A       		.uleb128 0xa
 2809 06ca 75050000 		.4byte	.LASF20
 2810 06ce 01       		.byte	0x1
 2811 06cf E304     		.2byte	0x4e3
 2812 06d1 6F000000 		.4byte	0x6f
 2813 06d5 02       		.byte	0x2
 2814 06d6 91       		.byte	0x91
 2815 06d7 6F       		.sleb128 -17
 2816 06d8 00       		.byte	0
 2817 06d9 0D       		.uleb128 0xd
 2818 06da 01       		.byte	0x1
 2819 06db A9020000 		.4byte	.LASF69
ARM GAS  C:\Users\OEBN\AppData\Local\Temp\cc4YkDS7.s 			page 75


 2820 06df 01       		.byte	0x1
 2821 06e0 FE04     		.2byte	0x4fe
 2822 06e2 01       		.byte	0x1
 2823 06e3 7A000000 		.4byte	0x7a
 2824 06e7 00000000 		.4byte	.LFB34
 2825 06eb 20000000 		.4byte	.LFE34
 2826 06ef 04070000 		.4byte	.LLST34
 2827 06f3 01       		.byte	0x1
 2828 06f4 0C       		.uleb128 0xc
 2829 06f5 01       		.byte	0x1
 2830 06f6 3F030000 		.4byte	.LASF70
 2831 06fa 01       		.byte	0x1
 2832 06fb 1705     		.2byte	0x517
 2833 06fd 01       		.byte	0x1
 2834 06fe 00000000 		.4byte	.LFB35
 2835 0702 18000000 		.4byte	.LFE35
 2836 0706 30070000 		.4byte	.LLST35
 2837 070a 01       		.byte	0x1
 2838 070b 1F070000 		.4byte	0x71f
 2839 070f 0B       		.uleb128 0xb
 2840 0710 E0040000 		.4byte	.LASF71
 2841 0714 01       		.byte	0x1
 2842 0715 1705     		.2byte	0x517
 2843 0717 7A000000 		.4byte	0x7a
 2844 071b 02       		.byte	0x2
 2845 071c 91       		.byte	0x91
 2846 071d 74       		.sleb128 -12
 2847 071e 00       		.byte	0
 2848 071f 0D       		.uleb128 0xd
 2849 0720 01       		.byte	0x1
 2850 0721 7D000000 		.4byte	.LASF72
 2851 0725 01       		.byte	0x1
 2852 0726 2E05     		.2byte	0x52e
 2853 0728 01       		.byte	0x1
 2854 0729 7A000000 		.4byte	0x7a
 2855 072d 00000000 		.4byte	.LFB36
 2856 0731 14000000 		.4byte	.LFE36
 2857 0735 68070000 		.4byte	.LLST36
 2858 0739 01       		.byte	0x1
 2859 073a 0D       		.uleb128 0xd
 2860 073b 01       		.byte	0x1
 2861 073c EE040000 		.4byte	.LASF73
 2862 0740 01       		.byte	0x1
 2863 0741 4505     		.2byte	0x545
 2864 0743 01       		.byte	0x1
 2865 0744 7A000000 		.4byte	0x7a
 2866 0748 00000000 		.4byte	.LFB37
 2867 074c 14000000 		.4byte	.LFE37
 2868 0750 94070000 		.4byte	.LLST37
 2869 0754 01       		.byte	0x1
 2870 0755 0C       		.uleb128 0xc
 2871 0756 01       		.byte	0x1
 2872 0757 F3000000 		.4byte	.LASF74
 2873 075b 01       		.byte	0x1
 2874 075c 5C05     		.2byte	0x55c
 2875 075e 01       		.byte	0x1
 2876 075f 00000000 		.4byte	.LFB38
ARM GAS  C:\Users\OEBN\AppData\Local\Temp\cc4YkDS7.s 			page 76


 2877 0763 18000000 		.4byte	.LFE38
 2878 0767 C0070000 		.4byte	.LLST38
 2879 076b 01       		.byte	0x1
 2880 076c 80070000 		.4byte	0x780
 2881 0770 0B       		.uleb128 0xb
 2882 0771 E0040000 		.4byte	.LASF71
 2883 0775 01       		.byte	0x1
 2884 0776 5C05     		.2byte	0x55c
 2885 0778 7A000000 		.4byte	0x7a
 2886 077c 02       		.byte	0x2
 2887 077d 91       		.byte	0x91
 2888 077e 74       		.sleb128 -12
 2889 077f 00       		.byte	0
 2890 0780 0C       		.uleb128 0xc
 2891 0781 01       		.byte	0x1
 2892 0782 D0030000 		.4byte	.LASF75
 2893 0786 01       		.byte	0x1
 2894 0787 7305     		.2byte	0x573
 2895 0789 01       		.byte	0x1
 2896 078a 00000000 		.4byte	.LFB39
 2897 078e 18000000 		.4byte	.LFE39
 2898 0792 F8070000 		.4byte	.LLST39
 2899 0796 01       		.byte	0x1
 2900 0797 AB070000 		.4byte	0x7ab
 2901 079b 0B       		.uleb128 0xb
 2902 079c E0040000 		.4byte	.LASF71
 2903 07a0 01       		.byte	0x1
 2904 07a1 7305     		.2byte	0x573
 2905 07a3 7A000000 		.4byte	0x7a
 2906 07a7 02       		.byte	0x2
 2907 07a8 91       		.byte	0x91
 2908 07a9 74       		.sleb128 -12
 2909 07aa 00       		.byte	0
 2910 07ab 0E       		.uleb128 0xe
 2911 07ac A9000000 		.4byte	.LASF79
 2912 07b0 01       		.byte	0x1
 2913 07b1 16       		.byte	0x16
 2914 07b2 6F000000 		.4byte	0x6f
 2915 07b6 01       		.byte	0x1
 2916 07b7 05       		.byte	0x5
 2917 07b8 03       		.byte	0x3
 2918 07b9 00000000 		.4byte	PWM_Timer_initVar
 2919 07bd 00       		.byte	0
 2920              		.section	.debug_abbrev,"",%progbits
 2921              	.Ldebug_abbrev0:
 2922 0000 01       		.uleb128 0x1
 2923 0001 11       		.uleb128 0x11
 2924 0002 01       		.byte	0x1
 2925 0003 25       		.uleb128 0x25
 2926 0004 0E       		.uleb128 0xe
 2927 0005 13       		.uleb128 0x13
 2928 0006 0B       		.uleb128 0xb
 2929 0007 03       		.uleb128 0x3
 2930 0008 0E       		.uleb128 0xe
 2931 0009 1B       		.uleb128 0x1b
 2932 000a 0E       		.uleb128 0xe
 2933 000b 55       		.uleb128 0x55
ARM GAS  C:\Users\OEBN\AppData\Local\Temp\cc4YkDS7.s 			page 77


 2934 000c 06       		.uleb128 0x6
 2935 000d 11       		.uleb128 0x11
 2936 000e 01       		.uleb128 0x1
 2937 000f 52       		.uleb128 0x52
 2938 0010 01       		.uleb128 0x1
 2939 0011 10       		.uleb128 0x10
 2940 0012 06       		.uleb128 0x6
 2941 0013 00       		.byte	0
 2942 0014 00       		.byte	0
 2943 0015 02       		.uleb128 0x2
 2944 0016 24       		.uleb128 0x24
 2945 0017 00       		.byte	0
 2946 0018 0B       		.uleb128 0xb
 2947 0019 0B       		.uleb128 0xb
 2948 001a 3E       		.uleb128 0x3e
 2949 001b 0B       		.uleb128 0xb
 2950 001c 03       		.uleb128 0x3
 2951 001d 0E       		.uleb128 0xe
 2952 001e 00       		.byte	0
 2953 001f 00       		.byte	0
 2954 0020 03       		.uleb128 0x3
 2955 0021 24       		.uleb128 0x24
 2956 0022 00       		.byte	0
 2957 0023 0B       		.uleb128 0xb
 2958 0024 0B       		.uleb128 0xb
 2959 0025 3E       		.uleb128 0x3e
 2960 0026 0B       		.uleb128 0xb
 2961 0027 03       		.uleb128 0x3
 2962 0028 08       		.uleb128 0x8
 2963 0029 00       		.byte	0
 2964 002a 00       		.byte	0
 2965 002b 04       		.uleb128 0x4
 2966 002c 16       		.uleb128 0x16
 2967 002d 00       		.byte	0
 2968 002e 03       		.uleb128 0x3
 2969 002f 0E       		.uleb128 0xe
 2970 0030 3A       		.uleb128 0x3a
 2971 0031 0B       		.uleb128 0xb
 2972 0032 3B       		.uleb128 0x3b
 2973 0033 0B       		.uleb128 0xb
 2974 0034 49       		.uleb128 0x49
 2975 0035 13       		.uleb128 0x13
 2976 0036 00       		.byte	0
 2977 0037 00       		.byte	0
 2978 0038 05       		.uleb128 0x5
 2979 0039 35       		.uleb128 0x35
 2980 003a 00       		.byte	0
 2981 003b 49       		.uleb128 0x49
 2982 003c 13       		.uleb128 0x13
 2983 003d 00       		.byte	0
 2984 003e 00       		.byte	0
 2985 003f 06       		.uleb128 0x6
 2986 0040 2E       		.uleb128 0x2e
 2987 0041 00       		.byte	0
 2988 0042 3F       		.uleb128 0x3f
 2989 0043 0C       		.uleb128 0xc
 2990 0044 03       		.uleb128 0x3
ARM GAS  C:\Users\OEBN\AppData\Local\Temp\cc4YkDS7.s 			page 78


 2991 0045 0E       		.uleb128 0xe
 2992 0046 3A       		.uleb128 0x3a
 2993 0047 0B       		.uleb128 0xb
 2994 0048 3B       		.uleb128 0x3b
 2995 0049 0B       		.uleb128 0xb
 2996 004a 27       		.uleb128 0x27
 2997 004b 0C       		.uleb128 0xc
 2998 004c 11       		.uleb128 0x11
 2999 004d 01       		.uleb128 0x1
 3000 004e 12       		.uleb128 0x12
 3001 004f 01       		.uleb128 0x1
 3002 0050 40       		.uleb128 0x40
 3003 0051 06       		.uleb128 0x6
 3004 0052 9642     		.uleb128 0x2116
 3005 0054 0C       		.uleb128 0xc
 3006 0055 00       		.byte	0
 3007 0056 00       		.byte	0
 3008 0057 07       		.uleb128 0x7
 3009 0058 2E       		.uleb128 0x2e
 3010 0059 01       		.byte	0x1
 3011 005a 3F       		.uleb128 0x3f
 3012 005b 0C       		.uleb128 0xc
 3013 005c 03       		.uleb128 0x3
 3014 005d 0E       		.uleb128 0xe
 3015 005e 3A       		.uleb128 0x3a
 3016 005f 0B       		.uleb128 0xb
 3017 0060 3B       		.uleb128 0x3b
 3018 0061 0B       		.uleb128 0xb
 3019 0062 27       		.uleb128 0x27
 3020 0063 0C       		.uleb128 0xc
 3021 0064 11       		.uleb128 0x11
 3022 0065 01       		.uleb128 0x1
 3023 0066 12       		.uleb128 0x12
 3024 0067 01       		.uleb128 0x1
 3025 0068 40       		.uleb128 0x40
 3026 0069 06       		.uleb128 0x6
 3027 006a 9642     		.uleb128 0x2116
 3028 006c 0C       		.uleb128 0xc
 3029 006d 01       		.uleb128 0x1
 3030 006e 13       		.uleb128 0x13
 3031 006f 00       		.byte	0
 3032 0070 00       		.byte	0
 3033 0071 08       		.uleb128 0x8
 3034 0072 34       		.uleb128 0x34
 3035 0073 00       		.byte	0
 3036 0074 03       		.uleb128 0x3
 3037 0075 0E       		.uleb128 0xe
 3038 0076 3A       		.uleb128 0x3a
 3039 0077 0B       		.uleb128 0xb
 3040 0078 3B       		.uleb128 0x3b
 3041 0079 0B       		.uleb128 0xb
 3042 007a 49       		.uleb128 0x49
 3043 007b 13       		.uleb128 0x13
 3044 007c 02       		.uleb128 0x2
 3045 007d 0A       		.uleb128 0xa
 3046 007e 00       		.byte	0
 3047 007f 00       		.byte	0
ARM GAS  C:\Users\OEBN\AppData\Local\Temp\cc4YkDS7.s 			page 79


 3048 0080 09       		.uleb128 0x9
 3049 0081 2E       		.uleb128 0x2e
 3050 0082 01       		.byte	0x1
 3051 0083 3F       		.uleb128 0x3f
 3052 0084 0C       		.uleb128 0xc
 3053 0085 03       		.uleb128 0x3
 3054 0086 0E       		.uleb128 0xe
 3055 0087 3A       		.uleb128 0x3a
 3056 0088 0B       		.uleb128 0xb
 3057 0089 3B       		.uleb128 0x3b
 3058 008a 05       		.uleb128 0x5
 3059 008b 27       		.uleb128 0x27
 3060 008c 0C       		.uleb128 0xc
 3061 008d 11       		.uleb128 0x11
 3062 008e 01       		.uleb128 0x1
 3063 008f 12       		.uleb128 0x12
 3064 0090 01       		.uleb128 0x1
 3065 0091 40       		.uleb128 0x40
 3066 0092 06       		.uleb128 0x6
 3067 0093 9642     		.uleb128 0x2116
 3068 0095 0C       		.uleb128 0xc
 3069 0096 01       		.uleb128 0x1
 3070 0097 13       		.uleb128 0x13
 3071 0098 00       		.byte	0
 3072 0099 00       		.byte	0
 3073 009a 0A       		.uleb128 0xa
 3074 009b 34       		.uleb128 0x34
 3075 009c 00       		.byte	0
 3076 009d 03       		.uleb128 0x3
 3077 009e 0E       		.uleb128 0xe
 3078 009f 3A       		.uleb128 0x3a
 3079 00a0 0B       		.uleb128 0xb
 3080 00a1 3B       		.uleb128 0x3b
 3081 00a2 05       		.uleb128 0x5
 3082 00a3 49       		.uleb128 0x49
 3083 00a4 13       		.uleb128 0x13
 3084 00a5 02       		.uleb128 0x2
 3085 00a6 0A       		.uleb128 0xa
 3086 00a7 00       		.byte	0
 3087 00a8 00       		.byte	0
 3088 00a9 0B       		.uleb128 0xb
 3089 00aa 05       		.uleb128 0x5
 3090 00ab 00       		.byte	0
 3091 00ac 03       		.uleb128 0x3
 3092 00ad 0E       		.uleb128 0xe
 3093 00ae 3A       		.uleb128 0x3a
 3094 00af 0B       		.uleb128 0xb
 3095 00b0 3B       		.uleb128 0x3b
 3096 00b1 05       		.uleb128 0x5
 3097 00b2 49       		.uleb128 0x49
 3098 00b3 13       		.uleb128 0x13
 3099 00b4 02       		.uleb128 0x2
 3100 00b5 0A       		.uleb128 0xa
 3101 00b6 00       		.byte	0
 3102 00b7 00       		.byte	0
 3103 00b8 0C       		.uleb128 0xc
 3104 00b9 2E       		.uleb128 0x2e
ARM GAS  C:\Users\OEBN\AppData\Local\Temp\cc4YkDS7.s 			page 80


 3105 00ba 01       		.byte	0x1
 3106 00bb 3F       		.uleb128 0x3f
 3107 00bc 0C       		.uleb128 0xc
 3108 00bd 03       		.uleb128 0x3
 3109 00be 0E       		.uleb128 0xe
 3110 00bf 3A       		.uleb128 0x3a
 3111 00c0 0B       		.uleb128 0xb
 3112 00c1 3B       		.uleb128 0x3b
 3113 00c2 05       		.uleb128 0x5
 3114 00c3 27       		.uleb128 0x27
 3115 00c4 0C       		.uleb128 0xc
 3116 00c5 11       		.uleb128 0x11
 3117 00c6 01       		.uleb128 0x1
 3118 00c7 12       		.uleb128 0x12
 3119 00c8 01       		.uleb128 0x1
 3120 00c9 40       		.uleb128 0x40
 3121 00ca 06       		.uleb128 0x6
 3122 00cb 9742     		.uleb128 0x2117
 3123 00cd 0C       		.uleb128 0xc
 3124 00ce 01       		.uleb128 0x1
 3125 00cf 13       		.uleb128 0x13
 3126 00d0 00       		.byte	0
 3127 00d1 00       		.byte	0
 3128 00d2 0D       		.uleb128 0xd
 3129 00d3 2E       		.uleb128 0x2e
 3130 00d4 00       		.byte	0
 3131 00d5 3F       		.uleb128 0x3f
 3132 00d6 0C       		.uleb128 0xc
 3133 00d7 03       		.uleb128 0x3
 3134 00d8 0E       		.uleb128 0xe
 3135 00d9 3A       		.uleb128 0x3a
 3136 00da 0B       		.uleb128 0xb
 3137 00db 3B       		.uleb128 0x3b
 3138 00dc 05       		.uleb128 0x5
 3139 00dd 27       		.uleb128 0x27
 3140 00de 0C       		.uleb128 0xc
 3141 00df 49       		.uleb128 0x49
 3142 00e0 13       		.uleb128 0x13
 3143 00e1 11       		.uleb128 0x11
 3144 00e2 01       		.uleb128 0x1
 3145 00e3 12       		.uleb128 0x12
 3146 00e4 01       		.uleb128 0x1
 3147 00e5 40       		.uleb128 0x40
 3148 00e6 06       		.uleb128 0x6
 3149 00e7 9742     		.uleb128 0x2117
 3150 00e9 0C       		.uleb128 0xc
 3151 00ea 00       		.byte	0
 3152 00eb 00       		.byte	0
 3153 00ec 0E       		.uleb128 0xe
 3154 00ed 34       		.uleb128 0x34
 3155 00ee 00       		.byte	0
 3156 00ef 03       		.uleb128 0x3
 3157 00f0 0E       		.uleb128 0xe
 3158 00f1 3A       		.uleb128 0x3a
 3159 00f2 0B       		.uleb128 0xb
 3160 00f3 3B       		.uleb128 0x3b
 3161 00f4 0B       		.uleb128 0xb
ARM GAS  C:\Users\OEBN\AppData\Local\Temp\cc4YkDS7.s 			page 81


 3162 00f5 49       		.uleb128 0x49
 3163 00f6 13       		.uleb128 0x13
 3164 00f7 3F       		.uleb128 0x3f
 3165 00f8 0C       		.uleb128 0xc
 3166 00f9 02       		.uleb128 0x2
 3167 00fa 0A       		.uleb128 0xa
 3168 00fb 00       		.byte	0
 3169 00fc 00       		.byte	0
 3170 00fd 00       		.byte	0
 3171              		.section	.debug_loc,"",%progbits
 3172              	.Ldebug_loc0:
 3173              	.LLST0:
 3174 0000 00000000 		.4byte	.LFB0
 3175 0004 02000000 		.4byte	.LCFI0
 3176 0008 0200     		.2byte	0x2
 3177 000a 7D       		.byte	0x7d
 3178 000b 00       		.sleb128 0
 3179 000c 02000000 		.4byte	.LCFI0
 3180 0010 04000000 		.4byte	.LCFI1
 3181 0014 0200     		.2byte	0x2
 3182 0016 7D       		.byte	0x7d
 3183 0017 08       		.sleb128 8
 3184 0018 04000000 		.4byte	.LCFI1
 3185 001c 2C000000 		.4byte	.LFE0
 3186 0020 0200     		.2byte	0x2
 3187 0022 77       		.byte	0x77
 3188 0023 08       		.sleb128 8
 3189 0024 00000000 		.4byte	0
 3190 0028 00000000 		.4byte	0
 3191              	.LLST1:
 3192 002c 00000000 		.4byte	.LFB1
 3193 0030 02000000 		.4byte	.LCFI2
 3194 0034 0200     		.2byte	0x2
 3195 0036 7D       		.byte	0x7d
 3196 0037 00       		.sleb128 0
 3197 0038 02000000 		.4byte	.LCFI2
 3198 003c 04000000 		.4byte	.LCFI3
 3199 0040 0200     		.2byte	0x2
 3200 0042 7D       		.byte	0x7d
 3201 0043 0C       		.sleb128 12
 3202 0044 04000000 		.4byte	.LCFI3
 3203 0048 06000000 		.4byte	.LCFI4
 3204 004c 0200     		.2byte	0x2
 3205 004e 7D       		.byte	0x7d
 3206 004f 18       		.sleb128 24
 3207 0050 06000000 		.4byte	.LCFI4
 3208 0054 38000000 		.4byte	.LFE1
 3209 0058 0200     		.2byte	0x2
 3210 005a 77       		.byte	0x77
 3211 005b 18       		.sleb128 24
 3212 005c 00000000 		.4byte	0
 3213 0060 00000000 		.4byte	0
 3214              	.LLST2:
 3215 0064 00000000 		.4byte	.LFB2
 3216 0068 02000000 		.4byte	.LCFI5
 3217 006c 0200     		.2byte	0x2
 3218 006e 7D       		.byte	0x7d
ARM GAS  C:\Users\OEBN\AppData\Local\Temp\cc4YkDS7.s 			page 82


 3219 006f 00       		.sleb128 0
 3220 0070 02000000 		.4byte	.LCFI5
 3221 0074 04000000 		.4byte	.LCFI6
 3222 0078 0200     		.2byte	0x2
 3223 007a 7D       		.byte	0x7d
 3224 007b 08       		.sleb128 8
 3225 007c 04000000 		.4byte	.LCFI6
 3226 0080 24000000 		.4byte	.LFE2
 3227 0084 0200     		.2byte	0x2
 3228 0086 77       		.byte	0x77
 3229 0087 08       		.sleb128 8
 3230 0088 00000000 		.4byte	0
 3231 008c 00000000 		.4byte	0
 3232              	.LLST3:
 3233 0090 00000000 		.4byte	.LFB3
 3234 0094 02000000 		.4byte	.LCFI7
 3235 0098 0200     		.2byte	0x2
 3236 009a 7D       		.byte	0x7d
 3237 009b 00       		.sleb128 0
 3238 009c 02000000 		.4byte	.LCFI7
 3239 00a0 04000000 		.4byte	.LCFI8
 3240 00a4 0200     		.2byte	0x2
 3241 00a6 7D       		.byte	0x7d
 3242 00a7 0C       		.sleb128 12
 3243 00a8 04000000 		.4byte	.LCFI8
 3244 00ac 06000000 		.4byte	.LCFI9
 3245 00b0 0200     		.2byte	0x2
 3246 00b2 7D       		.byte	0x7d
 3247 00b3 18       		.sleb128 24
 3248 00b4 06000000 		.4byte	.LCFI9
 3249 00b8 30000000 		.4byte	.LFE3
 3250 00bc 0200     		.2byte	0x2
 3251 00be 77       		.byte	0x77
 3252 00bf 18       		.sleb128 24
 3253 00c0 00000000 		.4byte	0
 3254 00c4 00000000 		.4byte	0
 3255              	.LLST4:
 3256 00c8 00000000 		.4byte	.LFB4
 3257 00cc 02000000 		.4byte	.LCFI10
 3258 00d0 0200     		.2byte	0x2
 3259 00d2 7D       		.byte	0x7d
 3260 00d3 00       		.sleb128 0
 3261 00d4 02000000 		.4byte	.LCFI10
 3262 00d8 04000000 		.4byte	.LCFI11
 3263 00dc 0200     		.2byte	0x2
 3264 00de 7D       		.byte	0x7d
 3265 00df 0C       		.sleb128 12
 3266 00e0 04000000 		.4byte	.LCFI11
 3267 00e4 06000000 		.4byte	.LCFI12
 3268 00e8 0200     		.2byte	0x2
 3269 00ea 7D       		.byte	0x7d
 3270 00eb 20       		.sleb128 32
 3271 00ec 06000000 		.4byte	.LCFI12
 3272 00f0 48000000 		.4byte	.LFE4
 3273 00f4 0200     		.2byte	0x2
 3274 00f6 77       		.byte	0x77
 3275 00f7 20       		.sleb128 32
ARM GAS  C:\Users\OEBN\AppData\Local\Temp\cc4YkDS7.s 			page 83


 3276 00f8 00000000 		.4byte	0
 3277 00fc 00000000 		.4byte	0
 3278              	.LLST5:
 3279 0100 00000000 		.4byte	.LFB5
 3280 0104 02000000 		.4byte	.LCFI13
 3281 0108 0200     		.2byte	0x2
 3282 010a 7D       		.byte	0x7d
 3283 010b 00       		.sleb128 0
 3284 010c 02000000 		.4byte	.LCFI13
 3285 0110 04000000 		.4byte	.LCFI14
 3286 0114 0200     		.2byte	0x2
 3287 0116 7D       		.byte	0x7d
 3288 0117 0C       		.sleb128 12
 3289 0118 04000000 		.4byte	.LCFI14
 3290 011c 06000000 		.4byte	.LCFI15
 3291 0120 0200     		.2byte	0x2
 3292 0122 7D       		.byte	0x7d
 3293 0123 20       		.sleb128 32
 3294 0124 06000000 		.4byte	.LCFI15
 3295 0128 48000000 		.4byte	.LFE5
 3296 012c 0200     		.2byte	0x2
 3297 012e 77       		.byte	0x77
 3298 012f 20       		.sleb128 32
 3299 0130 00000000 		.4byte	0
 3300 0134 00000000 		.4byte	0
 3301              	.LLST6:
 3302 0138 00000000 		.4byte	.LFB6
 3303 013c 02000000 		.4byte	.LCFI16
 3304 0140 0200     		.2byte	0x2
 3305 0142 7D       		.byte	0x7d
 3306 0143 00       		.sleb128 0
 3307 0144 02000000 		.4byte	.LCFI16
 3308 0148 04000000 		.4byte	.LCFI17
 3309 014c 0200     		.2byte	0x2
 3310 014e 7D       		.byte	0x7d
 3311 014f 0C       		.sleb128 12
 3312 0150 04000000 		.4byte	.LCFI17
 3313 0154 06000000 		.4byte	.LCFI18
 3314 0158 0200     		.2byte	0x2
 3315 015a 7D       		.byte	0x7d
 3316 015b 20       		.sleb128 32
 3317 015c 06000000 		.4byte	.LCFI18
 3318 0160 48000000 		.4byte	.LFE6
 3319 0164 0200     		.2byte	0x2
 3320 0166 77       		.byte	0x77
 3321 0167 20       		.sleb128 32
 3322 0168 00000000 		.4byte	0
 3323 016c 00000000 		.4byte	0
 3324              	.LLST7:
 3325 0170 00000000 		.4byte	.LFB7
 3326 0174 02000000 		.4byte	.LCFI19
 3327 0178 0200     		.2byte	0x2
 3328 017a 7D       		.byte	0x7d
 3329 017b 00       		.sleb128 0
 3330 017c 02000000 		.4byte	.LCFI19
 3331 0180 04000000 		.4byte	.LCFI20
 3332 0184 0200     		.2byte	0x2
ARM GAS  C:\Users\OEBN\AppData\Local\Temp\cc4YkDS7.s 			page 84


 3333 0186 7D       		.byte	0x7d
 3334 0187 0C       		.sleb128 12
 3335 0188 04000000 		.4byte	.LCFI20
 3336 018c 06000000 		.4byte	.LCFI21
 3337 0190 0200     		.2byte	0x2
 3338 0192 7D       		.byte	0x7d
 3339 0193 20       		.sleb128 32
 3340 0194 06000000 		.4byte	.LCFI21
 3341 0198 4C000000 		.4byte	.LFE7
 3342 019c 0200     		.2byte	0x2
 3343 019e 77       		.byte	0x77
 3344 019f 20       		.sleb128 32
 3345 01a0 00000000 		.4byte	0
 3346 01a4 00000000 		.4byte	0
 3347              	.LLST8:
 3348 01a8 00000000 		.4byte	.LFB8
 3349 01ac 02000000 		.4byte	.LCFI22
 3350 01b0 0200     		.2byte	0x2
 3351 01b2 7D       		.byte	0x7d
 3352 01b3 00       		.sleb128 0
 3353 01b4 02000000 		.4byte	.LCFI22
 3354 01b8 04000000 		.4byte	.LCFI23
 3355 01bc 0200     		.2byte	0x2
 3356 01be 7D       		.byte	0x7d
 3357 01bf 08       		.sleb128 8
 3358 01c0 04000000 		.4byte	.LCFI23
 3359 01c4 06000000 		.4byte	.LCFI24
 3360 01c8 0200     		.2byte	0x2
 3361 01ca 7D       		.byte	0x7d
 3362 01cb 10       		.sleb128 16
 3363 01cc 06000000 		.4byte	.LCFI24
 3364 01d0 1C000000 		.4byte	.LFE8
 3365 01d4 0200     		.2byte	0x2
 3366 01d6 77       		.byte	0x77
 3367 01d7 10       		.sleb128 16
 3368 01d8 00000000 		.4byte	0
 3369 01dc 00000000 		.4byte	0
 3370              	.LLST9:
 3371 01e0 00000000 		.4byte	.LFB9
 3372 01e4 02000000 		.4byte	.LCFI25
 3373 01e8 0200     		.2byte	0x2
 3374 01ea 7D       		.byte	0x7d
 3375 01eb 00       		.sleb128 0
 3376 01ec 02000000 		.4byte	.LCFI25
 3377 01f0 04000000 		.4byte	.LCFI26
 3378 01f4 0200     		.2byte	0x2
 3379 01f6 7D       		.byte	0x7d
 3380 01f7 0C       		.sleb128 12
 3381 01f8 04000000 		.4byte	.LCFI26
 3382 01fc 06000000 		.4byte	.LCFI27
 3383 0200 0200     		.2byte	0x2
 3384 0202 7D       		.byte	0x7d
 3385 0203 20       		.sleb128 32
 3386 0204 06000000 		.4byte	.LCFI27
 3387 0208 48000000 		.4byte	.LFE9
 3388 020c 0200     		.2byte	0x2
 3389 020e 77       		.byte	0x77
ARM GAS  C:\Users\OEBN\AppData\Local\Temp\cc4YkDS7.s 			page 85


 3390 020f 20       		.sleb128 32
 3391 0210 00000000 		.4byte	0
 3392 0214 00000000 		.4byte	0
 3393              	.LLST10:
 3394 0218 00000000 		.4byte	.LFB10
 3395 021c 02000000 		.4byte	.LCFI28
 3396 0220 0200     		.2byte	0x2
 3397 0222 7D       		.byte	0x7d
 3398 0223 00       		.sleb128 0
 3399 0224 02000000 		.4byte	.LCFI28
 3400 0228 04000000 		.4byte	.LCFI29
 3401 022c 0200     		.2byte	0x2
 3402 022e 7D       		.byte	0x7d
 3403 022f 0C       		.sleb128 12
 3404 0230 04000000 		.4byte	.LCFI29
 3405 0234 06000000 		.4byte	.LCFI30
 3406 0238 0200     		.2byte	0x2
 3407 023a 7D       		.byte	0x7d
 3408 023b 20       		.sleb128 32
 3409 023c 06000000 		.4byte	.LCFI30
 3410 0240 48000000 		.4byte	.LFE10
 3411 0244 0200     		.2byte	0x2
 3412 0246 77       		.byte	0x77
 3413 0247 20       		.sleb128 32
 3414 0248 00000000 		.4byte	0
 3415 024c 00000000 		.4byte	0
 3416              	.LLST11:
 3417 0250 00000000 		.4byte	.LFB11
 3418 0254 02000000 		.4byte	.LCFI31
 3419 0258 0200     		.2byte	0x2
 3420 025a 7D       		.byte	0x7d
 3421 025b 00       		.sleb128 0
 3422 025c 02000000 		.4byte	.LCFI31
 3423 0260 04000000 		.4byte	.LCFI32
 3424 0264 0200     		.2byte	0x2
 3425 0266 7D       		.byte	0x7d
 3426 0267 0C       		.sleb128 12
 3427 0268 04000000 		.4byte	.LCFI32
 3428 026c 06000000 		.4byte	.LCFI33
 3429 0270 0200     		.2byte	0x2
 3430 0272 7D       		.byte	0x7d
 3431 0273 20       		.sleb128 32
 3432 0274 06000000 		.4byte	.LCFI33
 3433 0278 4C000000 		.4byte	.LFE11
 3434 027c 0200     		.2byte	0x2
 3435 027e 77       		.byte	0x77
 3436 027f 20       		.sleb128 32
 3437 0280 00000000 		.4byte	0
 3438 0284 00000000 		.4byte	0
 3439              	.LLST12:
 3440 0288 00000000 		.4byte	.LFB12
 3441 028c 02000000 		.4byte	.LCFI34
 3442 0290 0200     		.2byte	0x2
 3443 0292 7D       		.byte	0x7d
 3444 0293 00       		.sleb128 0
 3445 0294 02000000 		.4byte	.LCFI34
 3446 0298 04000000 		.4byte	.LCFI35
ARM GAS  C:\Users\OEBN\AppData\Local\Temp\cc4YkDS7.s 			page 86


 3447 029c 0200     		.2byte	0x2
 3448 029e 7D       		.byte	0x7d
 3449 029f 0C       		.sleb128 12
 3450 02a0 04000000 		.4byte	.LCFI35
 3451 02a4 06000000 		.4byte	.LCFI36
 3452 02a8 0200     		.2byte	0x2
 3453 02aa 7D       		.byte	0x7d
 3454 02ab 20       		.sleb128 32
 3455 02ac 06000000 		.4byte	.LCFI36
 3456 02b0 48000000 		.4byte	.LFE12
 3457 02b4 0200     		.2byte	0x2
 3458 02b6 77       		.byte	0x77
 3459 02b7 20       		.sleb128 32
 3460 02b8 00000000 		.4byte	0
 3461 02bc 00000000 		.4byte	0
 3462              	.LLST13:
 3463 02c0 00000000 		.4byte	.LFB13
 3464 02c4 02000000 		.4byte	.LCFI37
 3465 02c8 0200     		.2byte	0x2
 3466 02ca 7D       		.byte	0x7d
 3467 02cb 00       		.sleb128 0
 3468 02cc 02000000 		.4byte	.LCFI37
 3469 02d0 04000000 		.4byte	.LCFI38
 3470 02d4 0200     		.2byte	0x2
 3471 02d6 7D       		.byte	0x7d
 3472 02d7 08       		.sleb128 8
 3473 02d8 04000000 		.4byte	.LCFI38
 3474 02dc 06000000 		.4byte	.LCFI39
 3475 02e0 0200     		.2byte	0x2
 3476 02e2 7D       		.byte	0x7d
 3477 02e3 10       		.sleb128 16
 3478 02e4 06000000 		.4byte	.LCFI39
 3479 02e8 1C000000 		.4byte	.LFE13
 3480 02ec 0200     		.2byte	0x2
 3481 02ee 77       		.byte	0x77
 3482 02ef 10       		.sleb128 16
 3483 02f0 00000000 		.4byte	0
 3484 02f4 00000000 		.4byte	0
 3485              	.LLST14:
 3486 02f8 00000000 		.4byte	.LFB14
 3487 02fc 02000000 		.4byte	.LCFI40
 3488 0300 0200     		.2byte	0x2
 3489 0302 7D       		.byte	0x7d
 3490 0303 00       		.sleb128 0
 3491 0304 02000000 		.4byte	.LCFI40
 3492 0308 04000000 		.4byte	.LCFI41
 3493 030c 0200     		.2byte	0x2
 3494 030e 7D       		.byte	0x7d
 3495 030f 08       		.sleb128 8
 3496 0310 04000000 		.4byte	.LCFI41
 3497 0314 18000000 		.4byte	.LFE14
 3498 0318 0200     		.2byte	0x2
 3499 031a 77       		.byte	0x77
 3500 031b 08       		.sleb128 8
 3501 031c 00000000 		.4byte	0
 3502 0320 00000000 		.4byte	0
 3503              	.LLST15:
ARM GAS  C:\Users\OEBN\AppData\Local\Temp\cc4YkDS7.s 			page 87


 3504 0324 00000000 		.4byte	.LFB15
 3505 0328 02000000 		.4byte	.LCFI42
 3506 032c 0200     		.2byte	0x2
 3507 032e 7D       		.byte	0x7d
 3508 032f 00       		.sleb128 0
 3509 0330 02000000 		.4byte	.LCFI42
 3510 0334 04000000 		.4byte	.LCFI43
 3511 0338 0200     		.2byte	0x2
 3512 033a 7D       		.byte	0x7d
 3513 033b 0C       		.sleb128 12
 3514 033c 04000000 		.4byte	.LCFI43
 3515 0340 06000000 		.4byte	.LCFI44
 3516 0344 0200     		.2byte	0x2
 3517 0346 7D       		.byte	0x7d
 3518 0347 20       		.sleb128 32
 3519 0348 06000000 		.4byte	.LCFI44
 3520 034c 48000000 		.4byte	.LFE15
 3521 0350 0200     		.2byte	0x2
 3522 0352 77       		.byte	0x77
 3523 0353 20       		.sleb128 32
 3524 0354 00000000 		.4byte	0
 3525 0358 00000000 		.4byte	0
 3526              	.LLST16:
 3527 035c 00000000 		.4byte	.LFB16
 3528 0360 02000000 		.4byte	.LCFI45
 3529 0364 0200     		.2byte	0x2
 3530 0366 7D       		.byte	0x7d
 3531 0367 00       		.sleb128 0
 3532 0368 02000000 		.4byte	.LCFI45
 3533 036c 04000000 		.4byte	.LCFI46
 3534 0370 0200     		.2byte	0x2
 3535 0372 7D       		.byte	0x7d
 3536 0373 08       		.sleb128 8
 3537 0374 04000000 		.4byte	.LCFI46
 3538 0378 06000000 		.4byte	.LCFI47
 3539 037c 0200     		.2byte	0x2
 3540 037e 7D       		.byte	0x7d
 3541 037f 10       		.sleb128 16
 3542 0380 06000000 		.4byte	.LCFI47
 3543 0384 1C000000 		.4byte	.LFE16
 3544 0388 0200     		.2byte	0x2
 3545 038a 77       		.byte	0x77
 3546 038b 10       		.sleb128 16
 3547 038c 00000000 		.4byte	0
 3548 0390 00000000 		.4byte	0
 3549              	.LLST17:
 3550 0394 00000000 		.4byte	.LFB17
 3551 0398 02000000 		.4byte	.LCFI48
 3552 039c 0200     		.2byte	0x2
 3553 039e 7D       		.byte	0x7d
 3554 039f 00       		.sleb128 0
 3555 03a0 02000000 		.4byte	.LCFI48
 3556 03a4 04000000 		.4byte	.LCFI49
 3557 03a8 0200     		.2byte	0x2
 3558 03aa 7D       		.byte	0x7d
 3559 03ab 08       		.sleb128 8
 3560 03ac 04000000 		.4byte	.LCFI49
ARM GAS  C:\Users\OEBN\AppData\Local\Temp\cc4YkDS7.s 			page 88


 3561 03b0 18000000 		.4byte	.LFE17
 3562 03b4 0200     		.2byte	0x2
 3563 03b6 77       		.byte	0x77
 3564 03b7 08       		.sleb128 8
 3565 03b8 00000000 		.4byte	0
 3566 03bc 00000000 		.4byte	0
 3567              	.LLST18:
 3568 03c0 00000000 		.4byte	.LFB18
 3569 03c4 02000000 		.4byte	.LCFI50
 3570 03c8 0200     		.2byte	0x2
 3571 03ca 7D       		.byte	0x7d
 3572 03cb 00       		.sleb128 0
 3573 03cc 02000000 		.4byte	.LCFI50
 3574 03d0 04000000 		.4byte	.LCFI51
 3575 03d4 0200     		.2byte	0x2
 3576 03d6 7D       		.byte	0x7d
 3577 03d7 0C       		.sleb128 12
 3578 03d8 04000000 		.4byte	.LCFI51
 3579 03dc 06000000 		.4byte	.LCFI52
 3580 03e0 0200     		.2byte	0x2
 3581 03e2 7D       		.byte	0x7d
 3582 03e3 20       		.sleb128 32
 3583 03e4 06000000 		.4byte	.LCFI52
 3584 03e8 48000000 		.4byte	.LFE18
 3585 03ec 0200     		.2byte	0x2
 3586 03ee 77       		.byte	0x77
 3587 03ef 20       		.sleb128 32
 3588 03f0 00000000 		.4byte	0
 3589 03f4 00000000 		.4byte	0
 3590              	.LLST19:
 3591 03f8 00000000 		.4byte	.LFB19
 3592 03fc 02000000 		.4byte	.LCFI53
 3593 0400 0200     		.2byte	0x2
 3594 0402 7D       		.byte	0x7d
 3595 0403 00       		.sleb128 0
 3596 0404 02000000 		.4byte	.LCFI53
 3597 0408 04000000 		.4byte	.LCFI54
 3598 040c 0200     		.2byte	0x2
 3599 040e 7D       		.byte	0x7d
 3600 040f 08       		.sleb128 8
 3601 0410 04000000 		.4byte	.LCFI54
 3602 0414 06000000 		.4byte	.LCFI55
 3603 0418 0200     		.2byte	0x2
 3604 041a 7D       		.byte	0x7d
 3605 041b 10       		.sleb128 16
 3606 041c 06000000 		.4byte	.LCFI55
 3607 0420 1C000000 		.4byte	.LFE19
 3608 0424 0200     		.2byte	0x2
 3609 0426 77       		.byte	0x77
 3610 0427 10       		.sleb128 16
 3611 0428 00000000 		.4byte	0
 3612 042c 00000000 		.4byte	0
 3613              	.LLST20:
 3614 0430 00000000 		.4byte	.LFB20
 3615 0434 02000000 		.4byte	.LCFI56
 3616 0438 0200     		.2byte	0x2
 3617 043a 7D       		.byte	0x7d
ARM GAS  C:\Users\OEBN\AppData\Local\Temp\cc4YkDS7.s 			page 89


 3618 043b 00       		.sleb128 0
 3619 043c 02000000 		.4byte	.LCFI56
 3620 0440 04000000 		.4byte	.LCFI57
 3621 0444 0200     		.2byte	0x2
 3622 0446 7D       		.byte	0x7d
 3623 0447 08       		.sleb128 8
 3624 0448 04000000 		.4byte	.LCFI57
 3625 044c 18000000 		.4byte	.LFE20
 3626 0450 0200     		.2byte	0x2
 3627 0452 77       		.byte	0x77
 3628 0453 08       		.sleb128 8
 3629 0454 00000000 		.4byte	0
 3630 0458 00000000 		.4byte	0
 3631              	.LLST21:
 3632 045c 00000000 		.4byte	.LFB21
 3633 0460 02000000 		.4byte	.LCFI58
 3634 0464 0200     		.2byte	0x2
 3635 0466 7D       		.byte	0x7d
 3636 0467 00       		.sleb128 0
 3637 0468 02000000 		.4byte	.LCFI58
 3638 046c 04000000 		.4byte	.LCFI59
 3639 0470 0200     		.2byte	0x2
 3640 0472 7D       		.byte	0x7d
 3641 0473 0C       		.sleb128 12
 3642 0474 04000000 		.4byte	.LCFI59
 3643 0478 06000000 		.4byte	.LCFI60
 3644 047c 0200     		.2byte	0x2
 3645 047e 7D       		.byte	0x7d
 3646 047f 20       		.sleb128 32
 3647 0480 06000000 		.4byte	.LCFI60
 3648 0484 48000000 		.4byte	.LFE21
 3649 0488 0200     		.2byte	0x2
 3650 048a 77       		.byte	0x77
 3651 048b 20       		.sleb128 32
 3652 048c 00000000 		.4byte	0
 3653 0490 00000000 		.4byte	0
 3654              	.LLST22:
 3655 0494 00000000 		.4byte	.LFB22
 3656 0498 02000000 		.4byte	.LCFI61
 3657 049c 0200     		.2byte	0x2
 3658 049e 7D       		.byte	0x7d
 3659 049f 00       		.sleb128 0
 3660 04a0 02000000 		.4byte	.LCFI61
 3661 04a4 04000000 		.4byte	.LCFI62
 3662 04a8 0200     		.2byte	0x2
 3663 04aa 7D       		.byte	0x7d
 3664 04ab 08       		.sleb128 8
 3665 04ac 04000000 		.4byte	.LCFI62
 3666 04b0 06000000 		.4byte	.LCFI63
 3667 04b4 0200     		.2byte	0x2
 3668 04b6 7D       		.byte	0x7d
 3669 04b7 10       		.sleb128 16
 3670 04b8 06000000 		.4byte	.LCFI63
 3671 04bc 1C000000 		.4byte	.LFE22
 3672 04c0 0200     		.2byte	0x2
 3673 04c2 77       		.byte	0x77
 3674 04c3 10       		.sleb128 16
ARM GAS  C:\Users\OEBN\AppData\Local\Temp\cc4YkDS7.s 			page 90


 3675 04c4 00000000 		.4byte	0
 3676 04c8 00000000 		.4byte	0
 3677              	.LLST23:
 3678 04cc 00000000 		.4byte	.LFB23
 3679 04d0 02000000 		.4byte	.LCFI64
 3680 04d4 0200     		.2byte	0x2
 3681 04d6 7D       		.byte	0x7d
 3682 04d7 00       		.sleb128 0
 3683 04d8 02000000 		.4byte	.LCFI64
 3684 04dc 04000000 		.4byte	.LCFI65
 3685 04e0 0200     		.2byte	0x2
 3686 04e2 7D       		.byte	0x7d
 3687 04e3 08       		.sleb128 8
 3688 04e4 04000000 		.4byte	.LCFI65
 3689 04e8 18000000 		.4byte	.LFE23
 3690 04ec 0200     		.2byte	0x2
 3691 04ee 77       		.byte	0x77
 3692 04ef 08       		.sleb128 8
 3693 04f0 00000000 		.4byte	0
 3694 04f4 00000000 		.4byte	0
 3695              	.LLST24:
 3696 04f8 00000000 		.4byte	.LFB24
 3697 04fc 02000000 		.4byte	.LCFI66
 3698 0500 0200     		.2byte	0x2
 3699 0502 7D       		.byte	0x7d
 3700 0503 00       		.sleb128 0
 3701 0504 02000000 		.4byte	.LCFI66
 3702 0508 04000000 		.4byte	.LCFI67
 3703 050c 0200     		.2byte	0x2
 3704 050e 7D       		.byte	0x7d
 3705 050f 08       		.sleb128 8
 3706 0510 04000000 		.4byte	.LCFI67
 3707 0514 06000000 		.4byte	.LCFI68
 3708 0518 0200     		.2byte	0x2
 3709 051a 7D       		.byte	0x7d
 3710 051b 10       		.sleb128 16
 3711 051c 06000000 		.4byte	.LCFI68
 3712 0520 1C000000 		.4byte	.LFE24
 3713 0524 0200     		.2byte	0x2
 3714 0526 77       		.byte	0x77
 3715 0527 10       		.sleb128 16
 3716 0528 00000000 		.4byte	0
 3717 052c 00000000 		.4byte	0
 3718              	.LLST25:
 3719 0530 00000000 		.4byte	.LFB25
 3720 0534 02000000 		.4byte	.LCFI69
 3721 0538 0200     		.2byte	0x2
 3722 053a 7D       		.byte	0x7d
 3723 053b 00       		.sleb128 0
 3724 053c 02000000 		.4byte	.LCFI69
 3725 0540 04000000 		.4byte	.LCFI70
 3726 0544 0200     		.2byte	0x2
 3727 0546 7D       		.byte	0x7d
 3728 0547 08       		.sleb128 8
 3729 0548 04000000 		.4byte	.LCFI70
 3730 054c 18000000 		.4byte	.LFE25
 3731 0550 0200     		.2byte	0x2
ARM GAS  C:\Users\OEBN\AppData\Local\Temp\cc4YkDS7.s 			page 91


 3732 0552 77       		.byte	0x77
 3733 0553 08       		.sleb128 8
 3734 0554 00000000 		.4byte	0
 3735 0558 00000000 		.4byte	0
 3736              	.LLST26:
 3737 055c 00000000 		.4byte	.LFB26
 3738 0560 02000000 		.4byte	.LCFI71
 3739 0564 0200     		.2byte	0x2
 3740 0566 7D       		.byte	0x7d
 3741 0567 00       		.sleb128 0
 3742 0568 02000000 		.4byte	.LCFI71
 3743 056c 04000000 		.4byte	.LCFI72
 3744 0570 0200     		.2byte	0x2
 3745 0572 7D       		.byte	0x7d
 3746 0573 08       		.sleb128 8
 3747 0574 04000000 		.4byte	.LCFI72
 3748 0578 18000000 		.4byte	.LFE26
 3749 057c 0200     		.2byte	0x2
 3750 057e 77       		.byte	0x77
 3751 057f 08       		.sleb128 8
 3752 0580 00000000 		.4byte	0
 3753 0584 00000000 		.4byte	0
 3754              	.LLST27:
 3755 0588 00000000 		.4byte	.LFB27
 3756 058c 02000000 		.4byte	.LCFI73
 3757 0590 0200     		.2byte	0x2
 3758 0592 7D       		.byte	0x7d
 3759 0593 00       		.sleb128 0
 3760 0594 02000000 		.4byte	.LCFI73
 3761 0598 04000000 		.4byte	.LCFI74
 3762 059c 0200     		.2byte	0x2
 3763 059e 7D       		.byte	0x7d
 3764 059f 08       		.sleb128 8
 3765 05a0 04000000 		.4byte	.LCFI74
 3766 05a4 18000000 		.4byte	.LFE27
 3767 05a8 0200     		.2byte	0x2
 3768 05aa 77       		.byte	0x77
 3769 05ab 08       		.sleb128 8
 3770 05ac 00000000 		.4byte	0
 3771 05b0 00000000 		.4byte	0
 3772              	.LLST28:
 3773 05b4 00000000 		.4byte	.LFB28
 3774 05b8 02000000 		.4byte	.LCFI75
 3775 05bc 0200     		.2byte	0x2
 3776 05be 7D       		.byte	0x7d
 3777 05bf 00       		.sleb128 0
 3778 05c0 02000000 		.4byte	.LCFI75
 3779 05c4 04000000 		.4byte	.LCFI76
 3780 05c8 0200     		.2byte	0x2
 3781 05ca 7D       		.byte	0x7d
 3782 05cb 0C       		.sleb128 12
 3783 05cc 04000000 		.4byte	.LCFI76
 3784 05d0 06000000 		.4byte	.LCFI77
 3785 05d4 0200     		.2byte	0x2
 3786 05d6 7D       		.byte	0x7d
 3787 05d7 20       		.sleb128 32
 3788 05d8 06000000 		.4byte	.LCFI77
ARM GAS  C:\Users\OEBN\AppData\Local\Temp\cc4YkDS7.s 			page 92


 3789 05dc 44000000 		.4byte	.LFE28
 3790 05e0 0200     		.2byte	0x2
 3791 05e2 77       		.byte	0x77
 3792 05e3 20       		.sleb128 32
 3793 05e4 00000000 		.4byte	0
 3794 05e8 00000000 		.4byte	0
 3795              	.LLST29:
 3796 05ec 00000000 		.4byte	.LFB29
 3797 05f0 02000000 		.4byte	.LCFI78
 3798 05f4 0200     		.2byte	0x2
 3799 05f6 7D       		.byte	0x7d
 3800 05f7 00       		.sleb128 0
 3801 05f8 02000000 		.4byte	.LCFI78
 3802 05fc 04000000 		.4byte	.LCFI79
 3803 0600 0200     		.2byte	0x2
 3804 0602 7D       		.byte	0x7d
 3805 0603 0C       		.sleb128 12
 3806 0604 04000000 		.4byte	.LCFI79
 3807 0608 06000000 		.4byte	.LCFI80
 3808 060c 0200     		.2byte	0x2
 3809 060e 7D       		.byte	0x7d
 3810 060f 20       		.sleb128 32
 3811 0610 06000000 		.4byte	.LCFI80
 3812 0614 44000000 		.4byte	.LFE29
 3813 0618 0200     		.2byte	0x2
 3814 061a 77       		.byte	0x77
 3815 061b 20       		.sleb128 32
 3816 061c 00000000 		.4byte	0
 3817 0620 00000000 		.4byte	0
 3818              	.LLST30:
 3819 0624 00000000 		.4byte	.LFB30
 3820 0628 02000000 		.4byte	.LCFI81
 3821 062c 0200     		.2byte	0x2
 3822 062e 7D       		.byte	0x7d
 3823 062f 00       		.sleb128 0
 3824 0630 02000000 		.4byte	.LCFI81
 3825 0634 04000000 		.4byte	.LCFI82
 3826 0638 0200     		.2byte	0x2
 3827 063a 7D       		.byte	0x7d
 3828 063b 0C       		.sleb128 12
 3829 063c 04000000 		.4byte	.LCFI82
 3830 0640 06000000 		.4byte	.LCFI83
 3831 0644 0200     		.2byte	0x2
 3832 0646 7D       		.byte	0x7d
 3833 0647 20       		.sleb128 32
 3834 0648 06000000 		.4byte	.LCFI83
 3835 064c 48000000 		.4byte	.LFE30
 3836 0650 0200     		.2byte	0x2
 3837 0652 77       		.byte	0x77
 3838 0653 20       		.sleb128 32
 3839 0654 00000000 		.4byte	0
 3840 0658 00000000 		.4byte	0
 3841              	.LLST31:
 3842 065c 00000000 		.4byte	.LFB31
 3843 0660 02000000 		.4byte	.LCFI84
 3844 0664 0200     		.2byte	0x2
 3845 0666 7D       		.byte	0x7d
ARM GAS  C:\Users\OEBN\AppData\Local\Temp\cc4YkDS7.s 			page 93


 3846 0667 00       		.sleb128 0
 3847 0668 02000000 		.4byte	.LCFI84
 3848 066c 04000000 		.4byte	.LCFI85
 3849 0670 0200     		.2byte	0x2
 3850 0672 7D       		.byte	0x7d
 3851 0673 0C       		.sleb128 12
 3852 0674 04000000 		.4byte	.LCFI85
 3853 0678 06000000 		.4byte	.LCFI86
 3854 067c 0200     		.2byte	0x2
 3855 067e 7D       		.byte	0x7d
 3856 067f 20       		.sleb128 32
 3857 0680 06000000 		.4byte	.LCFI86
 3858 0684 44000000 		.4byte	.LFE31
 3859 0688 0200     		.2byte	0x2
 3860 068a 77       		.byte	0x77
 3861 068b 20       		.sleb128 32
 3862 068c 00000000 		.4byte	0
 3863 0690 00000000 		.4byte	0
 3864              	.LLST32:
 3865 0694 00000000 		.4byte	.LFB32
 3866 0698 02000000 		.4byte	.LCFI87
 3867 069c 0200     		.2byte	0x2
 3868 069e 7D       		.byte	0x7d
 3869 069f 00       		.sleb128 0
 3870 06a0 02000000 		.4byte	.LCFI87
 3871 06a4 04000000 		.4byte	.LCFI88
 3872 06a8 0200     		.2byte	0x2
 3873 06aa 7D       		.byte	0x7d
 3874 06ab 0C       		.sleb128 12
 3875 06ac 04000000 		.4byte	.LCFI88
 3876 06b0 06000000 		.4byte	.LCFI89
 3877 06b4 0200     		.2byte	0x2
 3878 06b6 7D       		.byte	0x7d
 3879 06b7 20       		.sleb128 32
 3880 06b8 06000000 		.4byte	.LCFI89
 3881 06bc 44000000 		.4byte	.LFE32
 3882 06c0 0200     		.2byte	0x2
 3883 06c2 77       		.byte	0x77
 3884 06c3 20       		.sleb128 32
 3885 06c4 00000000 		.4byte	0
 3886 06c8 00000000 		.4byte	0
 3887              	.LLST33:
 3888 06cc 00000000 		.4byte	.LFB33
 3889 06d0 02000000 		.4byte	.LCFI90
 3890 06d4 0200     		.2byte	0x2
 3891 06d6 7D       		.byte	0x7d
 3892 06d7 00       		.sleb128 0
 3893 06d8 02000000 		.4byte	.LCFI90
 3894 06dc 04000000 		.4byte	.LCFI91
 3895 06e0 0200     		.2byte	0x2
 3896 06e2 7D       		.byte	0x7d
 3897 06e3 0C       		.sleb128 12
 3898 06e4 04000000 		.4byte	.LCFI91
 3899 06e8 06000000 		.4byte	.LCFI92
 3900 06ec 0200     		.2byte	0x2
 3901 06ee 7D       		.byte	0x7d
 3902 06ef 20       		.sleb128 32
ARM GAS  C:\Users\OEBN\AppData\Local\Temp\cc4YkDS7.s 			page 94


 3903 06f0 06000000 		.4byte	.LCFI92
 3904 06f4 3C000000 		.4byte	.LFE33
 3905 06f8 0200     		.2byte	0x2
 3906 06fa 77       		.byte	0x77
 3907 06fb 20       		.sleb128 32
 3908 06fc 00000000 		.4byte	0
 3909 0700 00000000 		.4byte	0
 3910              	.LLST34:
 3911 0704 00000000 		.4byte	.LFB34
 3912 0708 02000000 		.4byte	.LCFI93
 3913 070c 0200     		.2byte	0x2
 3914 070e 7D       		.byte	0x7d
 3915 070f 00       		.sleb128 0
 3916 0710 02000000 		.4byte	.LCFI93
 3917 0714 04000000 		.4byte	.LCFI94
 3918 0718 0200     		.2byte	0x2
 3919 071a 7D       		.byte	0x7d
 3920 071b 08       		.sleb128 8
 3921 071c 04000000 		.4byte	.LCFI94
 3922 0720 20000000 		.4byte	.LFE34
 3923 0724 0200     		.2byte	0x2
 3924 0726 77       		.byte	0x77
 3925 0727 08       		.sleb128 8
 3926 0728 00000000 		.4byte	0
 3927 072c 00000000 		.4byte	0
 3928              	.LLST35:
 3929 0730 00000000 		.4byte	.LFB35
 3930 0734 02000000 		.4byte	.LCFI95
 3931 0738 0200     		.2byte	0x2
 3932 073a 7D       		.byte	0x7d
 3933 073b 00       		.sleb128 0
 3934 073c 02000000 		.4byte	.LCFI95
 3935 0740 04000000 		.4byte	.LCFI96
 3936 0744 0200     		.2byte	0x2
 3937 0746 7D       		.byte	0x7d
 3938 0747 08       		.sleb128 8
 3939 0748 04000000 		.4byte	.LCFI96
 3940 074c 06000000 		.4byte	.LCFI97
 3941 0750 0200     		.2byte	0x2
 3942 0752 7D       		.byte	0x7d
 3943 0753 10       		.sleb128 16
 3944 0754 06000000 		.4byte	.LCFI97
 3945 0758 18000000 		.4byte	.LFE35
 3946 075c 0200     		.2byte	0x2
 3947 075e 77       		.byte	0x77
 3948 075f 10       		.sleb128 16
 3949 0760 00000000 		.4byte	0
 3950 0764 00000000 		.4byte	0
 3951              	.LLST36:
 3952 0768 00000000 		.4byte	.LFB36
 3953 076c 02000000 		.4byte	.LCFI98
 3954 0770 0200     		.2byte	0x2
 3955 0772 7D       		.byte	0x7d
 3956 0773 00       		.sleb128 0
 3957 0774 02000000 		.4byte	.LCFI98
 3958 0778 04000000 		.4byte	.LCFI99
 3959 077c 0200     		.2byte	0x2
ARM GAS  C:\Users\OEBN\AppData\Local\Temp\cc4YkDS7.s 			page 95


 3960 077e 7D       		.byte	0x7d
 3961 077f 08       		.sleb128 8
 3962 0780 04000000 		.4byte	.LCFI99
 3963 0784 14000000 		.4byte	.LFE36
 3964 0788 0200     		.2byte	0x2
 3965 078a 77       		.byte	0x77
 3966 078b 08       		.sleb128 8
 3967 078c 00000000 		.4byte	0
 3968 0790 00000000 		.4byte	0
 3969              	.LLST37:
 3970 0794 00000000 		.4byte	.LFB37
 3971 0798 02000000 		.4byte	.LCFI100
 3972 079c 0200     		.2byte	0x2
 3973 079e 7D       		.byte	0x7d
 3974 079f 00       		.sleb128 0
 3975 07a0 02000000 		.4byte	.LCFI100
 3976 07a4 04000000 		.4byte	.LCFI101
 3977 07a8 0200     		.2byte	0x2
 3978 07aa 7D       		.byte	0x7d
 3979 07ab 08       		.sleb128 8
 3980 07ac 04000000 		.4byte	.LCFI101
 3981 07b0 14000000 		.4byte	.LFE37
 3982 07b4 0200     		.2byte	0x2
 3983 07b6 77       		.byte	0x77
 3984 07b7 08       		.sleb128 8
 3985 07b8 00000000 		.4byte	0
 3986 07bc 00000000 		.4byte	0
 3987              	.LLST38:
 3988 07c0 00000000 		.4byte	.LFB38
 3989 07c4 02000000 		.4byte	.LCFI102
 3990 07c8 0200     		.2byte	0x2
 3991 07ca 7D       		.byte	0x7d
 3992 07cb 00       		.sleb128 0
 3993 07cc 02000000 		.4byte	.LCFI102
 3994 07d0 04000000 		.4byte	.LCFI103
 3995 07d4 0200     		.2byte	0x2
 3996 07d6 7D       		.byte	0x7d
 3997 07d7 08       		.sleb128 8
 3998 07d8 04000000 		.4byte	.LCFI103
 3999 07dc 06000000 		.4byte	.LCFI104
 4000 07e0 0200     		.2byte	0x2
 4001 07e2 7D       		.byte	0x7d
 4002 07e3 10       		.sleb128 16
 4003 07e4 06000000 		.4byte	.LCFI104
 4004 07e8 18000000 		.4byte	.LFE38
 4005 07ec 0200     		.2byte	0x2
 4006 07ee 77       		.byte	0x77
 4007 07ef 10       		.sleb128 16
 4008 07f0 00000000 		.4byte	0
 4009 07f4 00000000 		.4byte	0
 4010              	.LLST39:
 4011 07f8 00000000 		.4byte	.LFB39
 4012 07fc 02000000 		.4byte	.LCFI105
 4013 0800 0200     		.2byte	0x2
 4014 0802 7D       		.byte	0x7d
 4015 0803 00       		.sleb128 0
 4016 0804 02000000 		.4byte	.LCFI105
ARM GAS  C:\Users\OEBN\AppData\Local\Temp\cc4YkDS7.s 			page 96


 4017 0808 04000000 		.4byte	.LCFI106
 4018 080c 0200     		.2byte	0x2
 4019 080e 7D       		.byte	0x7d
 4020 080f 08       		.sleb128 8
 4021 0810 04000000 		.4byte	.LCFI106
 4022 0814 06000000 		.4byte	.LCFI107
 4023 0818 0200     		.2byte	0x2
 4024 081a 7D       		.byte	0x7d
 4025 081b 10       		.sleb128 16
 4026 081c 06000000 		.4byte	.LCFI107
 4027 0820 18000000 		.4byte	.LFE39
 4028 0824 0200     		.2byte	0x2
 4029 0826 77       		.byte	0x77
 4030 0827 10       		.sleb128 16
 4031 0828 00000000 		.4byte	0
 4032 082c 00000000 		.4byte	0
 4033              		.section	.debug_aranges,"",%progbits
 4034 0000 54010000 		.4byte	0x154
 4035 0004 0200     		.2byte	0x2
 4036 0006 00000000 		.4byte	.Ldebug_info0
 4037 000a 04       		.byte	0x4
 4038 000b 00       		.byte	0
 4039 000c 0000     		.2byte	0
 4040 000e 0000     		.2byte	0
 4041 0010 00000000 		.4byte	.LFB0
 4042 0014 2C000000 		.4byte	.LFE0-.LFB0
 4043 0018 00000000 		.4byte	.LFB1
 4044 001c 38000000 		.4byte	.LFE1-.LFB1
 4045 0020 00000000 		.4byte	.LFB2
 4046 0024 24000000 		.4byte	.LFE2-.LFB2
 4047 0028 00000000 		.4byte	.LFB3
 4048 002c 30000000 		.4byte	.LFE3-.LFB3
 4049 0030 00000000 		.4byte	.LFB4
 4050 0034 48000000 		.4byte	.LFE4-.LFB4
 4051 0038 00000000 		.4byte	.LFB5
 4052 003c 48000000 		.4byte	.LFE5-.LFB5
 4053 0040 00000000 		.4byte	.LFB6
 4054 0044 48000000 		.4byte	.LFE6-.LFB6
 4055 0048 00000000 		.4byte	.LFB7
 4056 004c 4C000000 		.4byte	.LFE7-.LFB7
 4057 0050 00000000 		.4byte	.LFB8
 4058 0054 1C000000 		.4byte	.LFE8-.LFB8
 4059 0058 00000000 		.4byte	.LFB9
 4060 005c 48000000 		.4byte	.LFE9-.LFB9
 4061 0060 00000000 		.4byte	.LFB10
 4062 0064 48000000 		.4byte	.LFE10-.LFB10
 4063 0068 00000000 		.4byte	.LFB11
 4064 006c 4C000000 		.4byte	.LFE11-.LFB11
 4065 0070 00000000 		.4byte	.LFB12
 4066 0074 48000000 		.4byte	.LFE12-.LFB12
 4067 0078 00000000 		.4byte	.LFB13
 4068 007c 1C000000 		.4byte	.LFE13-.LFB13
 4069 0080 00000000 		.4byte	.LFB14
 4070 0084 18000000 		.4byte	.LFE14-.LFB14
 4071 0088 00000000 		.4byte	.LFB15
 4072 008c 48000000 		.4byte	.LFE15-.LFB15
 4073 0090 00000000 		.4byte	.LFB16
ARM GAS  C:\Users\OEBN\AppData\Local\Temp\cc4YkDS7.s 			page 97


 4074 0094 1C000000 		.4byte	.LFE16-.LFB16
 4075 0098 00000000 		.4byte	.LFB17
 4076 009c 18000000 		.4byte	.LFE17-.LFB17
 4077 00a0 00000000 		.4byte	.LFB18
 4078 00a4 48000000 		.4byte	.LFE18-.LFB18
 4079 00a8 00000000 		.4byte	.LFB19
 4080 00ac 1C000000 		.4byte	.LFE19-.LFB19
 4081 00b0 00000000 		.4byte	.LFB20
 4082 00b4 18000000 		.4byte	.LFE20-.LFB20
 4083 00b8 00000000 		.4byte	.LFB21
 4084 00bc 48000000 		.4byte	.LFE21-.LFB21
 4085 00c0 00000000 		.4byte	.LFB22
 4086 00c4 1C000000 		.4byte	.LFE22-.LFB22
 4087 00c8 00000000 		.4byte	.LFB23
 4088 00cc 18000000 		.4byte	.LFE23-.LFB23
 4089 00d0 00000000 		.4byte	.LFB24
 4090 00d4 1C000000 		.4byte	.LFE24-.LFB24
 4091 00d8 00000000 		.4byte	.LFB25
 4092 00dc 18000000 		.4byte	.LFE25-.LFB25
 4093 00e0 00000000 		.4byte	.LFB26
 4094 00e4 18000000 		.4byte	.LFE26-.LFB26
 4095 00e8 00000000 		.4byte	.LFB27
 4096 00ec 18000000 		.4byte	.LFE27-.LFB27
 4097 00f0 00000000 		.4byte	.LFB28
 4098 00f4 44000000 		.4byte	.LFE28-.LFB28
 4099 00f8 00000000 		.4byte	.LFB29
 4100 00fc 44000000 		.4byte	.LFE29-.LFB29
 4101 0100 00000000 		.4byte	.LFB30
 4102 0104 48000000 		.4byte	.LFE30-.LFB30
 4103 0108 00000000 		.4byte	.LFB31
 4104 010c 44000000 		.4byte	.LFE31-.LFB31
 4105 0110 00000000 		.4byte	.LFB32
 4106 0114 44000000 		.4byte	.LFE32-.LFB32
 4107 0118 00000000 		.4byte	.LFB33
 4108 011c 3C000000 		.4byte	.LFE33-.LFB33
 4109 0120 00000000 		.4byte	.LFB34
 4110 0124 20000000 		.4byte	.LFE34-.LFB34
 4111 0128 00000000 		.4byte	.LFB35
 4112 012c 18000000 		.4byte	.LFE35-.LFB35
 4113 0130 00000000 		.4byte	.LFB36
 4114 0134 14000000 		.4byte	.LFE36-.LFB36
 4115 0138 00000000 		.4byte	.LFB37
 4116 013c 14000000 		.4byte	.LFE37-.LFB37
 4117 0140 00000000 		.4byte	.LFB38
 4118 0144 18000000 		.4byte	.LFE38-.LFB38
 4119 0148 00000000 		.4byte	.LFB39
 4120 014c 18000000 		.4byte	.LFE39-.LFB39
 4121 0150 00000000 		.4byte	0
 4122 0154 00000000 		.4byte	0
 4123              		.section	.debug_ranges,"",%progbits
 4124              	.Ldebug_ranges0:
 4125 0000 00000000 		.4byte	.LFB0
 4126 0004 2C000000 		.4byte	.LFE0
 4127 0008 00000000 		.4byte	.LFB1
 4128 000c 38000000 		.4byte	.LFE1
 4129 0010 00000000 		.4byte	.LFB2
 4130 0014 24000000 		.4byte	.LFE2
ARM GAS  C:\Users\OEBN\AppData\Local\Temp\cc4YkDS7.s 			page 98


 4131 0018 00000000 		.4byte	.LFB3
 4132 001c 30000000 		.4byte	.LFE3
 4133 0020 00000000 		.4byte	.LFB4
 4134 0024 48000000 		.4byte	.LFE4
 4135 0028 00000000 		.4byte	.LFB5
 4136 002c 48000000 		.4byte	.LFE5
 4137 0030 00000000 		.4byte	.LFB6
 4138 0034 48000000 		.4byte	.LFE6
 4139 0038 00000000 		.4byte	.LFB7
 4140 003c 4C000000 		.4byte	.LFE7
 4141 0040 00000000 		.4byte	.LFB8
 4142 0044 1C000000 		.4byte	.LFE8
 4143 0048 00000000 		.4byte	.LFB9
 4144 004c 48000000 		.4byte	.LFE9
 4145 0050 00000000 		.4byte	.LFB10
 4146 0054 48000000 		.4byte	.LFE10
 4147 0058 00000000 		.4byte	.LFB11
 4148 005c 4C000000 		.4byte	.LFE11
 4149 0060 00000000 		.4byte	.LFB12
 4150 0064 48000000 		.4byte	.LFE12
 4151 0068 00000000 		.4byte	.LFB13
 4152 006c 1C000000 		.4byte	.LFE13
 4153 0070 00000000 		.4byte	.LFB14
 4154 0074 18000000 		.4byte	.LFE14
 4155 0078 00000000 		.4byte	.LFB15
 4156 007c 48000000 		.4byte	.LFE15
 4157 0080 00000000 		.4byte	.LFB16
 4158 0084 1C000000 		.4byte	.LFE16
 4159 0088 00000000 		.4byte	.LFB17
 4160 008c 18000000 		.4byte	.LFE17
 4161 0090 00000000 		.4byte	.LFB18
 4162 0094 48000000 		.4byte	.LFE18
 4163 0098 00000000 		.4byte	.LFB19
 4164 009c 1C000000 		.4byte	.LFE19
 4165 00a0 00000000 		.4byte	.LFB20
 4166 00a4 18000000 		.4byte	.LFE20
 4167 00a8 00000000 		.4byte	.LFB21
 4168 00ac 48000000 		.4byte	.LFE21
 4169 00b0 00000000 		.4byte	.LFB22
 4170 00b4 1C000000 		.4byte	.LFE22
 4171 00b8 00000000 		.4byte	.LFB23
 4172 00bc 18000000 		.4byte	.LFE23
 4173 00c0 00000000 		.4byte	.LFB24
 4174 00c4 1C000000 		.4byte	.LFE24
 4175 00c8 00000000 		.4byte	.LFB25
 4176 00cc 18000000 		.4byte	.LFE25
 4177 00d0 00000000 		.4byte	.LFB26
 4178 00d4 18000000 		.4byte	.LFE26
 4179 00d8 00000000 		.4byte	.LFB27
 4180 00dc 18000000 		.4byte	.LFE27
 4181 00e0 00000000 		.4byte	.LFB28
 4182 00e4 44000000 		.4byte	.LFE28
 4183 00e8 00000000 		.4byte	.LFB29
 4184 00ec 44000000 		.4byte	.LFE29
 4185 00f0 00000000 		.4byte	.LFB30
 4186 00f4 48000000 		.4byte	.LFE30
 4187 00f8 00000000 		.4byte	.LFB31
ARM GAS  C:\Users\OEBN\AppData\Local\Temp\cc4YkDS7.s 			page 99


 4188 00fc 44000000 		.4byte	.LFE31
 4189 0100 00000000 		.4byte	.LFB32
 4190 0104 44000000 		.4byte	.LFE32
 4191 0108 00000000 		.4byte	.LFB33
 4192 010c 3C000000 		.4byte	.LFE33
 4193 0110 00000000 		.4byte	.LFB34
 4194 0114 20000000 		.4byte	.LFE34
 4195 0118 00000000 		.4byte	.LFB35
 4196 011c 18000000 		.4byte	.LFE35
 4197 0120 00000000 		.4byte	.LFB36
 4198 0124 14000000 		.4byte	.LFE36
 4199 0128 00000000 		.4byte	.LFB37
 4200 012c 14000000 		.4byte	.LFE37
 4201 0130 00000000 		.4byte	.LFB38
 4202 0134 18000000 		.4byte	.LFE38
 4203 0138 00000000 		.4byte	.LFB39
 4204 013c 18000000 		.4byte	.LFE39
 4205 0140 00000000 		.4byte	0
 4206 0144 00000000 		.4byte	0
 4207              		.section	.debug_line,"",%progbits
 4208              	.Ldebug_line0:
 4209 0000 6E030000 		.section	.debug_str,"MS",%progbits,1
 4209      02004800 
 4209      00000201 
 4209      FB0E0D00 
 4209      01010101 
 4210              	.LASF40:
 4211 0000 636F756E 		.ascii	"count\000"
 4211      7400
 4212              	.LASF36:
 4213 0006 64656164 		.ascii	"deadTime\000"
 4213      54696D65 
 4213      00
 4214              	.LASF44:
 4215 000f 70657269 		.ascii	"period\000"
 4215      6F6400
 4216              	.LASF7:
 4217 0016 6C6F6E67 		.ascii	"long long unsigned int\000"
 4217      206C6F6E 
 4217      6720756E 
 4217      7369676E 
 4217      65642069 
 4218              	.LASF45:
 4219 002d 50574D5F 		.ascii	"PWM_Timer_ReadCounter\000"
 4219      54696D65 
 4219      725F5265 
 4219      6164436F 
 4219      756E7465 
 4220              	.LASF24:
 4221 0043 71644D6F 		.ascii	"qdMode\000"
 4221      646500
 4222              	.LASF6:
 4223 004a 6C6F6E67 		.ascii	"long long int\000"
 4223      206C6F6E 
 4223      6720696E 
 4223      7400
 4224              	.LASF0:
ARM GAS  C:\Users\OEBN\AppData\Local\Temp\cc4YkDS7.s 			page 100


 4225 0058 7369676E 		.ascii	"signed char\000"
 4225      65642063 
 4225      68617200 
 4226              	.LASF49:
 4227 0064 50574D5F 		.ascii	"PWM_Timer_WritePeriodBuf\000"
 4227      54696D65 
 4227      725F5772 
 4227      69746550 
 4227      6572696F 
 4228              	.LASF72:
 4229 007d 50574D5F 		.ascii	"PWM_Timer_GetInterruptSourceMasked\000"
 4229      54696D65 
 4229      725F4765 
 4229      74496E74 
 4229      65727275 
 4230              	.LASF4:
 4231 00a0 6C6F6E67 		.ascii	"long int\000"
 4231      20696E74 
 4231      00
 4232              	.LASF79:
 4233 00a9 50574D5F 		.ascii	"PWM_Timer_initVar\000"
 4233      54696D65 
 4233      725F696E 
 4233      69745661 
 4233      7200
 4234              	.LASF57:
 4235 00bb 636F6D70 		.ascii	"compareBuf\000"
 4235      61726542 
 4235      756600
 4236              	.LASF9:
 4237 00c6 75696E74 		.ascii	"uint8\000"
 4237      3800
 4238              	.LASF61:
 4239 00cc 50574D5F 		.ascii	"PWM_Timer_SetCaptureMode\000"
 4239      54696D65 
 4239      725F5365 
 4239      74436170 
 4239      74757265 
 4240              	.LASF12:
 4241 00e5 646F7562 		.ascii	"double\000"
 4241      6C6500
 4242              	.LASF10:
 4243 00ec 75696E74 		.ascii	"uint32\000"
 4243      333200
 4244              	.LASF74:
 4245 00f3 50574D5F 		.ascii	"PWM_Timer_ClearInterrupt\000"
 4245      54696D65 
 4245      725F436C 
 4245      65617249 
 4245      6E746572 
 4246              	.LASF62:
 4247 010c 74726967 		.ascii	"triggerMode\000"
 4247      6765724D 
 4247      6F646500 
 4248              	.LASF60:
 4249 0118 50574D5F 		.ascii	"PWM_Timer_ReadCaptureBuf\000"
 4249      54696D65 
ARM GAS  C:\Users\OEBN\AppData\Local\Temp\cc4YkDS7.s 			page 101


 4249      725F5265 
 4249      61644361 
 4249      70747572 
 4250              	.LASF17:
 4251 0131 50574D5F 		.ascii	"PWM_Timer_Start\000"
 4251      54696D65 
 4251      725F5374 
 4251      61727400 
 4252              	.LASF65:
 4253 0141 50574D5F 		.ascii	"PWM_Timer_SetStopMode\000"
 4253      54696D65 
 4253      725F5365 
 4253      7453746F 
 4253      704D6F64 
 4254              	.LASF78:
 4255 0157 433A5C50 		.ascii	"C:\\PSoc\\SCB_Bootloader\\FLC.cydsn\000"
 4255      536F635C 
 4255      5343425F 
 4255      426F6F74 
 4255      6C6F6164 
 4256              	.LASF8:
 4257 0178 756E7369 		.ascii	"unsigned int\000"
 4257      676E6564 
 4257      20696E74 
 4257      00
 4258              	.LASF33:
 4259 0185 50574D5F 		.ascii	"PWM_Timer_SetPWMStopOnKill\000"
 4259      54696D65 
 4259      725F5365 
 4259      7450574D 
 4259      53746F70 
 4260              	.LASF21:
 4261 01a0 50574D5F 		.ascii	"PWM_Timer_SetMode\000"
 4261      54696D65 
 4261      725F5365 
 4261      744D6F64 
 4261      6500
 4262              	.LASF51:
 4263 01b2 50574D5F 		.ascii	"PWM_Timer_ReadPeriodBuf\000"
 4263      54696D65 
 4263      725F5265 
 4263      61645065 
 4263      72696F64 
 4264              	.LASF68:
 4265 01ca 636F6D6D 		.ascii	"command\000"
 4265      616E6400 
 4266              	.LASF5:
 4267 01d2 6C6F6E67 		.ascii	"long unsigned int\000"
 4267      20756E73 
 4267      69676E65 
 4267      6420696E 
 4267      7400
 4268              	.LASF30:
 4269 01e4 6D6F6465 		.ascii	"modeMask\000"
 4269      4D61736B 
 4269      00
 4270              	.LASF47:
ARM GAS  C:\Users\OEBN\AppData\Local\Temp\cc4YkDS7.s 			page 102


 4271 01ed 50574D5F 		.ascii	"PWM_Timer_SetCompareSwap\000"
 4271      54696D65 
 4271      725F5365 
 4271      74436F6D 
 4271      70617265 
 4272              	.LASF3:
 4273 0206 73686F72 		.ascii	"short unsigned int\000"
 4273      7420756E 
 4273      7369676E 
 4273      65642069 
 4273      6E7400
 4274              	.LASF52:
 4275 0219 50574D5F 		.ascii	"PWM_Timer_SetPeriodSwap\000"
 4275      54696D65 
 4275      725F5365 
 4275      74506572 
 4275      696F6453 
 4276              	.LASF27:
 4277 0231 50574D5F 		.ascii	"PWM_Timer_SetOneShot\000"
 4277      54696D65 
 4277      725F5365 
 4277      744F6E65 
 4277      53686F74 
 4278              	.LASF66:
 4279 0246 50574D5F 		.ascii	"PWM_Timer_SetCountMode\000"
 4279      54696D65 
 4279      725F5365 
 4279      74436F75 
 4279      6E744D6F 
 4280              	.LASF28:
 4281 025d 6F6E6553 		.ascii	"oneShotEnable\000"
 4281      686F7445 
 4281      6E61626C 
 4281      6500
 4282              	.LASF19:
 4283 026b 50574D5F 		.ascii	"PWM_Timer_Stop\000"
 4283      54696D65 
 4283      725F5374 
 4283      6F7000
 4284              	.LASF43:
 4285 027a 50574D5F 		.ascii	"PWM_Timer_WritePeriod\000"
 4285      54696D65 
 4285      725F5772 
 4285      69746550 
 4285      6572696F 
 4286              	.LASF31:
 4287 0290 50574D5F 		.ascii	"PWM_Timer_SetPWMSyncKill\000"
 4287      54696D65 
 4287      725F5365 
 4287      7450574D 
 4287      53796E63 
 4288              	.LASF69:
 4289 02a9 50574D5F 		.ascii	"PWM_Timer_ReadStatus\000"
 4289      54696D65 
 4289      725F5265 
 4289      61645374 
 4289      61747573 
ARM GAS  C:\Users\OEBN\AppData\Local\Temp\cc4YkDS7.s 			page 103


 4290              	.LASF14:
 4291 02be 72656733 		.ascii	"reg32\000"
 4291      3200
 4292              	.LASF22:
 4293 02c4 50574D5F 		.ascii	"PWM_Timer_SetQDMode\000"
 4293      54696D65 
 4293      725F5365 
 4293      7451444D 
 4293      6F646500 
 4294              	.LASF64:
 4295 02d8 50574D5F 		.ascii	"PWM_Timer_SetStartMode\000"
 4295      54696D65 
 4295      725F5365 
 4295      74537461 
 4295      72744D6F 
 4296              	.LASF15:
 4297 02ef 73697A65 		.ascii	"sizetype\000"
 4297      74797065 
 4297      00
 4298              	.LASF53:
 4299 02f8 50574D5F 		.ascii	"PWM_Timer_WriteCompare\000"
 4299      54696D65 
 4299      725F5772 
 4299      69746543 
 4299      6F6D7061 
 4300              	.LASF32:
 4301 030f 73796E63 		.ascii	"syncKillEnable\000"
 4301      4B696C6C 
 4301      456E6162 
 4301      6C6500
 4302              	.LASF54:
 4303 031e 636F6D70 		.ascii	"compare\000"
 4303      61726500 
 4304              	.LASF41:
 4305 0326 50574D5F 		.ascii	"PWM_Timer_SetCounterMode\000"
 4305      54696D65 
 4305      725F5365 
 4305      74436F75 
 4305      6E746572 
 4306              	.LASF70:
 4307 033f 50574D5F 		.ascii	"PWM_Timer_SetInterruptMode\000"
 4307      54696D65 
 4307      725F5365 
 4307      74496E74 
 4307      65727275 
 4308              	.LASF67:
 4309 035a 50574D5F 		.ascii	"PWM_Timer_TriggerCommand\000"
 4309      54696D65 
 4309      725F5472 
 4309      69676765 
 4309      72436F6D 
 4310              	.LASF63:
 4311 0373 50574D5F 		.ascii	"PWM_Timer_SetReloadMode\000"
 4311      54696D65 
 4311      725F5365 
 4311      7452656C 
 4311      6F61644D 
ARM GAS  C:\Users\OEBN\AppData\Local\Temp\cc4YkDS7.s 			page 104


 4312              	.LASF59:
 4313 038b 50574D5F 		.ascii	"PWM_Timer_ReadCapture\000"
 4313      54696D65 
 4313      725F5265 
 4313      61644361 
 4313      70747572 
 4314              	.LASF77:
 4315 03a1 2E5C4765 		.ascii	".\\Generated_Source\\PSoC4\\PWM_Timer.c\000"
 4315      6E657261 
 4315      7465645F 
 4315      536F7572 
 4315      63655C50 
 4316              	.LASF26:
 4317 03c6 70726573 		.ascii	"prescaler\000"
 4317      63616C65 
 4317      7200
 4318              	.LASF75:
 4319 03d0 50574D5F 		.ascii	"PWM_Timer_SetInterrupt\000"
 4319      54696D65 
 4319      725F5365 
 4319      74496E74 
 4319      65727275 
 4320              	.LASF76:
 4321 03e7 474E5520 		.ascii	"GNU C 4.7.3 20130312 (release) [ARM/embedded-4_7-br"
 4321      4320342E 
 4321      372E3320 
 4321      32303133 
 4321      30333132 
 4322 041a 616E6368 		.ascii	"anch revision 196615]\000"
 4322      20726576 
 4322      6973696F 
 4322      6E203139 
 4322      36363135 
 4323              	.LASF25:
 4324 0430 50574D5F 		.ascii	"PWM_Timer_SetPrescaler\000"
 4324      54696D65 
 4324      725F5365 
 4324      74507265 
 4324      7363616C 
 4325              	.LASF39:
 4326 0447 50574D5F 		.ascii	"PWM_Timer_WriteCounter\000"
 4326      54696D65 
 4326      725F5772 
 4326      69746543 
 4326      6F756E74 
 4327              	.LASF1:
 4328 045e 756E7369 		.ascii	"unsigned char\000"
 4328      676E6564 
 4328      20636861 
 4328      7200
 4329              	.LASF34:
 4330 046c 73746F70 		.ascii	"stopOnKillEnable\000"
 4330      4F6E4B69 
 4330      6C6C456E 
 4330      61626C65 
 4330      00
 4331              	.LASF58:
ARM GAS  C:\Users\OEBN\AppData\Local\Temp\cc4YkDS7.s 			page 105


 4332 047d 50574D5F 		.ascii	"PWM_Timer_ReadCompareBuf\000"
 4332      54696D65 
 4332      725F5265 
 4332      6164436F 
 4332      6D706172 
 4333              	.LASF2:
 4334 0496 73686F72 		.ascii	"short int\000"
 4334      7420696E 
 4334      7400
 4335              	.LASF46:
 4336 04a0 50574D5F 		.ascii	"PWM_Timer_ReadPeriod\000"
 4336      54696D65 
 4336      725F5265 
 4336      61645065 
 4336      72696F64 
 4337              	.LASF18:
 4338 04b5 50574D5F 		.ascii	"PWM_Timer_Enable\000"
 4338      54696D65 
 4338      725F456E 
 4338      61626C65 
 4338      00
 4339              	.LASF56:
 4340 04c6 50574D5F 		.ascii	"PWM_Timer_WriteCompareBuf\000"
 4340      54696D65 
 4340      725F5772 
 4340      69746543 
 4340      6F6D7061 
 4341              	.LASF71:
 4342 04e0 696E7465 		.ascii	"interruptMask\000"
 4342      72727570 
 4342      744D6173 
 4342      6B00
 4343              	.LASF73:
 4344 04ee 50574D5F 		.ascii	"PWM_Timer_GetInterruptSource\000"
 4344      54696D65 
 4344      725F4765 
 4344      74496E74 
 4344      65727275 
 4345              	.LASF35:
 4346 050b 50574D5F 		.ascii	"PWM_Timer_SetPWMDeadTime\000"
 4346      54696D65 
 4346      725F5365 
 4346      7450574D 
 4346      44656164 
 4347              	.LASF13:
 4348 0524 63686172 		.ascii	"char\000"
 4348      00
 4349              	.LASF23:
 4350 0529 6D6F6465 		.ascii	"mode\000"
 4350      00
 4351              	.LASF37:
 4352 052e 50574D5F 		.ascii	"PWM_Timer_SetPWMInvert\000"
 4352      54696D65 
 4352      725F5365 
 4352      7450574D 
 4352      496E7665 
 4353              	.LASF42:
ARM GAS  C:\Users\OEBN\AppData\Local\Temp\cc4YkDS7.s 			page 106


 4354 0545 636F756E 		.ascii	"counterMode\000"
 4354      7465724D 
 4354      6F646500 
 4355              	.LASF16:
 4356 0551 50574D5F 		.ascii	"PWM_Timer_Init\000"
 4356      54696D65 
 4356      725F496E 
 4356      697400
 4357              	.LASF29:
 4358 0560 50574D5F 		.ascii	"PWM_Timer_SetPWMMode\000"
 4358      54696D65 
 4358      725F5365 
 4358      7450574D 
 4358      4D6F6465 
 4359              	.LASF20:
 4360 0575 656E6162 		.ascii	"enableInterrupts\000"
 4360      6C65496E 
 4360      74657272 
 4360      75707473 
 4360      00
 4361              	.LASF38:
 4362 0586 6D61736B 		.ascii	"mask\000"
 4362      00
 4363              	.LASF11:
 4364 058b 666C6F61 		.ascii	"float\000"
 4364      7400
 4365              	.LASF48:
 4366 0591 73776170 		.ascii	"swapEnable\000"
 4366      456E6162 
 4366      6C6500
 4367              	.LASF55:
 4368 059c 50574D5F 		.ascii	"PWM_Timer_ReadCompare\000"
 4368      54696D65 
 4368      725F5265 
 4368      6164436F 
 4368      6D706172 
 4369              	.LASF50:
 4370 05b2 70657269 		.ascii	"periodBuf\000"
 4370      6F644275 
 4370      6600
 4371              		.ident	"GCC: (GNU Tools for ARM Embedded Processors) 4.7.3 20130312 (release) [ARM/embedded-4_7-br
