ARM GAS  C:\Users\OEBN\AppData\Local\Temp\cc2uhR5V.s 			page 1


   1              		.cpu cortex-m0
   2              		.fpu softvfp
   3              		.eabi_attribute 20, 1
   4              		.eabi_attribute 21, 1
   5              		.eabi_attribute 23, 3
   6              		.eabi_attribute 24, 1
   7              		.eabi_attribute 25, 1
   8              		.eabi_attribute 26, 1
   9              		.eabi_attribute 30, 6
  10              		.eabi_attribute 34, 0
  11              		.eabi_attribute 18, 4
  12              		.code	16
  13              		.file	"PWM_2.c"
  14              		.text
  15              	.Ltext0:
  16              		.cfi_sections	.debug_frame
  17              		.global	PWM_2_initVar
  18              		.bss
  19              		.type	PWM_2_initVar, %object
  20              		.size	PWM_2_initVar, 1
  21              	PWM_2_initVar:
  22 0000 00       		.space	1
  23              		.section	.text.PWM_2_Init,"ax",%progbits
  24              		.align	2
  25              		.global	PWM_2_Init
  26              		.code	16
  27              		.thumb_func
  28              		.type	PWM_2_Init, %function
  29              	PWM_2_Init:
  30              	.LFB0:
  31              		.file 1 ".\\Generated_Source\\PSoC4\\PWM_2.c"
   1:.\Generated_Source\PSoC4/PWM_2.c **** /*******************************************************************************
   2:.\Generated_Source\PSoC4/PWM_2.c **** * File Name: PWM_2.c
   3:.\Generated_Source\PSoC4/PWM_2.c **** * Version 1.10
   4:.\Generated_Source\PSoC4/PWM_2.c **** *
   5:.\Generated_Source\PSoC4/PWM_2.c **** * Description:
   6:.\Generated_Source\PSoC4/PWM_2.c **** *  This file provides the source code to the API for the PWM_2
   7:.\Generated_Source\PSoC4/PWM_2.c **** *  component
   8:.\Generated_Source\PSoC4/PWM_2.c **** *
   9:.\Generated_Source\PSoC4/PWM_2.c **** * Note:
  10:.\Generated_Source\PSoC4/PWM_2.c **** *  None
  11:.\Generated_Source\PSoC4/PWM_2.c **** *
  12:.\Generated_Source\PSoC4/PWM_2.c **** ********************************************************************************
  13:.\Generated_Source\PSoC4/PWM_2.c **** * Copyright 2013-2014, Cypress Semiconductor Corporation.  All rights reserved.
  14:.\Generated_Source\PSoC4/PWM_2.c **** * You may use this file only in accordance with the license, terms, conditions,
  15:.\Generated_Source\PSoC4/PWM_2.c **** * disclaimers, and limitations in the end user license agreement accompanying
  16:.\Generated_Source\PSoC4/PWM_2.c **** * the software package with which this file was provided.
  17:.\Generated_Source\PSoC4/PWM_2.c **** *******************************************************************************/
  18:.\Generated_Source\PSoC4/PWM_2.c **** 
  19:.\Generated_Source\PSoC4/PWM_2.c **** #include "PWM_2.h"
  20:.\Generated_Source\PSoC4/PWM_2.c **** #include "CyLib.h"
  21:.\Generated_Source\PSoC4/PWM_2.c **** 
  22:.\Generated_Source\PSoC4/PWM_2.c **** uint8 PWM_2_initVar = 0u;
  23:.\Generated_Source\PSoC4/PWM_2.c **** 
  24:.\Generated_Source\PSoC4/PWM_2.c **** 
  25:.\Generated_Source\PSoC4/PWM_2.c **** /*******************************************************************************
  26:.\Generated_Source\PSoC4/PWM_2.c **** * Function Name: PWM_2_Init
ARM GAS  C:\Users\OEBN\AppData\Local\Temp\cc2uhR5V.s 			page 2


  27:.\Generated_Source\PSoC4/PWM_2.c **** ********************************************************************************
  28:.\Generated_Source\PSoC4/PWM_2.c **** *
  29:.\Generated_Source\PSoC4/PWM_2.c **** * Summary:
  30:.\Generated_Source\PSoC4/PWM_2.c **** *  Initialize/Restore default PWM_2 configuration.
  31:.\Generated_Source\PSoC4/PWM_2.c **** *
  32:.\Generated_Source\PSoC4/PWM_2.c **** * Parameters:
  33:.\Generated_Source\PSoC4/PWM_2.c **** *  None
  34:.\Generated_Source\PSoC4/PWM_2.c **** *
  35:.\Generated_Source\PSoC4/PWM_2.c **** * Return:
  36:.\Generated_Source\PSoC4/PWM_2.c **** *  None
  37:.\Generated_Source\PSoC4/PWM_2.c **** *
  38:.\Generated_Source\PSoC4/PWM_2.c **** *******************************************************************************/
  39:.\Generated_Source\PSoC4/PWM_2.c **** void PWM_2_Init(void)
  40:.\Generated_Source\PSoC4/PWM_2.c **** {
  32              		.loc 1 40 0
  33              		.cfi_startproc
  34 0000 80B5     		push	{r7, lr}
  35              	.LCFI0:
  36              		.cfi_def_cfa_offset 8
  37              		.cfi_offset 7, -8
  38              		.cfi_offset 14, -4
  39 0002 00AF     		add	r7, sp, #0
  40              	.LCFI1:
  41              		.cfi_def_cfa_register 7
  41:.\Generated_Source\PSoC4/PWM_2.c **** 
  42:.\Generated_Source\PSoC4/PWM_2.c ****     /* Set values from customizer to CTRL */
  43:.\Generated_Source\PSoC4/PWM_2.c ****     #if (PWM_2__QUAD == PWM_2_CONFIG)
  44:.\Generated_Source\PSoC4/PWM_2.c ****         PWM_2_CONTROL_REG =
  45:.\Generated_Source\PSoC4/PWM_2.c ****         (((uint32)(PWM_2_QUAD_ENCODING_MODES     << PWM_2_QUAD_MODE_SHIFT))       |
  46:.\Generated_Source\PSoC4/PWM_2.c ****          ((uint32)(PWM_2_CONFIG                  << PWM_2_MODE_SHIFT)));
  47:.\Generated_Source\PSoC4/PWM_2.c ****     #endif  /* (PWM_2__QUAD == PWM_2_CONFIG) */
  48:.\Generated_Source\PSoC4/PWM_2.c **** 
  49:.\Generated_Source\PSoC4/PWM_2.c ****     #if (PWM_2__PWM_SEL == PWM_2_CONFIG)
  50:.\Generated_Source\PSoC4/PWM_2.c ****         PWM_2_CONTROL_REG =
  42              		.loc 1 50 0
  43 0004 104B     		ldr	r3, .L2
  44 0006 8022     		mov	r2, #128
  45 0008 D204     		lsl	r2, r2, #19
  46 000a 1A60     		str	r2, [r3]
  51:.\Generated_Source\PSoC4/PWM_2.c ****         (((uint32)(PWM_2_PWM_STOP_EVENT          << PWM_2_PWM_STOP_KILL_SHIFT))    |
  52:.\Generated_Source\PSoC4/PWM_2.c ****          ((uint32)(PWM_2_PWM_OUT_INVERT          << PWM_2_INV_OUT_SHIFT))         |
  53:.\Generated_Source\PSoC4/PWM_2.c ****          ((uint32)(PWM_2_PWM_OUT_N_INVERT        << PWM_2_INV_COMPL_OUT_SHIFT))     |
  54:.\Generated_Source\PSoC4/PWM_2.c ****          ((uint32)(PWM_2_PWM_MODE                << PWM_2_MODE_SHIFT)));
  55:.\Generated_Source\PSoC4/PWM_2.c **** 
  56:.\Generated_Source\PSoC4/PWM_2.c ****         #if (PWM_2__PWM_PR == PWM_2_PWM_MODE)
  57:.\Generated_Source\PSoC4/PWM_2.c ****             PWM_2_CONTROL_REG |=
  58:.\Generated_Source\PSoC4/PWM_2.c ****             ((uint32)(PWM_2_PWM_RUN_MODE         << PWM_2_ONESHOT_SHIFT));
  59:.\Generated_Source\PSoC4/PWM_2.c **** 
  60:.\Generated_Source\PSoC4/PWM_2.c ****             PWM_2_WriteCounter(PWM_2_PWM_PR_INIT_VALUE);
  61:.\Generated_Source\PSoC4/PWM_2.c ****         #else
  62:.\Generated_Source\PSoC4/PWM_2.c ****             PWM_2_CONTROL_REG |=
  47              		.loc 1 62 0
  48 000c 0E4B     		ldr	r3, .L2
  49 000e 0E4A     		ldr	r2, .L2
  50 0010 1268     		ldr	r2, [r2]
  51 0012 1A60     		str	r2, [r3]
  63:.\Generated_Source\PSoC4/PWM_2.c ****             (((uint32)(PWM_2_PWM_ALIGN           << PWM_2_UPDOWN_SHIFT))          |
ARM GAS  C:\Users\OEBN\AppData\Local\Temp\cc2uhR5V.s 			page 3


  64:.\Generated_Source\PSoC4/PWM_2.c ****              ((uint32)(PWM_2_PWM_KILL_EVENT      << PWM_2_PWM_SYNC_KILL_SHIFT)));
  65:.\Generated_Source\PSoC4/PWM_2.c ****         #endif  /* (PWM_2__PWM_PR == PWM_2_PWM_MODE) */
  66:.\Generated_Source\PSoC4/PWM_2.c **** 
  67:.\Generated_Source\PSoC4/PWM_2.c ****         #if (PWM_2__PWM_DT == PWM_2_PWM_MODE)
  68:.\Generated_Source\PSoC4/PWM_2.c ****             PWM_2_CONTROL_REG |=
  69:.\Generated_Source\PSoC4/PWM_2.c ****             ((uint32)(PWM_2_PWM_DEAD_TIME_CYCLE  << PWM_2_PRESCALER_SHIFT));
  70:.\Generated_Source\PSoC4/PWM_2.c ****         #endif  /* (PWM_2__PWM_DT == PWM_2_PWM_MODE) */
  71:.\Generated_Source\PSoC4/PWM_2.c **** 
  72:.\Generated_Source\PSoC4/PWM_2.c ****         #if (PWM_2__PWM == PWM_2_PWM_MODE)
  73:.\Generated_Source\PSoC4/PWM_2.c ****             PWM_2_CONTROL_REG |=
  52              		.loc 1 73 0
  53 0014 0C4B     		ldr	r3, .L2
  54 0016 0C4A     		ldr	r2, .L2
  55 0018 1268     		ldr	r2, [r2]
  56 001a 8021     		mov	r1, #128
  57 001c 4900     		lsl	r1, r1, #1
  58 001e 0A43     		orr	r2, r1
  59 0020 1A60     		str	r2, [r3]
  74:.\Generated_Source\PSoC4/PWM_2.c ****             ((uint32)PWM_2_PWM_PRESCALER         << PWM_2_PRESCALER_SHIFT);
  75:.\Generated_Source\PSoC4/PWM_2.c ****         #endif  /* (PWM_2__PWM == PWM_2_PWM_MODE) */
  76:.\Generated_Source\PSoC4/PWM_2.c ****     #endif  /* (PWM_2__PWM_SEL == PWM_2_CONFIG) */
  77:.\Generated_Source\PSoC4/PWM_2.c **** 
  78:.\Generated_Source\PSoC4/PWM_2.c ****     #if (PWM_2__TIMER == PWM_2_CONFIG)
  79:.\Generated_Source\PSoC4/PWM_2.c ****         PWM_2_CONTROL_REG =
  80:.\Generated_Source\PSoC4/PWM_2.c ****         (((uint32)(PWM_2_TC_PRESCALER            << PWM_2_PRESCALER_SHIFT))   |
  81:.\Generated_Source\PSoC4/PWM_2.c ****          ((uint32)(PWM_2_TC_COUNTER_MODE         << PWM_2_UPDOWN_SHIFT))      |
  82:.\Generated_Source\PSoC4/PWM_2.c ****          ((uint32)(PWM_2_TC_RUN_MODE             << PWM_2_ONESHOT_SHIFT))     |
  83:.\Generated_Source\PSoC4/PWM_2.c ****          ((uint32)(PWM_2_TC_COMP_CAP_MODE        << PWM_2_MODE_SHIFT)));
  84:.\Generated_Source\PSoC4/PWM_2.c ****     #endif  /* (PWM_2__TIMER == PWM_2_CONFIG) */
  85:.\Generated_Source\PSoC4/PWM_2.c **** 
  86:.\Generated_Source\PSoC4/PWM_2.c ****     /* Set values from customizer to CTRL1 */
  87:.\Generated_Source\PSoC4/PWM_2.c ****     #if (PWM_2__QUAD == PWM_2_CONFIG)
  88:.\Generated_Source\PSoC4/PWM_2.c ****         PWM_2_TRIG_CONTROL1_REG  =
  89:.\Generated_Source\PSoC4/PWM_2.c ****         (((uint32)(PWM_2_QUAD_PHIA_SIGNAL_MODE   << PWM_2_COUNT_SHIFT))       |
  90:.\Generated_Source\PSoC4/PWM_2.c ****          ((uint32)(PWM_2_QUAD_INDEX_SIGNAL_MODE  << PWM_2_RELOAD_SHIFT))      |
  91:.\Generated_Source\PSoC4/PWM_2.c ****          ((uint32)(PWM_2_QUAD_STOP_SIGNAL_MODE   << PWM_2_STOP_SHIFT))        |
  92:.\Generated_Source\PSoC4/PWM_2.c ****          ((uint32)(PWM_2_QUAD_PHIB_SIGNAL_MODE   << PWM_2_START_SHIFT)));
  93:.\Generated_Source\PSoC4/PWM_2.c ****     #endif  /* (PWM_2__QUAD == PWM_2_CONFIG) */
  94:.\Generated_Source\PSoC4/PWM_2.c **** 
  95:.\Generated_Source\PSoC4/PWM_2.c ****     #if (PWM_2__PWM_SEL == PWM_2_CONFIG)
  96:.\Generated_Source\PSoC4/PWM_2.c ****         PWM_2_TRIG_CONTROL1_REG  =
  60              		.loc 1 96 0
  61 0022 0A4B     		ldr	r3, .L2+4
  62 0024 0C22     		mov	r2, #12
  63 0026 1A60     		str	r2, [r3]
  97:.\Generated_Source\PSoC4/PWM_2.c ****         (((uint32)(PWM_2_PWM_SWITCH_SIGNAL_MODE  << PWM_2_CAPTURE_SHIFT))     |
  98:.\Generated_Source\PSoC4/PWM_2.c ****          ((uint32)(PWM_2_PWM_COUNT_SIGNAL_MODE   << PWM_2_COUNT_SHIFT))       |
  99:.\Generated_Source\PSoC4/PWM_2.c ****          ((uint32)(PWM_2_PWM_RELOAD_SIGNAL_MODE  << PWM_2_RELOAD_SHIFT))      |
 100:.\Generated_Source\PSoC4/PWM_2.c ****          ((uint32)(PWM_2_PWM_STOP_SIGNAL_MODE    << PWM_2_STOP_SHIFT))        |
 101:.\Generated_Source\PSoC4/PWM_2.c ****          ((uint32)(PWM_2_PWM_START_SIGNAL_MODE   << PWM_2_START_SHIFT)));
 102:.\Generated_Source\PSoC4/PWM_2.c ****     #endif  /* (PWM_2__PWM_SEL == PWM_2_CONFIG) */
 103:.\Generated_Source\PSoC4/PWM_2.c **** 
 104:.\Generated_Source\PSoC4/PWM_2.c ****     #if (PWM_2__TIMER == PWM_2_CONFIG)
 105:.\Generated_Source\PSoC4/PWM_2.c ****         PWM_2_TRIG_CONTROL1_REG  =
 106:.\Generated_Source\PSoC4/PWM_2.c ****         (((uint32)(PWM_2_TC_CAPTURE_SIGNAL_MODE  << PWM_2_CAPTURE_SHIFT))     |
 107:.\Generated_Source\PSoC4/PWM_2.c ****          ((uint32)(PWM_2_TC_COUNT_SIGNAL_MODE    << PWM_2_COUNT_SHIFT))       |
 108:.\Generated_Source\PSoC4/PWM_2.c ****          ((uint32)(PWM_2_TC_RELOAD_SIGNAL_MODE   << PWM_2_RELOAD_SHIFT))      |
ARM GAS  C:\Users\OEBN\AppData\Local\Temp\cc2uhR5V.s 			page 4


 109:.\Generated_Source\PSoC4/PWM_2.c ****          ((uint32)(PWM_2_TC_STOP_SIGNAL_MODE     << PWM_2_STOP_SHIFT))        |
 110:.\Generated_Source\PSoC4/PWM_2.c ****          ((uint32)(PWM_2_TC_START_SIGNAL_MODE    << PWM_2_START_SHIFT)));
 111:.\Generated_Source\PSoC4/PWM_2.c ****     #endif  /* (PWM_2__TIMER == PWM_2_CONFIG) */
 112:.\Generated_Source\PSoC4/PWM_2.c **** 
 113:.\Generated_Source\PSoC4/PWM_2.c ****     /* Set values from customizer to INTR */
 114:.\Generated_Source\PSoC4/PWM_2.c ****     #if (PWM_2__QUAD == PWM_2_CONFIG)
 115:.\Generated_Source\PSoC4/PWM_2.c ****         PWM_2_SetInterruptMode(PWM_2_QUAD_INTERRUPT_MASK);
 116:.\Generated_Source\PSoC4/PWM_2.c ****     #endif  /* (PWM_2__QUAD == PWM_2_CONFIG) */
 117:.\Generated_Source\PSoC4/PWM_2.c **** 
 118:.\Generated_Source\PSoC4/PWM_2.c ****     #if (PWM_2__PWM_SEL == PWM_2_CONFIG)
 119:.\Generated_Source\PSoC4/PWM_2.c ****         PWM_2_SetInterruptMode(PWM_2_PWM_INTERRUPT_MASK);
  64              		.loc 1 119 0
  65 0028 0120     		mov	r0, #1
  66 002a FFF7FEFF 		bl	PWM_2_SetInterruptMode
 120:.\Generated_Source\PSoC4/PWM_2.c ****     #endif  /* (PWM_2__PWM_SEL == PWM_2_CONFIG) */
 121:.\Generated_Source\PSoC4/PWM_2.c **** 
 122:.\Generated_Source\PSoC4/PWM_2.c ****     #if (PWM_2__TIMER == PWM_2_CONFIG)
 123:.\Generated_Source\PSoC4/PWM_2.c ****         PWM_2_SetInterruptMode(PWM_2_TC_INTERRUPT_MASK);
 124:.\Generated_Source\PSoC4/PWM_2.c ****     #endif  /* (PWM_2__TIMER == PWM_2_CONFIG) */
 125:.\Generated_Source\PSoC4/PWM_2.c **** 
 126:.\Generated_Source\PSoC4/PWM_2.c ****     /* Set other values from customizer */
 127:.\Generated_Source\PSoC4/PWM_2.c ****     #if (PWM_2__TIMER == PWM_2_CONFIG)
 128:.\Generated_Source\PSoC4/PWM_2.c ****         PWM_2_WritePeriod(PWM_2_TC_PERIOD_VALUE );
 129:.\Generated_Source\PSoC4/PWM_2.c **** 
 130:.\Generated_Source\PSoC4/PWM_2.c ****         #if (PWM_2__COUNT_DOWN == PWM_2_TC_COUNTER_MODE)
 131:.\Generated_Source\PSoC4/PWM_2.c ****             PWM_2_WriteCounter(PWM_2_TC_PERIOD_VALUE );
 132:.\Generated_Source\PSoC4/PWM_2.c ****         #endif  /* (PWM_2__COUNT_DOWN == PWM_2_TC_COUNTER_MODE) */
 133:.\Generated_Source\PSoC4/PWM_2.c **** 
 134:.\Generated_Source\PSoC4/PWM_2.c ****         #if (PWM_2__COMPARE == PWM_2_TC_COMP_CAP_MODE)
 135:.\Generated_Source\PSoC4/PWM_2.c ****             PWM_2_WriteCompare(PWM_2_TC_COMPARE_VALUE);
 136:.\Generated_Source\PSoC4/PWM_2.c **** 
 137:.\Generated_Source\PSoC4/PWM_2.c ****             #if (1u == PWM_2_TC_COMPARE_SWAP)
 138:.\Generated_Source\PSoC4/PWM_2.c ****                 PWM_2_SetCompareSwap(1u);
 139:.\Generated_Source\PSoC4/PWM_2.c ****                 PWM_2_WriteCompareBuf(PWM_2_TC_COMPARE_BUF_VALUE);
 140:.\Generated_Source\PSoC4/PWM_2.c ****             #endif  /* (1u == PWM_2_TC_COMPARE_SWAP) */
 141:.\Generated_Source\PSoC4/PWM_2.c ****         #endif  /* (PWM_2__COMPARE == PWM_2_TC_COMP_CAP_MODE) */
 142:.\Generated_Source\PSoC4/PWM_2.c ****     #endif  /* (PWM_2__TIMER == PWM_2_CONFIG) */
 143:.\Generated_Source\PSoC4/PWM_2.c **** 
 144:.\Generated_Source\PSoC4/PWM_2.c ****     #if (PWM_2__PWM_SEL == PWM_2_CONFIG)
 145:.\Generated_Source\PSoC4/PWM_2.c ****         PWM_2_WritePeriod(PWM_2_PWM_PERIOD_VALUE );
  67              		.loc 1 145 0
  68 002e 084B     		ldr	r3, .L2+8
  69 0030 181C     		mov	r0, r3
  70 0032 FFF7FEFF 		bl	PWM_2_WritePeriod
 146:.\Generated_Source\PSoC4/PWM_2.c ****         PWM_2_WriteCompare(PWM_2_PWM_COMPARE_VALUE);
  71              		.loc 1 146 0
  72 0036 064B     		ldr	r3, .L2+8
  73 0038 181C     		mov	r0, r3
  74 003a FFF7FEFF 		bl	PWM_2_WriteCompare
 147:.\Generated_Source\PSoC4/PWM_2.c **** 
 148:.\Generated_Source\PSoC4/PWM_2.c ****         #if (1u == PWM_2_PWM_COMPARE_SWAP)
 149:.\Generated_Source\PSoC4/PWM_2.c ****             PWM_2_SetCompareSwap(1u);
 150:.\Generated_Source\PSoC4/PWM_2.c ****             PWM_2_WriteCompareBuf(PWM_2_PWM_COMPARE_BUF_VALUE);
 151:.\Generated_Source\PSoC4/PWM_2.c ****         #endif  /* (1u == PWM_2_PWM_COMPARE_SWAP) */
 152:.\Generated_Source\PSoC4/PWM_2.c **** 
 153:.\Generated_Source\PSoC4/PWM_2.c ****         #if (1u == PWM_2_PWM_PERIOD_SWAP)
 154:.\Generated_Source\PSoC4/PWM_2.c ****             PWM_2_SetPeriodSwap(1u);
ARM GAS  C:\Users\OEBN\AppData\Local\Temp\cc2uhR5V.s 			page 5


 155:.\Generated_Source\PSoC4/PWM_2.c ****             PWM_2_WritePeriodBuf(PWM_2_PWM_PERIOD_BUF_VALUE);
 156:.\Generated_Source\PSoC4/PWM_2.c ****         #endif  /* (1u == PWM_2_PWM_PERIOD_SWAP) */
 157:.\Generated_Source\PSoC4/PWM_2.c **** 
 158:.\Generated_Source\PSoC4/PWM_2.c ****         /* Set values from customizer to CTRL2 */
 159:.\Generated_Source\PSoC4/PWM_2.c ****         #if (PWM_2__PWM_PR == PWM_2_PWM_MODE)
 160:.\Generated_Source\PSoC4/PWM_2.c ****             PWM_2_TRIG_CONTROL2_REG =
 161:.\Generated_Source\PSoC4/PWM_2.c ****                     (PWM_2_CC_MATCH_NO_CHANGE    |
 162:.\Generated_Source\PSoC4/PWM_2.c ****                     PWM_2_OVERLOW_NO_CHANGE      |
 163:.\Generated_Source\PSoC4/PWM_2.c ****                     PWM_2_UNDERFLOW_NO_CHANGE);
 164:.\Generated_Source\PSoC4/PWM_2.c ****         #else
 165:.\Generated_Source\PSoC4/PWM_2.c ****             #if (PWM_2__LEFT == PWM_2_PWM_ALIGN)
 166:.\Generated_Source\PSoC4/PWM_2.c ****                 PWM_2_TRIG_CONTROL2_REG = PWM_2_PWM_MODE_LEFT;
  75              		.loc 1 166 0
  76 003e 054B     		ldr	r3, .L2+12
  77 0040 3122     		mov	r2, #49
  78 0042 1A60     		str	r2, [r3]
 167:.\Generated_Source\PSoC4/PWM_2.c ****             #endif  /* ( PWM_2_PWM_LEFT == PWM_2_PWM_ALIGN) */
 168:.\Generated_Source\PSoC4/PWM_2.c **** 
 169:.\Generated_Source\PSoC4/PWM_2.c ****             #if (PWM_2__RIGHT == PWM_2_PWM_ALIGN)
 170:.\Generated_Source\PSoC4/PWM_2.c ****                 PWM_2_WriteCounter(PWM_2_PWM_PERIOD_VALUE);
 171:.\Generated_Source\PSoC4/PWM_2.c ****                 PWM_2_TRIG_CONTROL2_REG = PWM_2_PWM_MODE_RIGHT;
 172:.\Generated_Source\PSoC4/PWM_2.c ****             #endif  /* ( PWM_2_PWM_RIGHT == PWM_2_PWM_ALIGN) */
 173:.\Generated_Source\PSoC4/PWM_2.c **** 
 174:.\Generated_Source\PSoC4/PWM_2.c ****             #if (PWM_2__CENTER == PWM_2_PWM_ALIGN)
 175:.\Generated_Source\PSoC4/PWM_2.c ****                 PWM_2_TRIG_CONTROL2_REG = PWM_2_PWM_MODE_CENTER;
 176:.\Generated_Source\PSoC4/PWM_2.c ****             #endif  /* ( PWM_2_PWM_CENTER == PWM_2_PWM_ALIGN) */
 177:.\Generated_Source\PSoC4/PWM_2.c **** 
 178:.\Generated_Source\PSoC4/PWM_2.c ****             #if (PWM_2__ASYMMETRIC == PWM_2_PWM_ALIGN)
 179:.\Generated_Source\PSoC4/PWM_2.c ****                 PWM_2_TRIG_CONTROL2_REG = PWM_2_PWM_MODE_ASYM;
 180:.\Generated_Source\PSoC4/PWM_2.c ****             #endif  /* (PWM_2__ASYMMETRIC == PWM_2_PWM_ALIGN) */
 181:.\Generated_Source\PSoC4/PWM_2.c ****         #endif  /* (PWM_2__PWM_PR == PWM_2_PWM_MODE) */
 182:.\Generated_Source\PSoC4/PWM_2.c ****     #endif  /* (PWM_2__PWM_SEL == PWM_2_CONFIG) */
 183:.\Generated_Source\PSoC4/PWM_2.c **** }
  79              		.loc 1 183 0
  80 0044 BD46     		mov	sp, r7
  81              		@ sp needed for prologue
  82 0046 80BD     		pop	{r7, pc}
  83              	.L3:
  84              		.align	2
  85              	.L2:
  86 0048 80010540 		.word	1074069888
  87 004c A4010540 		.word	1074069924
  88 0050 FFFF0000 		.word	65535
  89 0054 A8010540 		.word	1074069928
  90              		.cfi_endproc
  91              	.LFE0:
  92              		.size	PWM_2_Init, .-PWM_2_Init
  93              		.section	.text.PWM_2_Enable,"ax",%progbits
  94              		.align	2
  95              		.global	PWM_2_Enable
  96              		.code	16
  97              		.thumb_func
  98              		.type	PWM_2_Enable, %function
  99              	PWM_2_Enable:
 100              	.LFB1:
 184:.\Generated_Source\PSoC4/PWM_2.c **** 
 185:.\Generated_Source\PSoC4/PWM_2.c **** 
ARM GAS  C:\Users\OEBN\AppData\Local\Temp\cc2uhR5V.s 			page 6


 186:.\Generated_Source\PSoC4/PWM_2.c **** /*******************************************************************************
 187:.\Generated_Source\PSoC4/PWM_2.c **** * Function Name: PWM_2_Enable
 188:.\Generated_Source\PSoC4/PWM_2.c **** ********************************************************************************
 189:.\Generated_Source\PSoC4/PWM_2.c **** *
 190:.\Generated_Source\PSoC4/PWM_2.c **** * Summary:
 191:.\Generated_Source\PSoC4/PWM_2.c **** *  Enables the PWM_2.
 192:.\Generated_Source\PSoC4/PWM_2.c **** *
 193:.\Generated_Source\PSoC4/PWM_2.c **** * Parameters:
 194:.\Generated_Source\PSoC4/PWM_2.c **** *  None
 195:.\Generated_Source\PSoC4/PWM_2.c **** *
 196:.\Generated_Source\PSoC4/PWM_2.c **** * Return:
 197:.\Generated_Source\PSoC4/PWM_2.c **** *  None
 198:.\Generated_Source\PSoC4/PWM_2.c **** *
 199:.\Generated_Source\PSoC4/PWM_2.c **** *******************************************************************************/
 200:.\Generated_Source\PSoC4/PWM_2.c **** void PWM_2_Enable(void)
 201:.\Generated_Source\PSoC4/PWM_2.c **** {
 101              		.loc 1 201 0
 102              		.cfi_startproc
 103 0000 90B5     		push	{r4, r7, lr}
 104              	.LCFI2:
 105              		.cfi_def_cfa_offset 12
 106              		.cfi_offset 4, -12
 107              		.cfi_offset 7, -8
 108              		.cfi_offset 14, -4
 109 0002 83B0     		sub	sp, sp, #12
 110              	.LCFI3:
 111              		.cfi_def_cfa_offset 24
 112 0004 00AF     		add	r7, sp, #0
 113              	.LCFI4:
 114              		.cfi_def_cfa_register 7
 202:.\Generated_Source\PSoC4/PWM_2.c ****     uint8 enableInterrupts;
 203:.\Generated_Source\PSoC4/PWM_2.c **** 
 204:.\Generated_Source\PSoC4/PWM_2.c ****     enableInterrupts = CyEnterCriticalSection();
 115              		.loc 1 204 0
 116 0006 FC1D     		add	r4, r7, #7
 117 0008 FFF7FEFF 		bl	CyEnterCriticalSection
 118 000c 031C     		mov	r3, r0
 119 000e 2370     		strb	r3, [r4]
 205:.\Generated_Source\PSoC4/PWM_2.c ****     PWM_2_BLOCK_CONTROL_REG |= PWM_2_MASK;
 120              		.loc 1 205 0
 121 0010 084B     		ldr	r3, .L5
 122 0012 084A     		ldr	r2, .L5
 123 0014 1268     		ldr	r2, [r2]
 124 0016 0421     		mov	r1, #4
 125 0018 0A43     		orr	r2, r1
 126 001a 1A60     		str	r2, [r3]
 206:.\Generated_Source\PSoC4/PWM_2.c ****     CyExitCriticalSection(enableInterrupts);
 127              		.loc 1 206 0
 128 001c FB1D     		add	r3, r7, #7
 129 001e 1B78     		ldrb	r3, [r3]
 130 0020 181C     		mov	r0, r3
 131 0022 FFF7FEFF 		bl	CyExitCriticalSection
 207:.\Generated_Source\PSoC4/PWM_2.c **** 
 208:.\Generated_Source\PSoC4/PWM_2.c ****     /* Start Timer or PWM if start input is absent */
 209:.\Generated_Source\PSoC4/PWM_2.c ****     #if (PWM_2__PWM_SEL == PWM_2_CONFIG)
 210:.\Generated_Source\PSoC4/PWM_2.c ****         #if (0u == PWM_2_PWM_START_SIGNAL_PRESENT)
 211:.\Generated_Source\PSoC4/PWM_2.c ****             PWM_2_TriggerCommand(PWM_2_MASK, PWM_2_CMD_START);
ARM GAS  C:\Users\OEBN\AppData\Local\Temp\cc2uhR5V.s 			page 7


 132              		.loc 1 211 0
 133 0026 0420     		mov	r0, #4
 134 0028 1821     		mov	r1, #24
 135 002a FFF7FEFF 		bl	PWM_2_TriggerCommand
 212:.\Generated_Source\PSoC4/PWM_2.c ****         #endif /* (0u == PWM_2_PWM_START_SIGNAL_PRESENT) */
 213:.\Generated_Source\PSoC4/PWM_2.c ****     #endif /* (PWM_2__PWM_SEL == PWM_2_CONFIG) */
 214:.\Generated_Source\PSoC4/PWM_2.c **** 
 215:.\Generated_Source\PSoC4/PWM_2.c ****     #if (PWM_2__TIMER == PWM_2_CONFIG)
 216:.\Generated_Source\PSoC4/PWM_2.c ****         #if (0u == PWM_2_TC_START_SIGNAL_PRESENT)
 217:.\Generated_Source\PSoC4/PWM_2.c ****             PWM_2_TriggerCommand(PWM_2_MASK, PWM_2_CMD_START);
 218:.\Generated_Source\PSoC4/PWM_2.c ****         #endif /* (0u == PWM_2_TC_START_SIGNAL_PRESENT) */
 219:.\Generated_Source\PSoC4/PWM_2.c ****     #endif /* (PWM_2__TIMER == PWM_2_CONFIG) */
 220:.\Generated_Source\PSoC4/PWM_2.c **** }
 136              		.loc 1 220 0
 137 002e BD46     		mov	sp, r7
 138 0030 03B0     		add	sp, sp, #12
 139              		@ sp needed for prologue
 140 0032 90BD     		pop	{r4, r7, pc}
 141              	.L6:
 142              		.align	2
 143              	.L5:
 144 0034 00000540 		.word	1074069504
 145              		.cfi_endproc
 146              	.LFE1:
 147              		.size	PWM_2_Enable, .-PWM_2_Enable
 148              		.section	.text.PWM_2_Start,"ax",%progbits
 149              		.align	2
 150              		.global	PWM_2_Start
 151              		.code	16
 152              		.thumb_func
 153              		.type	PWM_2_Start, %function
 154              	PWM_2_Start:
 155              	.LFB2:
 221:.\Generated_Source\PSoC4/PWM_2.c **** 
 222:.\Generated_Source\PSoC4/PWM_2.c **** 
 223:.\Generated_Source\PSoC4/PWM_2.c **** /*******************************************************************************
 224:.\Generated_Source\PSoC4/PWM_2.c **** * Function Name: PWM_2_Start
 225:.\Generated_Source\PSoC4/PWM_2.c **** ********************************************************************************
 226:.\Generated_Source\PSoC4/PWM_2.c **** *
 227:.\Generated_Source\PSoC4/PWM_2.c **** * Summary:
 228:.\Generated_Source\PSoC4/PWM_2.c **** *  Initializes the PWM_2 with default customizer
 229:.\Generated_Source\PSoC4/PWM_2.c **** *  values when called the first time and enables the PWM_2.
 230:.\Generated_Source\PSoC4/PWM_2.c **** *  For subsequent calls the configuration is left unchanged and the component is
 231:.\Generated_Source\PSoC4/PWM_2.c **** *  just enabled.
 232:.\Generated_Source\PSoC4/PWM_2.c **** *
 233:.\Generated_Source\PSoC4/PWM_2.c **** * Parameters:
 234:.\Generated_Source\PSoC4/PWM_2.c **** *  None
 235:.\Generated_Source\PSoC4/PWM_2.c **** *
 236:.\Generated_Source\PSoC4/PWM_2.c **** * Return:
 237:.\Generated_Source\PSoC4/PWM_2.c **** *  None
 238:.\Generated_Source\PSoC4/PWM_2.c **** *
 239:.\Generated_Source\PSoC4/PWM_2.c **** * Global variables:
 240:.\Generated_Source\PSoC4/PWM_2.c **** *  PWM_2_initVar: global variable is used to indicate initial
 241:.\Generated_Source\PSoC4/PWM_2.c **** *  configuration of this component.  The variable is initialized to zero and set
 242:.\Generated_Source\PSoC4/PWM_2.c **** *  to 1 the first time PWM_2_Start() is called. This allows
 243:.\Generated_Source\PSoC4/PWM_2.c **** *  enabling/disabling a component without re-initialization in all subsequent
 244:.\Generated_Source\PSoC4/PWM_2.c **** *  calls to the PWM_2_Start() routine.
ARM GAS  C:\Users\OEBN\AppData\Local\Temp\cc2uhR5V.s 			page 8


 245:.\Generated_Source\PSoC4/PWM_2.c **** *
 246:.\Generated_Source\PSoC4/PWM_2.c **** *******************************************************************************/
 247:.\Generated_Source\PSoC4/PWM_2.c **** void PWM_2_Start(void)
 248:.\Generated_Source\PSoC4/PWM_2.c **** {
 156              		.loc 1 248 0
 157              		.cfi_startproc
 158 0000 80B5     		push	{r7, lr}
 159              	.LCFI5:
 160              		.cfi_def_cfa_offset 8
 161              		.cfi_offset 7, -8
 162              		.cfi_offset 14, -4
 163 0002 00AF     		add	r7, sp, #0
 164              	.LCFI6:
 165              		.cfi_def_cfa_register 7
 249:.\Generated_Source\PSoC4/PWM_2.c ****     if (0u == PWM_2_initVar)
 166              		.loc 1 249 0
 167 0004 064B     		ldr	r3, .L9
 168 0006 1B78     		ldrb	r3, [r3]
 169 0008 002B     		cmp	r3, #0
 170 000a 04D1     		bne	.L8
 250:.\Generated_Source\PSoC4/PWM_2.c ****     {
 251:.\Generated_Source\PSoC4/PWM_2.c ****         PWM_2_Init();
 171              		.loc 1 251 0
 172 000c FFF7FEFF 		bl	PWM_2_Init
 252:.\Generated_Source\PSoC4/PWM_2.c ****         PWM_2_initVar = 1u;
 173              		.loc 1 252 0
 174 0010 034B     		ldr	r3, .L9
 175 0012 0122     		mov	r2, #1
 176 0014 1A70     		strb	r2, [r3]
 177              	.L8:
 253:.\Generated_Source\PSoC4/PWM_2.c ****     }
 254:.\Generated_Source\PSoC4/PWM_2.c **** 
 255:.\Generated_Source\PSoC4/PWM_2.c ****     PWM_2_Enable();
 178              		.loc 1 255 0
 179 0016 FFF7FEFF 		bl	PWM_2_Enable
 256:.\Generated_Source\PSoC4/PWM_2.c **** }
 180              		.loc 1 256 0
 181 001a BD46     		mov	sp, r7
 182              		@ sp needed for prologue
 183 001c 80BD     		pop	{r7, pc}
 184              	.L10:
 185 001e C046     		.align	2
 186              	.L9:
 187 0020 00000000 		.word	PWM_2_initVar
 188              		.cfi_endproc
 189              	.LFE2:
 190              		.size	PWM_2_Start, .-PWM_2_Start
 191              		.section	.text.PWM_2_Stop,"ax",%progbits
 192              		.align	2
 193              		.global	PWM_2_Stop
 194              		.code	16
 195              		.thumb_func
 196              		.type	PWM_2_Stop, %function
 197              	PWM_2_Stop:
 198              	.LFB3:
 257:.\Generated_Source\PSoC4/PWM_2.c **** 
 258:.\Generated_Source\PSoC4/PWM_2.c **** 
ARM GAS  C:\Users\OEBN\AppData\Local\Temp\cc2uhR5V.s 			page 9


 259:.\Generated_Source\PSoC4/PWM_2.c **** /*******************************************************************************
 260:.\Generated_Source\PSoC4/PWM_2.c **** * Function Name: PWM_2_Stop
 261:.\Generated_Source\PSoC4/PWM_2.c **** ********************************************************************************
 262:.\Generated_Source\PSoC4/PWM_2.c **** *
 263:.\Generated_Source\PSoC4/PWM_2.c **** * Summary:
 264:.\Generated_Source\PSoC4/PWM_2.c **** *  Disables the PWM_2.
 265:.\Generated_Source\PSoC4/PWM_2.c **** *
 266:.\Generated_Source\PSoC4/PWM_2.c **** * Parameters:
 267:.\Generated_Source\PSoC4/PWM_2.c **** *  None
 268:.\Generated_Source\PSoC4/PWM_2.c **** *
 269:.\Generated_Source\PSoC4/PWM_2.c **** * Return:
 270:.\Generated_Source\PSoC4/PWM_2.c **** *  None
 271:.\Generated_Source\PSoC4/PWM_2.c **** *
 272:.\Generated_Source\PSoC4/PWM_2.c **** *******************************************************************************/
 273:.\Generated_Source\PSoC4/PWM_2.c **** void PWM_2_Stop(void)
 274:.\Generated_Source\PSoC4/PWM_2.c **** {
 199              		.loc 1 274 0
 200              		.cfi_startproc
 201 0000 90B5     		push	{r4, r7, lr}
 202              	.LCFI7:
 203              		.cfi_def_cfa_offset 12
 204              		.cfi_offset 4, -12
 205              		.cfi_offset 7, -8
 206              		.cfi_offset 14, -4
 207 0002 83B0     		sub	sp, sp, #12
 208              	.LCFI8:
 209              		.cfi_def_cfa_offset 24
 210 0004 00AF     		add	r7, sp, #0
 211              	.LCFI9:
 212              		.cfi_def_cfa_register 7
 275:.\Generated_Source\PSoC4/PWM_2.c ****     uint8 enableInterrupts;
 276:.\Generated_Source\PSoC4/PWM_2.c **** 
 277:.\Generated_Source\PSoC4/PWM_2.c ****     enableInterrupts = CyEnterCriticalSection();
 213              		.loc 1 277 0
 214 0006 FC1D     		add	r4, r7, #7
 215 0008 FFF7FEFF 		bl	CyEnterCriticalSection
 216 000c 031C     		mov	r3, r0
 217 000e 2370     		strb	r3, [r4]
 278:.\Generated_Source\PSoC4/PWM_2.c **** 
 279:.\Generated_Source\PSoC4/PWM_2.c ****     PWM_2_BLOCK_CONTROL_REG &= (uint32)~PWM_2_MASK;
 218              		.loc 1 279 0
 219 0010 064B     		ldr	r3, .L12
 220 0012 064A     		ldr	r2, .L12
 221 0014 1268     		ldr	r2, [r2]
 222 0016 0421     		mov	r1, #4
 223 0018 8A43     		bic	r2, r1
 224 001a 1A60     		str	r2, [r3]
 280:.\Generated_Source\PSoC4/PWM_2.c **** 
 281:.\Generated_Source\PSoC4/PWM_2.c ****     CyExitCriticalSection(enableInterrupts);
 225              		.loc 1 281 0
 226 001c FB1D     		add	r3, r7, #7
 227 001e 1B78     		ldrb	r3, [r3]
 228 0020 181C     		mov	r0, r3
 229 0022 FFF7FEFF 		bl	CyExitCriticalSection
 282:.\Generated_Source\PSoC4/PWM_2.c **** }
 230              		.loc 1 282 0
 231 0026 BD46     		mov	sp, r7
ARM GAS  C:\Users\OEBN\AppData\Local\Temp\cc2uhR5V.s 			page 10


 232 0028 03B0     		add	sp, sp, #12
 233              		@ sp needed for prologue
 234 002a 90BD     		pop	{r4, r7, pc}
 235              	.L13:
 236              		.align	2
 237              	.L12:
 238 002c 00000540 		.word	1074069504
 239              		.cfi_endproc
 240              	.LFE3:
 241              		.size	PWM_2_Stop, .-PWM_2_Stop
 242              		.section	.text.PWM_2_SetMode,"ax",%progbits
 243              		.align	2
 244              		.global	PWM_2_SetMode
 245              		.code	16
 246              		.thumb_func
 247              		.type	PWM_2_SetMode, %function
 248              	PWM_2_SetMode:
 249              	.LFB4:
 283:.\Generated_Source\PSoC4/PWM_2.c **** 
 284:.\Generated_Source\PSoC4/PWM_2.c **** 
 285:.\Generated_Source\PSoC4/PWM_2.c **** /*******************************************************************************
 286:.\Generated_Source\PSoC4/PWM_2.c **** * Function Name: PWM_2_SetMode
 287:.\Generated_Source\PSoC4/PWM_2.c **** ********************************************************************************
 288:.\Generated_Source\PSoC4/PWM_2.c **** *
 289:.\Generated_Source\PSoC4/PWM_2.c **** * Summary:
 290:.\Generated_Source\PSoC4/PWM_2.c **** *  Sets the operation mode of the PWM_2. This function is used when
 291:.\Generated_Source\PSoC4/PWM_2.c **** *  configured as a generic PWM_2 and the actual mode of operation is
 292:.\Generated_Source\PSoC4/PWM_2.c **** *  set at runtime. The mode must be set while the component is disabled.
 293:.\Generated_Source\PSoC4/PWM_2.c **** *
 294:.\Generated_Source\PSoC4/PWM_2.c **** * Parameters:
 295:.\Generated_Source\PSoC4/PWM_2.c **** *  mode: Mode for the PWM_2 to operate in
 296:.\Generated_Source\PSoC4/PWM_2.c **** *   Values:
 297:.\Generated_Source\PSoC4/PWM_2.c **** *   - PWM_2_MODE_TIMER_COMPARE - Timer / Counter with
 298:.\Generated_Source\PSoC4/PWM_2.c **** *                                                 compare capability
 299:.\Generated_Source\PSoC4/PWM_2.c **** *         - PWM_2_MODE_TIMER_CAPTURE - Timer / Counter with
 300:.\Generated_Source\PSoC4/PWM_2.c **** *                                                 capture capability
 301:.\Generated_Source\PSoC4/PWM_2.c **** *         - PWM_2_MODE_QUAD - Quadrature decoder
 302:.\Generated_Source\PSoC4/PWM_2.c **** *         - PWM_2_MODE_PWM - PWM
 303:.\Generated_Source\PSoC4/PWM_2.c **** *         - PWM_2_MODE_PWM_DT - PWM with dead time
 304:.\Generated_Source\PSoC4/PWM_2.c **** *         - PWM_2_MODE_PWM_PR - PWM with pseudo random capability
 305:.\Generated_Source\PSoC4/PWM_2.c **** *
 306:.\Generated_Source\PSoC4/PWM_2.c **** * Return:
 307:.\Generated_Source\PSoC4/PWM_2.c **** *  None
 308:.\Generated_Source\PSoC4/PWM_2.c **** *
 309:.\Generated_Source\PSoC4/PWM_2.c **** *******************************************************************************/
 310:.\Generated_Source\PSoC4/PWM_2.c **** void PWM_2_SetMode(uint32 mode)
 311:.\Generated_Source\PSoC4/PWM_2.c **** {
 250              		.loc 1 311 0
 251              		.cfi_startproc
 252 0000 90B5     		push	{r4, r7, lr}
 253              	.LCFI10:
 254              		.cfi_def_cfa_offset 12
 255              		.cfi_offset 4, -12
 256              		.cfi_offset 7, -8
 257              		.cfi_offset 14, -4
 258 0002 85B0     		sub	sp, sp, #20
 259              	.LCFI11:
ARM GAS  C:\Users\OEBN\AppData\Local\Temp\cc2uhR5V.s 			page 11


 260              		.cfi_def_cfa_offset 32
 261 0004 00AF     		add	r7, sp, #0
 262              	.LCFI12:
 263              		.cfi_def_cfa_register 7
 264 0006 7860     		str	r0, [r7, #4]
 312:.\Generated_Source\PSoC4/PWM_2.c ****     uint8 enableInterrupts;
 313:.\Generated_Source\PSoC4/PWM_2.c **** 
 314:.\Generated_Source\PSoC4/PWM_2.c ****     enableInterrupts = CyEnterCriticalSection();
 265              		.loc 1 314 0
 266 0008 3C1C     		mov	r4, r7
 267 000a 0F34     		add	r4, r4, #15
 268 000c FFF7FEFF 		bl	CyEnterCriticalSection
 269 0010 031C     		mov	r3, r0
 270 0012 2370     		strb	r3, [r4]
 315:.\Generated_Source\PSoC4/PWM_2.c **** 
 316:.\Generated_Source\PSoC4/PWM_2.c ****     PWM_2_CONTROL_REG &= (uint32)~PWM_2_MODE_MASK;
 271              		.loc 1 316 0
 272 0014 0A4B     		ldr	r3, .L15
 273 0016 0A4A     		ldr	r2, .L15
 274 0018 1168     		ldr	r1, [r2]
 275 001a 0A4A     		ldr	r2, .L15+4
 276 001c 0A40     		and	r2, r1
 277 001e 1A60     		str	r2, [r3]
 317:.\Generated_Source\PSoC4/PWM_2.c ****     PWM_2_CONTROL_REG |= mode;
 278              		.loc 1 317 0
 279 0020 074B     		ldr	r3, .L15
 280 0022 074A     		ldr	r2, .L15
 281 0024 1168     		ldr	r1, [r2]
 282 0026 7A68     		ldr	r2, [r7, #4]
 283 0028 0A43     		orr	r2, r1
 284 002a 1A60     		str	r2, [r3]
 318:.\Generated_Source\PSoC4/PWM_2.c **** 
 319:.\Generated_Source\PSoC4/PWM_2.c ****     CyExitCriticalSection(enableInterrupts);
 285              		.loc 1 319 0
 286 002c 3B1C     		mov	r3, r7
 287 002e 0F33     		add	r3, r3, #15
 288 0030 1B78     		ldrb	r3, [r3]
 289 0032 181C     		mov	r0, r3
 290 0034 FFF7FEFF 		bl	CyExitCriticalSection
 320:.\Generated_Source\PSoC4/PWM_2.c **** }
 291              		.loc 1 320 0
 292 0038 BD46     		mov	sp, r7
 293 003a 05B0     		add	sp, sp, #20
 294              		@ sp needed for prologue
 295 003c 90BD     		pop	{r4, r7, pc}
 296              	.L16:
 297 003e C046     		.align	2
 298              	.L15:
 299 0040 80010540 		.word	1074069888
 300 0044 FFFFFFF8 		.word	-117440513
 301              		.cfi_endproc
 302              	.LFE4:
 303              		.size	PWM_2_SetMode, .-PWM_2_SetMode
 304              		.section	.text.PWM_2_SetQDMode,"ax",%progbits
 305              		.align	2
 306              		.global	PWM_2_SetQDMode
 307              		.code	16
ARM GAS  C:\Users\OEBN\AppData\Local\Temp\cc2uhR5V.s 			page 12


 308              		.thumb_func
 309              		.type	PWM_2_SetQDMode, %function
 310              	PWM_2_SetQDMode:
 311              	.LFB5:
 321:.\Generated_Source\PSoC4/PWM_2.c **** 
 322:.\Generated_Source\PSoC4/PWM_2.c **** 
 323:.\Generated_Source\PSoC4/PWM_2.c **** /*******************************************************************************
 324:.\Generated_Source\PSoC4/PWM_2.c **** * Function Name: PWM_2_SetQDMode
 325:.\Generated_Source\PSoC4/PWM_2.c **** ********************************************************************************
 326:.\Generated_Source\PSoC4/PWM_2.c **** *
 327:.\Generated_Source\PSoC4/PWM_2.c **** * Summary:
 328:.\Generated_Source\PSoC4/PWM_2.c **** *  Sets the the Quadrature Decoder to one of the 3 supported modes.
 329:.\Generated_Source\PSoC4/PWM_2.c **** *  Its functionality is only applicable to Quadrature Decoder operation.
 330:.\Generated_Source\PSoC4/PWM_2.c **** *
 331:.\Generated_Source\PSoC4/PWM_2.c **** * Parameters:
 332:.\Generated_Source\PSoC4/PWM_2.c **** *  qdMode: Quadrature Decoder mode
 333:.\Generated_Source\PSoC4/PWM_2.c **** *   Values:
 334:.\Generated_Source\PSoC4/PWM_2.c **** *         - PWM_2_MODE_X1 - Counts on phi 1 rising
 335:.\Generated_Source\PSoC4/PWM_2.c **** *         - PWM_2_MODE_X2 - Counts on both edges of phi1 (2x faster)
 336:.\Generated_Source\PSoC4/PWM_2.c **** *         - PWM_2_MODE_X4 - Counts on both edges of phi1 and phi2
 337:.\Generated_Source\PSoC4/PWM_2.c **** *                                        (4x faster)
 338:.\Generated_Source\PSoC4/PWM_2.c **** *
 339:.\Generated_Source\PSoC4/PWM_2.c **** * Return:
 340:.\Generated_Source\PSoC4/PWM_2.c **** *  None
 341:.\Generated_Source\PSoC4/PWM_2.c **** *
 342:.\Generated_Source\PSoC4/PWM_2.c **** *******************************************************************************/
 343:.\Generated_Source\PSoC4/PWM_2.c **** void PWM_2_SetQDMode(uint32 qdMode)
 344:.\Generated_Source\PSoC4/PWM_2.c **** {
 312              		.loc 1 344 0
 313              		.cfi_startproc
 314 0000 90B5     		push	{r4, r7, lr}
 315              	.LCFI13:
 316              		.cfi_def_cfa_offset 12
 317              		.cfi_offset 4, -12
 318              		.cfi_offset 7, -8
 319              		.cfi_offset 14, -4
 320 0002 85B0     		sub	sp, sp, #20
 321              	.LCFI14:
 322              		.cfi_def_cfa_offset 32
 323 0004 00AF     		add	r7, sp, #0
 324              	.LCFI15:
 325              		.cfi_def_cfa_register 7
 326 0006 7860     		str	r0, [r7, #4]
 345:.\Generated_Source\PSoC4/PWM_2.c ****     uint8 enableInterrupts;
 346:.\Generated_Source\PSoC4/PWM_2.c **** 
 347:.\Generated_Source\PSoC4/PWM_2.c ****     enableInterrupts = CyEnterCriticalSection();
 327              		.loc 1 347 0
 328 0008 3C1C     		mov	r4, r7
 329 000a 0F34     		add	r4, r4, #15
 330 000c FFF7FEFF 		bl	CyEnterCriticalSection
 331 0010 031C     		mov	r3, r0
 332 0012 2370     		strb	r3, [r4]
 348:.\Generated_Source\PSoC4/PWM_2.c **** 
 349:.\Generated_Source\PSoC4/PWM_2.c ****     PWM_2_CONTROL_REG &= (uint32)~PWM_2_QUAD_MODE_MASK;
 333              		.loc 1 349 0
 334 0014 0A4B     		ldr	r3, .L18
 335 0016 0A4A     		ldr	r2, .L18
ARM GAS  C:\Users\OEBN\AppData\Local\Temp\cc2uhR5V.s 			page 13


 336 0018 1168     		ldr	r1, [r2]
 337 001a 0A4A     		ldr	r2, .L18+4
 338 001c 0A40     		and	r2, r1
 339 001e 1A60     		str	r2, [r3]
 350:.\Generated_Source\PSoC4/PWM_2.c ****     PWM_2_CONTROL_REG |= qdMode;
 340              		.loc 1 350 0
 341 0020 074B     		ldr	r3, .L18
 342 0022 074A     		ldr	r2, .L18
 343 0024 1168     		ldr	r1, [r2]
 344 0026 7A68     		ldr	r2, [r7, #4]
 345 0028 0A43     		orr	r2, r1
 346 002a 1A60     		str	r2, [r3]
 351:.\Generated_Source\PSoC4/PWM_2.c **** 
 352:.\Generated_Source\PSoC4/PWM_2.c ****     CyExitCriticalSection(enableInterrupts);
 347              		.loc 1 352 0
 348 002c 3B1C     		mov	r3, r7
 349 002e 0F33     		add	r3, r3, #15
 350 0030 1B78     		ldrb	r3, [r3]
 351 0032 181C     		mov	r0, r3
 352 0034 FFF7FEFF 		bl	CyExitCriticalSection
 353:.\Generated_Source\PSoC4/PWM_2.c **** }
 353              		.loc 1 353 0
 354 0038 BD46     		mov	sp, r7
 355 003a 05B0     		add	sp, sp, #20
 356              		@ sp needed for prologue
 357 003c 90BD     		pop	{r4, r7, pc}
 358              	.L19:
 359 003e C046     		.align	2
 360              	.L18:
 361 0040 80010540 		.word	1074069888
 362 0044 FFFF8FFF 		.word	-7340033
 363              		.cfi_endproc
 364              	.LFE5:
 365              		.size	PWM_2_SetQDMode, .-PWM_2_SetQDMode
 366              		.section	.text.PWM_2_SetPrescaler,"ax",%progbits
 367              		.align	2
 368              		.global	PWM_2_SetPrescaler
 369              		.code	16
 370              		.thumb_func
 371              		.type	PWM_2_SetPrescaler, %function
 372              	PWM_2_SetPrescaler:
 373              	.LFB6:
 354:.\Generated_Source\PSoC4/PWM_2.c **** 
 355:.\Generated_Source\PSoC4/PWM_2.c **** 
 356:.\Generated_Source\PSoC4/PWM_2.c **** /*******************************************************************************
 357:.\Generated_Source\PSoC4/PWM_2.c **** * Function Name: PWM_2_SetPrescaler
 358:.\Generated_Source\PSoC4/PWM_2.c **** ********************************************************************************
 359:.\Generated_Source\PSoC4/PWM_2.c **** *
 360:.\Generated_Source\PSoC4/PWM_2.c **** * Summary:
 361:.\Generated_Source\PSoC4/PWM_2.c **** *  Sets the prescaler value that is applied to the clock input.  Not applicable
 362:.\Generated_Source\PSoC4/PWM_2.c **** *  to a PWM with the dead time mode or Quadrature Decoder mode.
 363:.\Generated_Source\PSoC4/PWM_2.c **** *
 364:.\Generated_Source\PSoC4/PWM_2.c **** * Parameters:
 365:.\Generated_Source\PSoC4/PWM_2.c **** *  prescaler: Prescaler divider value
 366:.\Generated_Source\PSoC4/PWM_2.c **** *   Values:
 367:.\Generated_Source\PSoC4/PWM_2.c **** *         - PWM_2_PRESCALE_DIVBY1    - Divide by 1 (no prescaling)
 368:.\Generated_Source\PSoC4/PWM_2.c **** *         - PWM_2_PRESCALE_DIVBY2    - Divide by 2
ARM GAS  C:\Users\OEBN\AppData\Local\Temp\cc2uhR5V.s 			page 14


 369:.\Generated_Source\PSoC4/PWM_2.c **** *         - PWM_2_PRESCALE_DIVBY4    - Divide by 4
 370:.\Generated_Source\PSoC4/PWM_2.c **** *         - PWM_2_PRESCALE_DIVBY8    - Divide by 8
 371:.\Generated_Source\PSoC4/PWM_2.c **** *         - PWM_2_PRESCALE_DIVBY16   - Divide by 16
 372:.\Generated_Source\PSoC4/PWM_2.c **** *         - PWM_2_PRESCALE_DIVBY32   - Divide by 32
 373:.\Generated_Source\PSoC4/PWM_2.c **** *         - PWM_2_PRESCALE_DIVBY64   - Divide by 64
 374:.\Generated_Source\PSoC4/PWM_2.c **** *         - PWM_2_PRESCALE_DIVBY128  - Divide by 128
 375:.\Generated_Source\PSoC4/PWM_2.c **** *
 376:.\Generated_Source\PSoC4/PWM_2.c **** * Return:
 377:.\Generated_Source\PSoC4/PWM_2.c **** *  None
 378:.\Generated_Source\PSoC4/PWM_2.c **** *
 379:.\Generated_Source\PSoC4/PWM_2.c **** *******************************************************************************/
 380:.\Generated_Source\PSoC4/PWM_2.c **** void PWM_2_SetPrescaler(uint32 prescaler)
 381:.\Generated_Source\PSoC4/PWM_2.c **** {
 374              		.loc 1 381 0
 375              		.cfi_startproc
 376 0000 90B5     		push	{r4, r7, lr}
 377              	.LCFI16:
 378              		.cfi_def_cfa_offset 12
 379              		.cfi_offset 4, -12
 380              		.cfi_offset 7, -8
 381              		.cfi_offset 14, -4
 382 0002 85B0     		sub	sp, sp, #20
 383              	.LCFI17:
 384              		.cfi_def_cfa_offset 32
 385 0004 00AF     		add	r7, sp, #0
 386              	.LCFI18:
 387              		.cfi_def_cfa_register 7
 388 0006 7860     		str	r0, [r7, #4]
 382:.\Generated_Source\PSoC4/PWM_2.c ****     uint8 enableInterrupts;
 383:.\Generated_Source\PSoC4/PWM_2.c **** 
 384:.\Generated_Source\PSoC4/PWM_2.c ****     enableInterrupts = CyEnterCriticalSection();
 389              		.loc 1 384 0
 390 0008 3C1C     		mov	r4, r7
 391 000a 0F34     		add	r4, r4, #15
 392 000c FFF7FEFF 		bl	CyEnterCriticalSection
 393 0010 031C     		mov	r3, r0
 394 0012 2370     		strb	r3, [r4]
 385:.\Generated_Source\PSoC4/PWM_2.c **** 
 386:.\Generated_Source\PSoC4/PWM_2.c ****     PWM_2_CONTROL_REG &= (uint32)~PWM_2_PRESCALER_MASK;
 395              		.loc 1 386 0
 396 0014 0A4B     		ldr	r3, .L21
 397 0016 0A4A     		ldr	r2, .L21
 398 0018 1168     		ldr	r1, [r2]
 399 001a 0A4A     		ldr	r2, .L21+4
 400 001c 0A40     		and	r2, r1
 401 001e 1A60     		str	r2, [r3]
 387:.\Generated_Source\PSoC4/PWM_2.c ****     PWM_2_CONTROL_REG |= prescaler;
 402              		.loc 1 387 0
 403 0020 074B     		ldr	r3, .L21
 404 0022 074A     		ldr	r2, .L21
 405 0024 1168     		ldr	r1, [r2]
 406 0026 7A68     		ldr	r2, [r7, #4]
 407 0028 0A43     		orr	r2, r1
 408 002a 1A60     		str	r2, [r3]
 388:.\Generated_Source\PSoC4/PWM_2.c **** 
 389:.\Generated_Source\PSoC4/PWM_2.c ****     CyExitCriticalSection(enableInterrupts);
 409              		.loc 1 389 0
ARM GAS  C:\Users\OEBN\AppData\Local\Temp\cc2uhR5V.s 			page 15


 410 002c 3B1C     		mov	r3, r7
 411 002e 0F33     		add	r3, r3, #15
 412 0030 1B78     		ldrb	r3, [r3]
 413 0032 181C     		mov	r0, r3
 414 0034 FFF7FEFF 		bl	CyExitCriticalSection
 390:.\Generated_Source\PSoC4/PWM_2.c **** }
 415              		.loc 1 390 0
 416 0038 BD46     		mov	sp, r7
 417 003a 05B0     		add	sp, sp, #20
 418              		@ sp needed for prologue
 419 003c 90BD     		pop	{r4, r7, pc}
 420              	.L22:
 421 003e C046     		.align	2
 422              	.L21:
 423 0040 80010540 		.word	1074069888
 424 0044 FF00FFFF 		.word	-65281
 425              		.cfi_endproc
 426              	.LFE6:
 427              		.size	PWM_2_SetPrescaler, .-PWM_2_SetPrescaler
 428              		.section	.text.PWM_2_SetOneShot,"ax",%progbits
 429              		.align	2
 430              		.global	PWM_2_SetOneShot
 431              		.code	16
 432              		.thumb_func
 433              		.type	PWM_2_SetOneShot, %function
 434              	PWM_2_SetOneShot:
 435              	.LFB7:
 391:.\Generated_Source\PSoC4/PWM_2.c **** 
 392:.\Generated_Source\PSoC4/PWM_2.c **** 
 393:.\Generated_Source\PSoC4/PWM_2.c **** /*******************************************************************************
 394:.\Generated_Source\PSoC4/PWM_2.c **** * Function Name: PWM_2_SetOneShot
 395:.\Generated_Source\PSoC4/PWM_2.c **** ********************************************************************************
 396:.\Generated_Source\PSoC4/PWM_2.c **** *
 397:.\Generated_Source\PSoC4/PWM_2.c **** * Summary:
 398:.\Generated_Source\PSoC4/PWM_2.c **** *  Writes the register that controls whether the PWM_2 runs
 399:.\Generated_Source\PSoC4/PWM_2.c **** *  continuously or stops when terminal count is reached.  By default the
 400:.\Generated_Source\PSoC4/PWM_2.c **** *  PWM_2 operates in the continuous mode.
 401:.\Generated_Source\PSoC4/PWM_2.c **** *
 402:.\Generated_Source\PSoC4/PWM_2.c **** * Parameters:
 403:.\Generated_Source\PSoC4/PWM_2.c **** *  oneShotEnable
 404:.\Generated_Source\PSoC4/PWM_2.c **** *   Values:
 405:.\Generated_Source\PSoC4/PWM_2.c **** *     - 0 - Continuous
 406:.\Generated_Source\PSoC4/PWM_2.c **** *     - 1 - Enable One Shot
 407:.\Generated_Source\PSoC4/PWM_2.c **** *
 408:.\Generated_Source\PSoC4/PWM_2.c **** * Return:
 409:.\Generated_Source\PSoC4/PWM_2.c **** *  None
 410:.\Generated_Source\PSoC4/PWM_2.c **** *
 411:.\Generated_Source\PSoC4/PWM_2.c **** *******************************************************************************/
 412:.\Generated_Source\PSoC4/PWM_2.c **** void PWM_2_SetOneShot(uint32 oneShotEnable)
 413:.\Generated_Source\PSoC4/PWM_2.c **** {
 436              		.loc 1 413 0
 437              		.cfi_startproc
 438 0000 90B5     		push	{r4, r7, lr}
 439              	.LCFI19:
 440              		.cfi_def_cfa_offset 12
 441              		.cfi_offset 4, -12
 442              		.cfi_offset 7, -8
ARM GAS  C:\Users\OEBN\AppData\Local\Temp\cc2uhR5V.s 			page 16


 443              		.cfi_offset 14, -4
 444 0002 85B0     		sub	sp, sp, #20
 445              	.LCFI20:
 446              		.cfi_def_cfa_offset 32
 447 0004 00AF     		add	r7, sp, #0
 448              	.LCFI21:
 449              		.cfi_def_cfa_register 7
 450 0006 7860     		str	r0, [r7, #4]
 414:.\Generated_Source\PSoC4/PWM_2.c ****     uint8 enableInterrupts;
 415:.\Generated_Source\PSoC4/PWM_2.c **** 
 416:.\Generated_Source\PSoC4/PWM_2.c ****     enableInterrupts = CyEnterCriticalSection();
 451              		.loc 1 416 0
 452 0008 3C1C     		mov	r4, r7
 453 000a 0F34     		add	r4, r4, #15
 454 000c FFF7FEFF 		bl	CyEnterCriticalSection
 455 0010 031C     		mov	r3, r0
 456 0012 2370     		strb	r3, [r4]
 417:.\Generated_Source\PSoC4/PWM_2.c **** 
 418:.\Generated_Source\PSoC4/PWM_2.c ****     PWM_2_CONTROL_REG &= (uint32)~PWM_2_ONESHOT_MASK;
 457              		.loc 1 418 0
 458 0014 0B4B     		ldr	r3, .L24
 459 0016 0B4A     		ldr	r2, .L24
 460 0018 1168     		ldr	r1, [r2]
 461 001a 0B4A     		ldr	r2, .L24+4
 462 001c 0A40     		and	r2, r1
 463 001e 1A60     		str	r2, [r3]
 419:.\Generated_Source\PSoC4/PWM_2.c ****     PWM_2_CONTROL_REG |= ((uint32)((oneShotEnable & PWM_2_1BIT_MASK) <<
 464              		.loc 1 419 0
 465 0020 084B     		ldr	r3, .L24
 466 0022 084A     		ldr	r2, .L24
 467 0024 1168     		ldr	r1, [r2]
 468 0026 7868     		ldr	r0, [r7, #4]
 469 0028 0122     		mov	r2, #1
 470 002a 0240     		and	r2, r0
 471 002c 9204     		lsl	r2, r2, #18
 472 002e 0A43     		orr	r2, r1
 473 0030 1A60     		str	r2, [r3]
 420:.\Generated_Source\PSoC4/PWM_2.c ****                                                                PWM_2_ONESHOT_SHIFT));
 421:.\Generated_Source\PSoC4/PWM_2.c **** 
 422:.\Generated_Source\PSoC4/PWM_2.c ****     CyExitCriticalSection(enableInterrupts);
 474              		.loc 1 422 0
 475 0032 3B1C     		mov	r3, r7
 476 0034 0F33     		add	r3, r3, #15
 477 0036 1B78     		ldrb	r3, [r3]
 478 0038 181C     		mov	r0, r3
 479 003a FFF7FEFF 		bl	CyExitCriticalSection
 423:.\Generated_Source\PSoC4/PWM_2.c **** }
 480              		.loc 1 423 0
 481 003e BD46     		mov	sp, r7
 482 0040 05B0     		add	sp, sp, #20
 483              		@ sp needed for prologue
 484 0042 90BD     		pop	{r4, r7, pc}
 485              	.L25:
 486              		.align	2
 487              	.L24:
 488 0044 80010540 		.word	1074069888
 489 0048 FFFFFBFF 		.word	-262145
ARM GAS  C:\Users\OEBN\AppData\Local\Temp\cc2uhR5V.s 			page 17


 490              		.cfi_endproc
 491              	.LFE7:
 492              		.size	PWM_2_SetOneShot, .-PWM_2_SetOneShot
 493              		.section	.text.PWM_2_SetPWMMode,"ax",%progbits
 494              		.align	2
 495              		.global	PWM_2_SetPWMMode
 496              		.code	16
 497              		.thumb_func
 498              		.type	PWM_2_SetPWMMode, %function
 499              	PWM_2_SetPWMMode:
 500              	.LFB8:
 424:.\Generated_Source\PSoC4/PWM_2.c **** 
 425:.\Generated_Source\PSoC4/PWM_2.c **** 
 426:.\Generated_Source\PSoC4/PWM_2.c **** /*******************************************************************************
 427:.\Generated_Source\PSoC4/PWM_2.c **** * Function Name: PWM_2_SetPWMMode
 428:.\Generated_Source\PSoC4/PWM_2.c **** ********************************************************************************
 429:.\Generated_Source\PSoC4/PWM_2.c **** *
 430:.\Generated_Source\PSoC4/PWM_2.c **** * Summary:
 431:.\Generated_Source\PSoC4/PWM_2.c **** *  Writes the control register that determines what mode of operation the PWM
 432:.\Generated_Source\PSoC4/PWM_2.c **** *  output lines are driven in.  There is a setting for what to do on a
 433:.\Generated_Source\PSoC4/PWM_2.c **** *  comparison match (CC_MATCH), on an overflow (OVERFLOW) and on an underflow
 434:.\Generated_Source\PSoC4/PWM_2.c **** *  (UNDERFLOW).  The value for each of the three must be ORed together to form
 435:.\Generated_Source\PSoC4/PWM_2.c **** *  the mode.
 436:.\Generated_Source\PSoC4/PWM_2.c **** *
 437:.\Generated_Source\PSoC4/PWM_2.c **** * Parameters:
 438:.\Generated_Source\PSoC4/PWM_2.c **** *  modeMask: A combination of three mode settings.  Mask must include a value
 439:.\Generated_Source\PSoC4/PWM_2.c **** *  for each of the three or use one of the preconfigured PWM settings.
 440:.\Generated_Source\PSoC4/PWM_2.c **** *   Values:
 441:.\Generated_Source\PSoC4/PWM_2.c **** *     - CC_MATCH_SET        - Set on comparison match
 442:.\Generated_Source\PSoC4/PWM_2.c **** *     - CC_MATCH_CLEAR      - Clear on comparison match
 443:.\Generated_Source\PSoC4/PWM_2.c **** *     - CC_MATCH_INVERT     - Invert on comparison match
 444:.\Generated_Source\PSoC4/PWM_2.c **** *     - CC_MATCH_NO_CHANGE  - No change on comparison match
 445:.\Generated_Source\PSoC4/PWM_2.c **** *     - OVERLOW_SET         - Set on overflow
 446:.\Generated_Source\PSoC4/PWM_2.c **** *     - OVERLOW_CLEAR       - Clear on  overflow
 447:.\Generated_Source\PSoC4/PWM_2.c **** *     - OVERLOW_INVERT      - Invert on overflow
 448:.\Generated_Source\PSoC4/PWM_2.c **** *     - OVERLOW_NO_CHANGE   - No change on overflow
 449:.\Generated_Source\PSoC4/PWM_2.c **** *     - UNDERFLOW_SET       - Set on underflow
 450:.\Generated_Source\PSoC4/PWM_2.c **** *     - UNDERFLOW_CLEAR     - Clear on underflow
 451:.\Generated_Source\PSoC4/PWM_2.c **** *     - UNDERFLOW_INVERT    - Invert on underflow
 452:.\Generated_Source\PSoC4/PWM_2.c **** *     - UNDERFLOW_NO_CHANGE - No change on underflow
 453:.\Generated_Source\PSoC4/PWM_2.c **** *     - PWM_MODE_LEFT       - Setting for left aligned PWM.  Should be combined
 454:.\Generated_Source\PSoC4/PWM_2.c **** *                             with up counting mode
 455:.\Generated_Source\PSoC4/PWM_2.c **** *     - PWM_MODE_RIGHT      - Setting for right aligned PWM.  Should be combined
 456:.\Generated_Source\PSoC4/PWM_2.c **** *                             with down counting mode
 457:.\Generated_Source\PSoC4/PWM_2.c **** *     - PWM_MODE_CENTER     - Setting for center aligned PWM.  Should be
 458:.\Generated_Source\PSoC4/PWM_2.c **** *                             combined with up/down 0 mode
 459:.\Generated_Source\PSoC4/PWM_2.c **** *     - PWM_MODE_ASYM       - Setting for asymmetric PWM.  Should be combined
 460:.\Generated_Source\PSoC4/PWM_2.c **** *                             with up/down 1 mode
 461:.\Generated_Source\PSoC4/PWM_2.c **** *
 462:.\Generated_Source\PSoC4/PWM_2.c **** * Return:
 463:.\Generated_Source\PSoC4/PWM_2.c **** *  None
 464:.\Generated_Source\PSoC4/PWM_2.c **** *
 465:.\Generated_Source\PSoC4/PWM_2.c **** *******************************************************************************/
 466:.\Generated_Source\PSoC4/PWM_2.c **** void PWM_2_SetPWMMode(uint32 modeMask)
 467:.\Generated_Source\PSoC4/PWM_2.c **** {
 501              		.loc 1 467 0
 502              		.cfi_startproc
ARM GAS  C:\Users\OEBN\AppData\Local\Temp\cc2uhR5V.s 			page 18


 503 0000 80B5     		push	{r7, lr}
 504              	.LCFI22:
 505              		.cfi_def_cfa_offset 8
 506              		.cfi_offset 7, -8
 507              		.cfi_offset 14, -4
 508 0002 82B0     		sub	sp, sp, #8
 509              	.LCFI23:
 510              		.cfi_def_cfa_offset 16
 511 0004 00AF     		add	r7, sp, #0
 512              	.LCFI24:
 513              		.cfi_def_cfa_register 7
 514 0006 7860     		str	r0, [r7, #4]
 468:.\Generated_Source\PSoC4/PWM_2.c ****     PWM_2_TRIG_CONTROL2_REG = (modeMask & PWM_2_6BIT_MASK);
 515              		.loc 1 468 0
 516 0008 034B     		ldr	r3, .L27
 517 000a 7968     		ldr	r1, [r7, #4]
 518 000c 3F22     		mov	r2, #63
 519 000e 0A40     		and	r2, r1
 520 0010 1A60     		str	r2, [r3]
 469:.\Generated_Source\PSoC4/PWM_2.c **** }
 521              		.loc 1 469 0
 522 0012 BD46     		mov	sp, r7
 523 0014 02B0     		add	sp, sp, #8
 524              		@ sp needed for prologue
 525 0016 80BD     		pop	{r7, pc}
 526              	.L28:
 527              		.align	2
 528              	.L27:
 529 0018 A8010540 		.word	1074069928
 530              		.cfi_endproc
 531              	.LFE8:
 532              		.size	PWM_2_SetPWMMode, .-PWM_2_SetPWMMode
 533              		.section	.text.PWM_2_SetPWMSyncKill,"ax",%progbits
 534              		.align	2
 535              		.global	PWM_2_SetPWMSyncKill
 536              		.code	16
 537              		.thumb_func
 538              		.type	PWM_2_SetPWMSyncKill, %function
 539              	PWM_2_SetPWMSyncKill:
 540              	.LFB9:
 470:.\Generated_Source\PSoC4/PWM_2.c **** 
 471:.\Generated_Source\PSoC4/PWM_2.c **** 
 472:.\Generated_Source\PSoC4/PWM_2.c **** 
 473:.\Generated_Source\PSoC4/PWM_2.c **** /*******************************************************************************
 474:.\Generated_Source\PSoC4/PWM_2.c **** * Function Name: PWM_2_SetPWMSyncKill
 475:.\Generated_Source\PSoC4/PWM_2.c **** ********************************************************************************
 476:.\Generated_Source\PSoC4/PWM_2.c **** *
 477:.\Generated_Source\PSoC4/PWM_2.c **** * Summary:
 478:.\Generated_Source\PSoC4/PWM_2.c **** *  Writes the register that controls whether the PWM kill signal (stop input)
 479:.\Generated_Source\PSoC4/PWM_2.c **** *  causes asynchronous or synchronous kill operation.  By default the kill
 480:.\Generated_Source\PSoC4/PWM_2.c **** *  operation is asynchronous.  This functionality is only applicable to the PWM
 481:.\Generated_Source\PSoC4/PWM_2.c **** *  and PWM with dead time modes.
 482:.\Generated_Source\PSoC4/PWM_2.c **** *
 483:.\Generated_Source\PSoC4/PWM_2.c **** *  For Synchronous mode the kill signal disables both the line and line_n
 484:.\Generated_Source\PSoC4/PWM_2.c **** *  signals until the next terminal count.
 485:.\Generated_Source\PSoC4/PWM_2.c **** *
 486:.\Generated_Source\PSoC4/PWM_2.c **** *  For Asynchronous mode the kill signal disables both the line and line_n
ARM GAS  C:\Users\OEBN\AppData\Local\Temp\cc2uhR5V.s 			page 19


 487:.\Generated_Source\PSoC4/PWM_2.c **** *  signals when the kill signal is present.  This mode should only be used
 488:.\Generated_Source\PSoC4/PWM_2.c **** *  when the kill signal (stop input) is configured in the pass through mode
 489:.\Generated_Source\PSoC4/PWM_2.c **** *  (Level sensitive signal).
 490:.\Generated_Source\PSoC4/PWM_2.c **** 
 491:.\Generated_Source\PSoC4/PWM_2.c **** *
 492:.\Generated_Source\PSoC4/PWM_2.c **** * Parameters:
 493:.\Generated_Source\PSoC4/PWM_2.c **** *  syncKillEnable
 494:.\Generated_Source\PSoC4/PWM_2.c **** *   Values:
 495:.\Generated_Source\PSoC4/PWM_2.c **** *     - 0 - Asynchronous
 496:.\Generated_Source\PSoC4/PWM_2.c **** *     - 1 - Synchronous
 497:.\Generated_Source\PSoC4/PWM_2.c **** *
 498:.\Generated_Source\PSoC4/PWM_2.c **** * Return:
 499:.\Generated_Source\PSoC4/PWM_2.c **** *  None
 500:.\Generated_Source\PSoC4/PWM_2.c **** *
 501:.\Generated_Source\PSoC4/PWM_2.c **** *******************************************************************************/
 502:.\Generated_Source\PSoC4/PWM_2.c **** void PWM_2_SetPWMSyncKill(uint32 syncKillEnable)
 503:.\Generated_Source\PSoC4/PWM_2.c **** {
 541              		.loc 1 503 0
 542              		.cfi_startproc
 543 0000 90B5     		push	{r4, r7, lr}
 544              	.LCFI25:
 545              		.cfi_def_cfa_offset 12
 546              		.cfi_offset 4, -12
 547              		.cfi_offset 7, -8
 548              		.cfi_offset 14, -4
 549 0002 85B0     		sub	sp, sp, #20
 550              	.LCFI26:
 551              		.cfi_def_cfa_offset 32
 552 0004 00AF     		add	r7, sp, #0
 553              	.LCFI27:
 554              		.cfi_def_cfa_register 7
 555 0006 7860     		str	r0, [r7, #4]
 504:.\Generated_Source\PSoC4/PWM_2.c ****     uint8 enableInterrupts;
 505:.\Generated_Source\PSoC4/PWM_2.c **** 
 506:.\Generated_Source\PSoC4/PWM_2.c ****     enableInterrupts = CyEnterCriticalSection();
 556              		.loc 1 506 0
 557 0008 3C1C     		mov	r4, r7
 558 000a 0F34     		add	r4, r4, #15
 559 000c FFF7FEFF 		bl	CyEnterCriticalSection
 560 0010 031C     		mov	r3, r0
 561 0012 2370     		strb	r3, [r4]
 507:.\Generated_Source\PSoC4/PWM_2.c **** 
 508:.\Generated_Source\PSoC4/PWM_2.c ****     PWM_2_CONTROL_REG &= (uint32)~PWM_2_PWM_SYNC_KILL_MASK;
 562              		.loc 1 508 0
 563 0014 0B4B     		ldr	r3, .L30
 564 0016 0B4A     		ldr	r2, .L30
 565 0018 1268     		ldr	r2, [r2]
 566 001a 0421     		mov	r1, #4
 567 001c 8A43     		bic	r2, r1
 568 001e 1A60     		str	r2, [r3]
 509:.\Generated_Source\PSoC4/PWM_2.c ****     PWM_2_CONTROL_REG |= ((uint32)((syncKillEnable & PWM_2_1BIT_MASK)  <<
 569              		.loc 1 509 0
 570 0020 084B     		ldr	r3, .L30
 571 0022 084A     		ldr	r2, .L30
 572 0024 1168     		ldr	r1, [r2]
 573 0026 7868     		ldr	r0, [r7, #4]
 574 0028 0122     		mov	r2, #1
ARM GAS  C:\Users\OEBN\AppData\Local\Temp\cc2uhR5V.s 			page 20


 575 002a 0240     		and	r2, r0
 576 002c 9200     		lsl	r2, r2, #2
 577 002e 0A43     		orr	r2, r1
 578 0030 1A60     		str	r2, [r3]
 510:.\Generated_Source\PSoC4/PWM_2.c ****                                                PWM_2_PWM_SYNC_KILL_SHIFT));
 511:.\Generated_Source\PSoC4/PWM_2.c **** 
 512:.\Generated_Source\PSoC4/PWM_2.c ****     CyExitCriticalSection(enableInterrupts);
 579              		.loc 1 512 0
 580 0032 3B1C     		mov	r3, r7
 581 0034 0F33     		add	r3, r3, #15
 582 0036 1B78     		ldrb	r3, [r3]
 583 0038 181C     		mov	r0, r3
 584 003a FFF7FEFF 		bl	CyExitCriticalSection
 513:.\Generated_Source\PSoC4/PWM_2.c **** }
 585              		.loc 1 513 0
 586 003e BD46     		mov	sp, r7
 587 0040 05B0     		add	sp, sp, #20
 588              		@ sp needed for prologue
 589 0042 90BD     		pop	{r4, r7, pc}
 590              	.L31:
 591              		.align	2
 592              	.L30:
 593 0044 80010540 		.word	1074069888
 594              		.cfi_endproc
 595              	.LFE9:
 596              		.size	PWM_2_SetPWMSyncKill, .-PWM_2_SetPWMSyncKill
 597              		.section	.text.PWM_2_SetPWMStopOnKill,"ax",%progbits
 598              		.align	2
 599              		.global	PWM_2_SetPWMStopOnKill
 600              		.code	16
 601              		.thumb_func
 602              		.type	PWM_2_SetPWMStopOnKill, %function
 603              	PWM_2_SetPWMStopOnKill:
 604              	.LFB10:
 514:.\Generated_Source\PSoC4/PWM_2.c **** 
 515:.\Generated_Source\PSoC4/PWM_2.c **** 
 516:.\Generated_Source\PSoC4/PWM_2.c **** /*******************************************************************************
 517:.\Generated_Source\PSoC4/PWM_2.c **** * Function Name: PWM_2_SetPWMStopOnKill
 518:.\Generated_Source\PSoC4/PWM_2.c **** ********************************************************************************
 519:.\Generated_Source\PSoC4/PWM_2.c **** *
 520:.\Generated_Source\PSoC4/PWM_2.c **** * Summary:
 521:.\Generated_Source\PSoC4/PWM_2.c **** *  Writes the register that controls whether the PWM kill signal (stop input)
 522:.\Generated_Source\PSoC4/PWM_2.c **** *  causes the PWM counter to stop.  By default the kill operation does not stop
 523:.\Generated_Source\PSoC4/PWM_2.c **** *  the counter.  This functionality is only applicable to the three PWM modes.
 524:.\Generated_Source\PSoC4/PWM_2.c **** *
 525:.\Generated_Source\PSoC4/PWM_2.c **** *
 526:.\Generated_Source\PSoC4/PWM_2.c **** * Parameters:
 527:.\Generated_Source\PSoC4/PWM_2.c **** *  stopOnKillEnable
 528:.\Generated_Source\PSoC4/PWM_2.c **** *   Values:
 529:.\Generated_Source\PSoC4/PWM_2.c **** *     - 0 - Don't stop
 530:.\Generated_Source\PSoC4/PWM_2.c **** *     - 1 - Stop
 531:.\Generated_Source\PSoC4/PWM_2.c **** *
 532:.\Generated_Source\PSoC4/PWM_2.c **** * Return:
 533:.\Generated_Source\PSoC4/PWM_2.c **** *  None
 534:.\Generated_Source\PSoC4/PWM_2.c **** *
 535:.\Generated_Source\PSoC4/PWM_2.c **** *******************************************************************************/
 536:.\Generated_Source\PSoC4/PWM_2.c **** void PWM_2_SetPWMStopOnKill(uint32 stopOnKillEnable)
ARM GAS  C:\Users\OEBN\AppData\Local\Temp\cc2uhR5V.s 			page 21


 537:.\Generated_Source\PSoC4/PWM_2.c **** {
 605              		.loc 1 537 0
 606              		.cfi_startproc
 607 0000 90B5     		push	{r4, r7, lr}
 608              	.LCFI28:
 609              		.cfi_def_cfa_offset 12
 610              		.cfi_offset 4, -12
 611              		.cfi_offset 7, -8
 612              		.cfi_offset 14, -4
 613 0002 85B0     		sub	sp, sp, #20
 614              	.LCFI29:
 615              		.cfi_def_cfa_offset 32
 616 0004 00AF     		add	r7, sp, #0
 617              	.LCFI30:
 618              		.cfi_def_cfa_register 7
 619 0006 7860     		str	r0, [r7, #4]
 538:.\Generated_Source\PSoC4/PWM_2.c ****     uint8 enableInterrupts;
 539:.\Generated_Source\PSoC4/PWM_2.c **** 
 540:.\Generated_Source\PSoC4/PWM_2.c ****     enableInterrupts = CyEnterCriticalSection();
 620              		.loc 1 540 0
 621 0008 3C1C     		mov	r4, r7
 622 000a 0F34     		add	r4, r4, #15
 623 000c FFF7FEFF 		bl	CyEnterCriticalSection
 624 0010 031C     		mov	r3, r0
 625 0012 2370     		strb	r3, [r4]
 541:.\Generated_Source\PSoC4/PWM_2.c **** 
 542:.\Generated_Source\PSoC4/PWM_2.c ****     PWM_2_CONTROL_REG &= (uint32)~PWM_2_PWM_STOP_KILL_MASK;
 626              		.loc 1 542 0
 627 0014 0B4B     		ldr	r3, .L33
 628 0016 0B4A     		ldr	r2, .L33
 629 0018 1268     		ldr	r2, [r2]
 630 001a 0821     		mov	r1, #8
 631 001c 8A43     		bic	r2, r1
 632 001e 1A60     		str	r2, [r3]
 543:.\Generated_Source\PSoC4/PWM_2.c ****     PWM_2_CONTROL_REG |= ((uint32)((stopOnKillEnable & PWM_2_1BIT_MASK)  <<
 633              		.loc 1 543 0
 634 0020 084B     		ldr	r3, .L33
 635 0022 084A     		ldr	r2, .L33
 636 0024 1168     		ldr	r1, [r2]
 637 0026 7868     		ldr	r0, [r7, #4]
 638 0028 0122     		mov	r2, #1
 639 002a 0240     		and	r2, r0
 640 002c D200     		lsl	r2, r2, #3
 641 002e 0A43     		orr	r2, r1
 642 0030 1A60     		str	r2, [r3]
 544:.\Generated_Source\PSoC4/PWM_2.c ****                                                          PWM_2_PWM_STOP_KILL_SHIFT));
 545:.\Generated_Source\PSoC4/PWM_2.c **** 
 546:.\Generated_Source\PSoC4/PWM_2.c ****     CyExitCriticalSection(enableInterrupts);
 643              		.loc 1 546 0
 644 0032 3B1C     		mov	r3, r7
 645 0034 0F33     		add	r3, r3, #15
 646 0036 1B78     		ldrb	r3, [r3]
 647 0038 181C     		mov	r0, r3
 648 003a FFF7FEFF 		bl	CyExitCriticalSection
 547:.\Generated_Source\PSoC4/PWM_2.c **** }
 649              		.loc 1 547 0
 650 003e BD46     		mov	sp, r7
ARM GAS  C:\Users\OEBN\AppData\Local\Temp\cc2uhR5V.s 			page 22


 651 0040 05B0     		add	sp, sp, #20
 652              		@ sp needed for prologue
 653 0042 90BD     		pop	{r4, r7, pc}
 654              	.L34:
 655              		.align	2
 656              	.L33:
 657 0044 80010540 		.word	1074069888
 658              		.cfi_endproc
 659              	.LFE10:
 660              		.size	PWM_2_SetPWMStopOnKill, .-PWM_2_SetPWMStopOnKill
 661              		.section	.text.PWM_2_SetPWMDeadTime,"ax",%progbits
 662              		.align	2
 663              		.global	PWM_2_SetPWMDeadTime
 664              		.code	16
 665              		.thumb_func
 666              		.type	PWM_2_SetPWMDeadTime, %function
 667              	PWM_2_SetPWMDeadTime:
 668              	.LFB11:
 548:.\Generated_Source\PSoC4/PWM_2.c **** 
 549:.\Generated_Source\PSoC4/PWM_2.c **** 
 550:.\Generated_Source\PSoC4/PWM_2.c **** /*******************************************************************************
 551:.\Generated_Source\PSoC4/PWM_2.c **** * Function Name: PWM_2_SetPWMDeadTime
 552:.\Generated_Source\PSoC4/PWM_2.c **** ********************************************************************************
 553:.\Generated_Source\PSoC4/PWM_2.c **** *
 554:.\Generated_Source\PSoC4/PWM_2.c **** * Summary:
 555:.\Generated_Source\PSoC4/PWM_2.c **** *  Writes the dead time control value.  This value delays the rising edge of
 556:.\Generated_Source\PSoC4/PWM_2.c **** *  both the line and line_n signals the designated number of cycles resulting
 557:.\Generated_Source\PSoC4/PWM_2.c **** *  in both signals being inactive for that many cycles.  This functionality is
 558:.\Generated_Source\PSoC4/PWM_2.c **** *  only applicable to the PWM in the dead time mode.
 559:.\Generated_Source\PSoC4/PWM_2.c **** 
 560:.\Generated_Source\PSoC4/PWM_2.c **** *
 561:.\Generated_Source\PSoC4/PWM_2.c **** * Parameters:
 562:.\Generated_Source\PSoC4/PWM_2.c **** *  Dead time to insert
 563:.\Generated_Source\PSoC4/PWM_2.c **** *   Values: 0 to 255
 564:.\Generated_Source\PSoC4/PWM_2.c **** *
 565:.\Generated_Source\PSoC4/PWM_2.c **** * Return:
 566:.\Generated_Source\PSoC4/PWM_2.c **** *  None
 567:.\Generated_Source\PSoC4/PWM_2.c **** *
 568:.\Generated_Source\PSoC4/PWM_2.c **** *******************************************************************************/
 569:.\Generated_Source\PSoC4/PWM_2.c **** void PWM_2_SetPWMDeadTime(uint32 deadTime)
 570:.\Generated_Source\PSoC4/PWM_2.c **** {
 669              		.loc 1 570 0
 670              		.cfi_startproc
 671 0000 90B5     		push	{r4, r7, lr}
 672              	.LCFI31:
 673              		.cfi_def_cfa_offset 12
 674              		.cfi_offset 4, -12
 675              		.cfi_offset 7, -8
 676              		.cfi_offset 14, -4
 677 0002 85B0     		sub	sp, sp, #20
 678              	.LCFI32:
 679              		.cfi_def_cfa_offset 32
 680 0004 00AF     		add	r7, sp, #0
 681              	.LCFI33:
 682              		.cfi_def_cfa_register 7
 683 0006 7860     		str	r0, [r7, #4]
 571:.\Generated_Source\PSoC4/PWM_2.c ****     uint8 enableInterrupts;
ARM GAS  C:\Users\OEBN\AppData\Local\Temp\cc2uhR5V.s 			page 23


 572:.\Generated_Source\PSoC4/PWM_2.c **** 
 573:.\Generated_Source\PSoC4/PWM_2.c ****     enableInterrupts = CyEnterCriticalSection();
 684              		.loc 1 573 0
 685 0008 3C1C     		mov	r4, r7
 686 000a 0F34     		add	r4, r4, #15
 687 000c FFF7FEFF 		bl	CyEnterCriticalSection
 688 0010 031C     		mov	r3, r0
 689 0012 2370     		strb	r3, [r4]
 574:.\Generated_Source\PSoC4/PWM_2.c **** 
 575:.\Generated_Source\PSoC4/PWM_2.c ****     PWM_2_CONTROL_REG &= (uint32)~PWM_2_PRESCALER_MASK;
 690              		.loc 1 575 0
 691 0014 0B4B     		ldr	r3, .L36
 692 0016 0B4A     		ldr	r2, .L36
 693 0018 1168     		ldr	r1, [r2]
 694 001a 0B4A     		ldr	r2, .L36+4
 695 001c 0A40     		and	r2, r1
 696 001e 1A60     		str	r2, [r3]
 576:.\Generated_Source\PSoC4/PWM_2.c ****     PWM_2_CONTROL_REG |= ((uint32)((deadTime & PWM_2_8BIT_MASK) <<
 697              		.loc 1 576 0
 698 0020 084B     		ldr	r3, .L36
 699 0022 084A     		ldr	r2, .L36
 700 0024 1168     		ldr	r1, [r2]
 701 0026 7A68     		ldr	r2, [r7, #4]
 702 0028 1202     		lsl	r2, r2, #8
 703 002a 1204     		lsl	r2, r2, #16
 704 002c 120C     		lsr	r2, r2, #16
 705 002e 0A43     		orr	r2, r1
 706 0030 1A60     		str	r2, [r3]
 577:.\Generated_Source\PSoC4/PWM_2.c ****                                                           PWM_2_PRESCALER_SHIFT));
 578:.\Generated_Source\PSoC4/PWM_2.c **** 
 579:.\Generated_Source\PSoC4/PWM_2.c ****     CyExitCriticalSection(enableInterrupts);
 707              		.loc 1 579 0
 708 0032 3B1C     		mov	r3, r7
 709 0034 0F33     		add	r3, r3, #15
 710 0036 1B78     		ldrb	r3, [r3]
 711 0038 181C     		mov	r0, r3
 712 003a FFF7FEFF 		bl	CyExitCriticalSection
 580:.\Generated_Source\PSoC4/PWM_2.c **** }
 713              		.loc 1 580 0
 714 003e BD46     		mov	sp, r7
 715 0040 05B0     		add	sp, sp, #20
 716              		@ sp needed for prologue
 717 0042 90BD     		pop	{r4, r7, pc}
 718              	.L37:
 719              		.align	2
 720              	.L36:
 721 0044 80010540 		.word	1074069888
 722 0048 FF00FFFF 		.word	-65281
 723              		.cfi_endproc
 724              	.LFE11:
 725              		.size	PWM_2_SetPWMDeadTime, .-PWM_2_SetPWMDeadTime
 726              		.section	.text.PWM_2_SetPWMInvert,"ax",%progbits
 727              		.align	2
 728              		.global	PWM_2_SetPWMInvert
 729              		.code	16
 730              		.thumb_func
 731              		.type	PWM_2_SetPWMInvert, %function
ARM GAS  C:\Users\OEBN\AppData\Local\Temp\cc2uhR5V.s 			page 24


 732              	PWM_2_SetPWMInvert:
 733              	.LFB12:
 581:.\Generated_Source\PSoC4/PWM_2.c **** 
 582:.\Generated_Source\PSoC4/PWM_2.c **** 
 583:.\Generated_Source\PSoC4/PWM_2.c **** /*******************************************************************************
 584:.\Generated_Source\PSoC4/PWM_2.c **** * Function Name: PWM_2_SetPWMInvert
 585:.\Generated_Source\PSoC4/PWM_2.c **** ********************************************************************************
 586:.\Generated_Source\PSoC4/PWM_2.c **** *
 587:.\Generated_Source\PSoC4/PWM_2.c **** * Summary:
 588:.\Generated_Source\PSoC4/PWM_2.c **** *  Writes the bits that control whether the line and line_n outputs are
 589:.\Generated_Source\PSoC4/PWM_2.c **** *  inverted from their normal output values.  This functionality is only
 590:.\Generated_Source\PSoC4/PWM_2.c **** *  applicable to the three PWM modes.
 591:.\Generated_Source\PSoC4/PWM_2.c **** *
 592:.\Generated_Source\PSoC4/PWM_2.c **** * Parameters:
 593:.\Generated_Source\PSoC4/PWM_2.c **** *  mask: Mask of outputs to invert.
 594:.\Generated_Source\PSoC4/PWM_2.c **** *   Values:
 595:.\Generated_Source\PSoC4/PWM_2.c **** *         - PWM_2_INVERT_LINE   - Inverts the line output
 596:.\Generated_Source\PSoC4/PWM_2.c **** *         - PWM_2_INVERT_LINE_N - Inverts the line_n output
 597:.\Generated_Source\PSoC4/PWM_2.c **** *
 598:.\Generated_Source\PSoC4/PWM_2.c **** * Return:
 599:.\Generated_Source\PSoC4/PWM_2.c **** *  None
 600:.\Generated_Source\PSoC4/PWM_2.c **** *
 601:.\Generated_Source\PSoC4/PWM_2.c **** *******************************************************************************/
 602:.\Generated_Source\PSoC4/PWM_2.c **** void PWM_2_SetPWMInvert(uint32 mask)
 603:.\Generated_Source\PSoC4/PWM_2.c **** {
 734              		.loc 1 603 0
 735              		.cfi_startproc
 736 0000 90B5     		push	{r4, r7, lr}
 737              	.LCFI34:
 738              		.cfi_def_cfa_offset 12
 739              		.cfi_offset 4, -12
 740              		.cfi_offset 7, -8
 741              		.cfi_offset 14, -4
 742 0002 85B0     		sub	sp, sp, #20
 743              	.LCFI35:
 744              		.cfi_def_cfa_offset 32
 745 0004 00AF     		add	r7, sp, #0
 746              	.LCFI36:
 747              		.cfi_def_cfa_register 7
 748 0006 7860     		str	r0, [r7, #4]
 604:.\Generated_Source\PSoC4/PWM_2.c ****     uint8 enableInterrupts;
 605:.\Generated_Source\PSoC4/PWM_2.c **** 
 606:.\Generated_Source\PSoC4/PWM_2.c ****     enableInterrupts = CyEnterCriticalSection();
 749              		.loc 1 606 0
 750 0008 3C1C     		mov	r4, r7
 751 000a 0F34     		add	r4, r4, #15
 752 000c FFF7FEFF 		bl	CyEnterCriticalSection
 753 0010 031C     		mov	r3, r0
 754 0012 2370     		strb	r3, [r4]
 607:.\Generated_Source\PSoC4/PWM_2.c **** 
 608:.\Generated_Source\PSoC4/PWM_2.c ****     PWM_2_CONTROL_REG &= (uint32)~PWM_2_INV_OUT_MASK;
 755              		.loc 1 608 0
 756 0014 0A4B     		ldr	r3, .L39
 757 0016 0A4A     		ldr	r2, .L39
 758 0018 1168     		ldr	r1, [r2]
 759 001a 0A4A     		ldr	r2, .L39+4
 760 001c 0A40     		and	r2, r1
ARM GAS  C:\Users\OEBN\AppData\Local\Temp\cc2uhR5V.s 			page 25


 761 001e 1A60     		str	r2, [r3]
 609:.\Generated_Source\PSoC4/PWM_2.c ****     PWM_2_CONTROL_REG |= mask;
 762              		.loc 1 609 0
 763 0020 074B     		ldr	r3, .L39
 764 0022 074A     		ldr	r2, .L39
 765 0024 1168     		ldr	r1, [r2]
 766 0026 7A68     		ldr	r2, [r7, #4]
 767 0028 0A43     		orr	r2, r1
 768 002a 1A60     		str	r2, [r3]
 610:.\Generated_Source\PSoC4/PWM_2.c **** 
 611:.\Generated_Source\PSoC4/PWM_2.c ****     CyExitCriticalSection(enableInterrupts);
 769              		.loc 1 611 0
 770 002c 3B1C     		mov	r3, r7
 771 002e 0F33     		add	r3, r3, #15
 772 0030 1B78     		ldrb	r3, [r3]
 773 0032 181C     		mov	r0, r3
 774 0034 FFF7FEFF 		bl	CyExitCriticalSection
 612:.\Generated_Source\PSoC4/PWM_2.c **** }
 775              		.loc 1 612 0
 776 0038 BD46     		mov	sp, r7
 777 003a 05B0     		add	sp, sp, #20
 778              		@ sp needed for prologue
 779 003c 90BD     		pop	{r4, r7, pc}
 780              	.L40:
 781 003e C046     		.align	2
 782              	.L39:
 783 0040 80010540 		.word	1074069888
 784 0044 FFFFCFFF 		.word	-3145729
 785              		.cfi_endproc
 786              	.LFE12:
 787              		.size	PWM_2_SetPWMInvert, .-PWM_2_SetPWMInvert
 788              		.section	.text.PWM_2_WriteCounter,"ax",%progbits
 789              		.align	2
 790              		.global	PWM_2_WriteCounter
 791              		.code	16
 792              		.thumb_func
 793              		.type	PWM_2_WriteCounter, %function
 794              	PWM_2_WriteCounter:
 795              	.LFB13:
 613:.\Generated_Source\PSoC4/PWM_2.c **** 
 614:.\Generated_Source\PSoC4/PWM_2.c **** 
 615:.\Generated_Source\PSoC4/PWM_2.c **** 
 616:.\Generated_Source\PSoC4/PWM_2.c **** /*******************************************************************************
 617:.\Generated_Source\PSoC4/PWM_2.c **** * Function Name: PWM_2_WriteCounter
 618:.\Generated_Source\PSoC4/PWM_2.c **** ********************************************************************************
 619:.\Generated_Source\PSoC4/PWM_2.c **** *
 620:.\Generated_Source\PSoC4/PWM_2.c **** * Summary:
 621:.\Generated_Source\PSoC4/PWM_2.c **** *  Writes a new 16bit counter value directly into the counter register, thus
 622:.\Generated_Source\PSoC4/PWM_2.c **** *  setting the counter (not the period) to the value written. It is not
 623:.\Generated_Source\PSoC4/PWM_2.c **** *  advised to write to this field when the counter is running.
 624:.\Generated_Source\PSoC4/PWM_2.c **** *
 625:.\Generated_Source\PSoC4/PWM_2.c **** * Parameters:
 626:.\Generated_Source\PSoC4/PWM_2.c **** *  count: value to write
 627:.\Generated_Source\PSoC4/PWM_2.c **** *
 628:.\Generated_Source\PSoC4/PWM_2.c **** * Return:
 629:.\Generated_Source\PSoC4/PWM_2.c **** *  None
 630:.\Generated_Source\PSoC4/PWM_2.c **** *
ARM GAS  C:\Users\OEBN\AppData\Local\Temp\cc2uhR5V.s 			page 26


 631:.\Generated_Source\PSoC4/PWM_2.c **** *******************************************************************************/
 632:.\Generated_Source\PSoC4/PWM_2.c **** void PWM_2_WriteCounter(uint32 count)
 633:.\Generated_Source\PSoC4/PWM_2.c **** {
 796              		.loc 1 633 0
 797              		.cfi_startproc
 798 0000 80B5     		push	{r7, lr}
 799              	.LCFI37:
 800              		.cfi_def_cfa_offset 8
 801              		.cfi_offset 7, -8
 802              		.cfi_offset 14, -4
 803 0002 82B0     		sub	sp, sp, #8
 804              	.LCFI38:
 805              		.cfi_def_cfa_offset 16
 806 0004 00AF     		add	r7, sp, #0
 807              	.LCFI39:
 808              		.cfi_def_cfa_register 7
 809 0006 7860     		str	r0, [r7, #4]
 634:.\Generated_Source\PSoC4/PWM_2.c ****     PWM_2_COUNTER_REG = (count & PWM_2_16BIT_MASK);
 810              		.loc 1 634 0
 811 0008 034B     		ldr	r3, .L42
 812 000a 7A68     		ldr	r2, [r7, #4]
 813 000c 1204     		lsl	r2, r2, #16
 814 000e 120C     		lsr	r2, r2, #16
 815 0010 1A60     		str	r2, [r3]
 635:.\Generated_Source\PSoC4/PWM_2.c **** }
 816              		.loc 1 635 0
 817 0012 BD46     		mov	sp, r7
 818 0014 02B0     		add	sp, sp, #8
 819              		@ sp needed for prologue
 820 0016 80BD     		pop	{r7, pc}
 821              	.L43:
 822              		.align	2
 823              	.L42:
 824 0018 88010540 		.word	1074069896
 825              		.cfi_endproc
 826              	.LFE13:
 827              		.size	PWM_2_WriteCounter, .-PWM_2_WriteCounter
 828              		.section	.text.PWM_2_ReadCounter,"ax",%progbits
 829              		.align	2
 830              		.global	PWM_2_ReadCounter
 831              		.code	16
 832              		.thumb_func
 833              		.type	PWM_2_ReadCounter, %function
 834              	PWM_2_ReadCounter:
 835              	.LFB14:
 636:.\Generated_Source\PSoC4/PWM_2.c **** 
 637:.\Generated_Source\PSoC4/PWM_2.c **** 
 638:.\Generated_Source\PSoC4/PWM_2.c **** /*******************************************************************************
 639:.\Generated_Source\PSoC4/PWM_2.c **** * Function Name: PWM_2_ReadCounter
 640:.\Generated_Source\PSoC4/PWM_2.c **** ********************************************************************************
 641:.\Generated_Source\PSoC4/PWM_2.c **** *
 642:.\Generated_Source\PSoC4/PWM_2.c **** * Summary:
 643:.\Generated_Source\PSoC4/PWM_2.c **** *  Reads the current counter value.
 644:.\Generated_Source\PSoC4/PWM_2.c **** *
 645:.\Generated_Source\PSoC4/PWM_2.c **** * Parameters:
 646:.\Generated_Source\PSoC4/PWM_2.c **** *  None
 647:.\Generated_Source\PSoC4/PWM_2.c **** *
ARM GAS  C:\Users\OEBN\AppData\Local\Temp\cc2uhR5V.s 			page 27


 648:.\Generated_Source\PSoC4/PWM_2.c **** * Return:
 649:.\Generated_Source\PSoC4/PWM_2.c **** *  Current counter value
 650:.\Generated_Source\PSoC4/PWM_2.c **** *
 651:.\Generated_Source\PSoC4/PWM_2.c **** *******************************************************************************/
 652:.\Generated_Source\PSoC4/PWM_2.c **** uint32 PWM_2_ReadCounter(void)
 653:.\Generated_Source\PSoC4/PWM_2.c **** {
 836              		.loc 1 653 0
 837              		.cfi_startproc
 838 0000 80B5     		push	{r7, lr}
 839              	.LCFI40:
 840              		.cfi_def_cfa_offset 8
 841              		.cfi_offset 7, -8
 842              		.cfi_offset 14, -4
 843 0002 00AF     		add	r7, sp, #0
 844              	.LCFI41:
 845              		.cfi_def_cfa_register 7
 654:.\Generated_Source\PSoC4/PWM_2.c ****     return (PWM_2_COUNTER_REG & PWM_2_16BIT_MASK);
 846              		.loc 1 654 0
 847 0004 034B     		ldr	r3, .L46
 848 0006 1B68     		ldr	r3, [r3]
 849 0008 1B04     		lsl	r3, r3, #16
 850 000a 1B0C     		lsr	r3, r3, #16
 655:.\Generated_Source\PSoC4/PWM_2.c **** }
 851              		.loc 1 655 0
 852 000c 181C     		mov	r0, r3
 853 000e BD46     		mov	sp, r7
 854              		@ sp needed for prologue
 855 0010 80BD     		pop	{r7, pc}
 856              	.L47:
 857 0012 C046     		.align	2
 858              	.L46:
 859 0014 88010540 		.word	1074069896
 860              		.cfi_endproc
 861              	.LFE14:
 862              		.size	PWM_2_ReadCounter, .-PWM_2_ReadCounter
 863              		.section	.text.PWM_2_SetCounterMode,"ax",%progbits
 864              		.align	2
 865              		.global	PWM_2_SetCounterMode
 866              		.code	16
 867              		.thumb_func
 868              		.type	PWM_2_SetCounterMode, %function
 869              	PWM_2_SetCounterMode:
 870              	.LFB15:
 656:.\Generated_Source\PSoC4/PWM_2.c **** 
 657:.\Generated_Source\PSoC4/PWM_2.c **** 
 658:.\Generated_Source\PSoC4/PWM_2.c **** /*******************************************************************************
 659:.\Generated_Source\PSoC4/PWM_2.c **** * Function Name: PWM_2_SetCounterMode
 660:.\Generated_Source\PSoC4/PWM_2.c **** ********************************************************************************
 661:.\Generated_Source\PSoC4/PWM_2.c **** *
 662:.\Generated_Source\PSoC4/PWM_2.c **** * Summary:
 663:.\Generated_Source\PSoC4/PWM_2.c **** *  Sets the counter mode.  Applicable to all modes except Quadrature Decoder
 664:.\Generated_Source\PSoC4/PWM_2.c **** *  and the PWM with a pseudo random output.
 665:.\Generated_Source\PSoC4/PWM_2.c **** *
 666:.\Generated_Source\PSoC4/PWM_2.c **** * Parameters:
 667:.\Generated_Source\PSoC4/PWM_2.c **** *  counterMode: Enumerated counter type values
 668:.\Generated_Source\PSoC4/PWM_2.c **** *   Values:
 669:.\Generated_Source\PSoC4/PWM_2.c **** *     - PWM_2_COUNT_UP       - Counts up
ARM GAS  C:\Users\OEBN\AppData\Local\Temp\cc2uhR5V.s 			page 28


 670:.\Generated_Source\PSoC4/PWM_2.c **** *     - PWM_2_COUNT_DOWN     - Counts down
 671:.\Generated_Source\PSoC4/PWM_2.c **** *     - PWM_2_COUNT_UPDOWN0  - Counts up and down. Terminal count
 672:.\Generated_Source\PSoC4/PWM_2.c **** *                                         generated when counter reaches 0
 673:.\Generated_Source\PSoC4/PWM_2.c **** *     - PWM_2_COUNT_UPDOWN1  - Counts up and down. Terminal count
 674:.\Generated_Source\PSoC4/PWM_2.c **** *                                         generated both when counter reaches 0
 675:.\Generated_Source\PSoC4/PWM_2.c **** *                                         and period
 676:.\Generated_Source\PSoC4/PWM_2.c **** *
 677:.\Generated_Source\PSoC4/PWM_2.c **** * Return:
 678:.\Generated_Source\PSoC4/PWM_2.c **** *  None
 679:.\Generated_Source\PSoC4/PWM_2.c **** *
 680:.\Generated_Source\PSoC4/PWM_2.c **** *******************************************************************************/
 681:.\Generated_Source\PSoC4/PWM_2.c **** void PWM_2_SetCounterMode(uint32 counterMode)
 682:.\Generated_Source\PSoC4/PWM_2.c **** {
 871              		.loc 1 682 0
 872              		.cfi_startproc
 873 0000 90B5     		push	{r4, r7, lr}
 874              	.LCFI42:
 875              		.cfi_def_cfa_offset 12
 876              		.cfi_offset 4, -12
 877              		.cfi_offset 7, -8
 878              		.cfi_offset 14, -4
 879 0002 85B0     		sub	sp, sp, #20
 880              	.LCFI43:
 881              		.cfi_def_cfa_offset 32
 882 0004 00AF     		add	r7, sp, #0
 883              	.LCFI44:
 884              		.cfi_def_cfa_register 7
 885 0006 7860     		str	r0, [r7, #4]
 683:.\Generated_Source\PSoC4/PWM_2.c ****     uint8 enableInterrupts;
 684:.\Generated_Source\PSoC4/PWM_2.c **** 
 685:.\Generated_Source\PSoC4/PWM_2.c ****     enableInterrupts = CyEnterCriticalSection();
 886              		.loc 1 685 0
 887 0008 3C1C     		mov	r4, r7
 888 000a 0F34     		add	r4, r4, #15
 889 000c FFF7FEFF 		bl	CyEnterCriticalSection
 890 0010 031C     		mov	r3, r0
 891 0012 2370     		strb	r3, [r4]
 686:.\Generated_Source\PSoC4/PWM_2.c **** 
 687:.\Generated_Source\PSoC4/PWM_2.c ****     PWM_2_CONTROL_REG &= (uint32)~PWM_2_UPDOWN_MASK;
 892              		.loc 1 687 0
 893 0014 0A4B     		ldr	r3, .L49
 894 0016 0A4A     		ldr	r2, .L49
 895 0018 1168     		ldr	r1, [r2]
 896 001a 0A4A     		ldr	r2, .L49+4
 897 001c 0A40     		and	r2, r1
 898 001e 1A60     		str	r2, [r3]
 688:.\Generated_Source\PSoC4/PWM_2.c ****     PWM_2_CONTROL_REG |= counterMode;
 899              		.loc 1 688 0
 900 0020 074B     		ldr	r3, .L49
 901 0022 074A     		ldr	r2, .L49
 902 0024 1168     		ldr	r1, [r2]
 903 0026 7A68     		ldr	r2, [r7, #4]
 904 0028 0A43     		orr	r2, r1
 905 002a 1A60     		str	r2, [r3]
 689:.\Generated_Source\PSoC4/PWM_2.c **** 
 690:.\Generated_Source\PSoC4/PWM_2.c ****     CyExitCriticalSection(enableInterrupts);
 906              		.loc 1 690 0
ARM GAS  C:\Users\OEBN\AppData\Local\Temp\cc2uhR5V.s 			page 29


 907 002c 3B1C     		mov	r3, r7
 908 002e 0F33     		add	r3, r3, #15
 909 0030 1B78     		ldrb	r3, [r3]
 910 0032 181C     		mov	r0, r3
 911 0034 FFF7FEFF 		bl	CyExitCriticalSection
 691:.\Generated_Source\PSoC4/PWM_2.c **** }
 912              		.loc 1 691 0
 913 0038 BD46     		mov	sp, r7
 914 003a 05B0     		add	sp, sp, #20
 915              		@ sp needed for prologue
 916 003c 90BD     		pop	{r4, r7, pc}
 917              	.L50:
 918 003e C046     		.align	2
 919              	.L49:
 920 0040 80010540 		.word	1074069888
 921 0044 FFFFFCFF 		.word	-196609
 922              		.cfi_endproc
 923              	.LFE15:
 924              		.size	PWM_2_SetCounterMode, .-PWM_2_SetCounterMode
 925              		.section	.text.PWM_2_WritePeriod,"ax",%progbits
 926              		.align	2
 927              		.global	PWM_2_WritePeriod
 928              		.code	16
 929              		.thumb_func
 930              		.type	PWM_2_WritePeriod, %function
 931              	PWM_2_WritePeriod:
 932              	.LFB16:
 692:.\Generated_Source\PSoC4/PWM_2.c **** 
 693:.\Generated_Source\PSoC4/PWM_2.c **** 
 694:.\Generated_Source\PSoC4/PWM_2.c **** /*******************************************************************************
 695:.\Generated_Source\PSoC4/PWM_2.c **** * Function Name: PWM_2_WritePeriod
 696:.\Generated_Source\PSoC4/PWM_2.c **** ********************************************************************************
 697:.\Generated_Source\PSoC4/PWM_2.c **** *
 698:.\Generated_Source\PSoC4/PWM_2.c **** * Summary:
 699:.\Generated_Source\PSoC4/PWM_2.c **** *  Writes the 16 bit period register with the new period value.
 700:.\Generated_Source\PSoC4/PWM_2.c **** *  To cause the counter to count for N cycles this register should be written
 701:.\Generated_Source\PSoC4/PWM_2.c **** *  with N-1 (counts from 0 to period inclusive).
 702:.\Generated_Source\PSoC4/PWM_2.c **** *
 703:.\Generated_Source\PSoC4/PWM_2.c **** * Parameters:
 704:.\Generated_Source\PSoC4/PWM_2.c **** *  period: Period value
 705:.\Generated_Source\PSoC4/PWM_2.c **** *
 706:.\Generated_Source\PSoC4/PWM_2.c **** * Return:
 707:.\Generated_Source\PSoC4/PWM_2.c **** *  None
 708:.\Generated_Source\PSoC4/PWM_2.c **** *
 709:.\Generated_Source\PSoC4/PWM_2.c **** *******************************************************************************/
 710:.\Generated_Source\PSoC4/PWM_2.c **** void PWM_2_WritePeriod(uint32 period)
 711:.\Generated_Source\PSoC4/PWM_2.c **** {
 933              		.loc 1 711 0
 934              		.cfi_startproc
 935 0000 80B5     		push	{r7, lr}
 936              	.LCFI45:
 937              		.cfi_def_cfa_offset 8
 938              		.cfi_offset 7, -8
 939              		.cfi_offset 14, -4
 940 0002 82B0     		sub	sp, sp, #8
 941              	.LCFI46:
 942              		.cfi_def_cfa_offset 16
ARM GAS  C:\Users\OEBN\AppData\Local\Temp\cc2uhR5V.s 			page 30


 943 0004 00AF     		add	r7, sp, #0
 944              	.LCFI47:
 945              		.cfi_def_cfa_register 7
 946 0006 7860     		str	r0, [r7, #4]
 712:.\Generated_Source\PSoC4/PWM_2.c ****     PWM_2_PERIOD_REG = (period & PWM_2_16BIT_MASK);
 947              		.loc 1 712 0
 948 0008 034B     		ldr	r3, .L52
 949 000a 7A68     		ldr	r2, [r7, #4]
 950 000c 1204     		lsl	r2, r2, #16
 951 000e 120C     		lsr	r2, r2, #16
 952 0010 1A60     		str	r2, [r3]
 713:.\Generated_Source\PSoC4/PWM_2.c **** }
 953              		.loc 1 713 0
 954 0012 BD46     		mov	sp, r7
 955 0014 02B0     		add	sp, sp, #8
 956              		@ sp needed for prologue
 957 0016 80BD     		pop	{r7, pc}
 958              	.L53:
 959              		.align	2
 960              	.L52:
 961 0018 94010540 		.word	1074069908
 962              		.cfi_endproc
 963              	.LFE16:
 964              		.size	PWM_2_WritePeriod, .-PWM_2_WritePeriod
 965              		.section	.text.PWM_2_ReadPeriod,"ax",%progbits
 966              		.align	2
 967              		.global	PWM_2_ReadPeriod
 968              		.code	16
 969              		.thumb_func
 970              		.type	PWM_2_ReadPeriod, %function
 971              	PWM_2_ReadPeriod:
 972              	.LFB17:
 714:.\Generated_Source\PSoC4/PWM_2.c **** 
 715:.\Generated_Source\PSoC4/PWM_2.c **** 
 716:.\Generated_Source\PSoC4/PWM_2.c **** /*******************************************************************************
 717:.\Generated_Source\PSoC4/PWM_2.c **** * Function Name: PWM_2_ReadPeriod
 718:.\Generated_Source\PSoC4/PWM_2.c **** ********************************************************************************
 719:.\Generated_Source\PSoC4/PWM_2.c **** *
 720:.\Generated_Source\PSoC4/PWM_2.c **** * Summary:
 721:.\Generated_Source\PSoC4/PWM_2.c **** *  Reads the 16 bit period register.
 722:.\Generated_Source\PSoC4/PWM_2.c **** *
 723:.\Generated_Source\PSoC4/PWM_2.c **** * Parameters:
 724:.\Generated_Source\PSoC4/PWM_2.c **** *  None
 725:.\Generated_Source\PSoC4/PWM_2.c **** *
 726:.\Generated_Source\PSoC4/PWM_2.c **** * Return:
 727:.\Generated_Source\PSoC4/PWM_2.c **** *  Period value
 728:.\Generated_Source\PSoC4/PWM_2.c **** *
 729:.\Generated_Source\PSoC4/PWM_2.c **** *******************************************************************************/
 730:.\Generated_Source\PSoC4/PWM_2.c **** uint32 PWM_2_ReadPeriod(void)
 731:.\Generated_Source\PSoC4/PWM_2.c **** {
 973              		.loc 1 731 0
 974              		.cfi_startproc
 975 0000 80B5     		push	{r7, lr}
 976              	.LCFI48:
 977              		.cfi_def_cfa_offset 8
 978              		.cfi_offset 7, -8
 979              		.cfi_offset 14, -4
ARM GAS  C:\Users\OEBN\AppData\Local\Temp\cc2uhR5V.s 			page 31


 980 0002 00AF     		add	r7, sp, #0
 981              	.LCFI49:
 982              		.cfi_def_cfa_register 7
 732:.\Generated_Source\PSoC4/PWM_2.c ****     return (PWM_2_PERIOD_REG & PWM_2_16BIT_MASK);
 983              		.loc 1 732 0
 984 0004 034B     		ldr	r3, .L56
 985 0006 1B68     		ldr	r3, [r3]
 986 0008 1B04     		lsl	r3, r3, #16
 987 000a 1B0C     		lsr	r3, r3, #16
 733:.\Generated_Source\PSoC4/PWM_2.c **** }
 988              		.loc 1 733 0
 989 000c 181C     		mov	r0, r3
 990 000e BD46     		mov	sp, r7
 991              		@ sp needed for prologue
 992 0010 80BD     		pop	{r7, pc}
 993              	.L57:
 994 0012 C046     		.align	2
 995              	.L56:
 996 0014 94010540 		.word	1074069908
 997              		.cfi_endproc
 998              	.LFE17:
 999              		.size	PWM_2_ReadPeriod, .-PWM_2_ReadPeriod
 1000              		.section	.text.PWM_2_SetCompareSwap,"ax",%progbits
 1001              		.align	2
 1002              		.global	PWM_2_SetCompareSwap
 1003              		.code	16
 1004              		.thumb_func
 1005              		.type	PWM_2_SetCompareSwap, %function
 1006              	PWM_2_SetCompareSwap:
 1007              	.LFB18:
 734:.\Generated_Source\PSoC4/PWM_2.c **** 
 735:.\Generated_Source\PSoC4/PWM_2.c **** 
 736:.\Generated_Source\PSoC4/PWM_2.c **** /*******************************************************************************
 737:.\Generated_Source\PSoC4/PWM_2.c **** * Function Name: PWM_2_SetCompareSwap
 738:.\Generated_Source\PSoC4/PWM_2.c **** ********************************************************************************
 739:.\Generated_Source\PSoC4/PWM_2.c **** *
 740:.\Generated_Source\PSoC4/PWM_2.c **** * Summary:
 741:.\Generated_Source\PSoC4/PWM_2.c **** *  Writes the register that controls whether the compare registers are
 742:.\Generated_Source\PSoC4/PWM_2.c **** *  swapped. When enabled in the Timer/Counter mode(without capture) the swap
 743:.\Generated_Source\PSoC4/PWM_2.c **** *  occurs at a TC event. In the PWM mode the swap occurs at the next TC event
 744:.\Generated_Source\PSoC4/PWM_2.c **** *  following a hardware switch event.
 745:.\Generated_Source\PSoC4/PWM_2.c **** *
 746:.\Generated_Source\PSoC4/PWM_2.c **** * Parameters:
 747:.\Generated_Source\PSoC4/PWM_2.c **** *  swapEnable
 748:.\Generated_Source\PSoC4/PWM_2.c **** *   Values:
 749:.\Generated_Source\PSoC4/PWM_2.c **** *     - 0 - Disable swap
 750:.\Generated_Source\PSoC4/PWM_2.c **** *     - 1 - Enable swap
 751:.\Generated_Source\PSoC4/PWM_2.c **** *
 752:.\Generated_Source\PSoC4/PWM_2.c **** * Return:
 753:.\Generated_Source\PSoC4/PWM_2.c **** *  None
 754:.\Generated_Source\PSoC4/PWM_2.c **** *
 755:.\Generated_Source\PSoC4/PWM_2.c **** *******************************************************************************/
 756:.\Generated_Source\PSoC4/PWM_2.c **** void PWM_2_SetCompareSwap(uint32 swapEnable)
 757:.\Generated_Source\PSoC4/PWM_2.c **** {
 1008              		.loc 1 757 0
 1009              		.cfi_startproc
 1010 0000 90B5     		push	{r4, r7, lr}
ARM GAS  C:\Users\OEBN\AppData\Local\Temp\cc2uhR5V.s 			page 32


 1011              	.LCFI50:
 1012              		.cfi_def_cfa_offset 12
 1013              		.cfi_offset 4, -12
 1014              		.cfi_offset 7, -8
 1015              		.cfi_offset 14, -4
 1016 0002 85B0     		sub	sp, sp, #20
 1017              	.LCFI51:
 1018              		.cfi_def_cfa_offset 32
 1019 0004 00AF     		add	r7, sp, #0
 1020              	.LCFI52:
 1021              		.cfi_def_cfa_register 7
 1022 0006 7860     		str	r0, [r7, #4]
 758:.\Generated_Source\PSoC4/PWM_2.c ****     uint8 enableInterrupts;
 759:.\Generated_Source\PSoC4/PWM_2.c **** 
 760:.\Generated_Source\PSoC4/PWM_2.c ****     enableInterrupts = CyEnterCriticalSection();
 1023              		.loc 1 760 0
 1024 0008 3C1C     		mov	r4, r7
 1025 000a 0F34     		add	r4, r4, #15
 1026 000c FFF7FEFF 		bl	CyEnterCriticalSection
 1027 0010 031C     		mov	r3, r0
 1028 0012 2370     		strb	r3, [r4]
 761:.\Generated_Source\PSoC4/PWM_2.c **** 
 762:.\Generated_Source\PSoC4/PWM_2.c ****     PWM_2_CONTROL_REG &= (uint32)~PWM_2_RELOAD_CC_MASK;
 1029              		.loc 1 762 0
 1030 0014 0B4B     		ldr	r3, .L59
 1031 0016 0B4A     		ldr	r2, .L59
 1032 0018 1268     		ldr	r2, [r2]
 1033 001a 0121     		mov	r1, #1
 1034 001c 8A43     		bic	r2, r1
 1035 001e 1A60     		str	r2, [r3]
 763:.\Generated_Source\PSoC4/PWM_2.c ****     PWM_2_CONTROL_REG |= (swapEnable & PWM_2_1BIT_MASK);
 1036              		.loc 1 763 0
 1037 0020 084B     		ldr	r3, .L59
 1038 0022 084A     		ldr	r2, .L59
 1039 0024 1168     		ldr	r1, [r2]
 1040 0026 7868     		ldr	r0, [r7, #4]
 1041 0028 0122     		mov	r2, #1
 1042 002a 0240     		and	r2, r0
 1043 002c 0A43     		orr	r2, r1
 1044 002e 1A60     		str	r2, [r3]
 764:.\Generated_Source\PSoC4/PWM_2.c **** 
 765:.\Generated_Source\PSoC4/PWM_2.c ****     CyExitCriticalSection(enableInterrupts);
 1045              		.loc 1 765 0
 1046 0030 3B1C     		mov	r3, r7
 1047 0032 0F33     		add	r3, r3, #15
 1048 0034 1B78     		ldrb	r3, [r3]
 1049 0036 181C     		mov	r0, r3
 1050 0038 FFF7FEFF 		bl	CyExitCriticalSection
 766:.\Generated_Source\PSoC4/PWM_2.c **** }
 1051              		.loc 1 766 0
 1052 003c BD46     		mov	sp, r7
 1053 003e 05B0     		add	sp, sp, #20
 1054              		@ sp needed for prologue
 1055 0040 90BD     		pop	{r4, r7, pc}
 1056              	.L60:
 1057 0042 C046     		.align	2
 1058              	.L59:
ARM GAS  C:\Users\OEBN\AppData\Local\Temp\cc2uhR5V.s 			page 33


 1059 0044 80010540 		.word	1074069888
 1060              		.cfi_endproc
 1061              	.LFE18:
 1062              		.size	PWM_2_SetCompareSwap, .-PWM_2_SetCompareSwap
 1063              		.section	.text.PWM_2_WritePeriodBuf,"ax",%progbits
 1064              		.align	2
 1065              		.global	PWM_2_WritePeriodBuf
 1066              		.code	16
 1067              		.thumb_func
 1068              		.type	PWM_2_WritePeriodBuf, %function
 1069              	PWM_2_WritePeriodBuf:
 1070              	.LFB19:
 767:.\Generated_Source\PSoC4/PWM_2.c **** 
 768:.\Generated_Source\PSoC4/PWM_2.c **** 
 769:.\Generated_Source\PSoC4/PWM_2.c **** /*******************************************************************************
 770:.\Generated_Source\PSoC4/PWM_2.c **** * Function Name: PWM_2_WritePeriodBuf
 771:.\Generated_Source\PSoC4/PWM_2.c **** ********************************************************************************
 772:.\Generated_Source\PSoC4/PWM_2.c **** *
 773:.\Generated_Source\PSoC4/PWM_2.c **** * Summary:
 774:.\Generated_Source\PSoC4/PWM_2.c **** *  Writes the 16 bit period buf register with the new period value.
 775:.\Generated_Source\PSoC4/PWM_2.c **** *
 776:.\Generated_Source\PSoC4/PWM_2.c **** * Parameters:
 777:.\Generated_Source\PSoC4/PWM_2.c **** *  periodBuf: Period value
 778:.\Generated_Source\PSoC4/PWM_2.c **** *
 779:.\Generated_Source\PSoC4/PWM_2.c **** * Return:
 780:.\Generated_Source\PSoC4/PWM_2.c **** *  None
 781:.\Generated_Source\PSoC4/PWM_2.c **** *
 782:.\Generated_Source\PSoC4/PWM_2.c **** *******************************************************************************/
 783:.\Generated_Source\PSoC4/PWM_2.c **** void PWM_2_WritePeriodBuf(uint32 periodBuf)
 784:.\Generated_Source\PSoC4/PWM_2.c **** {
 1071              		.loc 1 784 0
 1072              		.cfi_startproc
 1073 0000 80B5     		push	{r7, lr}
 1074              	.LCFI53:
 1075              		.cfi_def_cfa_offset 8
 1076              		.cfi_offset 7, -8
 1077              		.cfi_offset 14, -4
 1078 0002 82B0     		sub	sp, sp, #8
 1079              	.LCFI54:
 1080              		.cfi_def_cfa_offset 16
 1081 0004 00AF     		add	r7, sp, #0
 1082              	.LCFI55:
 1083              		.cfi_def_cfa_register 7
 1084 0006 7860     		str	r0, [r7, #4]
 785:.\Generated_Source\PSoC4/PWM_2.c ****     PWM_2_PERIOD_BUF_REG = (periodBuf & PWM_2_16BIT_MASK);
 1085              		.loc 1 785 0
 1086 0008 034B     		ldr	r3, .L62
 1087 000a 7A68     		ldr	r2, [r7, #4]
 1088 000c 1204     		lsl	r2, r2, #16
 1089 000e 120C     		lsr	r2, r2, #16
 1090 0010 1A60     		str	r2, [r3]
 786:.\Generated_Source\PSoC4/PWM_2.c **** }
 1091              		.loc 1 786 0
 1092 0012 BD46     		mov	sp, r7
 1093 0014 02B0     		add	sp, sp, #8
 1094              		@ sp needed for prologue
 1095 0016 80BD     		pop	{r7, pc}
ARM GAS  C:\Users\OEBN\AppData\Local\Temp\cc2uhR5V.s 			page 34


 1096              	.L63:
 1097              		.align	2
 1098              	.L62:
 1099 0018 98010540 		.word	1074069912
 1100              		.cfi_endproc
 1101              	.LFE19:
 1102              		.size	PWM_2_WritePeriodBuf, .-PWM_2_WritePeriodBuf
 1103              		.section	.text.PWM_2_ReadPeriodBuf,"ax",%progbits
 1104              		.align	2
 1105              		.global	PWM_2_ReadPeriodBuf
 1106              		.code	16
 1107              		.thumb_func
 1108              		.type	PWM_2_ReadPeriodBuf, %function
 1109              	PWM_2_ReadPeriodBuf:
 1110              	.LFB20:
 787:.\Generated_Source\PSoC4/PWM_2.c **** 
 788:.\Generated_Source\PSoC4/PWM_2.c **** 
 789:.\Generated_Source\PSoC4/PWM_2.c **** /*******************************************************************************
 790:.\Generated_Source\PSoC4/PWM_2.c **** * Function Name: PWM_2_ReadPeriodBuf
 791:.\Generated_Source\PSoC4/PWM_2.c **** ********************************************************************************
 792:.\Generated_Source\PSoC4/PWM_2.c **** *
 793:.\Generated_Source\PSoC4/PWM_2.c **** * Summary:
 794:.\Generated_Source\PSoC4/PWM_2.c **** *  Reads the 16 bit period buf register.
 795:.\Generated_Source\PSoC4/PWM_2.c **** *
 796:.\Generated_Source\PSoC4/PWM_2.c **** * Parameters:
 797:.\Generated_Source\PSoC4/PWM_2.c **** *  None
 798:.\Generated_Source\PSoC4/PWM_2.c **** *
 799:.\Generated_Source\PSoC4/PWM_2.c **** * Return:
 800:.\Generated_Source\PSoC4/PWM_2.c **** *  Period value
 801:.\Generated_Source\PSoC4/PWM_2.c **** *
 802:.\Generated_Source\PSoC4/PWM_2.c **** *******************************************************************************/
 803:.\Generated_Source\PSoC4/PWM_2.c **** uint32 PWM_2_ReadPeriodBuf(void)
 804:.\Generated_Source\PSoC4/PWM_2.c **** {
 1111              		.loc 1 804 0
 1112              		.cfi_startproc
 1113 0000 80B5     		push	{r7, lr}
 1114              	.LCFI56:
 1115              		.cfi_def_cfa_offset 8
 1116              		.cfi_offset 7, -8
 1117              		.cfi_offset 14, -4
 1118 0002 00AF     		add	r7, sp, #0
 1119              	.LCFI57:
 1120              		.cfi_def_cfa_register 7
 805:.\Generated_Source\PSoC4/PWM_2.c ****     return (PWM_2_PERIOD_BUF_REG & PWM_2_16BIT_MASK);
 1121              		.loc 1 805 0
 1122 0004 034B     		ldr	r3, .L66
 1123 0006 1B68     		ldr	r3, [r3]
 1124 0008 1B04     		lsl	r3, r3, #16
 1125 000a 1B0C     		lsr	r3, r3, #16
 806:.\Generated_Source\PSoC4/PWM_2.c **** }
 1126              		.loc 1 806 0
 1127 000c 181C     		mov	r0, r3
 1128 000e BD46     		mov	sp, r7
 1129              		@ sp needed for prologue
 1130 0010 80BD     		pop	{r7, pc}
 1131              	.L67:
 1132 0012 C046     		.align	2
ARM GAS  C:\Users\OEBN\AppData\Local\Temp\cc2uhR5V.s 			page 35


 1133              	.L66:
 1134 0014 98010540 		.word	1074069912
 1135              		.cfi_endproc
 1136              	.LFE20:
 1137              		.size	PWM_2_ReadPeriodBuf, .-PWM_2_ReadPeriodBuf
 1138              		.section	.text.PWM_2_SetPeriodSwap,"ax",%progbits
 1139              		.align	2
 1140              		.global	PWM_2_SetPeriodSwap
 1141              		.code	16
 1142              		.thumb_func
 1143              		.type	PWM_2_SetPeriodSwap, %function
 1144              	PWM_2_SetPeriodSwap:
 1145              	.LFB21:
 807:.\Generated_Source\PSoC4/PWM_2.c **** 
 808:.\Generated_Source\PSoC4/PWM_2.c **** 
 809:.\Generated_Source\PSoC4/PWM_2.c **** /*******************************************************************************
 810:.\Generated_Source\PSoC4/PWM_2.c **** * Function Name: PWM_2_SetPeriodSwap
 811:.\Generated_Source\PSoC4/PWM_2.c **** ********************************************************************************
 812:.\Generated_Source\PSoC4/PWM_2.c **** *
 813:.\Generated_Source\PSoC4/PWM_2.c **** * Summary:
 814:.\Generated_Source\PSoC4/PWM_2.c **** *  Writes the register that controls whether the period registers are
 815:.\Generated_Source\PSoC4/PWM_2.c **** *  swapped. When enabled in Timer/Counter mode the swap occurs at a TC event.
 816:.\Generated_Source\PSoC4/PWM_2.c **** *  In the PWM mode the swap occurs at the next TC event following a hardware
 817:.\Generated_Source\PSoC4/PWM_2.c **** *  switch event.
 818:.\Generated_Source\PSoC4/PWM_2.c **** *
 819:.\Generated_Source\PSoC4/PWM_2.c **** * Parameters:
 820:.\Generated_Source\PSoC4/PWM_2.c **** *  swapEnable
 821:.\Generated_Source\PSoC4/PWM_2.c **** *   Values:
 822:.\Generated_Source\PSoC4/PWM_2.c **** *     - 0 - Disable swap
 823:.\Generated_Source\PSoC4/PWM_2.c **** *     - 1 - Enable swap
 824:.\Generated_Source\PSoC4/PWM_2.c **** *
 825:.\Generated_Source\PSoC4/PWM_2.c **** * Return:
 826:.\Generated_Source\PSoC4/PWM_2.c **** *  None
 827:.\Generated_Source\PSoC4/PWM_2.c **** *
 828:.\Generated_Source\PSoC4/PWM_2.c **** *******************************************************************************/
 829:.\Generated_Source\PSoC4/PWM_2.c **** void PWM_2_SetPeriodSwap(uint32 swapEnable)
 830:.\Generated_Source\PSoC4/PWM_2.c **** {
 1146              		.loc 1 830 0
 1147              		.cfi_startproc
 1148 0000 90B5     		push	{r4, r7, lr}
 1149              	.LCFI58:
 1150              		.cfi_def_cfa_offset 12
 1151              		.cfi_offset 4, -12
 1152              		.cfi_offset 7, -8
 1153              		.cfi_offset 14, -4
 1154 0002 85B0     		sub	sp, sp, #20
 1155              	.LCFI59:
 1156              		.cfi_def_cfa_offset 32
 1157 0004 00AF     		add	r7, sp, #0
 1158              	.LCFI60:
 1159              		.cfi_def_cfa_register 7
 1160 0006 7860     		str	r0, [r7, #4]
 831:.\Generated_Source\PSoC4/PWM_2.c ****     uint8 enableInterrupts;
 832:.\Generated_Source\PSoC4/PWM_2.c **** 
 833:.\Generated_Source\PSoC4/PWM_2.c ****     enableInterrupts = CyEnterCriticalSection();
 1161              		.loc 1 833 0
 1162 0008 3C1C     		mov	r4, r7
ARM GAS  C:\Users\OEBN\AppData\Local\Temp\cc2uhR5V.s 			page 36


 1163 000a 0F34     		add	r4, r4, #15
 1164 000c FFF7FEFF 		bl	CyEnterCriticalSection
 1165 0010 031C     		mov	r3, r0
 1166 0012 2370     		strb	r3, [r4]
 834:.\Generated_Source\PSoC4/PWM_2.c **** 
 835:.\Generated_Source\PSoC4/PWM_2.c ****     PWM_2_CONTROL_REG &= (uint32)~PWM_2_RELOAD_PERIOD_MASK;
 1167              		.loc 1 835 0
 1168 0014 0B4B     		ldr	r3, .L69
 1169 0016 0B4A     		ldr	r2, .L69
 1170 0018 1268     		ldr	r2, [r2]
 1171 001a 0221     		mov	r1, #2
 1172 001c 8A43     		bic	r2, r1
 1173 001e 1A60     		str	r2, [r3]
 836:.\Generated_Source\PSoC4/PWM_2.c ****     PWM_2_CONTROL_REG |= ((uint32)((swapEnable & PWM_2_1BIT_MASK) <<
 1174              		.loc 1 836 0
 1175 0020 084B     		ldr	r3, .L69
 1176 0022 084A     		ldr	r2, .L69
 1177 0024 1168     		ldr	r1, [r2]
 1178 0026 7868     		ldr	r0, [r7, #4]
 1179 0028 0122     		mov	r2, #1
 1180 002a 0240     		and	r2, r0
 1181 002c 5200     		lsl	r2, r2, #1
 1182 002e 0A43     		orr	r2, r1
 1183 0030 1A60     		str	r2, [r3]
 837:.\Generated_Source\PSoC4/PWM_2.c ****                                                             PWM_2_RELOAD_PERIOD_SHIFT));
 838:.\Generated_Source\PSoC4/PWM_2.c **** 
 839:.\Generated_Source\PSoC4/PWM_2.c ****     CyExitCriticalSection(enableInterrupts);
 1184              		.loc 1 839 0
 1185 0032 3B1C     		mov	r3, r7
 1186 0034 0F33     		add	r3, r3, #15
 1187 0036 1B78     		ldrb	r3, [r3]
 1188 0038 181C     		mov	r0, r3
 1189 003a FFF7FEFF 		bl	CyExitCriticalSection
 840:.\Generated_Source\PSoC4/PWM_2.c **** }
 1190              		.loc 1 840 0
 1191 003e BD46     		mov	sp, r7
 1192 0040 05B0     		add	sp, sp, #20
 1193              		@ sp needed for prologue
 1194 0042 90BD     		pop	{r4, r7, pc}
 1195              	.L70:
 1196              		.align	2
 1197              	.L69:
 1198 0044 80010540 		.word	1074069888
 1199              		.cfi_endproc
 1200              	.LFE21:
 1201              		.size	PWM_2_SetPeriodSwap, .-PWM_2_SetPeriodSwap
 1202              		.section	.text.PWM_2_WriteCompare,"ax",%progbits
 1203              		.align	2
 1204              		.global	PWM_2_WriteCompare
 1205              		.code	16
 1206              		.thumb_func
 1207              		.type	PWM_2_WriteCompare, %function
 1208              	PWM_2_WriteCompare:
 1209              	.LFB22:
 841:.\Generated_Source\PSoC4/PWM_2.c **** 
 842:.\Generated_Source\PSoC4/PWM_2.c **** 
 843:.\Generated_Source\PSoC4/PWM_2.c **** /*******************************************************************************
ARM GAS  C:\Users\OEBN\AppData\Local\Temp\cc2uhR5V.s 			page 37


 844:.\Generated_Source\PSoC4/PWM_2.c **** * Function Name: PWM_2_WriteCompare
 845:.\Generated_Source\PSoC4/PWM_2.c **** ********************************************************************************
 846:.\Generated_Source\PSoC4/PWM_2.c **** *
 847:.\Generated_Source\PSoC4/PWM_2.c **** * Summary:
 848:.\Generated_Source\PSoC4/PWM_2.c **** *  Writes the 16 bit compare register with the new compare value. Not
 849:.\Generated_Source\PSoC4/PWM_2.c **** *  applicable for Timer/Counter with Capture or in Quadrature Decoder modes.
 850:.\Generated_Source\PSoC4/PWM_2.c **** *
 851:.\Generated_Source\PSoC4/PWM_2.c **** * Parameters:
 852:.\Generated_Source\PSoC4/PWM_2.c **** *  compare: Compare value
 853:.\Generated_Source\PSoC4/PWM_2.c **** *
 854:.\Generated_Source\PSoC4/PWM_2.c **** * Return:
 855:.\Generated_Source\PSoC4/PWM_2.c **** *  None
 856:.\Generated_Source\PSoC4/PWM_2.c **** *
 857:.\Generated_Source\PSoC4/PWM_2.c **** *******************************************************************************/
 858:.\Generated_Source\PSoC4/PWM_2.c **** void PWM_2_WriteCompare(uint32 compare)
 859:.\Generated_Source\PSoC4/PWM_2.c **** {
 1210              		.loc 1 859 0
 1211              		.cfi_startproc
 1212 0000 80B5     		push	{r7, lr}
 1213              	.LCFI61:
 1214              		.cfi_def_cfa_offset 8
 1215              		.cfi_offset 7, -8
 1216              		.cfi_offset 14, -4
 1217 0002 82B0     		sub	sp, sp, #8
 1218              	.LCFI62:
 1219              		.cfi_def_cfa_offset 16
 1220 0004 00AF     		add	r7, sp, #0
 1221              	.LCFI63:
 1222              		.cfi_def_cfa_register 7
 1223 0006 7860     		str	r0, [r7, #4]
 860:.\Generated_Source\PSoC4/PWM_2.c ****     #if (PWM_2_CY_TCPWM_V2)
 861:.\Generated_Source\PSoC4/PWM_2.c ****         uint32 currentMode;
 862:.\Generated_Source\PSoC4/PWM_2.c ****     #endif /* (PWM_2_CY_TCPWM_V2) */
 863:.\Generated_Source\PSoC4/PWM_2.c **** 
 864:.\Generated_Source\PSoC4/PWM_2.c ****     #if (PWM_2_CY_TCPWM_V2)
 865:.\Generated_Source\PSoC4/PWM_2.c ****         currentMode = ((PWM_2_CONTROL_REG & PWM_2_UPDOWN_MASK) >> PWM_2_UPDOWN_SHIFT);
 866:.\Generated_Source\PSoC4/PWM_2.c **** 
 867:.\Generated_Source\PSoC4/PWM_2.c ****         if (PWM_2__COUNT_DOWN == currentMode)
 868:.\Generated_Source\PSoC4/PWM_2.c ****         {
 869:.\Generated_Source\PSoC4/PWM_2.c ****             PWM_2_COMP_CAP_REG = ((compare + 1u) & PWM_2_16BIT_MASK);
 870:.\Generated_Source\PSoC4/PWM_2.c ****         }
 871:.\Generated_Source\PSoC4/PWM_2.c ****         else if (PWM_2__COUNT_UP == currentMode)
 872:.\Generated_Source\PSoC4/PWM_2.c ****         {
 873:.\Generated_Source\PSoC4/PWM_2.c ****             PWM_2_COMP_CAP_REG = ((compare - 1u) & PWM_2_16BIT_MASK);
 874:.\Generated_Source\PSoC4/PWM_2.c ****         }
 875:.\Generated_Source\PSoC4/PWM_2.c ****         else
 876:.\Generated_Source\PSoC4/PWM_2.c ****         {
 877:.\Generated_Source\PSoC4/PWM_2.c ****             PWM_2_COMP_CAP_REG = (compare & PWM_2_16BIT_MASK);
 878:.\Generated_Source\PSoC4/PWM_2.c ****         }
 879:.\Generated_Source\PSoC4/PWM_2.c ****     #else
 880:.\Generated_Source\PSoC4/PWM_2.c ****         PWM_2_COMP_CAP_REG = (compare & PWM_2_16BIT_MASK);
 1224              		.loc 1 880 0
 1225 0008 034B     		ldr	r3, .L72
 1226 000a 7A68     		ldr	r2, [r7, #4]
 1227 000c 1204     		lsl	r2, r2, #16
 1228 000e 120C     		lsr	r2, r2, #16
 1229 0010 1A60     		str	r2, [r3]
ARM GAS  C:\Users\OEBN\AppData\Local\Temp\cc2uhR5V.s 			page 38


 881:.\Generated_Source\PSoC4/PWM_2.c ****     #endif /* (PWM_2_CY_TCPWM_V2) */
 882:.\Generated_Source\PSoC4/PWM_2.c **** }
 1230              		.loc 1 882 0
 1231 0012 BD46     		mov	sp, r7
 1232 0014 02B0     		add	sp, sp, #8
 1233              		@ sp needed for prologue
 1234 0016 80BD     		pop	{r7, pc}
 1235              	.L73:
 1236              		.align	2
 1237              	.L72:
 1238 0018 8C010540 		.word	1074069900
 1239              		.cfi_endproc
 1240              	.LFE22:
 1241              		.size	PWM_2_WriteCompare, .-PWM_2_WriteCompare
 1242              		.section	.text.PWM_2_ReadCompare,"ax",%progbits
 1243              		.align	2
 1244              		.global	PWM_2_ReadCompare
 1245              		.code	16
 1246              		.thumb_func
 1247              		.type	PWM_2_ReadCompare, %function
 1248              	PWM_2_ReadCompare:
 1249              	.LFB23:
 883:.\Generated_Source\PSoC4/PWM_2.c **** 
 884:.\Generated_Source\PSoC4/PWM_2.c **** 
 885:.\Generated_Source\PSoC4/PWM_2.c **** /*******************************************************************************
 886:.\Generated_Source\PSoC4/PWM_2.c **** * Function Name: PWM_2_ReadCompare
 887:.\Generated_Source\PSoC4/PWM_2.c **** ********************************************************************************
 888:.\Generated_Source\PSoC4/PWM_2.c **** *
 889:.\Generated_Source\PSoC4/PWM_2.c **** * Summary:
 890:.\Generated_Source\PSoC4/PWM_2.c **** *  Reads the compare register. Not applicable for Timer/Counter with Capture
 891:.\Generated_Source\PSoC4/PWM_2.c **** *  or in Quadrature Decoder modes.
 892:.\Generated_Source\PSoC4/PWM_2.c **** *
 893:.\Generated_Source\PSoC4/PWM_2.c **** * Parameters:
 894:.\Generated_Source\PSoC4/PWM_2.c **** *  None
 895:.\Generated_Source\PSoC4/PWM_2.c **** *
 896:.\Generated_Source\PSoC4/PWM_2.c **** * Return:
 897:.\Generated_Source\PSoC4/PWM_2.c **** *  Compare value
 898:.\Generated_Source\PSoC4/PWM_2.c **** *
 899:.\Generated_Source\PSoC4/PWM_2.c **** *******************************************************************************/
 900:.\Generated_Source\PSoC4/PWM_2.c **** uint32 PWM_2_ReadCompare(void)
 901:.\Generated_Source\PSoC4/PWM_2.c **** {
 1250              		.loc 1 901 0
 1251              		.cfi_startproc
 1252 0000 80B5     		push	{r7, lr}
 1253              	.LCFI64:
 1254              		.cfi_def_cfa_offset 8
 1255              		.cfi_offset 7, -8
 1256              		.cfi_offset 14, -4
 1257 0002 00AF     		add	r7, sp, #0
 1258              	.LCFI65:
 1259              		.cfi_def_cfa_register 7
 902:.\Generated_Source\PSoC4/PWM_2.c ****     #if (PWM_2_CY_TCPWM_V2)
 903:.\Generated_Source\PSoC4/PWM_2.c ****         uint32 currentMode;
 904:.\Generated_Source\PSoC4/PWM_2.c ****         uint32 regVal;
 905:.\Generated_Source\PSoC4/PWM_2.c ****     #endif /* (PWM_2_CY_TCPWM_V2) */
 906:.\Generated_Source\PSoC4/PWM_2.c **** 
 907:.\Generated_Source\PSoC4/PWM_2.c ****     #if (PWM_2_CY_TCPWM_V2)
ARM GAS  C:\Users\OEBN\AppData\Local\Temp\cc2uhR5V.s 			page 39


 908:.\Generated_Source\PSoC4/PWM_2.c ****         currentMode = ((PWM_2_CONTROL_REG & PWM_2_UPDOWN_MASK) >> PWM_2_UPDOWN_SHIFT);
 909:.\Generated_Source\PSoC4/PWM_2.c **** 
 910:.\Generated_Source\PSoC4/PWM_2.c ****         if (PWM_2__COUNT_DOWN == currentMode)
 911:.\Generated_Source\PSoC4/PWM_2.c ****         {
 912:.\Generated_Source\PSoC4/PWM_2.c ****             regVal = ((PWM_2_COMP_CAP_REG - 1u) & PWM_2_16BIT_MASK);
 913:.\Generated_Source\PSoC4/PWM_2.c ****         }
 914:.\Generated_Source\PSoC4/PWM_2.c ****         else if (PWM_2__COUNT_UP == currentMode)
 915:.\Generated_Source\PSoC4/PWM_2.c ****         {
 916:.\Generated_Source\PSoC4/PWM_2.c ****             regVal = ((PWM_2_COMP_CAP_REG + 1u) & PWM_2_16BIT_MASK);
 917:.\Generated_Source\PSoC4/PWM_2.c ****         }
 918:.\Generated_Source\PSoC4/PWM_2.c ****         else
 919:.\Generated_Source\PSoC4/PWM_2.c ****         {
 920:.\Generated_Source\PSoC4/PWM_2.c ****             regVal = (PWM_2_COMP_CAP_REG & PWM_2_16BIT_MASK);
 921:.\Generated_Source\PSoC4/PWM_2.c ****         }
 922:.\Generated_Source\PSoC4/PWM_2.c ****         return (regVal);
 923:.\Generated_Source\PSoC4/PWM_2.c ****     #else
 924:.\Generated_Source\PSoC4/PWM_2.c ****         return (PWM_2_COMP_CAP_REG & PWM_2_16BIT_MASK);
 1260              		.loc 1 924 0
 1261 0004 034B     		ldr	r3, .L76
 1262 0006 1B68     		ldr	r3, [r3]
 1263 0008 1B04     		lsl	r3, r3, #16
 1264 000a 1B0C     		lsr	r3, r3, #16
 925:.\Generated_Source\PSoC4/PWM_2.c ****     #endif /* (PWM_2_CY_TCPWM_V2) */
 926:.\Generated_Source\PSoC4/PWM_2.c **** }
 1265              		.loc 1 926 0
 1266 000c 181C     		mov	r0, r3
 1267 000e BD46     		mov	sp, r7
 1268              		@ sp needed for prologue
 1269 0010 80BD     		pop	{r7, pc}
 1270              	.L77:
 1271 0012 C046     		.align	2
 1272              	.L76:
 1273 0014 8C010540 		.word	1074069900
 1274              		.cfi_endproc
 1275              	.LFE23:
 1276              		.size	PWM_2_ReadCompare, .-PWM_2_ReadCompare
 1277              		.section	.text.PWM_2_WriteCompareBuf,"ax",%progbits
 1278              		.align	2
 1279              		.global	PWM_2_WriteCompareBuf
 1280              		.code	16
 1281              		.thumb_func
 1282              		.type	PWM_2_WriteCompareBuf, %function
 1283              	PWM_2_WriteCompareBuf:
 1284              	.LFB24:
 927:.\Generated_Source\PSoC4/PWM_2.c **** 
 928:.\Generated_Source\PSoC4/PWM_2.c **** 
 929:.\Generated_Source\PSoC4/PWM_2.c **** /*******************************************************************************
 930:.\Generated_Source\PSoC4/PWM_2.c **** * Function Name: PWM_2_WriteCompareBuf
 931:.\Generated_Source\PSoC4/PWM_2.c **** ********************************************************************************
 932:.\Generated_Source\PSoC4/PWM_2.c **** *
 933:.\Generated_Source\PSoC4/PWM_2.c **** * Summary:
 934:.\Generated_Source\PSoC4/PWM_2.c **** *  Writes the 16 bit compare buffer register with the new compare value. Not
 935:.\Generated_Source\PSoC4/PWM_2.c **** *  applicable for Timer/Counter with Capture or in Quadrature Decoder modes.
 936:.\Generated_Source\PSoC4/PWM_2.c **** *
 937:.\Generated_Source\PSoC4/PWM_2.c **** * Parameters:
 938:.\Generated_Source\PSoC4/PWM_2.c **** *  compareBuf: Compare value
 939:.\Generated_Source\PSoC4/PWM_2.c **** *
ARM GAS  C:\Users\OEBN\AppData\Local\Temp\cc2uhR5V.s 			page 40


 940:.\Generated_Source\PSoC4/PWM_2.c **** * Return:
 941:.\Generated_Source\PSoC4/PWM_2.c **** *  None
 942:.\Generated_Source\PSoC4/PWM_2.c **** *
 943:.\Generated_Source\PSoC4/PWM_2.c **** *******************************************************************************/
 944:.\Generated_Source\PSoC4/PWM_2.c **** void PWM_2_WriteCompareBuf(uint32 compareBuf)
 945:.\Generated_Source\PSoC4/PWM_2.c **** {
 1285              		.loc 1 945 0
 1286              		.cfi_startproc
 1287 0000 80B5     		push	{r7, lr}
 1288              	.LCFI66:
 1289              		.cfi_def_cfa_offset 8
 1290              		.cfi_offset 7, -8
 1291              		.cfi_offset 14, -4
 1292 0002 82B0     		sub	sp, sp, #8
 1293              	.LCFI67:
 1294              		.cfi_def_cfa_offset 16
 1295 0004 00AF     		add	r7, sp, #0
 1296              	.LCFI68:
 1297              		.cfi_def_cfa_register 7
 1298 0006 7860     		str	r0, [r7, #4]
 946:.\Generated_Source\PSoC4/PWM_2.c ****     #if (PWM_2_CY_TCPWM_V2)
 947:.\Generated_Source\PSoC4/PWM_2.c ****         uint32 currentMode;
 948:.\Generated_Source\PSoC4/PWM_2.c ****     #endif /* (PWM_2_CY_TCPWM_V2) */
 949:.\Generated_Source\PSoC4/PWM_2.c **** 
 950:.\Generated_Source\PSoC4/PWM_2.c ****     #if (PWM_2_CY_TCPWM_V2)
 951:.\Generated_Source\PSoC4/PWM_2.c ****         currentMode = ((PWM_2_CONTROL_REG & PWM_2_UPDOWN_MASK) >> PWM_2_UPDOWN_SHIFT);
 952:.\Generated_Source\PSoC4/PWM_2.c **** 
 953:.\Generated_Source\PSoC4/PWM_2.c ****         if (PWM_2__COUNT_DOWN == currentMode)
 954:.\Generated_Source\PSoC4/PWM_2.c ****         {
 955:.\Generated_Source\PSoC4/PWM_2.c ****             PWM_2_COMP_CAP_BUF_REG = ((compareBuf + 1u) & PWM_2_16BIT_MASK);
 956:.\Generated_Source\PSoC4/PWM_2.c ****         }
 957:.\Generated_Source\PSoC4/PWM_2.c ****         else if (PWM_2__COUNT_UP == currentMode)
 958:.\Generated_Source\PSoC4/PWM_2.c ****         {
 959:.\Generated_Source\PSoC4/PWM_2.c ****             PWM_2_COMP_CAP_BUF_REG = ((compareBuf - 1u) & PWM_2_16BIT_MASK);
 960:.\Generated_Source\PSoC4/PWM_2.c ****         }
 961:.\Generated_Source\PSoC4/PWM_2.c ****         else
 962:.\Generated_Source\PSoC4/PWM_2.c ****         {
 963:.\Generated_Source\PSoC4/PWM_2.c ****             PWM_2_COMP_CAP_BUF_REG = (compareBuf & PWM_2_16BIT_MASK);
 964:.\Generated_Source\PSoC4/PWM_2.c ****         }
 965:.\Generated_Source\PSoC4/PWM_2.c ****     #else
 966:.\Generated_Source\PSoC4/PWM_2.c ****         PWM_2_COMP_CAP_BUF_REG = (compareBuf & PWM_2_16BIT_MASK);
 1299              		.loc 1 966 0
 1300 0008 034B     		ldr	r3, .L79
 1301 000a 7A68     		ldr	r2, [r7, #4]
 1302 000c 1204     		lsl	r2, r2, #16
 1303 000e 120C     		lsr	r2, r2, #16
 1304 0010 1A60     		str	r2, [r3]
 967:.\Generated_Source\PSoC4/PWM_2.c ****     #endif /* (PWM_2_CY_TCPWM_V2) */
 968:.\Generated_Source\PSoC4/PWM_2.c **** }
 1305              		.loc 1 968 0
 1306 0012 BD46     		mov	sp, r7
 1307 0014 02B0     		add	sp, sp, #8
 1308              		@ sp needed for prologue
 1309 0016 80BD     		pop	{r7, pc}
 1310              	.L80:
 1311              		.align	2
 1312              	.L79:
ARM GAS  C:\Users\OEBN\AppData\Local\Temp\cc2uhR5V.s 			page 41


 1313 0018 90010540 		.word	1074069904
 1314              		.cfi_endproc
 1315              	.LFE24:
 1316              		.size	PWM_2_WriteCompareBuf, .-PWM_2_WriteCompareBuf
 1317              		.section	.text.PWM_2_ReadCompareBuf,"ax",%progbits
 1318              		.align	2
 1319              		.global	PWM_2_ReadCompareBuf
 1320              		.code	16
 1321              		.thumb_func
 1322              		.type	PWM_2_ReadCompareBuf, %function
 1323              	PWM_2_ReadCompareBuf:
 1324              	.LFB25:
 969:.\Generated_Source\PSoC4/PWM_2.c **** 
 970:.\Generated_Source\PSoC4/PWM_2.c **** 
 971:.\Generated_Source\PSoC4/PWM_2.c **** /*******************************************************************************
 972:.\Generated_Source\PSoC4/PWM_2.c **** * Function Name: PWM_2_ReadCompareBuf
 973:.\Generated_Source\PSoC4/PWM_2.c **** ********************************************************************************
 974:.\Generated_Source\PSoC4/PWM_2.c **** *
 975:.\Generated_Source\PSoC4/PWM_2.c **** * Summary:
 976:.\Generated_Source\PSoC4/PWM_2.c **** *  Reads the compare buffer register. Not applicable for Timer/Counter with
 977:.\Generated_Source\PSoC4/PWM_2.c **** *  Capture or in Quadrature Decoder modes.
 978:.\Generated_Source\PSoC4/PWM_2.c **** *
 979:.\Generated_Source\PSoC4/PWM_2.c **** * Parameters:
 980:.\Generated_Source\PSoC4/PWM_2.c **** *  None
 981:.\Generated_Source\PSoC4/PWM_2.c **** *
 982:.\Generated_Source\PSoC4/PWM_2.c **** * Return:
 983:.\Generated_Source\PSoC4/PWM_2.c **** *  Compare buffer value
 984:.\Generated_Source\PSoC4/PWM_2.c **** *
 985:.\Generated_Source\PSoC4/PWM_2.c **** *******************************************************************************/
 986:.\Generated_Source\PSoC4/PWM_2.c **** uint32 PWM_2_ReadCompareBuf(void)
 987:.\Generated_Source\PSoC4/PWM_2.c **** {
 1325              		.loc 1 987 0
 1326              		.cfi_startproc
 1327 0000 80B5     		push	{r7, lr}
 1328              	.LCFI69:
 1329              		.cfi_def_cfa_offset 8
 1330              		.cfi_offset 7, -8
 1331              		.cfi_offset 14, -4
 1332 0002 00AF     		add	r7, sp, #0
 1333              	.LCFI70:
 1334              		.cfi_def_cfa_register 7
 988:.\Generated_Source\PSoC4/PWM_2.c ****     #if (PWM_2_CY_TCPWM_V2)
 989:.\Generated_Source\PSoC4/PWM_2.c ****         uint32 currentMode;
 990:.\Generated_Source\PSoC4/PWM_2.c ****         uint32 regVal;
 991:.\Generated_Source\PSoC4/PWM_2.c ****     #endif /* (PWM_2_CY_TCPWM_V2) */
 992:.\Generated_Source\PSoC4/PWM_2.c **** 
 993:.\Generated_Source\PSoC4/PWM_2.c ****     #if (PWM_2_CY_TCPWM_V2)
 994:.\Generated_Source\PSoC4/PWM_2.c ****         currentMode = ((PWM_2_CONTROL_REG & PWM_2_UPDOWN_MASK) >> PWM_2_UPDOWN_SHIFT);
 995:.\Generated_Source\PSoC4/PWM_2.c **** 
 996:.\Generated_Source\PSoC4/PWM_2.c ****         if (PWM_2__COUNT_DOWN == currentMode)
 997:.\Generated_Source\PSoC4/PWM_2.c ****         {
 998:.\Generated_Source\PSoC4/PWM_2.c ****             regVal = ((PWM_2_COMP_CAP_BUF_REG - 1u) & PWM_2_16BIT_MASK);
 999:.\Generated_Source\PSoC4/PWM_2.c ****         }
1000:.\Generated_Source\PSoC4/PWM_2.c ****         else if (PWM_2__COUNT_UP == currentMode)
1001:.\Generated_Source\PSoC4/PWM_2.c ****         {
1002:.\Generated_Source\PSoC4/PWM_2.c ****             regVal = ((PWM_2_COMP_CAP_BUF_REG + 1u) & PWM_2_16BIT_MASK);
1003:.\Generated_Source\PSoC4/PWM_2.c ****         }
ARM GAS  C:\Users\OEBN\AppData\Local\Temp\cc2uhR5V.s 			page 42


1004:.\Generated_Source\PSoC4/PWM_2.c ****         else
1005:.\Generated_Source\PSoC4/PWM_2.c ****         {
1006:.\Generated_Source\PSoC4/PWM_2.c ****             regVal = (PWM_2_COMP_CAP_BUF_REG & PWM_2_16BIT_MASK);
1007:.\Generated_Source\PSoC4/PWM_2.c ****         }
1008:.\Generated_Source\PSoC4/PWM_2.c ****         return (regVal);
1009:.\Generated_Source\PSoC4/PWM_2.c ****     #else
1010:.\Generated_Source\PSoC4/PWM_2.c ****         return (PWM_2_COMP_CAP_BUF_REG & PWM_2_16BIT_MASK);
 1335              		.loc 1 1010 0
 1336 0004 034B     		ldr	r3, .L83
 1337 0006 1B68     		ldr	r3, [r3]
 1338 0008 1B04     		lsl	r3, r3, #16
 1339 000a 1B0C     		lsr	r3, r3, #16
1011:.\Generated_Source\PSoC4/PWM_2.c ****     #endif /* (PWM_2_CY_TCPWM_V2) */
1012:.\Generated_Source\PSoC4/PWM_2.c **** }
 1340              		.loc 1 1012 0
 1341 000c 181C     		mov	r0, r3
 1342 000e BD46     		mov	sp, r7
 1343              		@ sp needed for prologue
 1344 0010 80BD     		pop	{r7, pc}
 1345              	.L84:
 1346 0012 C046     		.align	2
 1347              	.L83:
 1348 0014 90010540 		.word	1074069904
 1349              		.cfi_endproc
 1350              	.LFE25:
 1351              		.size	PWM_2_ReadCompareBuf, .-PWM_2_ReadCompareBuf
 1352              		.section	.text.PWM_2_ReadCapture,"ax",%progbits
 1353              		.align	2
 1354              		.global	PWM_2_ReadCapture
 1355              		.code	16
 1356              		.thumb_func
 1357              		.type	PWM_2_ReadCapture, %function
 1358              	PWM_2_ReadCapture:
 1359              	.LFB26:
1013:.\Generated_Source\PSoC4/PWM_2.c **** 
1014:.\Generated_Source\PSoC4/PWM_2.c **** 
1015:.\Generated_Source\PSoC4/PWM_2.c **** /*******************************************************************************
1016:.\Generated_Source\PSoC4/PWM_2.c **** * Function Name: PWM_2_ReadCapture
1017:.\Generated_Source\PSoC4/PWM_2.c **** ********************************************************************************
1018:.\Generated_Source\PSoC4/PWM_2.c **** *
1019:.\Generated_Source\PSoC4/PWM_2.c **** * Summary:
1020:.\Generated_Source\PSoC4/PWM_2.c **** *  Reads the captured counter value. This API is applicable only for
1021:.\Generated_Source\PSoC4/PWM_2.c **** *  Timer/Counter with the capture mode and Quadrature Decoder modes.
1022:.\Generated_Source\PSoC4/PWM_2.c **** *
1023:.\Generated_Source\PSoC4/PWM_2.c **** * Parameters:
1024:.\Generated_Source\PSoC4/PWM_2.c **** *  None
1025:.\Generated_Source\PSoC4/PWM_2.c **** *
1026:.\Generated_Source\PSoC4/PWM_2.c **** * Return:
1027:.\Generated_Source\PSoC4/PWM_2.c **** *  Capture value
1028:.\Generated_Source\PSoC4/PWM_2.c **** *
1029:.\Generated_Source\PSoC4/PWM_2.c **** *******************************************************************************/
1030:.\Generated_Source\PSoC4/PWM_2.c **** uint32 PWM_2_ReadCapture(void)
1031:.\Generated_Source\PSoC4/PWM_2.c **** {
 1360              		.loc 1 1031 0
 1361              		.cfi_startproc
 1362 0000 80B5     		push	{r7, lr}
 1363              	.LCFI71:
ARM GAS  C:\Users\OEBN\AppData\Local\Temp\cc2uhR5V.s 			page 43


 1364              		.cfi_def_cfa_offset 8
 1365              		.cfi_offset 7, -8
 1366              		.cfi_offset 14, -4
 1367 0002 00AF     		add	r7, sp, #0
 1368              	.LCFI72:
 1369              		.cfi_def_cfa_register 7
1032:.\Generated_Source\PSoC4/PWM_2.c ****     return (PWM_2_COMP_CAP_REG & PWM_2_16BIT_MASK);
 1370              		.loc 1 1032 0
 1371 0004 034B     		ldr	r3, .L87
 1372 0006 1B68     		ldr	r3, [r3]
 1373 0008 1B04     		lsl	r3, r3, #16
 1374 000a 1B0C     		lsr	r3, r3, #16
1033:.\Generated_Source\PSoC4/PWM_2.c **** }
 1375              		.loc 1 1033 0
 1376 000c 181C     		mov	r0, r3
 1377 000e BD46     		mov	sp, r7
 1378              		@ sp needed for prologue
 1379 0010 80BD     		pop	{r7, pc}
 1380              	.L88:
 1381 0012 C046     		.align	2
 1382              	.L87:
 1383 0014 8C010540 		.word	1074069900
 1384              		.cfi_endproc
 1385              	.LFE26:
 1386              		.size	PWM_2_ReadCapture, .-PWM_2_ReadCapture
 1387              		.section	.text.PWM_2_ReadCaptureBuf,"ax",%progbits
 1388              		.align	2
 1389              		.global	PWM_2_ReadCaptureBuf
 1390              		.code	16
 1391              		.thumb_func
 1392              		.type	PWM_2_ReadCaptureBuf, %function
 1393              	PWM_2_ReadCaptureBuf:
 1394              	.LFB27:
1034:.\Generated_Source\PSoC4/PWM_2.c **** 
1035:.\Generated_Source\PSoC4/PWM_2.c **** 
1036:.\Generated_Source\PSoC4/PWM_2.c **** /*******************************************************************************
1037:.\Generated_Source\PSoC4/PWM_2.c **** * Function Name: PWM_2_ReadCaptureBuf
1038:.\Generated_Source\PSoC4/PWM_2.c **** ********************************************************************************
1039:.\Generated_Source\PSoC4/PWM_2.c **** *
1040:.\Generated_Source\PSoC4/PWM_2.c **** * Summary:
1041:.\Generated_Source\PSoC4/PWM_2.c **** *  Reads the capture buffer register. This API is applicable only for
1042:.\Generated_Source\PSoC4/PWM_2.c **** *  Timer/Counter with the capture mode and Quadrature Decoder modes.
1043:.\Generated_Source\PSoC4/PWM_2.c **** *
1044:.\Generated_Source\PSoC4/PWM_2.c **** * Parameters:
1045:.\Generated_Source\PSoC4/PWM_2.c **** *  None
1046:.\Generated_Source\PSoC4/PWM_2.c **** *
1047:.\Generated_Source\PSoC4/PWM_2.c **** * Return:
1048:.\Generated_Source\PSoC4/PWM_2.c **** *  Capture buffer value
1049:.\Generated_Source\PSoC4/PWM_2.c **** *
1050:.\Generated_Source\PSoC4/PWM_2.c **** *******************************************************************************/
1051:.\Generated_Source\PSoC4/PWM_2.c **** uint32 PWM_2_ReadCaptureBuf(void)
1052:.\Generated_Source\PSoC4/PWM_2.c **** {
 1395              		.loc 1 1052 0
 1396              		.cfi_startproc
 1397 0000 80B5     		push	{r7, lr}
 1398              	.LCFI73:
 1399              		.cfi_def_cfa_offset 8
ARM GAS  C:\Users\OEBN\AppData\Local\Temp\cc2uhR5V.s 			page 44


 1400              		.cfi_offset 7, -8
 1401              		.cfi_offset 14, -4
 1402 0002 00AF     		add	r7, sp, #0
 1403              	.LCFI74:
 1404              		.cfi_def_cfa_register 7
1053:.\Generated_Source\PSoC4/PWM_2.c ****     return (PWM_2_COMP_CAP_BUF_REG & PWM_2_16BIT_MASK);
 1405              		.loc 1 1053 0
 1406 0004 034B     		ldr	r3, .L91
 1407 0006 1B68     		ldr	r3, [r3]
 1408 0008 1B04     		lsl	r3, r3, #16
 1409 000a 1B0C     		lsr	r3, r3, #16
1054:.\Generated_Source\PSoC4/PWM_2.c **** }
 1410              		.loc 1 1054 0
 1411 000c 181C     		mov	r0, r3
 1412 000e BD46     		mov	sp, r7
 1413              		@ sp needed for prologue
 1414 0010 80BD     		pop	{r7, pc}
 1415              	.L92:
 1416 0012 C046     		.align	2
 1417              	.L91:
 1418 0014 90010540 		.word	1074069904
 1419              		.cfi_endproc
 1420              	.LFE27:
 1421              		.size	PWM_2_ReadCaptureBuf, .-PWM_2_ReadCaptureBuf
 1422              		.section	.text.PWM_2_SetCaptureMode,"ax",%progbits
 1423              		.align	2
 1424              		.global	PWM_2_SetCaptureMode
 1425              		.code	16
 1426              		.thumb_func
 1427              		.type	PWM_2_SetCaptureMode, %function
 1428              	PWM_2_SetCaptureMode:
 1429              	.LFB28:
1055:.\Generated_Source\PSoC4/PWM_2.c **** 
1056:.\Generated_Source\PSoC4/PWM_2.c **** 
1057:.\Generated_Source\PSoC4/PWM_2.c **** /*******************************************************************************
1058:.\Generated_Source\PSoC4/PWM_2.c **** * Function Name: PWM_2_SetCaptureMode
1059:.\Generated_Source\PSoC4/PWM_2.c **** ********************************************************************************
1060:.\Generated_Source\PSoC4/PWM_2.c **** *
1061:.\Generated_Source\PSoC4/PWM_2.c **** * Summary:
1062:.\Generated_Source\PSoC4/PWM_2.c **** *  Sets the capture trigger mode. For PWM mode this is the switch input.
1063:.\Generated_Source\PSoC4/PWM_2.c **** *  This input is not applicable to the Timer/Counter without Capture and
1064:.\Generated_Source\PSoC4/PWM_2.c **** *  Quadrature Decoder modes.
1065:.\Generated_Source\PSoC4/PWM_2.c **** *
1066:.\Generated_Source\PSoC4/PWM_2.c **** * Parameters:
1067:.\Generated_Source\PSoC4/PWM_2.c **** *  triggerMode: Enumerated trigger mode value
1068:.\Generated_Source\PSoC4/PWM_2.c **** *   Values:
1069:.\Generated_Source\PSoC4/PWM_2.c **** *     - PWM_2_TRIG_LEVEL     - Level
1070:.\Generated_Source\PSoC4/PWM_2.c **** *     - PWM_2_TRIG_RISING    - Rising edge
1071:.\Generated_Source\PSoC4/PWM_2.c **** *     - PWM_2_TRIG_FALLING   - Falling edge
1072:.\Generated_Source\PSoC4/PWM_2.c **** *     - PWM_2_TRIG_BOTH      - Both rising and falling edge
1073:.\Generated_Source\PSoC4/PWM_2.c **** *
1074:.\Generated_Source\PSoC4/PWM_2.c **** * Return:
1075:.\Generated_Source\PSoC4/PWM_2.c **** *  None
1076:.\Generated_Source\PSoC4/PWM_2.c **** *
1077:.\Generated_Source\PSoC4/PWM_2.c **** *******************************************************************************/
1078:.\Generated_Source\PSoC4/PWM_2.c **** void PWM_2_SetCaptureMode(uint32 triggerMode)
1079:.\Generated_Source\PSoC4/PWM_2.c **** {
ARM GAS  C:\Users\OEBN\AppData\Local\Temp\cc2uhR5V.s 			page 45


 1430              		.loc 1 1079 0
 1431              		.cfi_startproc
 1432 0000 90B5     		push	{r4, r7, lr}
 1433              	.LCFI75:
 1434              		.cfi_def_cfa_offset 12
 1435              		.cfi_offset 4, -12
 1436              		.cfi_offset 7, -8
 1437              		.cfi_offset 14, -4
 1438 0002 85B0     		sub	sp, sp, #20
 1439              	.LCFI76:
 1440              		.cfi_def_cfa_offset 32
 1441 0004 00AF     		add	r7, sp, #0
 1442              	.LCFI77:
 1443              		.cfi_def_cfa_register 7
 1444 0006 7860     		str	r0, [r7, #4]
1080:.\Generated_Source\PSoC4/PWM_2.c ****     uint8 enableInterrupts;
1081:.\Generated_Source\PSoC4/PWM_2.c **** 
1082:.\Generated_Source\PSoC4/PWM_2.c ****     enableInterrupts = CyEnterCriticalSection();
 1445              		.loc 1 1082 0
 1446 0008 3C1C     		mov	r4, r7
 1447 000a 0F34     		add	r4, r4, #15
 1448 000c FFF7FEFF 		bl	CyEnterCriticalSection
 1449 0010 031C     		mov	r3, r0
 1450 0012 2370     		strb	r3, [r4]
1083:.\Generated_Source\PSoC4/PWM_2.c **** 
1084:.\Generated_Source\PSoC4/PWM_2.c ****     PWM_2_TRIG_CONTROL1_REG &= (uint32)~PWM_2_CAPTURE_MASK;
 1451              		.loc 1 1084 0
 1452 0014 0A4B     		ldr	r3, .L94
 1453 0016 0A4A     		ldr	r2, .L94
 1454 0018 1268     		ldr	r2, [r2]
 1455 001a 0321     		mov	r1, #3
 1456 001c 8A43     		bic	r2, r1
 1457 001e 1A60     		str	r2, [r3]
1085:.\Generated_Source\PSoC4/PWM_2.c ****     PWM_2_TRIG_CONTROL1_REG |= triggerMode;
 1458              		.loc 1 1085 0
 1459 0020 074B     		ldr	r3, .L94
 1460 0022 074A     		ldr	r2, .L94
 1461 0024 1168     		ldr	r1, [r2]
 1462 0026 7A68     		ldr	r2, [r7, #4]
 1463 0028 0A43     		orr	r2, r1
 1464 002a 1A60     		str	r2, [r3]
1086:.\Generated_Source\PSoC4/PWM_2.c **** 
1087:.\Generated_Source\PSoC4/PWM_2.c ****     CyExitCriticalSection(enableInterrupts);
 1465              		.loc 1 1087 0
 1466 002c 3B1C     		mov	r3, r7
 1467 002e 0F33     		add	r3, r3, #15
 1468 0030 1B78     		ldrb	r3, [r3]
 1469 0032 181C     		mov	r0, r3
 1470 0034 FFF7FEFF 		bl	CyExitCriticalSection
1088:.\Generated_Source\PSoC4/PWM_2.c **** }
 1471              		.loc 1 1088 0
 1472 0038 BD46     		mov	sp, r7
 1473 003a 05B0     		add	sp, sp, #20
 1474              		@ sp needed for prologue
 1475 003c 90BD     		pop	{r4, r7, pc}
 1476              	.L95:
 1477 003e C046     		.align	2
ARM GAS  C:\Users\OEBN\AppData\Local\Temp\cc2uhR5V.s 			page 46


 1478              	.L94:
 1479 0040 A4010540 		.word	1074069924
 1480              		.cfi_endproc
 1481              	.LFE28:
 1482              		.size	PWM_2_SetCaptureMode, .-PWM_2_SetCaptureMode
 1483              		.section	.text.PWM_2_SetReloadMode,"ax",%progbits
 1484              		.align	2
 1485              		.global	PWM_2_SetReloadMode
 1486              		.code	16
 1487              		.thumb_func
 1488              		.type	PWM_2_SetReloadMode, %function
 1489              	PWM_2_SetReloadMode:
 1490              	.LFB29:
1089:.\Generated_Source\PSoC4/PWM_2.c **** 
1090:.\Generated_Source\PSoC4/PWM_2.c **** 
1091:.\Generated_Source\PSoC4/PWM_2.c **** /*******************************************************************************
1092:.\Generated_Source\PSoC4/PWM_2.c **** * Function Name: PWM_2_SetReloadMode
1093:.\Generated_Source\PSoC4/PWM_2.c **** ********************************************************************************
1094:.\Generated_Source\PSoC4/PWM_2.c **** *
1095:.\Generated_Source\PSoC4/PWM_2.c **** * Summary:
1096:.\Generated_Source\PSoC4/PWM_2.c **** *  Sets the reload trigger mode. For Quadrature Decoder mode this is the index
1097:.\Generated_Source\PSoC4/PWM_2.c **** *  input.
1098:.\Generated_Source\PSoC4/PWM_2.c **** *
1099:.\Generated_Source\PSoC4/PWM_2.c **** * Parameters:
1100:.\Generated_Source\PSoC4/PWM_2.c **** *  triggerMode: Enumerated trigger mode value
1101:.\Generated_Source\PSoC4/PWM_2.c **** *   Values:
1102:.\Generated_Source\PSoC4/PWM_2.c **** *     - PWM_2_TRIG_LEVEL     - Level
1103:.\Generated_Source\PSoC4/PWM_2.c **** *     - PWM_2_TRIG_RISING    - Rising edge
1104:.\Generated_Source\PSoC4/PWM_2.c **** *     - PWM_2_TRIG_FALLING   - Falling edge
1105:.\Generated_Source\PSoC4/PWM_2.c **** *     - PWM_2_TRIG_BOTH      - Both rising and falling edge
1106:.\Generated_Source\PSoC4/PWM_2.c **** *
1107:.\Generated_Source\PSoC4/PWM_2.c **** * Return:
1108:.\Generated_Source\PSoC4/PWM_2.c **** *  None
1109:.\Generated_Source\PSoC4/PWM_2.c **** *
1110:.\Generated_Source\PSoC4/PWM_2.c **** *******************************************************************************/
1111:.\Generated_Source\PSoC4/PWM_2.c **** void PWM_2_SetReloadMode(uint32 triggerMode)
1112:.\Generated_Source\PSoC4/PWM_2.c **** {
 1491              		.loc 1 1112 0
 1492              		.cfi_startproc
 1493 0000 90B5     		push	{r4, r7, lr}
 1494              	.LCFI78:
 1495              		.cfi_def_cfa_offset 12
 1496              		.cfi_offset 4, -12
 1497              		.cfi_offset 7, -8
 1498              		.cfi_offset 14, -4
 1499 0002 85B0     		sub	sp, sp, #20
 1500              	.LCFI79:
 1501              		.cfi_def_cfa_offset 32
 1502 0004 00AF     		add	r7, sp, #0
 1503              	.LCFI80:
 1504              		.cfi_def_cfa_register 7
 1505 0006 7860     		str	r0, [r7, #4]
1113:.\Generated_Source\PSoC4/PWM_2.c ****     uint8 enableInterrupts;
1114:.\Generated_Source\PSoC4/PWM_2.c **** 
1115:.\Generated_Source\PSoC4/PWM_2.c ****     enableInterrupts = CyEnterCriticalSection();
 1506              		.loc 1 1115 0
 1507 0008 3C1C     		mov	r4, r7
ARM GAS  C:\Users\OEBN\AppData\Local\Temp\cc2uhR5V.s 			page 47


 1508 000a 0F34     		add	r4, r4, #15
 1509 000c FFF7FEFF 		bl	CyEnterCriticalSection
 1510 0010 031C     		mov	r3, r0
 1511 0012 2370     		strb	r3, [r4]
1116:.\Generated_Source\PSoC4/PWM_2.c **** 
1117:.\Generated_Source\PSoC4/PWM_2.c ****     PWM_2_TRIG_CONTROL1_REG &= (uint32)~PWM_2_RELOAD_MASK;
 1512              		.loc 1 1117 0
 1513 0014 0A4B     		ldr	r3, .L97
 1514 0016 0A4A     		ldr	r2, .L97
 1515 0018 1268     		ldr	r2, [r2]
 1516 001a 3021     		mov	r1, #48
 1517 001c 8A43     		bic	r2, r1
 1518 001e 1A60     		str	r2, [r3]
1118:.\Generated_Source\PSoC4/PWM_2.c ****     PWM_2_TRIG_CONTROL1_REG |= ((uint32)(triggerMode << PWM_2_RELOAD_SHIFT));
 1519              		.loc 1 1118 0
 1520 0020 074B     		ldr	r3, .L97
 1521 0022 074A     		ldr	r2, .L97
 1522 0024 1168     		ldr	r1, [r2]
 1523 0026 7A68     		ldr	r2, [r7, #4]
 1524 0028 1201     		lsl	r2, r2, #4
 1525 002a 0A43     		orr	r2, r1
 1526 002c 1A60     		str	r2, [r3]
1119:.\Generated_Source\PSoC4/PWM_2.c **** 
1120:.\Generated_Source\PSoC4/PWM_2.c ****     CyExitCriticalSection(enableInterrupts);
 1527              		.loc 1 1120 0
 1528 002e 3B1C     		mov	r3, r7
 1529 0030 0F33     		add	r3, r3, #15
 1530 0032 1B78     		ldrb	r3, [r3]
 1531 0034 181C     		mov	r0, r3
 1532 0036 FFF7FEFF 		bl	CyExitCriticalSection
1121:.\Generated_Source\PSoC4/PWM_2.c **** }
 1533              		.loc 1 1121 0
 1534 003a BD46     		mov	sp, r7
 1535 003c 05B0     		add	sp, sp, #20
 1536              		@ sp needed for prologue
 1537 003e 90BD     		pop	{r4, r7, pc}
 1538              	.L98:
 1539              		.align	2
 1540              	.L97:
 1541 0040 A4010540 		.word	1074069924
 1542              		.cfi_endproc
 1543              	.LFE29:
 1544              		.size	PWM_2_SetReloadMode, .-PWM_2_SetReloadMode
 1545              		.section	.text.PWM_2_SetStartMode,"ax",%progbits
 1546              		.align	2
 1547              		.global	PWM_2_SetStartMode
 1548              		.code	16
 1549              		.thumb_func
 1550              		.type	PWM_2_SetStartMode, %function
 1551              	PWM_2_SetStartMode:
 1552              	.LFB30:
1122:.\Generated_Source\PSoC4/PWM_2.c **** 
1123:.\Generated_Source\PSoC4/PWM_2.c **** 
1124:.\Generated_Source\PSoC4/PWM_2.c **** /*******************************************************************************
1125:.\Generated_Source\PSoC4/PWM_2.c **** * Function Name: PWM_2_SetStartMode
1126:.\Generated_Source\PSoC4/PWM_2.c **** ********************************************************************************
1127:.\Generated_Source\PSoC4/PWM_2.c **** *
ARM GAS  C:\Users\OEBN\AppData\Local\Temp\cc2uhR5V.s 			page 48


1128:.\Generated_Source\PSoC4/PWM_2.c **** * Summary:
1129:.\Generated_Source\PSoC4/PWM_2.c **** *  Sets the start trigger mode. For Quadrature Decoder mode this is the
1130:.\Generated_Source\PSoC4/PWM_2.c **** *  phiB input.
1131:.\Generated_Source\PSoC4/PWM_2.c **** *
1132:.\Generated_Source\PSoC4/PWM_2.c **** * Parameters:
1133:.\Generated_Source\PSoC4/PWM_2.c **** *  triggerMode: Enumerated trigger mode value
1134:.\Generated_Source\PSoC4/PWM_2.c **** *   Values:
1135:.\Generated_Source\PSoC4/PWM_2.c **** *     - PWM_2_TRIG_LEVEL     - Level
1136:.\Generated_Source\PSoC4/PWM_2.c **** *     - PWM_2_TRIG_RISING    - Rising edge
1137:.\Generated_Source\PSoC4/PWM_2.c **** *     - PWM_2_TRIG_FALLING   - Falling edge
1138:.\Generated_Source\PSoC4/PWM_2.c **** *     - PWM_2_TRIG_BOTH      - Both rising and falling edge
1139:.\Generated_Source\PSoC4/PWM_2.c **** *
1140:.\Generated_Source\PSoC4/PWM_2.c **** * Return:
1141:.\Generated_Source\PSoC4/PWM_2.c **** *  None
1142:.\Generated_Source\PSoC4/PWM_2.c **** *
1143:.\Generated_Source\PSoC4/PWM_2.c **** *******************************************************************************/
1144:.\Generated_Source\PSoC4/PWM_2.c **** void PWM_2_SetStartMode(uint32 triggerMode)
1145:.\Generated_Source\PSoC4/PWM_2.c **** {
 1553              		.loc 1 1145 0
 1554              		.cfi_startproc
 1555 0000 90B5     		push	{r4, r7, lr}
 1556              	.LCFI81:
 1557              		.cfi_def_cfa_offset 12
 1558              		.cfi_offset 4, -12
 1559              		.cfi_offset 7, -8
 1560              		.cfi_offset 14, -4
 1561 0002 85B0     		sub	sp, sp, #20
 1562              	.LCFI82:
 1563              		.cfi_def_cfa_offset 32
 1564 0004 00AF     		add	r7, sp, #0
 1565              	.LCFI83:
 1566              		.cfi_def_cfa_register 7
 1567 0006 7860     		str	r0, [r7, #4]
1146:.\Generated_Source\PSoC4/PWM_2.c ****     uint8 enableInterrupts;
1147:.\Generated_Source\PSoC4/PWM_2.c **** 
1148:.\Generated_Source\PSoC4/PWM_2.c ****     enableInterrupts = CyEnterCriticalSection();
 1568              		.loc 1 1148 0
 1569 0008 3C1C     		mov	r4, r7
 1570 000a 0F34     		add	r4, r4, #15
 1571 000c FFF7FEFF 		bl	CyEnterCriticalSection
 1572 0010 031C     		mov	r3, r0
 1573 0012 2370     		strb	r3, [r4]
1149:.\Generated_Source\PSoC4/PWM_2.c **** 
1150:.\Generated_Source\PSoC4/PWM_2.c ****     PWM_2_TRIG_CONTROL1_REG &= (uint32)~PWM_2_START_MASK;
 1574              		.loc 1 1150 0
 1575 0014 0A4B     		ldr	r3, .L100
 1576 0016 0A4A     		ldr	r2, .L100
 1577 0018 1168     		ldr	r1, [r2]
 1578 001a 0A4A     		ldr	r2, .L100+4
 1579 001c 0A40     		and	r2, r1
 1580 001e 1A60     		str	r2, [r3]
1151:.\Generated_Source\PSoC4/PWM_2.c ****     PWM_2_TRIG_CONTROL1_REG |= ((uint32)(triggerMode << PWM_2_START_SHIFT));
 1581              		.loc 1 1151 0
 1582 0020 074B     		ldr	r3, .L100
 1583 0022 074A     		ldr	r2, .L100
 1584 0024 1168     		ldr	r1, [r2]
 1585 0026 7A68     		ldr	r2, [r7, #4]
ARM GAS  C:\Users\OEBN\AppData\Local\Temp\cc2uhR5V.s 			page 49


 1586 0028 1202     		lsl	r2, r2, #8
 1587 002a 0A43     		orr	r2, r1
 1588 002c 1A60     		str	r2, [r3]
1152:.\Generated_Source\PSoC4/PWM_2.c **** 
1153:.\Generated_Source\PSoC4/PWM_2.c ****     CyExitCriticalSection(enableInterrupts);
 1589              		.loc 1 1153 0
 1590 002e 3B1C     		mov	r3, r7
 1591 0030 0F33     		add	r3, r3, #15
 1592 0032 1B78     		ldrb	r3, [r3]
 1593 0034 181C     		mov	r0, r3
 1594 0036 FFF7FEFF 		bl	CyExitCriticalSection
1154:.\Generated_Source\PSoC4/PWM_2.c **** }
 1595              		.loc 1 1154 0
 1596 003a BD46     		mov	sp, r7
 1597 003c 05B0     		add	sp, sp, #20
 1598              		@ sp needed for prologue
 1599 003e 90BD     		pop	{r4, r7, pc}
 1600              	.L101:
 1601              		.align	2
 1602              	.L100:
 1603 0040 A4010540 		.word	1074069924
 1604 0044 FFFCFFFF 		.word	-769
 1605              		.cfi_endproc
 1606              	.LFE30:
 1607              		.size	PWM_2_SetStartMode, .-PWM_2_SetStartMode
 1608              		.section	.text.PWM_2_SetStopMode,"ax",%progbits
 1609              		.align	2
 1610              		.global	PWM_2_SetStopMode
 1611              		.code	16
 1612              		.thumb_func
 1613              		.type	PWM_2_SetStopMode, %function
 1614              	PWM_2_SetStopMode:
 1615              	.LFB31:
1155:.\Generated_Source\PSoC4/PWM_2.c **** 
1156:.\Generated_Source\PSoC4/PWM_2.c **** 
1157:.\Generated_Source\PSoC4/PWM_2.c **** /*******************************************************************************
1158:.\Generated_Source\PSoC4/PWM_2.c **** * Function Name: PWM_2_SetStopMode
1159:.\Generated_Source\PSoC4/PWM_2.c **** ********************************************************************************
1160:.\Generated_Source\PSoC4/PWM_2.c **** *
1161:.\Generated_Source\PSoC4/PWM_2.c **** * Summary:
1162:.\Generated_Source\PSoC4/PWM_2.c **** *  Sets the stop trigger mode. For PWM mode this is the kill input.
1163:.\Generated_Source\PSoC4/PWM_2.c **** *
1164:.\Generated_Source\PSoC4/PWM_2.c **** * Parameters:
1165:.\Generated_Source\PSoC4/PWM_2.c **** *  triggerMode: Enumerated trigger mode value
1166:.\Generated_Source\PSoC4/PWM_2.c **** *   Values:
1167:.\Generated_Source\PSoC4/PWM_2.c **** *     - PWM_2_TRIG_LEVEL     - Level
1168:.\Generated_Source\PSoC4/PWM_2.c **** *     - PWM_2_TRIG_RISING    - Rising edge
1169:.\Generated_Source\PSoC4/PWM_2.c **** *     - PWM_2_TRIG_FALLING   - Falling edge
1170:.\Generated_Source\PSoC4/PWM_2.c **** *     - PWM_2_TRIG_BOTH      - Both rising and falling edge
1171:.\Generated_Source\PSoC4/PWM_2.c **** *
1172:.\Generated_Source\PSoC4/PWM_2.c **** * Return:
1173:.\Generated_Source\PSoC4/PWM_2.c **** *  None
1174:.\Generated_Source\PSoC4/PWM_2.c **** *
1175:.\Generated_Source\PSoC4/PWM_2.c **** *******************************************************************************/
1176:.\Generated_Source\PSoC4/PWM_2.c **** void PWM_2_SetStopMode(uint32 triggerMode)
1177:.\Generated_Source\PSoC4/PWM_2.c **** {
 1616              		.loc 1 1177 0
ARM GAS  C:\Users\OEBN\AppData\Local\Temp\cc2uhR5V.s 			page 50


 1617              		.cfi_startproc
 1618 0000 90B5     		push	{r4, r7, lr}
 1619              	.LCFI84:
 1620              		.cfi_def_cfa_offset 12
 1621              		.cfi_offset 4, -12
 1622              		.cfi_offset 7, -8
 1623              		.cfi_offset 14, -4
 1624 0002 85B0     		sub	sp, sp, #20
 1625              	.LCFI85:
 1626              		.cfi_def_cfa_offset 32
 1627 0004 00AF     		add	r7, sp, #0
 1628              	.LCFI86:
 1629              		.cfi_def_cfa_register 7
 1630 0006 7860     		str	r0, [r7, #4]
1178:.\Generated_Source\PSoC4/PWM_2.c ****     uint8 enableInterrupts;
1179:.\Generated_Source\PSoC4/PWM_2.c **** 
1180:.\Generated_Source\PSoC4/PWM_2.c ****     enableInterrupts = CyEnterCriticalSection();
 1631              		.loc 1 1180 0
 1632 0008 3C1C     		mov	r4, r7
 1633 000a 0F34     		add	r4, r4, #15
 1634 000c FFF7FEFF 		bl	CyEnterCriticalSection
 1635 0010 031C     		mov	r3, r0
 1636 0012 2370     		strb	r3, [r4]
1181:.\Generated_Source\PSoC4/PWM_2.c **** 
1182:.\Generated_Source\PSoC4/PWM_2.c ****     PWM_2_TRIG_CONTROL1_REG &= (uint32)~PWM_2_STOP_MASK;
 1637              		.loc 1 1182 0
 1638 0014 0A4B     		ldr	r3, .L103
 1639 0016 0A4A     		ldr	r2, .L103
 1640 0018 1268     		ldr	r2, [r2]
 1641 001a C021     		mov	r1, #192
 1642 001c 8A43     		bic	r2, r1
 1643 001e 1A60     		str	r2, [r3]
1183:.\Generated_Source\PSoC4/PWM_2.c ****     PWM_2_TRIG_CONTROL1_REG |= ((uint32)(triggerMode << PWM_2_STOP_SHIFT));
 1644              		.loc 1 1183 0
 1645 0020 074B     		ldr	r3, .L103
 1646 0022 074A     		ldr	r2, .L103
 1647 0024 1168     		ldr	r1, [r2]
 1648 0026 7A68     		ldr	r2, [r7, #4]
 1649 0028 9201     		lsl	r2, r2, #6
 1650 002a 0A43     		orr	r2, r1
 1651 002c 1A60     		str	r2, [r3]
1184:.\Generated_Source\PSoC4/PWM_2.c **** 
1185:.\Generated_Source\PSoC4/PWM_2.c ****     CyExitCriticalSection(enableInterrupts);
 1652              		.loc 1 1185 0
 1653 002e 3B1C     		mov	r3, r7
 1654 0030 0F33     		add	r3, r3, #15
 1655 0032 1B78     		ldrb	r3, [r3]
 1656 0034 181C     		mov	r0, r3
 1657 0036 FFF7FEFF 		bl	CyExitCriticalSection
1186:.\Generated_Source\PSoC4/PWM_2.c **** }
 1658              		.loc 1 1186 0
 1659 003a BD46     		mov	sp, r7
 1660 003c 05B0     		add	sp, sp, #20
 1661              		@ sp needed for prologue
 1662 003e 90BD     		pop	{r4, r7, pc}
 1663              	.L104:
 1664              		.align	2
ARM GAS  C:\Users\OEBN\AppData\Local\Temp\cc2uhR5V.s 			page 51


 1665              	.L103:
 1666 0040 A4010540 		.word	1074069924
 1667              		.cfi_endproc
 1668              	.LFE31:
 1669              		.size	PWM_2_SetStopMode, .-PWM_2_SetStopMode
 1670              		.section	.text.PWM_2_SetCountMode,"ax",%progbits
 1671              		.align	2
 1672              		.global	PWM_2_SetCountMode
 1673              		.code	16
 1674              		.thumb_func
 1675              		.type	PWM_2_SetCountMode, %function
 1676              	PWM_2_SetCountMode:
 1677              	.LFB32:
1187:.\Generated_Source\PSoC4/PWM_2.c **** 
1188:.\Generated_Source\PSoC4/PWM_2.c **** 
1189:.\Generated_Source\PSoC4/PWM_2.c **** /*******************************************************************************
1190:.\Generated_Source\PSoC4/PWM_2.c **** * Function Name: PWM_2_SetCountMode
1191:.\Generated_Source\PSoC4/PWM_2.c **** ********************************************************************************
1192:.\Generated_Source\PSoC4/PWM_2.c **** *
1193:.\Generated_Source\PSoC4/PWM_2.c **** * Summary:
1194:.\Generated_Source\PSoC4/PWM_2.c **** *  Sets the count trigger mode. For Quadrature Decoder mode this is the phiA
1195:.\Generated_Source\PSoC4/PWM_2.c **** *  input.
1196:.\Generated_Source\PSoC4/PWM_2.c **** *
1197:.\Generated_Source\PSoC4/PWM_2.c **** * Parameters:
1198:.\Generated_Source\PSoC4/PWM_2.c **** *  triggerMode: Enumerated trigger mode value
1199:.\Generated_Source\PSoC4/PWM_2.c **** *   Values:
1200:.\Generated_Source\PSoC4/PWM_2.c **** *     - PWM_2_TRIG_LEVEL     - Level
1201:.\Generated_Source\PSoC4/PWM_2.c **** *     - PWM_2_TRIG_RISING    - Rising edge
1202:.\Generated_Source\PSoC4/PWM_2.c **** *     - PWM_2_TRIG_FALLING   - Falling edge
1203:.\Generated_Source\PSoC4/PWM_2.c **** *     - PWM_2_TRIG_BOTH      - Both rising and falling edge
1204:.\Generated_Source\PSoC4/PWM_2.c **** *
1205:.\Generated_Source\PSoC4/PWM_2.c **** * Return:
1206:.\Generated_Source\PSoC4/PWM_2.c **** *  None
1207:.\Generated_Source\PSoC4/PWM_2.c **** *
1208:.\Generated_Source\PSoC4/PWM_2.c **** *******************************************************************************/
1209:.\Generated_Source\PSoC4/PWM_2.c **** void PWM_2_SetCountMode(uint32 triggerMode)
1210:.\Generated_Source\PSoC4/PWM_2.c **** {
 1678              		.loc 1 1210 0
 1679              		.cfi_startproc
 1680 0000 90B5     		push	{r4, r7, lr}
 1681              	.LCFI87:
 1682              		.cfi_def_cfa_offset 12
 1683              		.cfi_offset 4, -12
 1684              		.cfi_offset 7, -8
 1685              		.cfi_offset 14, -4
 1686 0002 85B0     		sub	sp, sp, #20
 1687              	.LCFI88:
 1688              		.cfi_def_cfa_offset 32
 1689 0004 00AF     		add	r7, sp, #0
 1690              	.LCFI89:
 1691              		.cfi_def_cfa_register 7
 1692 0006 7860     		str	r0, [r7, #4]
1211:.\Generated_Source\PSoC4/PWM_2.c ****     uint8 enableInterrupts;
1212:.\Generated_Source\PSoC4/PWM_2.c **** 
1213:.\Generated_Source\PSoC4/PWM_2.c ****     enableInterrupts = CyEnterCriticalSection();
 1693              		.loc 1 1213 0
 1694 0008 3C1C     		mov	r4, r7
ARM GAS  C:\Users\OEBN\AppData\Local\Temp\cc2uhR5V.s 			page 52


 1695 000a 0F34     		add	r4, r4, #15
 1696 000c FFF7FEFF 		bl	CyEnterCriticalSection
 1697 0010 031C     		mov	r3, r0
 1698 0012 2370     		strb	r3, [r4]
1214:.\Generated_Source\PSoC4/PWM_2.c **** 
1215:.\Generated_Source\PSoC4/PWM_2.c ****     PWM_2_TRIG_CONTROL1_REG &= (uint32)~PWM_2_COUNT_MASK;
 1699              		.loc 1 1215 0
 1700 0014 0A4B     		ldr	r3, .L106
 1701 0016 0A4A     		ldr	r2, .L106
 1702 0018 1268     		ldr	r2, [r2]
 1703 001a 0C21     		mov	r1, #12
 1704 001c 8A43     		bic	r2, r1
 1705 001e 1A60     		str	r2, [r3]
1216:.\Generated_Source\PSoC4/PWM_2.c ****     PWM_2_TRIG_CONTROL1_REG |= ((uint32)(triggerMode << PWM_2_COUNT_SHIFT));
 1706              		.loc 1 1216 0
 1707 0020 074B     		ldr	r3, .L106
 1708 0022 074A     		ldr	r2, .L106
 1709 0024 1168     		ldr	r1, [r2]
 1710 0026 7A68     		ldr	r2, [r7, #4]
 1711 0028 9200     		lsl	r2, r2, #2
 1712 002a 0A43     		orr	r2, r1
 1713 002c 1A60     		str	r2, [r3]
1217:.\Generated_Source\PSoC4/PWM_2.c **** 
1218:.\Generated_Source\PSoC4/PWM_2.c ****     CyExitCriticalSection(enableInterrupts);
 1714              		.loc 1 1218 0
 1715 002e 3B1C     		mov	r3, r7
 1716 0030 0F33     		add	r3, r3, #15
 1717 0032 1B78     		ldrb	r3, [r3]
 1718 0034 181C     		mov	r0, r3
 1719 0036 FFF7FEFF 		bl	CyExitCriticalSection
1219:.\Generated_Source\PSoC4/PWM_2.c **** }
 1720              		.loc 1 1219 0
 1721 003a BD46     		mov	sp, r7
 1722 003c 05B0     		add	sp, sp, #20
 1723              		@ sp needed for prologue
 1724 003e 90BD     		pop	{r4, r7, pc}
 1725              	.L107:
 1726              		.align	2
 1727              	.L106:
 1728 0040 A4010540 		.word	1074069924
 1729              		.cfi_endproc
 1730              	.LFE32:
 1731              		.size	PWM_2_SetCountMode, .-PWM_2_SetCountMode
 1732              		.section	.text.PWM_2_TriggerCommand,"ax",%progbits
 1733              		.align	2
 1734              		.global	PWM_2_TriggerCommand
 1735              		.code	16
 1736              		.thumb_func
 1737              		.type	PWM_2_TriggerCommand, %function
 1738              	PWM_2_TriggerCommand:
 1739              	.LFB33:
1220:.\Generated_Source\PSoC4/PWM_2.c **** 
1221:.\Generated_Source\PSoC4/PWM_2.c **** 
1222:.\Generated_Source\PSoC4/PWM_2.c **** /*******************************************************************************
1223:.\Generated_Source\PSoC4/PWM_2.c **** * Function Name: PWM_2_TriggerCommand
1224:.\Generated_Source\PSoC4/PWM_2.c **** ********************************************************************************
1225:.\Generated_Source\PSoC4/PWM_2.c **** *
ARM GAS  C:\Users\OEBN\AppData\Local\Temp\cc2uhR5V.s 			page 53


1226:.\Generated_Source\PSoC4/PWM_2.c **** * Summary:
1227:.\Generated_Source\PSoC4/PWM_2.c **** *  Triggers the designated command to occur on the designated TCPWM instances.
1228:.\Generated_Source\PSoC4/PWM_2.c **** *  The mask can be used to apply this command simultaneously to more than one
1229:.\Generated_Source\PSoC4/PWM_2.c **** *  instance.  This allows multiple TCPWM instances to be synchronized.
1230:.\Generated_Source\PSoC4/PWM_2.c **** *
1231:.\Generated_Source\PSoC4/PWM_2.c **** * Parameters:
1232:.\Generated_Source\PSoC4/PWM_2.c **** *  mask: A combination of mask bits for each instance of the TCPWM that the
1233:.\Generated_Source\PSoC4/PWM_2.c **** *        command should apply to.  This function from one instance can be used
1234:.\Generated_Source\PSoC4/PWM_2.c **** *        to apply the command to any of the instances in the design.
1235:.\Generated_Source\PSoC4/PWM_2.c **** *        The mask value for a specific instance is available with the MASK
1236:.\Generated_Source\PSoC4/PWM_2.c **** *        define.
1237:.\Generated_Source\PSoC4/PWM_2.c **** *  command: Enumerated command values. Capture command only applicable for
1238:.\Generated_Source\PSoC4/PWM_2.c **** *           Timer/Counter with Capture and PWM modes.
1239:.\Generated_Source\PSoC4/PWM_2.c **** *   Values:
1240:.\Generated_Source\PSoC4/PWM_2.c **** *     - PWM_2_CMD_CAPTURE    - Trigger Capture command
1241:.\Generated_Source\PSoC4/PWM_2.c **** *     - PWM_2_CMD_RELOAD     - Trigger Reload command
1242:.\Generated_Source\PSoC4/PWM_2.c **** *     - PWM_2_CMD_STOP       - Trigger Stop command
1243:.\Generated_Source\PSoC4/PWM_2.c **** *     - PWM_2_CMD_START      - Trigger Start command
1244:.\Generated_Source\PSoC4/PWM_2.c **** *
1245:.\Generated_Source\PSoC4/PWM_2.c **** * Return:
1246:.\Generated_Source\PSoC4/PWM_2.c **** *  None
1247:.\Generated_Source\PSoC4/PWM_2.c **** *
1248:.\Generated_Source\PSoC4/PWM_2.c **** *******************************************************************************/
1249:.\Generated_Source\PSoC4/PWM_2.c **** void PWM_2_TriggerCommand(uint32 mask, uint32 command)
1250:.\Generated_Source\PSoC4/PWM_2.c **** {
 1740              		.loc 1 1250 0
 1741              		.cfi_startproc
 1742 0000 90B5     		push	{r4, r7, lr}
 1743              	.LCFI90:
 1744              		.cfi_def_cfa_offset 12
 1745              		.cfi_offset 4, -12
 1746              		.cfi_offset 7, -8
 1747              		.cfi_offset 14, -4
 1748 0002 85B0     		sub	sp, sp, #20
 1749              	.LCFI91:
 1750              		.cfi_def_cfa_offset 32
 1751 0004 00AF     		add	r7, sp, #0
 1752              	.LCFI92:
 1753              		.cfi_def_cfa_register 7
 1754 0006 7860     		str	r0, [r7, #4]
 1755 0008 3960     		str	r1, [r7]
1251:.\Generated_Source\PSoC4/PWM_2.c ****     uint8 enableInterrupts;
1252:.\Generated_Source\PSoC4/PWM_2.c **** 
1253:.\Generated_Source\PSoC4/PWM_2.c ****     enableInterrupts = CyEnterCriticalSection();
 1756              		.loc 1 1253 0
 1757 000a 3C1C     		mov	r4, r7
 1758 000c 0F34     		add	r4, r4, #15
 1759 000e FFF7FEFF 		bl	CyEnterCriticalSection
 1760 0012 031C     		mov	r3, r0
 1761 0014 2370     		strb	r3, [r4]
1254:.\Generated_Source\PSoC4/PWM_2.c **** 
1255:.\Generated_Source\PSoC4/PWM_2.c ****     PWM_2_COMMAND_REG = ((uint32)(mask << command));
 1762              		.loc 1 1255 0
 1763 0016 084B     		ldr	r3, .L109
 1764 0018 3A68     		ldr	r2, [r7]
 1765 001a 7968     		ldr	r1, [r7, #4]
 1766 001c 081C     		mov	r0, r1
ARM GAS  C:\Users\OEBN\AppData\Local\Temp\cc2uhR5V.s 			page 54


 1767 001e 9040     		lsl	r0, r0, r2
 1768 0020 021C     		mov	r2, r0
 1769 0022 1A60     		str	r2, [r3]
1256:.\Generated_Source\PSoC4/PWM_2.c **** 
1257:.\Generated_Source\PSoC4/PWM_2.c ****     CyExitCriticalSection(enableInterrupts);
 1770              		.loc 1 1257 0
 1771 0024 3B1C     		mov	r3, r7
 1772 0026 0F33     		add	r3, r3, #15
 1773 0028 1B78     		ldrb	r3, [r3]
 1774 002a 181C     		mov	r0, r3
 1775 002c FFF7FEFF 		bl	CyExitCriticalSection
1258:.\Generated_Source\PSoC4/PWM_2.c **** }
 1776              		.loc 1 1258 0
 1777 0030 BD46     		mov	sp, r7
 1778 0032 05B0     		add	sp, sp, #20
 1779              		@ sp needed for prologue
 1780 0034 90BD     		pop	{r4, r7, pc}
 1781              	.L110:
 1782 0036 C046     		.align	2
 1783              	.L109:
 1784 0038 08000540 		.word	1074069512
 1785              		.cfi_endproc
 1786              	.LFE33:
 1787              		.size	PWM_2_TriggerCommand, .-PWM_2_TriggerCommand
 1788              		.section	.text.PWM_2_ReadStatus,"ax",%progbits
 1789              		.align	2
 1790              		.global	PWM_2_ReadStatus
 1791              		.code	16
 1792              		.thumb_func
 1793              		.type	PWM_2_ReadStatus, %function
 1794              	PWM_2_ReadStatus:
 1795              	.LFB34:
1259:.\Generated_Source\PSoC4/PWM_2.c **** 
1260:.\Generated_Source\PSoC4/PWM_2.c **** 
1261:.\Generated_Source\PSoC4/PWM_2.c **** /*******************************************************************************
1262:.\Generated_Source\PSoC4/PWM_2.c **** * Function Name: PWM_2_ReadStatus
1263:.\Generated_Source\PSoC4/PWM_2.c **** ********************************************************************************
1264:.\Generated_Source\PSoC4/PWM_2.c **** *
1265:.\Generated_Source\PSoC4/PWM_2.c **** * Summary:
1266:.\Generated_Source\PSoC4/PWM_2.c **** *  Reads the status of the PWM_2.
1267:.\Generated_Source\PSoC4/PWM_2.c **** *
1268:.\Generated_Source\PSoC4/PWM_2.c **** * Parameters:
1269:.\Generated_Source\PSoC4/PWM_2.c **** *  None
1270:.\Generated_Source\PSoC4/PWM_2.c **** *
1271:.\Generated_Source\PSoC4/PWM_2.c **** * Return:
1272:.\Generated_Source\PSoC4/PWM_2.c **** *  Status
1273:.\Generated_Source\PSoC4/PWM_2.c **** *   Values:
1274:.\Generated_Source\PSoC4/PWM_2.c **** *     - PWM_2_STATUS_DOWN    - Set if counting down
1275:.\Generated_Source\PSoC4/PWM_2.c **** *     - PWM_2_STATUS_RUNNING - Set if counter is running
1276:.\Generated_Source\PSoC4/PWM_2.c **** *
1277:.\Generated_Source\PSoC4/PWM_2.c **** *******************************************************************************/
1278:.\Generated_Source\PSoC4/PWM_2.c **** uint32 PWM_2_ReadStatus(void)
1279:.\Generated_Source\PSoC4/PWM_2.c **** {
 1796              		.loc 1 1279 0
 1797              		.cfi_startproc
 1798 0000 80B5     		push	{r7, lr}
 1799              	.LCFI93:
ARM GAS  C:\Users\OEBN\AppData\Local\Temp\cc2uhR5V.s 			page 55


 1800              		.cfi_def_cfa_offset 8
 1801              		.cfi_offset 7, -8
 1802              		.cfi_offset 14, -4
 1803 0002 00AF     		add	r7, sp, #0
 1804              	.LCFI94:
 1805              		.cfi_def_cfa_register 7
1280:.\Generated_Source\PSoC4/PWM_2.c ****     return ((PWM_2_STATUS_REG >> PWM_2_RUNNING_STATUS_SHIFT) |
 1806              		.loc 1 1280 0
 1807 0004 054B     		ldr	r3, .L113
 1808 0006 1B68     		ldr	r3, [r3]
 1809 0008 9A0F     		lsr	r2, r3, #30
1281:.\Generated_Source\PSoC4/PWM_2.c ****             (PWM_2_STATUS_REG & PWM_2_STATUS_DOWN));
 1810              		.loc 1 1281 0
 1811 000a 044B     		ldr	r3, .L113
 1812 000c 1968     		ldr	r1, [r3]
 1813 000e 0123     		mov	r3, #1
 1814 0010 0B40     		and	r3, r1
1280:.\Generated_Source\PSoC4/PWM_2.c ****     return ((PWM_2_STATUS_REG >> PWM_2_RUNNING_STATUS_SHIFT) |
 1815              		.loc 1 1280 0
 1816 0012 1343     		orr	r3, r2
1282:.\Generated_Source\PSoC4/PWM_2.c **** }
 1817              		.loc 1 1282 0
 1818 0014 181C     		mov	r0, r3
 1819 0016 BD46     		mov	sp, r7
 1820              		@ sp needed for prologue
 1821 0018 80BD     		pop	{r7, pc}
 1822              	.L114:
 1823 001a C046     		.align	2
 1824              	.L113:
 1825 001c 84010540 		.word	1074069892
 1826              		.cfi_endproc
 1827              	.LFE34:
 1828              		.size	PWM_2_ReadStatus, .-PWM_2_ReadStatus
 1829              		.section	.text.PWM_2_SetInterruptMode,"ax",%progbits
 1830              		.align	2
 1831              		.global	PWM_2_SetInterruptMode
 1832              		.code	16
 1833              		.thumb_func
 1834              		.type	PWM_2_SetInterruptMode, %function
 1835              	PWM_2_SetInterruptMode:
 1836              	.LFB35:
1283:.\Generated_Source\PSoC4/PWM_2.c **** 
1284:.\Generated_Source\PSoC4/PWM_2.c **** 
1285:.\Generated_Source\PSoC4/PWM_2.c **** /*******************************************************************************
1286:.\Generated_Source\PSoC4/PWM_2.c **** * Function Name: PWM_2_SetInterruptMode
1287:.\Generated_Source\PSoC4/PWM_2.c **** ********************************************************************************
1288:.\Generated_Source\PSoC4/PWM_2.c **** *
1289:.\Generated_Source\PSoC4/PWM_2.c **** * Summary:
1290:.\Generated_Source\PSoC4/PWM_2.c **** *  Sets the interrupt mask to control which interrupt
1291:.\Generated_Source\PSoC4/PWM_2.c **** *  requests generate the interrupt signal.
1292:.\Generated_Source\PSoC4/PWM_2.c **** *
1293:.\Generated_Source\PSoC4/PWM_2.c **** * Parameters:
1294:.\Generated_Source\PSoC4/PWM_2.c **** *   interruptMask: Mask of bits to be enabled
1295:.\Generated_Source\PSoC4/PWM_2.c **** *   Values:
1296:.\Generated_Source\PSoC4/PWM_2.c **** *     - PWM_2_INTR_MASK_TC       - Terminal count mask
1297:.\Generated_Source\PSoC4/PWM_2.c **** *     - PWM_2_INTR_MASK_CC_MATCH - Compare count / capture mask
1298:.\Generated_Source\PSoC4/PWM_2.c **** *
ARM GAS  C:\Users\OEBN\AppData\Local\Temp\cc2uhR5V.s 			page 56


1299:.\Generated_Source\PSoC4/PWM_2.c **** * Return:
1300:.\Generated_Source\PSoC4/PWM_2.c **** *  None
1301:.\Generated_Source\PSoC4/PWM_2.c **** *
1302:.\Generated_Source\PSoC4/PWM_2.c **** *******************************************************************************/
1303:.\Generated_Source\PSoC4/PWM_2.c **** void PWM_2_SetInterruptMode(uint32 interruptMask)
1304:.\Generated_Source\PSoC4/PWM_2.c **** {
 1837              		.loc 1 1304 0
 1838              		.cfi_startproc
 1839 0000 80B5     		push	{r7, lr}
 1840              	.LCFI95:
 1841              		.cfi_def_cfa_offset 8
 1842              		.cfi_offset 7, -8
 1843              		.cfi_offset 14, -4
 1844 0002 82B0     		sub	sp, sp, #8
 1845              	.LCFI96:
 1846              		.cfi_def_cfa_offset 16
 1847 0004 00AF     		add	r7, sp, #0
 1848              	.LCFI97:
 1849              		.cfi_def_cfa_register 7
 1850 0006 7860     		str	r0, [r7, #4]
1305:.\Generated_Source\PSoC4/PWM_2.c ****     PWM_2_INTERRUPT_MASK_REG =  interruptMask;
 1851              		.loc 1 1305 0
 1852 0008 024B     		ldr	r3, .L116
 1853 000a 7A68     		ldr	r2, [r7, #4]
 1854 000c 1A60     		str	r2, [r3]
1306:.\Generated_Source\PSoC4/PWM_2.c **** }
 1855              		.loc 1 1306 0
 1856 000e BD46     		mov	sp, r7
 1857 0010 02B0     		add	sp, sp, #8
 1858              		@ sp needed for prologue
 1859 0012 80BD     		pop	{r7, pc}
 1860              	.L117:
 1861              		.align	2
 1862              	.L116:
 1863 0014 B8010540 		.word	1074069944
 1864              		.cfi_endproc
 1865              	.LFE35:
 1866              		.size	PWM_2_SetInterruptMode, .-PWM_2_SetInterruptMode
 1867              		.section	.text.PWM_2_GetInterruptSourceMasked,"ax",%progbits
 1868              		.align	2
 1869              		.global	PWM_2_GetInterruptSourceMasked
 1870              		.code	16
 1871              		.thumb_func
 1872              		.type	PWM_2_GetInterruptSourceMasked, %function
 1873              	PWM_2_GetInterruptSourceMasked:
 1874              	.LFB36:
1307:.\Generated_Source\PSoC4/PWM_2.c **** 
1308:.\Generated_Source\PSoC4/PWM_2.c **** 
1309:.\Generated_Source\PSoC4/PWM_2.c **** /*******************************************************************************
1310:.\Generated_Source\PSoC4/PWM_2.c **** * Function Name: PWM_2_GetInterruptSourceMasked
1311:.\Generated_Source\PSoC4/PWM_2.c **** ********************************************************************************
1312:.\Generated_Source\PSoC4/PWM_2.c **** *
1313:.\Generated_Source\PSoC4/PWM_2.c **** * Summary:
1314:.\Generated_Source\PSoC4/PWM_2.c **** *  Gets the interrupt requests masked by the interrupt mask.
1315:.\Generated_Source\PSoC4/PWM_2.c **** *
1316:.\Generated_Source\PSoC4/PWM_2.c **** * Parameters:
1317:.\Generated_Source\PSoC4/PWM_2.c **** *   None
ARM GAS  C:\Users\OEBN\AppData\Local\Temp\cc2uhR5V.s 			page 57


1318:.\Generated_Source\PSoC4/PWM_2.c **** *
1319:.\Generated_Source\PSoC4/PWM_2.c **** * Return:
1320:.\Generated_Source\PSoC4/PWM_2.c **** *  Masked interrupt source
1321:.\Generated_Source\PSoC4/PWM_2.c **** *   Values:
1322:.\Generated_Source\PSoC4/PWM_2.c **** *     - PWM_2_INTR_MASK_TC       - Terminal count mask
1323:.\Generated_Source\PSoC4/PWM_2.c **** *     - PWM_2_INTR_MASK_CC_MATCH - Compare count / capture mask
1324:.\Generated_Source\PSoC4/PWM_2.c **** *
1325:.\Generated_Source\PSoC4/PWM_2.c **** *******************************************************************************/
1326:.\Generated_Source\PSoC4/PWM_2.c **** uint32 PWM_2_GetInterruptSourceMasked(void)
1327:.\Generated_Source\PSoC4/PWM_2.c **** {
 1875              		.loc 1 1327 0
 1876              		.cfi_startproc
 1877 0000 80B5     		push	{r7, lr}
 1878              	.LCFI98:
 1879              		.cfi_def_cfa_offset 8
 1880              		.cfi_offset 7, -8
 1881              		.cfi_offset 14, -4
 1882 0002 00AF     		add	r7, sp, #0
 1883              	.LCFI99:
 1884              		.cfi_def_cfa_register 7
1328:.\Generated_Source\PSoC4/PWM_2.c ****     return (PWM_2_INTERRUPT_MASKED_REG);
 1885              		.loc 1 1328 0
 1886 0004 024B     		ldr	r3, .L120
 1887 0006 1B68     		ldr	r3, [r3]
1329:.\Generated_Source\PSoC4/PWM_2.c **** }
 1888              		.loc 1 1329 0
 1889 0008 181C     		mov	r0, r3
 1890 000a BD46     		mov	sp, r7
 1891              		@ sp needed for prologue
 1892 000c 80BD     		pop	{r7, pc}
 1893              	.L121:
 1894 000e C046     		.align	2
 1895              	.L120:
 1896 0010 BC010540 		.word	1074069948
 1897              		.cfi_endproc
 1898              	.LFE36:
 1899              		.size	PWM_2_GetInterruptSourceMasked, .-PWM_2_GetInterruptSourceMasked
 1900              		.section	.text.PWM_2_GetInterruptSource,"ax",%progbits
 1901              		.align	2
 1902              		.global	PWM_2_GetInterruptSource
 1903              		.code	16
 1904              		.thumb_func
 1905              		.type	PWM_2_GetInterruptSource, %function
 1906              	PWM_2_GetInterruptSource:
 1907              	.LFB37:
1330:.\Generated_Source\PSoC4/PWM_2.c **** 
1331:.\Generated_Source\PSoC4/PWM_2.c **** 
1332:.\Generated_Source\PSoC4/PWM_2.c **** /*******************************************************************************
1333:.\Generated_Source\PSoC4/PWM_2.c **** * Function Name: PWM_2_GetInterruptSource
1334:.\Generated_Source\PSoC4/PWM_2.c **** ********************************************************************************
1335:.\Generated_Source\PSoC4/PWM_2.c **** *
1336:.\Generated_Source\PSoC4/PWM_2.c **** * Summary:
1337:.\Generated_Source\PSoC4/PWM_2.c **** *  Gets the interrupt requests (without masking).
1338:.\Generated_Source\PSoC4/PWM_2.c **** *
1339:.\Generated_Source\PSoC4/PWM_2.c **** * Parameters:
1340:.\Generated_Source\PSoC4/PWM_2.c **** *  None
1341:.\Generated_Source\PSoC4/PWM_2.c **** *
ARM GAS  C:\Users\OEBN\AppData\Local\Temp\cc2uhR5V.s 			page 58


1342:.\Generated_Source\PSoC4/PWM_2.c **** * Return:
1343:.\Generated_Source\PSoC4/PWM_2.c **** *  Interrupt request value
1344:.\Generated_Source\PSoC4/PWM_2.c **** *   Values:
1345:.\Generated_Source\PSoC4/PWM_2.c **** *     - PWM_2_INTR_MASK_TC       - Terminal count mask
1346:.\Generated_Source\PSoC4/PWM_2.c **** *     - PWM_2_INTR_MASK_CC_MATCH - Compare count / capture mask
1347:.\Generated_Source\PSoC4/PWM_2.c **** *
1348:.\Generated_Source\PSoC4/PWM_2.c **** *******************************************************************************/
1349:.\Generated_Source\PSoC4/PWM_2.c **** uint32 PWM_2_GetInterruptSource(void)
1350:.\Generated_Source\PSoC4/PWM_2.c **** {
 1908              		.loc 1 1350 0
 1909              		.cfi_startproc
 1910 0000 80B5     		push	{r7, lr}
 1911              	.LCFI100:
 1912              		.cfi_def_cfa_offset 8
 1913              		.cfi_offset 7, -8
 1914              		.cfi_offset 14, -4
 1915 0002 00AF     		add	r7, sp, #0
 1916              	.LCFI101:
 1917              		.cfi_def_cfa_register 7
1351:.\Generated_Source\PSoC4/PWM_2.c ****     return (PWM_2_INTERRUPT_REQ_REG);
 1918              		.loc 1 1351 0
 1919 0004 024B     		ldr	r3, .L124
 1920 0006 1B68     		ldr	r3, [r3]
1352:.\Generated_Source\PSoC4/PWM_2.c **** }
 1921              		.loc 1 1352 0
 1922 0008 181C     		mov	r0, r3
 1923 000a BD46     		mov	sp, r7
 1924              		@ sp needed for prologue
 1925 000c 80BD     		pop	{r7, pc}
 1926              	.L125:
 1927 000e C046     		.align	2
 1928              	.L124:
 1929 0010 B0010540 		.word	1074069936
 1930              		.cfi_endproc
 1931              	.LFE37:
 1932              		.size	PWM_2_GetInterruptSource, .-PWM_2_GetInterruptSource
 1933              		.section	.text.PWM_2_ClearInterrupt,"ax",%progbits
 1934              		.align	2
 1935              		.global	PWM_2_ClearInterrupt
 1936              		.code	16
 1937              		.thumb_func
 1938              		.type	PWM_2_ClearInterrupt, %function
 1939              	PWM_2_ClearInterrupt:
 1940              	.LFB38:
1353:.\Generated_Source\PSoC4/PWM_2.c **** 
1354:.\Generated_Source\PSoC4/PWM_2.c **** 
1355:.\Generated_Source\PSoC4/PWM_2.c **** /*******************************************************************************
1356:.\Generated_Source\PSoC4/PWM_2.c **** * Function Name: PWM_2_ClearInterrupt
1357:.\Generated_Source\PSoC4/PWM_2.c **** ********************************************************************************
1358:.\Generated_Source\PSoC4/PWM_2.c **** *
1359:.\Generated_Source\PSoC4/PWM_2.c **** * Summary:
1360:.\Generated_Source\PSoC4/PWM_2.c **** *  Clears the interrupt request.
1361:.\Generated_Source\PSoC4/PWM_2.c **** *
1362:.\Generated_Source\PSoC4/PWM_2.c **** * Parameters:
1363:.\Generated_Source\PSoC4/PWM_2.c **** *   interruptMask: Mask of interrupts to clear
1364:.\Generated_Source\PSoC4/PWM_2.c **** *   Values:
1365:.\Generated_Source\PSoC4/PWM_2.c **** *     - PWM_2_INTR_MASK_TC       - Terminal count mask
ARM GAS  C:\Users\OEBN\AppData\Local\Temp\cc2uhR5V.s 			page 59


1366:.\Generated_Source\PSoC4/PWM_2.c **** *     - PWM_2_INTR_MASK_CC_MATCH - Compare count / capture mask
1367:.\Generated_Source\PSoC4/PWM_2.c **** *
1368:.\Generated_Source\PSoC4/PWM_2.c **** * Return:
1369:.\Generated_Source\PSoC4/PWM_2.c **** *  None
1370:.\Generated_Source\PSoC4/PWM_2.c **** *
1371:.\Generated_Source\PSoC4/PWM_2.c **** *******************************************************************************/
1372:.\Generated_Source\PSoC4/PWM_2.c **** void PWM_2_ClearInterrupt(uint32 interruptMask)
1373:.\Generated_Source\PSoC4/PWM_2.c **** {
 1941              		.loc 1 1373 0
 1942              		.cfi_startproc
 1943 0000 80B5     		push	{r7, lr}
 1944              	.LCFI102:
 1945              		.cfi_def_cfa_offset 8
 1946              		.cfi_offset 7, -8
 1947              		.cfi_offset 14, -4
 1948 0002 82B0     		sub	sp, sp, #8
 1949              	.LCFI103:
 1950              		.cfi_def_cfa_offset 16
 1951 0004 00AF     		add	r7, sp, #0
 1952              	.LCFI104:
 1953              		.cfi_def_cfa_register 7
 1954 0006 7860     		str	r0, [r7, #4]
1374:.\Generated_Source\PSoC4/PWM_2.c ****     PWM_2_INTERRUPT_REQ_REG = interruptMask;
 1955              		.loc 1 1374 0
 1956 0008 024B     		ldr	r3, .L127
 1957 000a 7A68     		ldr	r2, [r7, #4]
 1958 000c 1A60     		str	r2, [r3]
1375:.\Generated_Source\PSoC4/PWM_2.c **** }
 1959              		.loc 1 1375 0
 1960 000e BD46     		mov	sp, r7
 1961 0010 02B0     		add	sp, sp, #8
 1962              		@ sp needed for prologue
 1963 0012 80BD     		pop	{r7, pc}
 1964              	.L128:
 1965              		.align	2
 1966              	.L127:
 1967 0014 B0010540 		.word	1074069936
 1968              		.cfi_endproc
 1969              	.LFE38:
 1970              		.size	PWM_2_ClearInterrupt, .-PWM_2_ClearInterrupt
 1971              		.section	.text.PWM_2_SetInterrupt,"ax",%progbits
 1972              		.align	2
 1973              		.global	PWM_2_SetInterrupt
 1974              		.code	16
 1975              		.thumb_func
 1976              		.type	PWM_2_SetInterrupt, %function
 1977              	PWM_2_SetInterrupt:
 1978              	.LFB39:
1376:.\Generated_Source\PSoC4/PWM_2.c **** 
1377:.\Generated_Source\PSoC4/PWM_2.c **** 
1378:.\Generated_Source\PSoC4/PWM_2.c **** /*******************************************************************************
1379:.\Generated_Source\PSoC4/PWM_2.c **** * Function Name: PWM_2_SetInterrupt
1380:.\Generated_Source\PSoC4/PWM_2.c **** ********************************************************************************
1381:.\Generated_Source\PSoC4/PWM_2.c **** *
1382:.\Generated_Source\PSoC4/PWM_2.c **** * Summary:
1383:.\Generated_Source\PSoC4/PWM_2.c **** *  Sets a software interrupt request.
1384:.\Generated_Source\PSoC4/PWM_2.c **** *
ARM GAS  C:\Users\OEBN\AppData\Local\Temp\cc2uhR5V.s 			page 60


1385:.\Generated_Source\PSoC4/PWM_2.c **** * Parameters:
1386:.\Generated_Source\PSoC4/PWM_2.c **** *   interruptMask: Mask of interrupts to set
1387:.\Generated_Source\PSoC4/PWM_2.c **** *   Values:
1388:.\Generated_Source\PSoC4/PWM_2.c **** *     - PWM_2_INTR_MASK_TC       - Terminal count mask
1389:.\Generated_Source\PSoC4/PWM_2.c **** *     - PWM_2_INTR_MASK_CC_MATCH - Compare count / capture mask
1390:.\Generated_Source\PSoC4/PWM_2.c **** *
1391:.\Generated_Source\PSoC4/PWM_2.c **** * Return:
1392:.\Generated_Source\PSoC4/PWM_2.c **** *  None
1393:.\Generated_Source\PSoC4/PWM_2.c **** *
1394:.\Generated_Source\PSoC4/PWM_2.c **** *******************************************************************************/
1395:.\Generated_Source\PSoC4/PWM_2.c **** void PWM_2_SetInterrupt(uint32 interruptMask)
1396:.\Generated_Source\PSoC4/PWM_2.c **** {
 1979              		.loc 1 1396 0
 1980              		.cfi_startproc
 1981 0000 80B5     		push	{r7, lr}
 1982              	.LCFI105:
 1983              		.cfi_def_cfa_offset 8
 1984              		.cfi_offset 7, -8
 1985              		.cfi_offset 14, -4
 1986 0002 82B0     		sub	sp, sp, #8
 1987              	.LCFI106:
 1988              		.cfi_def_cfa_offset 16
 1989 0004 00AF     		add	r7, sp, #0
 1990              	.LCFI107:
 1991              		.cfi_def_cfa_register 7
 1992 0006 7860     		str	r0, [r7, #4]
1397:.\Generated_Source\PSoC4/PWM_2.c ****     PWM_2_INTERRUPT_SET_REG = interruptMask;
 1993              		.loc 1 1397 0
 1994 0008 024B     		ldr	r3, .L130
 1995 000a 7A68     		ldr	r2, [r7, #4]
 1996 000c 1A60     		str	r2, [r3]
1398:.\Generated_Source\PSoC4/PWM_2.c **** }
 1997              		.loc 1 1398 0
 1998 000e BD46     		mov	sp, r7
 1999 0010 02B0     		add	sp, sp, #8
 2000              		@ sp needed for prologue
 2001 0012 80BD     		pop	{r7, pc}
 2002              	.L131:
 2003              		.align	2
 2004              	.L130:
 2005 0014 B4010540 		.word	1074069940
 2006              		.cfi_endproc
 2007              	.LFE39:
 2008              		.size	PWM_2_SetInterrupt, .-PWM_2_SetInterrupt
 2009              		.text
 2010              	.Letext0:
 2011              		.file 2 ".\\Generated_Source\\PSoC4\\cytypes.h"