ARM GAS  C:\Users\OEBN\AppData\Local\Temp\cc4YkDS7.s 			page 1


   1              		.cpu cortex-m0
   2              		.fpu softvfp
   3              		.eabi_attribute 20, 1
   4              		.eabi_attribute 21, 1
   5              		.eabi_attribute 23, 3
   6              		.eabi_attribute 24, 1
   7              		.eabi_attribute 25, 1
   8              		.eabi_attribute 26, 1
   9              		.eabi_attribute 30, 6
  10              		.eabi_attribute 34, 0
  11              		.eabi_attribute 18, 4
  12              		.code	16
  13              		.file	"PWM_Timer.c"
  14              		.text
  15              	.Ltext0:
  16              		.cfi_sections	.debug_frame
  17              		.global	PWM_Timer_initVar
  18              		.bss
  19              		.type	PWM_Timer_initVar, %object
  20              		.size	PWM_Timer_initVar, 1
  21              	PWM_Timer_initVar:
  22 0000 00       		.space	1
  23              		.section	.text.PWM_Timer_Init,"ax",%progbits
  24              		.align	2
  25              		.global	PWM_Timer_Init
  26              		.code	16
  27              		.thumb_func
  28              		.type	PWM_Timer_Init, %function
  29              	PWM_Timer_Init:
  30              	.LFB0:
  31              		.file 1 ".\\Generated_Source\\PSoC4\\PWM_Timer.c"
   1:.\Generated_Source\PSoC4/PWM_Timer.c **** /*******************************************************************************
   2:.\Generated_Source\PSoC4/PWM_Timer.c **** * File Name: PWM_Timer.c
   3:.\Generated_Source\PSoC4/PWM_Timer.c **** * Version 1.10
   4:.\Generated_Source\PSoC4/PWM_Timer.c **** *
   5:.\Generated_Source\PSoC4/PWM_Timer.c **** * Description:
   6:.\Generated_Source\PSoC4/PWM_Timer.c **** *  This file provides the source code to the API for the PWM_Timer
   7:.\Generated_Source\PSoC4/PWM_Timer.c **** *  component
   8:.\Generated_Source\PSoC4/PWM_Timer.c **** *
   9:.\Generated_Source\PSoC4/PWM_Timer.c **** * Note:
  10:.\Generated_Source\PSoC4/PWM_Timer.c **** *  None
  11:.\Generated_Source\PSoC4/PWM_Timer.c **** *
  12:.\Generated_Source\PSoC4/PWM_Timer.c **** ********************************************************************************
  13:.\Generated_Source\PSoC4/PWM_Timer.c **** * Copyright 2013-2014, Cypress Semiconductor Corporation.  All rights reserved.
  14:.\Generated_Source\PSoC4/PWM_Timer.c **** * You may use this file only in accordance with the license, terms, conditions,
  15:.\Generated_Source\PSoC4/PWM_Timer.c **** * disclaimers, and limitations in the end user license agreement accompanying
  16:.\Generated_Source\PSoC4/PWM_Timer.c **** * the software package with which this file was provided.
  17:.\Generated_Source\PSoC4/PWM_Timer.c **** *******************************************************************************/
  18:.\Generated_Source\PSoC4/PWM_Timer.c **** 
  19:.\Generated_Source\PSoC4/PWM_Timer.c **** #include "PWM_Timer.h"
  20:.\Generated_Source\PSoC4/PWM_Timer.c **** #include "CyLib.h"
  21:.\Generated_Source\PSoC4/PWM_Timer.c **** 
  22:.\Generated_Source\PSoC4/PWM_Timer.c **** uint8 PWM_Timer_initVar = 0u;
  23:.\Generated_Source\PSoC4/PWM_Timer.c **** 
  24:.\Generated_Source\PSoC4/PWM_Timer.c **** 
  25:.\Generated_Source\PSoC4/PWM_Timer.c **** /*******************************************************************************
  26:.\Generated_Source\PSoC4/PWM_Timer.c **** * Function Name: PWM_Timer_Init
ARM GAS  C:\Users\OEBN\AppData\Local\Temp\cc4YkDS7.s 			page 2


  27:.\Generated_Source\PSoC4/PWM_Timer.c **** ********************************************************************************
  28:.\Generated_Source\PSoC4/PWM_Timer.c **** *
  29:.\Generated_Source\PSoC4/PWM_Timer.c **** * Summary:
  30:.\Generated_Source\PSoC4/PWM_Timer.c **** *  Initialize/Restore default PWM_Timer configuration.
  31:.\Generated_Source\PSoC4/PWM_Timer.c **** *
  32:.\Generated_Source\PSoC4/PWM_Timer.c **** * Parameters:
  33:.\Generated_Source\PSoC4/PWM_Timer.c **** *  None
  34:.\Generated_Source\PSoC4/PWM_Timer.c **** *
  35:.\Generated_Source\PSoC4/PWM_Timer.c **** * Return:
  36:.\Generated_Source\PSoC4/PWM_Timer.c **** *  None
  37:.\Generated_Source\PSoC4/PWM_Timer.c **** *
  38:.\Generated_Source\PSoC4/PWM_Timer.c **** *******************************************************************************/
  39:.\Generated_Source\PSoC4/PWM_Timer.c **** void PWM_Timer_Init(void)
  40:.\Generated_Source\PSoC4/PWM_Timer.c **** {
  32              		.loc 1 40 0
  33              		.cfi_startproc
  34 0000 80B5     		push	{r7, lr}
  35              	.LCFI0:
  36              		.cfi_def_cfa_offset 8
  37              		.cfi_offset 7, -8
  38              		.cfi_offset 14, -4
  39 0002 00AF     		add	r7, sp, #0
  40              	.LCFI1:
  41              		.cfi_def_cfa_register 7
  41:.\Generated_Source\PSoC4/PWM_Timer.c **** 
  42:.\Generated_Source\PSoC4/PWM_Timer.c ****     /* Set values from customizer to CTRL */
  43:.\Generated_Source\PSoC4/PWM_Timer.c ****     #if (PWM_Timer__QUAD == PWM_Timer_CONFIG)
  44:.\Generated_Source\PSoC4/PWM_Timer.c ****         PWM_Timer_CONTROL_REG =
  45:.\Generated_Source\PSoC4/PWM_Timer.c ****         (((uint32)(PWM_Timer_QUAD_ENCODING_MODES     << PWM_Timer_QUAD_MODE_SHIFT))       |
  46:.\Generated_Source\PSoC4/PWM_Timer.c ****          ((uint32)(PWM_Timer_CONFIG                  << PWM_Timer_MODE_SHIFT)));
  47:.\Generated_Source\PSoC4/PWM_Timer.c ****     #endif  /* (PWM_Timer__QUAD == PWM_Timer_CONFIG) */
  48:.\Generated_Source\PSoC4/PWM_Timer.c **** 
  49:.\Generated_Source\PSoC4/PWM_Timer.c ****     #if (PWM_Timer__PWM_SEL == PWM_Timer_CONFIG)
  50:.\Generated_Source\PSoC4/PWM_Timer.c ****         PWM_Timer_CONTROL_REG =
  51:.\Generated_Source\PSoC4/PWM_Timer.c ****         (((uint32)(PWM_Timer_PWM_STOP_EVENT          << PWM_Timer_PWM_STOP_KILL_SHIFT))    |
  52:.\Generated_Source\PSoC4/PWM_Timer.c ****          ((uint32)(PWM_Timer_PWM_OUT_INVERT          << PWM_Timer_INV_OUT_SHIFT))         |
  53:.\Generated_Source\PSoC4/PWM_Timer.c ****          ((uint32)(PWM_Timer_PWM_OUT_N_INVERT        << PWM_Timer_INV_COMPL_OUT_SHIFT))     |
  54:.\Generated_Source\PSoC4/PWM_Timer.c ****          ((uint32)(PWM_Timer_PWM_MODE                << PWM_Timer_MODE_SHIFT)));
  55:.\Generated_Source\PSoC4/PWM_Timer.c **** 
  56:.\Generated_Source\PSoC4/PWM_Timer.c ****         #if (PWM_Timer__PWM_PR == PWM_Timer_PWM_MODE)
  57:.\Generated_Source\PSoC4/PWM_Timer.c ****             PWM_Timer_CONTROL_REG |=
  58:.\Generated_Source\PSoC4/PWM_Timer.c ****             ((uint32)(PWM_Timer_PWM_RUN_MODE         << PWM_Timer_ONESHOT_SHIFT));
  59:.\Generated_Source\PSoC4/PWM_Timer.c **** 
  60:.\Generated_Source\PSoC4/PWM_Timer.c ****             PWM_Timer_WriteCounter(PWM_Timer_PWM_PR_INIT_VALUE);
  61:.\Generated_Source\PSoC4/PWM_Timer.c ****         #else
  62:.\Generated_Source\PSoC4/PWM_Timer.c ****             PWM_Timer_CONTROL_REG |=
  63:.\Generated_Source\PSoC4/PWM_Timer.c ****             (((uint32)(PWM_Timer_PWM_ALIGN           << PWM_Timer_UPDOWN_SHIFT))          |
  64:.\Generated_Source\PSoC4/PWM_Timer.c ****              ((uint32)(PWM_Timer_PWM_KILL_EVENT      << PWM_Timer_PWM_SYNC_KILL_SHIFT)));
  65:.\Generated_Source\PSoC4/PWM_Timer.c ****         #endif  /* (PWM_Timer__PWM_PR == PWM_Timer_PWM_MODE) */
  66:.\Generated_Source\PSoC4/PWM_Timer.c **** 
  67:.\Generated_Source\PSoC4/PWM_Timer.c ****         #if (PWM_Timer__PWM_DT == PWM_Timer_PWM_MODE)
  68:.\Generated_Source\PSoC4/PWM_Timer.c ****             PWM_Timer_CONTROL_REG |=
  69:.\Generated_Source\PSoC4/PWM_Timer.c ****             ((uint32)(PWM_Timer_PWM_DEAD_TIME_CYCLE  << PWM_Timer_PRESCALER_SHIFT));
  70:.\Generated_Source\PSoC4/PWM_Timer.c ****         #endif  /* (PWM_Timer__PWM_DT == PWM_Timer_PWM_MODE) */
  71:.\Generated_Source\PSoC4/PWM_Timer.c **** 
  72:.\Generated_Source\PSoC4/PWM_Timer.c ****         #if (PWM_Timer__PWM == PWM_Timer_PWM_MODE)
  73:.\Generated_Source\PSoC4/PWM_Timer.c ****             PWM_Timer_CONTROL_REG |=
ARM GAS  C:\Users\OEBN\AppData\Local\Temp\cc4YkDS7.s 			page 3


  74:.\Generated_Source\PSoC4/PWM_Timer.c ****             ((uint32)PWM_Timer_PWM_PRESCALER         << PWM_Timer_PRESCALER_SHIFT);
  75:.\Generated_Source\PSoC4/PWM_Timer.c ****         #endif  /* (PWM_Timer__PWM == PWM_Timer_PWM_MODE) */
  76:.\Generated_Source\PSoC4/PWM_Timer.c ****     #endif  /* (PWM_Timer__PWM_SEL == PWM_Timer_CONFIG) */
  77:.\Generated_Source\PSoC4/PWM_Timer.c **** 
  78:.\Generated_Source\PSoC4/PWM_Timer.c ****     #if (PWM_Timer__TIMER == PWM_Timer_CONFIG)
  79:.\Generated_Source\PSoC4/PWM_Timer.c ****         PWM_Timer_CONTROL_REG =
  42              		.loc 1 79 0
  43 0004 074B     		ldr	r3, .L2
  44 0006 8022     		mov	r2, #128
  45 0008 9204     		lsl	r2, r2, #18
  46 000a 1A60     		str	r2, [r3]
  80:.\Generated_Source\PSoC4/PWM_Timer.c ****         (((uint32)(PWM_Timer_TC_PRESCALER            << PWM_Timer_PRESCALER_SHIFT))   |
  81:.\Generated_Source\PSoC4/PWM_Timer.c ****          ((uint32)(PWM_Timer_TC_COUNTER_MODE         << PWM_Timer_UPDOWN_SHIFT))      |
  82:.\Generated_Source\PSoC4/PWM_Timer.c ****          ((uint32)(PWM_Timer_TC_RUN_MODE             << PWM_Timer_ONESHOT_SHIFT))     |
  83:.\Generated_Source\PSoC4/PWM_Timer.c ****          ((uint32)(PWM_Timer_TC_COMP_CAP_MODE        << PWM_Timer_MODE_SHIFT)));
  84:.\Generated_Source\PSoC4/PWM_Timer.c ****     #endif  /* (PWM_Timer__TIMER == PWM_Timer_CONFIG) */
  85:.\Generated_Source\PSoC4/PWM_Timer.c **** 
  86:.\Generated_Source\PSoC4/PWM_Timer.c ****     /* Set values from customizer to CTRL1 */
  87:.\Generated_Source\PSoC4/PWM_Timer.c ****     #if (PWM_Timer__QUAD == PWM_Timer_CONFIG)
  88:.\Generated_Source\PSoC4/PWM_Timer.c ****         PWM_Timer_TRIG_CONTROL1_REG  =
  89:.\Generated_Source\PSoC4/PWM_Timer.c ****         (((uint32)(PWM_Timer_QUAD_PHIA_SIGNAL_MODE   << PWM_Timer_COUNT_SHIFT))       |
  90:.\Generated_Source\PSoC4/PWM_Timer.c ****          ((uint32)(PWM_Timer_QUAD_INDEX_SIGNAL_MODE  << PWM_Timer_RELOAD_SHIFT))      |
  91:.\Generated_Source\PSoC4/PWM_Timer.c ****          ((uint32)(PWM_Timer_QUAD_STOP_SIGNAL_MODE   << PWM_Timer_STOP_SHIFT))        |
  92:.\Generated_Source\PSoC4/PWM_Timer.c ****          ((uint32)(PWM_Timer_QUAD_PHIB_SIGNAL_MODE   << PWM_Timer_START_SHIFT)));
  93:.\Generated_Source\PSoC4/PWM_Timer.c ****     #endif  /* (PWM_Timer__QUAD == PWM_Timer_CONFIG) */
  94:.\Generated_Source\PSoC4/PWM_Timer.c **** 
  95:.\Generated_Source\PSoC4/PWM_Timer.c ****     #if (PWM_Timer__PWM_SEL == PWM_Timer_CONFIG)
  96:.\Generated_Source\PSoC4/PWM_Timer.c ****         PWM_Timer_TRIG_CONTROL1_REG  =
  97:.\Generated_Source\PSoC4/PWM_Timer.c ****         (((uint32)(PWM_Timer_PWM_SWITCH_SIGNAL_MODE  << PWM_Timer_CAPTURE_SHIFT))     |
  98:.\Generated_Source\PSoC4/PWM_Timer.c ****          ((uint32)(PWM_Timer_PWM_COUNT_SIGNAL_MODE   << PWM_Timer_COUNT_SHIFT))       |
  99:.\Generated_Source\PSoC4/PWM_Timer.c ****          ((uint32)(PWM_Timer_PWM_RELOAD_SIGNAL_MODE  << PWM_Timer_RELOAD_SHIFT))      |
 100:.\Generated_Source\PSoC4/PWM_Timer.c ****          ((uint32)(PWM_Timer_PWM_STOP_SIGNAL_MODE    << PWM_Timer_STOP_SHIFT))        |
 101:.\Generated_Source\PSoC4/PWM_Timer.c ****          ((uint32)(PWM_Timer_PWM_START_SIGNAL_MODE   << PWM_Timer_START_SHIFT)));
 102:.\Generated_Source\PSoC4/PWM_Timer.c ****     #endif  /* (PWM_Timer__PWM_SEL == PWM_Timer_CONFIG) */
 103:.\Generated_Source\PSoC4/PWM_Timer.c **** 
 104:.\Generated_Source\PSoC4/PWM_Timer.c ****     #if (PWM_Timer__TIMER == PWM_Timer_CONFIG)
 105:.\Generated_Source\PSoC4/PWM_Timer.c ****         PWM_Timer_TRIG_CONTROL1_REG  =
  47              		.loc 1 105 0
  48 000c 064B     		ldr	r3, .L2+4
  49 000e 0C22     		mov	r2, #12
  50 0010 1A60     		str	r2, [r3]
 106:.\Generated_Source\PSoC4/PWM_Timer.c ****         (((uint32)(PWM_Timer_TC_CAPTURE_SIGNAL_MODE  << PWM_Timer_CAPTURE_SHIFT))     |
 107:.\Generated_Source\PSoC4/PWM_Timer.c ****          ((uint32)(PWM_Timer_TC_COUNT_SIGNAL_MODE    << PWM_Timer_COUNT_SHIFT))       |
 108:.\Generated_Source\PSoC4/PWM_Timer.c ****          ((uint32)(PWM_Timer_TC_RELOAD_SIGNAL_MODE   << PWM_Timer_RELOAD_SHIFT))      |
 109:.\Generated_Source\PSoC4/PWM_Timer.c ****          ((uint32)(PWM_Timer_TC_STOP_SIGNAL_MODE     << PWM_Timer_STOP_SHIFT))        |
 110:.\Generated_Source\PSoC4/PWM_Timer.c ****          ((uint32)(PWM_Timer_TC_START_SIGNAL_MODE    << PWM_Timer_START_SHIFT)));
 111:.\Generated_Source\PSoC4/PWM_Timer.c ****     #endif  /* (PWM_Timer__TIMER == PWM_Timer_CONFIG) */
 112:.\Generated_Source\PSoC4/PWM_Timer.c **** 
 113:.\Generated_Source\PSoC4/PWM_Timer.c ****     /* Set values from customizer to INTR */
 114:.\Generated_Source\PSoC4/PWM_Timer.c ****     #if (PWM_Timer__QUAD == PWM_Timer_CONFIG)
 115:.\Generated_Source\PSoC4/PWM_Timer.c ****         PWM_Timer_SetInterruptMode(PWM_Timer_QUAD_INTERRUPT_MASK);
 116:.\Generated_Source\PSoC4/PWM_Timer.c ****     #endif  /* (PWM_Timer__QUAD == PWM_Timer_CONFIG) */
 117:.\Generated_Source\PSoC4/PWM_Timer.c **** 
 118:.\Generated_Source\PSoC4/PWM_Timer.c ****     #if (PWM_Timer__PWM_SEL == PWM_Timer_CONFIG)
 119:.\Generated_Source\PSoC4/PWM_Timer.c ****         PWM_Timer_SetInterruptMode(PWM_Timer_PWM_INTERRUPT_MASK);
 120:.\Generated_Source\PSoC4/PWM_Timer.c ****     #endif  /* (PWM_Timer__PWM_SEL == PWM_Timer_CONFIG) */
 121:.\Generated_Source\PSoC4/PWM_Timer.c **** 
ARM GAS  C:\Users\OEBN\AppData\Local\Temp\cc4YkDS7.s 			page 4


 122:.\Generated_Source\PSoC4/PWM_Timer.c ****     #if (PWM_Timer__TIMER == PWM_Timer_CONFIG)
 123:.\Generated_Source\PSoC4/PWM_Timer.c ****         PWM_Timer_SetInterruptMode(PWM_Timer_TC_INTERRUPT_MASK);
  51              		.loc 1 123 0
  52 0012 0120     		mov	r0, #1
  53 0014 FFF7FEFF 		bl	PWM_Timer_SetInterruptMode
 124:.\Generated_Source\PSoC4/PWM_Timer.c ****     #endif  /* (PWM_Timer__TIMER == PWM_Timer_CONFIG) */
 125:.\Generated_Source\PSoC4/PWM_Timer.c **** 
 126:.\Generated_Source\PSoC4/PWM_Timer.c ****     /* Set other values from customizer */
 127:.\Generated_Source\PSoC4/PWM_Timer.c ****     #if (PWM_Timer__TIMER == PWM_Timer_CONFIG)
 128:.\Generated_Source\PSoC4/PWM_Timer.c ****         PWM_Timer_WritePeriod(PWM_Timer_TC_PERIOD_VALUE );
  54              		.loc 1 128 0
  55 0018 0A20     		mov	r0, #10
  56 001a FFF7FEFF 		bl	PWM_Timer_WritePeriod
 129:.\Generated_Source\PSoC4/PWM_Timer.c **** 
 130:.\Generated_Source\PSoC4/PWM_Timer.c ****         #if (PWM_Timer__COUNT_DOWN == PWM_Timer_TC_COUNTER_MODE)
 131:.\Generated_Source\PSoC4/PWM_Timer.c ****             PWM_Timer_WriteCounter(PWM_Timer_TC_PERIOD_VALUE );
 132:.\Generated_Source\PSoC4/PWM_Timer.c ****         #endif  /* (PWM_Timer__COUNT_DOWN == PWM_Timer_TC_COUNTER_MODE) */
 133:.\Generated_Source\PSoC4/PWM_Timer.c **** 
 134:.\Generated_Source\PSoC4/PWM_Timer.c ****         #if (PWM_Timer__COMPARE == PWM_Timer_TC_COMP_CAP_MODE)
 135:.\Generated_Source\PSoC4/PWM_Timer.c ****             PWM_Timer_WriteCompare(PWM_Timer_TC_COMPARE_VALUE);
 136:.\Generated_Source\PSoC4/PWM_Timer.c **** 
 137:.\Generated_Source\PSoC4/PWM_Timer.c ****             #if (1u == PWM_Timer_TC_COMPARE_SWAP)
 138:.\Generated_Source\PSoC4/PWM_Timer.c ****                 PWM_Timer_SetCompareSwap(1u);
 139:.\Generated_Source\PSoC4/PWM_Timer.c ****                 PWM_Timer_WriteCompareBuf(PWM_Timer_TC_COMPARE_BUF_VALUE);
 140:.\Generated_Source\PSoC4/PWM_Timer.c ****             #endif  /* (1u == PWM_Timer_TC_COMPARE_SWAP) */
 141:.\Generated_Source\PSoC4/PWM_Timer.c ****         #endif  /* (PWM_Timer__COMPARE == PWM_Timer_TC_COMP_CAP_MODE) */
 142:.\Generated_Source\PSoC4/PWM_Timer.c ****     #endif  /* (PWM_Timer__TIMER == PWM_Timer_CONFIG) */
 143:.\Generated_Source\PSoC4/PWM_Timer.c **** 
 144:.\Generated_Source\PSoC4/PWM_Timer.c ****     #if (PWM_Timer__PWM_SEL == PWM_Timer_CONFIG)
 145:.\Generated_Source\PSoC4/PWM_Timer.c ****         PWM_Timer_WritePeriod(PWM_Timer_PWM_PERIOD_VALUE );
 146:.\Generated_Source\PSoC4/PWM_Timer.c ****         PWM_Timer_WriteCompare(PWM_Timer_PWM_COMPARE_VALUE);
 147:.\Generated_Source\PSoC4/PWM_Timer.c **** 
 148:.\Generated_Source\PSoC4/PWM_Timer.c ****         #if (1u == PWM_Timer_PWM_COMPARE_SWAP)
 149:.\Generated_Source\PSoC4/PWM_Timer.c ****             PWM_Timer_SetCompareSwap(1u);
 150:.\Generated_Source\PSoC4/PWM_Timer.c ****             PWM_Timer_WriteCompareBuf(PWM_Timer_PWM_COMPARE_BUF_VALUE);
 151:.\Generated_Source\PSoC4/PWM_Timer.c ****         #endif  /* (1u == PWM_Timer_PWM_COMPARE_SWAP) */
 152:.\Generated_Source\PSoC4/PWM_Timer.c **** 
 153:.\Generated_Source\PSoC4/PWM_Timer.c ****         #if (1u == PWM_Timer_PWM_PERIOD_SWAP)
 154:.\Generated_Source\PSoC4/PWM_Timer.c ****             PWM_Timer_SetPeriodSwap(1u);
 155:.\Generated_Source\PSoC4/PWM_Timer.c ****             PWM_Timer_WritePeriodBuf(PWM_Timer_PWM_PERIOD_BUF_VALUE);
 156:.\Generated_Source\PSoC4/PWM_Timer.c ****         #endif  /* (1u == PWM_Timer_PWM_PERIOD_SWAP) */
 157:.\Generated_Source\PSoC4/PWM_Timer.c **** 
 158:.\Generated_Source\PSoC4/PWM_Timer.c ****         /* Set values from customizer to CTRL2 */
 159:.\Generated_Source\PSoC4/PWM_Timer.c ****         #if (PWM_Timer__PWM_PR == PWM_Timer_PWM_MODE)
 160:.\Generated_Source\PSoC4/PWM_Timer.c ****             PWM_Timer_TRIG_CONTROL2_REG =
 161:.\Generated_Source\PSoC4/PWM_Timer.c ****                     (PWM_Timer_CC_MATCH_NO_CHANGE    |
 162:.\Generated_Source\PSoC4/PWM_Timer.c ****                     PWM_Timer_OVERLOW_NO_CHANGE      |
 163:.\Generated_Source\PSoC4/PWM_Timer.c ****                     PWM_Timer_UNDERFLOW_NO_CHANGE);
 164:.\Generated_Source\PSoC4/PWM_Timer.c ****         #else
 165:.\Generated_Source\PSoC4/PWM_Timer.c ****             #if (PWM_Timer__LEFT == PWM_Timer_PWM_ALIGN)
 166:.\Generated_Source\PSoC4/PWM_Timer.c ****                 PWM_Timer_TRIG_CONTROL2_REG = PWM_Timer_PWM_MODE_LEFT;
 167:.\Generated_Source\PSoC4/PWM_Timer.c ****             #endif  /* ( PWM_Timer_PWM_LEFT == PWM_Timer_PWM_ALIGN) */
 168:.\Generated_Source\PSoC4/PWM_Timer.c **** 
 169:.\Generated_Source\PSoC4/PWM_Timer.c ****             #if (PWM_Timer__RIGHT == PWM_Timer_PWM_ALIGN)
 170:.\Generated_Source\PSoC4/PWM_Timer.c ****                 PWM_Timer_WriteCounter(PWM_Timer_PWM_PERIOD_VALUE);
 171:.\Generated_Source\PSoC4/PWM_Timer.c ****                 PWM_Timer_TRIG_CONTROL2_REG = PWM_Timer_PWM_MODE_RIGHT;
 172:.\Generated_Source\PSoC4/PWM_Timer.c ****             #endif  /* ( PWM_Timer_PWM_RIGHT == PWM_Timer_PWM_ALIGN) */
ARM GAS  C:\Users\OEBN\AppData\Local\Temp\cc4YkDS7.s 			page 5


 173:.\Generated_Source\PSoC4/PWM_Timer.c **** 
 174:.\Generated_Source\PSoC4/PWM_Timer.c ****             #if (PWM_Timer__CENTER == PWM_Timer_PWM_ALIGN)
 175:.\Generated_Source\PSoC4/PWM_Timer.c ****                 PWM_Timer_TRIG_CONTROL2_REG = PWM_Timer_PWM_MODE_CENTER;
 176:.\Generated_Source\PSoC4/PWM_Timer.c ****             #endif  /* ( PWM_Timer_PWM_CENTER == PWM_Timer_PWM_ALIGN) */
 177:.\Generated_Source\PSoC4/PWM_Timer.c **** 
 178:.\Generated_Source\PSoC4/PWM_Timer.c ****             #if (PWM_Timer__ASYMMETRIC == PWM_Timer_PWM_ALIGN)
 179:.\Generated_Source\PSoC4/PWM_Timer.c ****                 PWM_Timer_TRIG_CONTROL2_REG = PWM_Timer_PWM_MODE_ASYM;
 180:.\Generated_Source\PSoC4/PWM_Timer.c ****             #endif  /* (PWM_Timer__ASYMMETRIC == PWM_Timer_PWM_ALIGN) */
 181:.\Generated_Source\PSoC4/PWM_Timer.c ****         #endif  /* (PWM_Timer__PWM_PR == PWM_Timer_PWM_MODE) */
 182:.\Generated_Source\PSoC4/PWM_Timer.c ****     #endif  /* (PWM_Timer__PWM_SEL == PWM_Timer_CONFIG) */
 183:.\Generated_Source\PSoC4/PWM_Timer.c **** }
  57              		.loc 1 183 0
  58 001e BD46     		mov	sp, r7
  59              		@ sp needed for prologue
  60 0020 80BD     		pop	{r7, pc}
  61              	.L3:
  62 0022 C046     		.align	2
  63              	.L2:
  64 0024 00010540 		.word	1074069760
  65 0028 24010540 		.word	1074069796
  66              		.cfi_endproc
  67              	.LFE0:
  68              		.size	PWM_Timer_Init, .-PWM_Timer_Init
  69              		.section	.text.PWM_Timer_Enable,"ax",%progbits
  70              		.align	2
  71              		.global	PWM_Timer_Enable
  72              		.code	16
  73              		.thumb_func
  74              		.type	PWM_Timer_Enable, %function
  75              	PWM_Timer_Enable:
  76              	.LFB1:
 184:.\Generated_Source\PSoC4/PWM_Timer.c **** 
 185:.\Generated_Source\PSoC4/PWM_Timer.c **** 
 186:.\Generated_Source\PSoC4/PWM_Timer.c **** /*******************************************************************************
 187:.\Generated_Source\PSoC4/PWM_Timer.c **** * Function Name: PWM_Timer_Enable
 188:.\Generated_Source\PSoC4/PWM_Timer.c **** ********************************************************************************
 189:.\Generated_Source\PSoC4/PWM_Timer.c **** *
 190:.\Generated_Source\PSoC4/PWM_Timer.c **** * Summary:
 191:.\Generated_Source\PSoC4/PWM_Timer.c **** *  Enables the PWM_Timer.
 192:.\Generated_Source\PSoC4/PWM_Timer.c **** *
 193:.\Generated_Source\PSoC4/PWM_Timer.c **** * Parameters:
 194:.\Generated_Source\PSoC4/PWM_Timer.c **** *  None
 195:.\Generated_Source\PSoC4/PWM_Timer.c **** *
 196:.\Generated_Source\PSoC4/PWM_Timer.c **** * Return:
 197:.\Generated_Source\PSoC4/PWM_Timer.c **** *  None
 198:.\Generated_Source\PSoC4/PWM_Timer.c **** *
 199:.\Generated_Source\PSoC4/PWM_Timer.c **** *******************************************************************************/
 200:.\Generated_Source\PSoC4/PWM_Timer.c **** void PWM_Timer_Enable(void)
 201:.\Generated_Source\PSoC4/PWM_Timer.c **** {
  77              		.loc 1 201 0
  78              		.cfi_startproc
  79 0000 90B5     		push	{r4, r7, lr}
  80              	.LCFI2:
  81              		.cfi_def_cfa_offset 12
  82              		.cfi_offset 4, -12
  83              		.cfi_offset 7, -8
  84              		.cfi_offset 14, -4
ARM GAS  C:\Users\OEBN\AppData\Local\Temp\cc4YkDS7.s 			page 6


  85 0002 83B0     		sub	sp, sp, #12
  86              	.LCFI3:
  87              		.cfi_def_cfa_offset 24
  88 0004 00AF     		add	r7, sp, #0
  89              	.LCFI4:
  90              		.cfi_def_cfa_register 7
 202:.\Generated_Source\PSoC4/PWM_Timer.c ****     uint8 enableInterrupts;
 203:.\Generated_Source\PSoC4/PWM_Timer.c **** 
 204:.\Generated_Source\PSoC4/PWM_Timer.c ****     enableInterrupts = CyEnterCriticalSection();
  91              		.loc 1 204 0
  92 0006 FC1D     		add	r4, r7, #7
  93 0008 FFF7FEFF 		bl	CyEnterCriticalSection
  94 000c 031C     		mov	r3, r0
  95 000e 2370     		strb	r3, [r4]
 205:.\Generated_Source\PSoC4/PWM_Timer.c ****     PWM_Timer_BLOCK_CONTROL_REG |= PWM_Timer_MASK;
  96              		.loc 1 205 0
  97 0010 084B     		ldr	r3, .L5
  98 0012 084A     		ldr	r2, .L5
  99 0014 1268     		ldr	r2, [r2]
 100 0016 0121     		mov	r1, #1
 101 0018 0A43     		orr	r2, r1
 102 001a 1A60     		str	r2, [r3]
 206:.\Generated_Source\PSoC4/PWM_Timer.c ****     CyExitCriticalSection(enableInterrupts);
 103              		.loc 1 206 0
 104 001c FB1D     		add	r3, r7, #7
 105 001e 1B78     		ldrb	r3, [r3]
 106 0020 181C     		mov	r0, r3
 107 0022 FFF7FEFF 		bl	CyExitCriticalSection
 207:.\Generated_Source\PSoC4/PWM_Timer.c **** 
 208:.\Generated_Source\PSoC4/PWM_Timer.c ****     /* Start Timer or PWM if start input is absent */
 209:.\Generated_Source\PSoC4/PWM_Timer.c ****     #if (PWM_Timer__PWM_SEL == PWM_Timer_CONFIG)
 210:.\Generated_Source\PSoC4/PWM_Timer.c ****         #if (0u == PWM_Timer_PWM_START_SIGNAL_PRESENT)
 211:.\Generated_Source\PSoC4/PWM_Timer.c ****             PWM_Timer_TriggerCommand(PWM_Timer_MASK, PWM_Timer_CMD_START);
 212:.\Generated_Source\PSoC4/PWM_Timer.c ****         #endif /* (0u == PWM_Timer_PWM_START_SIGNAL_PRESENT) */
 213:.\Generated_Source\PSoC4/PWM_Timer.c ****     #endif /* (PWM_Timer__PWM_SEL == PWM_Timer_CONFIG) */
 214:.\Generated_Source\PSoC4/PWM_Timer.c **** 
 215:.\Generated_Source\PSoC4/PWM_Timer.c ****     #if (PWM_Timer__TIMER == PWM_Timer_CONFIG)
 216:.\Generated_Source\PSoC4/PWM_Timer.c ****         #if (0u == PWM_Timer_TC_START_SIGNAL_PRESENT)
 217:.\Generated_Source\PSoC4/PWM_Timer.c ****             PWM_Timer_TriggerCommand(PWM_Timer_MASK, PWM_Timer_CMD_START);
 108              		.loc 1 217 0
 109 0026 0120     		mov	r0, #1
 110 0028 1821     		mov	r1, #24
 111 002a FFF7FEFF 		bl	PWM_Timer_TriggerCommand
 218:.\Generated_Source\PSoC4/PWM_Timer.c ****         #endif /* (0u == PWM_Timer_TC_START_SIGNAL_PRESENT) */
 219:.\Generated_Source\PSoC4/PWM_Timer.c ****     #endif /* (PWM_Timer__TIMER == PWM_Timer_CONFIG) */
 220:.\Generated_Source\PSoC4/PWM_Timer.c **** }
 112              		.loc 1 220 0
 113 002e BD46     		mov	sp, r7
 114 0030 03B0     		add	sp, sp, #12
 115              		@ sp needed for prologue
 116 0032 90BD     		pop	{r4, r7, pc}
 117              	.L6:
 118              		.align	2
 119              	.L5:
 120 0034 00000540 		.word	1074069504
 121              		.cfi_endproc
 122              	.LFE1:
ARM GAS  C:\Users\OEBN\AppData\Local\Temp\cc4YkDS7.s 			page 7


 123              		.size	PWM_Timer_Enable, .-PWM_Timer_Enable
 124              		.section	.text.PWM_Timer_Start,"ax",%progbits
 125              		.align	2
 126              		.global	PWM_Timer_Start
 127              		.code	16
 128              		.thumb_func
 129              		.type	PWM_Timer_Start, %function
 130              	PWM_Timer_Start:
 131              	.LFB2:
 221:.\Generated_Source\PSoC4/PWM_Timer.c **** 
 222:.\Generated_Source\PSoC4/PWM_Timer.c **** 
 223:.\Generated_Source\PSoC4/PWM_Timer.c **** /*******************************************************************************
 224:.\Generated_Source\PSoC4/PWM_Timer.c **** * Function Name: PWM_Timer_Start
 225:.\Generated_Source\PSoC4/PWM_Timer.c **** ********************************************************************************
 226:.\Generated_Source\PSoC4/PWM_Timer.c **** *
 227:.\Generated_Source\PSoC4/PWM_Timer.c **** * Summary:
 228:.\Generated_Source\PSoC4/PWM_Timer.c **** *  Initializes the PWM_Timer with default customizer
 229:.\Generated_Source\PSoC4/PWM_Timer.c **** *  values when called the first time and enables the PWM_Timer.
 230:.\Generated_Source\PSoC4/PWM_Timer.c **** *  For subsequent calls the configuration is left unchanged and the component is
 231:.\Generated_Source\PSoC4/PWM_Timer.c **** *  just enabled.
 232:.\Generated_Source\PSoC4/PWM_Timer.c **** *
 233:.\Generated_Source\PSoC4/PWM_Timer.c **** * Parameters:
 234:.\Generated_Source\PSoC4/PWM_Timer.c **** *  None
 235:.\Generated_Source\PSoC4/PWM_Timer.c **** *
 236:.\Generated_Source\PSoC4/PWM_Timer.c **** * Return:
 237:.\Generated_Source\PSoC4/PWM_Timer.c **** *  None
 238:.\Generated_Source\PSoC4/PWM_Timer.c **** *
 239:.\Generated_Source\PSoC4/PWM_Timer.c **** * Global variables:
 240:.\Generated_Source\PSoC4/PWM_Timer.c **** *  PWM_Timer_initVar: global variable is used to indicate initial
 241:.\Generated_Source\PSoC4/PWM_Timer.c **** *  configuration of this component.  The variable is initialized to zero and set
 242:.\Generated_Source\PSoC4/PWM_Timer.c **** *  to 1 the first time PWM_Timer_Start() is called. This allows
 243:.\Generated_Source\PSoC4/PWM_Timer.c **** *  enabling/disabling a component without re-initialization in all subsequent
 244:.\Generated_Source\PSoC4/PWM_Timer.c **** *  calls to the PWM_Timer_Start() routine.
 245:.\Generated_Source\PSoC4/PWM_Timer.c **** *
 246:.\Generated_Source\PSoC4/PWM_Timer.c **** *******************************************************************************/
 247:.\Generated_Source\PSoC4/PWM_Timer.c **** void PWM_Timer_Start(void)
 248:.\Generated_Source\PSoC4/PWM_Timer.c **** {
 132              		.loc 1 248 0
 133              		.cfi_startproc
 134 0000 80B5     		push	{r7, lr}
 135              	.LCFI5:
 136              		.cfi_def_cfa_offset 8
 137              		.cfi_offset 7, -8
 138              		.cfi_offset 14, -4
 139 0002 00AF     		add	r7, sp, #0
 140              	.LCFI6:
 141              		.cfi_def_cfa_register 7
 249:.\Generated_Source\PSoC4/PWM_Timer.c ****     if (0u == PWM_Timer_initVar)
 142              		.loc 1 249 0
 143 0004 064B     		ldr	r3, .L9
 144 0006 1B78     		ldrb	r3, [r3]
 145 0008 002B     		cmp	r3, #0
 146 000a 04D1     		bne	.L8
 250:.\Generated_Source\PSoC4/PWM_Timer.c ****     {
 251:.\Generated_Source\PSoC4/PWM_Timer.c ****         PWM_Timer_Init();
 147              		.loc 1 251 0
 148 000c FFF7FEFF 		bl	PWM_Timer_Init
ARM GAS  C:\Users\OEBN\AppData\Local\Temp\cc4YkDS7.s 			page 8


 252:.\Generated_Source\PSoC4/PWM_Timer.c ****         PWM_Timer_initVar = 1u;
 149              		.loc 1 252 0
 150 0010 034B     		ldr	r3, .L9
 151 0012 0122     		mov	r2, #1
 152 0014 1A70     		strb	r2, [r3]
 153              	.L8:
 253:.\Generated_Source\PSoC4/PWM_Timer.c ****     }
 254:.\Generated_Source\PSoC4/PWM_Timer.c **** 
 255:.\Generated_Source\PSoC4/PWM_Timer.c ****     PWM_Timer_Enable();
 154              		.loc 1 255 0
 155 0016 FFF7FEFF 		bl	PWM_Timer_Enable
 256:.\Generated_Source\PSoC4/PWM_Timer.c **** }
 156              		.loc 1 256 0
 157 001a BD46     		mov	sp, r7
 158              		@ sp needed for prologue
 159 001c 80BD     		pop	{r7, pc}
 160              	.L10:
 161 001e C046     		.align	2
 162              	.L9:
 163 0020 00000000 		.word	PWM_Timer_initVar
 164              		.cfi_endproc
 165              	.LFE2:
 166              		.size	PWM_Timer_Start, .-PWM_Timer_Start
 167              		.section	.text.PWM_Timer_Stop,"ax",%progbits
 168              		.align	2
 169              		.global	PWM_Timer_Stop
 170              		.code	16
 171              		.thumb_func
 172              		.type	PWM_Timer_Stop, %function
 173              	PWM_Timer_Stop:
 174              	.LFB3:
 257:.\Generated_Source\PSoC4/PWM_Timer.c **** 
 258:.\Generated_Source\PSoC4/PWM_Timer.c **** 
 259:.\Generated_Source\PSoC4/PWM_Timer.c **** /*******************************************************************************
 260:.\Generated_Source\PSoC4/PWM_Timer.c **** * Function Name: PWM_Timer_Stop
 261:.\Generated_Source\PSoC4/PWM_Timer.c **** ********************************************************************************
 262:.\Generated_Source\PSoC4/PWM_Timer.c **** *
 263:.\Generated_Source\PSoC4/PWM_Timer.c **** * Summary:
 264:.\Generated_Source\PSoC4/PWM_Timer.c **** *  Disables the PWM_Timer.
 265:.\Generated_Source\PSoC4/PWM_Timer.c **** *
 266:.\Generated_Source\PSoC4/PWM_Timer.c **** * Parameters:
 267:.\Generated_Source\PSoC4/PWM_Timer.c **** *  None
 268:.\Generated_Source\PSoC4/PWM_Timer.c **** *
 269:.\Generated_Source\PSoC4/PWM_Timer.c **** * Return:
 270:.\Generated_Source\PSoC4/PWM_Timer.c **** *  None
 271:.\Generated_Source\PSoC4/PWM_Timer.c **** *
 272:.\Generated_Source\PSoC4/PWM_Timer.c **** *******************************************************************************/
 273:.\Generated_Source\PSoC4/PWM_Timer.c **** void PWM_Timer_Stop(void)
 274:.\Generated_Source\PSoC4/PWM_Timer.c **** {
 175              		.loc 1 274 0
 176              		.cfi_startproc
 177 0000 90B5     		push	{r4, r7, lr}
 178              	.LCFI7:
 179              		.cfi_def_cfa_offset 12
 180              		.cfi_offset 4, -12
 181              		.cfi_offset 7, -8
 182              		.cfi_offset 14, -4
ARM GAS  C:\Users\OEBN\AppData\Local\Temp\cc4YkDS7.s 			page 9


 183 0002 83B0     		sub	sp, sp, #12
 184              	.LCFI8:
 185              		.cfi_def_cfa_offset 24
 186 0004 00AF     		add	r7, sp, #0
 187              	.LCFI9:
 188              		.cfi_def_cfa_register 7
 275:.\Generated_Source\PSoC4/PWM_Timer.c ****     uint8 enableInterrupts;
 276:.\Generated_Source\PSoC4/PWM_Timer.c **** 
 277:.\Generated_Source\PSoC4/PWM_Timer.c ****     enableInterrupts = CyEnterCriticalSection();
 189              		.loc 1 277 0
 190 0006 FC1D     		add	r4, r7, #7
 191 0008 FFF7FEFF 		bl	CyEnterCriticalSection
 192 000c 031C     		mov	r3, r0
 193 000e 2370     		strb	r3, [r4]
 278:.\Generated_Source\PSoC4/PWM_Timer.c **** 
 279:.\Generated_Source\PSoC4/PWM_Timer.c ****     PWM_Timer_BLOCK_CONTROL_REG &= (uint32)~PWM_Timer_MASK;
 194              		.loc 1 279 0
 195 0010 064B     		ldr	r3, .L12
 196 0012 064A     		ldr	r2, .L12
 197 0014 1268     		ldr	r2, [r2]
 198 0016 0121     		mov	r1, #1
 199 0018 8A43     		bic	r2, r1
 200 001a 1A60     		str	r2, [r3]
 280:.\Generated_Source\PSoC4/PWM_Timer.c **** 
 281:.\Generated_Source\PSoC4/PWM_Timer.c ****     CyExitCriticalSection(enableInterrupts);
 201              		.loc 1 281 0
 202 001c FB1D     		add	r3, r7, #7
 203 001e 1B78     		ldrb	r3, [r3]
 204 0020 181C     		mov	r0, r3
 205 0022 FFF7FEFF 		bl	CyExitCriticalSection
 282:.\Generated_Source\PSoC4/PWM_Timer.c **** }
 206              		.loc 1 282 0
 207 0026 BD46     		mov	sp, r7
 208 0028 03B0     		add	sp, sp, #12
 209              		@ sp needed for prologue
 210 002a 90BD     		pop	{r4, r7, pc}
 211              	.L13:
 212              		.align	2
 213              	.L12:
 214 002c 00000540 		.word	1074069504
 215              		.cfi_endproc
 216              	.LFE3:
 217              		.size	PWM_Timer_Stop, .-PWM_Timer_Stop
 218              		.section	.text.PWM_Timer_SetMode,"ax",%progbits
 219              		.align	2
 220              		.global	PWM_Timer_SetMode
 221              		.code	16
 222              		.thumb_func
 223              		.type	PWM_Timer_SetMode, %function
 224              	PWM_Timer_SetMode:
 225              	.LFB4:
 283:.\Generated_Source\PSoC4/PWM_Timer.c **** 
 284:.\Generated_Source\PSoC4/PWM_Timer.c **** 
 285:.\Generated_Source\PSoC4/PWM_Timer.c **** /*******************************************************************************
 286:.\Generated_Source\PSoC4/PWM_Timer.c **** * Function Name: PWM_Timer_SetMode
 287:.\Generated_Source\PSoC4/PWM_Timer.c **** ********************************************************************************
 288:.\Generated_Source\PSoC4/PWM_Timer.c **** *
ARM GAS  C:\Users\OEBN\AppData\Local\Temp\cc4YkDS7.s 			page 10


 289:.\Generated_Source\PSoC4/PWM_Timer.c **** * Summary:
 290:.\Generated_Source\PSoC4/PWM_Timer.c **** *  Sets the operation mode of the PWM_Timer. This function is used when
 291:.\Generated_Source\PSoC4/PWM_Timer.c **** *  configured as a generic PWM_Timer and the actual mode of operation is
 292:.\Generated_Source\PSoC4/PWM_Timer.c **** *  set at runtime. The mode must be set while the component is disabled.
 293:.\Generated_Source\PSoC4/PWM_Timer.c **** *
 294:.\Generated_Source\PSoC4/PWM_Timer.c **** * Parameters:
 295:.\Generated_Source\PSoC4/PWM_Timer.c **** *  mode: Mode for the PWM_Timer to operate in
 296:.\Generated_Source\PSoC4/PWM_Timer.c **** *   Values:
 297:.\Generated_Source\PSoC4/PWM_Timer.c **** *   - PWM_Timer_MODE_TIMER_COMPARE - Timer / Counter with
 298:.\Generated_Source\PSoC4/PWM_Timer.c **** *                                                 compare capability
 299:.\Generated_Source\PSoC4/PWM_Timer.c **** *         - PWM_Timer_MODE_TIMER_CAPTURE - Timer / Counter with
 300:.\Generated_Source\PSoC4/PWM_Timer.c **** *                                                 capture capability
 301:.\Generated_Source\PSoC4/PWM_Timer.c **** *         - PWM_Timer_MODE_QUAD - Quadrature decoder
 302:.\Generated_Source\PSoC4/PWM_Timer.c **** *         - PWM_Timer_MODE_PWM - PWM
 303:.\Generated_Source\PSoC4/PWM_Timer.c **** *         - PWM_Timer_MODE_PWM_DT - PWM with dead time
 304:.\Generated_Source\PSoC4/PWM_Timer.c **** *         - PWM_Timer_MODE_PWM_PR - PWM with pseudo random capability
 305:.\Generated_Source\PSoC4/PWM_Timer.c **** *
 306:.\Generated_Source\PSoC4/PWM_Timer.c **** * Return:
 307:.\Generated_Source\PSoC4/PWM_Timer.c **** *  None
 308:.\Generated_Source\PSoC4/PWM_Timer.c **** *
 309:.\Generated_Source\PSoC4/PWM_Timer.c **** *******************************************************************************/
 310:.\Generated_Source\PSoC4/PWM_Timer.c **** void PWM_Timer_SetMode(uint32 mode)
 311:.\Generated_Source\PSoC4/PWM_Timer.c **** {
 226              		.loc 1 311 0
 227              		.cfi_startproc
 228 0000 90B5     		push	{r4, r7, lr}
 229              	.LCFI10:
 230              		.cfi_def_cfa_offset 12
 231              		.cfi_offset 4, -12
 232              		.cfi_offset 7, -8
 233              		.cfi_offset 14, -4
 234 0002 85B0     		sub	sp, sp, #20
 235              	.LCFI11:
 236              		.cfi_def_cfa_offset 32
 237 0004 00AF     		add	r7, sp, #0
 238              	.LCFI12:
 239              		.cfi_def_cfa_register 7
 240 0006 7860     		str	r0, [r7, #4]
 312:.\Generated_Source\PSoC4/PWM_Timer.c ****     uint8 enableInterrupts;
 313:.\Generated_Source\PSoC4/PWM_Timer.c **** 
 314:.\Generated_Source\PSoC4/PWM_Timer.c ****     enableInterrupts = CyEnterCriticalSection();
 241              		.loc 1 314 0
 242 0008 3C1C     		mov	r4, r7
 243 000a 0F34     		add	r4, r4, #15
 244 000c FFF7FEFF 		bl	CyEnterCriticalSection
 245 0010 031C     		mov	r3, r0
 246 0012 2370     		strb	r3, [r4]
 315:.\Generated_Source\PSoC4/PWM_Timer.c **** 
 316:.\Generated_Source\PSoC4/PWM_Timer.c ****     PWM_Timer_CONTROL_REG &= (uint32)~PWM_Timer_MODE_MASK;
 247              		.loc 1 316 0
 248 0014 0A4B     		ldr	r3, .L15
 249 0016 0A4A     		ldr	r2, .L15
 250 0018 1168     		ldr	r1, [r2]
 251 001a 0A4A     		ldr	r2, .L15+4
 252 001c 0A40     		and	r2, r1
 253 001e 1A60     		str	r2, [r3]
 317:.\Generated_Source\PSoC4/PWM_Timer.c ****     PWM_Timer_CONTROL_REG |= mode;
ARM GAS  C:\Users\OEBN\AppData\Local\Temp\cc4YkDS7.s 			page 11


 254              		.loc 1 317 0
 255 0020 074B     		ldr	r3, .L15
 256 0022 074A     		ldr	r2, .L15
 257 0024 1168     		ldr	r1, [r2]
 258 0026 7A68     		ldr	r2, [r7, #4]
 259 0028 0A43     		orr	r2, r1
 260 002a 1A60     		str	r2, [r3]
 318:.\Generated_Source\PSoC4/PWM_Timer.c **** 
 319:.\Generated_Source\PSoC4/PWM_Timer.c ****     CyExitCriticalSection(enableInterrupts);
 261              		.loc 1 319 0
 262 002c 3B1C     		mov	r3, r7
 263 002e 0F33     		add	r3, r3, #15
 264 0030 1B78     		ldrb	r3, [r3]
 265 0032 181C     		mov	r0, r3
 266 0034 FFF7FEFF 		bl	CyExitCriticalSection
 320:.\Generated_Source\PSoC4/PWM_Timer.c **** }
 267              		.loc 1 320 0
 268 0038 BD46     		mov	sp, r7
 269 003a 05B0     		add	sp, sp, #20
 270              		@ sp needed for prologue
 271 003c 90BD     		pop	{r4, r7, pc}
 272              	.L16:
 273 003e C046     		.align	2
 274              	.L15:
 275 0040 00010540 		.word	1074069760
 276 0044 FFFFFFF8 		.word	-117440513
 277              		.cfi_endproc
 278              	.LFE4:
 279              		.size	PWM_Timer_SetMode, .-PWM_Timer_SetMode
 280              		.section	.text.PWM_Timer_SetQDMode,"ax",%progbits
 281              		.align	2
 282              		.global	PWM_Timer_SetQDMode
 283              		.code	16
 284              		.thumb_func
 285              		.type	PWM_Timer_SetQDMode, %function
 286              	PWM_Timer_SetQDMode:
 287              	.LFB5:
 321:.\Generated_Source\PSoC4/PWM_Timer.c **** 
 322:.\Generated_Source\PSoC4/PWM_Timer.c **** 
 323:.\Generated_Source\PSoC4/PWM_Timer.c **** /*******************************************************************************
 324:.\Generated_Source\PSoC4/PWM_Timer.c **** * Function Name: PWM_Timer_SetQDMode
 325:.\Generated_Source\PSoC4/PWM_Timer.c **** ********************************************************************************
 326:.\Generated_Source\PSoC4/PWM_Timer.c **** *
 327:.\Generated_Source\PSoC4/PWM_Timer.c **** * Summary:
 328:.\Generated_Source\PSoC4/PWM_Timer.c **** *  Sets the the Quadrature Decoder to one of the 3 supported modes.
 329:.\Generated_Source\PSoC4/PWM_Timer.c **** *  Its functionality is only applicable to Quadrature Decoder operation.
 330:.\Generated_Source\PSoC4/PWM_Timer.c **** *
 331:.\Generated_Source\PSoC4/PWM_Timer.c **** * Parameters:
 332:.\Generated_Source\PSoC4/PWM_Timer.c **** *  qdMode: Quadrature Decoder mode
 333:.\Generated_Source\PSoC4/PWM_Timer.c **** *   Values:
 334:.\Generated_Source\PSoC4/PWM_Timer.c **** *         - PWM_Timer_MODE_X1 - Counts on phi 1 rising
 335:.\Generated_Source\PSoC4/PWM_Timer.c **** *         - PWM_Timer_MODE_X2 - Counts on both edges of phi1 (2x faster)
 336:.\Generated_Source\PSoC4/PWM_Timer.c **** *         - PWM_Timer_MODE_X4 - Counts on both edges of phi1 and phi2
 337:.\Generated_Source\PSoC4/PWM_Timer.c **** *                                        (4x faster)
 338:.\Generated_Source\PSoC4/PWM_Timer.c **** *
 339:.\Generated_Source\PSoC4/PWM_Timer.c **** * Return:
 340:.\Generated_Source\PSoC4/PWM_Timer.c **** *  None
ARM GAS  C:\Users\OEBN\AppData\Local\Temp\cc4YkDS7.s 			page 12


 341:.\Generated_Source\PSoC4/PWM_Timer.c **** *
 342:.\Generated_Source\PSoC4/PWM_Timer.c **** *******************************************************************************/
 343:.\Generated_Source\PSoC4/PWM_Timer.c **** void PWM_Timer_SetQDMode(uint32 qdMode)
 344:.\Generated_Source\PSoC4/PWM_Timer.c **** {
 288              		.loc 1 344 0
 289              		.cfi_startproc
 290 0000 90B5     		push	{r4, r7, lr}
 291              	.LCFI13:
 292              		.cfi_def_cfa_offset 12
 293              		.cfi_offset 4, -12
 294              		.cfi_offset 7, -8
 295              		.cfi_offset 14, -4
 296 0002 85B0     		sub	sp, sp, #20
 297              	.LCFI14:
 298              		.cfi_def_cfa_offset 32
 299 0004 00AF     		add	r7, sp, #0
 300              	.LCFI15:
 301              		.cfi_def_cfa_register 7
 302 0006 7860     		str	r0, [r7, #4]
 345:.\Generated_Source\PSoC4/PWM_Timer.c ****     uint8 enableInterrupts;
 346:.\Generated_Source\PSoC4/PWM_Timer.c **** 
 347:.\Generated_Source\PSoC4/PWM_Timer.c ****     enableInterrupts = CyEnterCriticalSection();
 303              		.loc 1 347 0
 304 0008 3C1C     		mov	r4, r7
 305 000a 0F34     		add	r4, r4, #15
 306 000c FFF7FEFF 		bl	CyEnterCriticalSection
 307 0010 031C     		mov	r3, r0
 308 0012 2370     		strb	r3, [r4]
 348:.\Generated_Source\PSoC4/PWM_Timer.c **** 
 349:.\Generated_Source\PSoC4/PWM_Timer.c ****     PWM_Timer_CONTROL_REG &= (uint32)~PWM_Timer_QUAD_MODE_MASK;
 309              		.loc 1 349 0
 310 0014 0A4B     		ldr	r3, .L18
 311 0016 0A4A     		ldr	r2, .L18
 312 0018 1168     		ldr	r1, [r2]
 313 001a 0A4A     		ldr	r2, .L18+4
 314 001c 0A40     		and	r2, r1
 315 001e 1A60     		str	r2, [r3]
 350:.\Generated_Source\PSoC4/PWM_Timer.c ****     PWM_Timer_CONTROL_REG |= qdMode;
 316              		.loc 1 350 0
 317 0020 074B     		ldr	r3, .L18
 318 0022 074A     		ldr	r2, .L18
 319 0024 1168     		ldr	r1, [r2]
 320 0026 7A68     		ldr	r2, [r7, #4]
 321 0028 0A43     		orr	r2, r1
 322 002a 1A60     		str	r2, [r3]
 351:.\Generated_Source\PSoC4/PWM_Timer.c **** 
 352:.\Generated_Source\PSoC4/PWM_Timer.c ****     CyExitCriticalSection(enableInterrupts);
 323              		.loc 1 352 0
 324 002c 3B1C     		mov	r3, r7
 325 002e 0F33     		add	r3, r3, #15
 326 0030 1B78     		ldrb	r3, [r3]
 327 0032 181C     		mov	r0, r3
 328 0034 FFF7FEFF 		bl	CyExitCriticalSection
 353:.\Generated_Source\PSoC4/PWM_Timer.c **** }
 329              		.loc 1 353 0
 330 0038 BD46     		mov	sp, r7
 331 003a 05B0     		add	sp, sp, #20
ARM GAS  C:\Users\OEBN\AppData\Local\Temp\cc4YkDS7.s 			page 13


 332              		@ sp needed for prologue
 333 003c 90BD     		pop	{r4, r7, pc}
 334              	.L19:
 335 003e C046     		.align	2
 336              	.L18:
 337 0040 00010540 		.word	1074069760
 338 0044 FFFF8FFF 		.word	-7340033
 339              		.cfi_endproc
 340              	.LFE5:
 341              		.size	PWM_Timer_SetQDMode, .-PWM_Timer_SetQDMode
 342              		.section	.text.PWM_Timer_SetPrescaler,"ax",%progbits
 343              		.align	2
 344              		.global	PWM_Timer_SetPrescaler
 345              		.code	16
 346              		.thumb_func
 347              		.type	PWM_Timer_SetPrescaler, %function
 348              	PWM_Timer_SetPrescaler:
 349              	.LFB6:
 354:.\Generated_Source\PSoC4/PWM_Timer.c **** 
 355:.\Generated_Source\PSoC4/PWM_Timer.c **** 
 356:.\Generated_Source\PSoC4/PWM_Timer.c **** /*******************************************************************************
 357:.\Generated_Source\PSoC4/PWM_Timer.c **** * Function Name: PWM_Timer_SetPrescaler
 358:.\Generated_Source\PSoC4/PWM_Timer.c **** ********************************************************************************
 359:.\Generated_Source\PSoC4/PWM_Timer.c **** *
 360:.\Generated_Source\PSoC4/PWM_Timer.c **** * Summary:
 361:.\Generated_Source\PSoC4/PWM_Timer.c **** *  Sets the prescaler value that is applied to the clock input.  Not applicable
 362:.\Generated_Source\PSoC4/PWM_Timer.c **** *  to a PWM with the dead time mode or Quadrature Decoder mode.
 363:.\Generated_Source\PSoC4/PWM_Timer.c **** *
 364:.\Generated_Source\PSoC4/PWM_Timer.c **** * Parameters:
 365:.\Generated_Source\PSoC4/PWM_Timer.c **** *  prescaler: Prescaler divider value
 366:.\Generated_Source\PSoC4/PWM_Timer.c **** *   Values:
 367:.\Generated_Source\PSoC4/PWM_Timer.c **** *         - PWM_Timer_PRESCALE_DIVBY1    - Divide by 1 (no prescaling)
 368:.\Generated_Source\PSoC4/PWM_Timer.c **** *         - PWM_Timer_PRESCALE_DIVBY2    - Divide by 2
 369:.\Generated_Source\PSoC4/PWM_Timer.c **** *         - PWM_Timer_PRESCALE_DIVBY4    - Divide by 4
 370:.\Generated_Source\PSoC4/PWM_Timer.c **** *         - PWM_Timer_PRESCALE_DIVBY8    - Divide by 8
 371:.\Generated_Source\PSoC4/PWM_Timer.c **** *         - PWM_Timer_PRESCALE_DIVBY16   - Divide by 16
 372:.\Generated_Source\PSoC4/PWM_Timer.c **** *         - PWM_Timer_PRESCALE_DIVBY32   - Divide by 32
 373:.\Generated_Source\PSoC4/PWM_Timer.c **** *         - PWM_Timer_PRESCALE_DIVBY64   - Divide by 64
 374:.\Generated_Source\PSoC4/PWM_Timer.c **** *         - PWM_Timer_PRESCALE_DIVBY128  - Divide by 128
 375:.\Generated_Source\PSoC4/PWM_Timer.c **** *
 376:.\Generated_Source\PSoC4/PWM_Timer.c **** * Return:
 377:.\Generated_Source\PSoC4/PWM_Timer.c **** *  None
 378:.\Generated_Source\PSoC4/PWM_Timer.c **** *
 379:.\Generated_Source\PSoC4/PWM_Timer.c **** *******************************************************************************/
 380:.\Generated_Source\PSoC4/PWM_Timer.c **** void PWM_Timer_SetPrescaler(uint32 prescaler)
 381:.\Generated_Source\PSoC4/PWM_Timer.c **** {
 350              		.loc 1 381 0
 351              		.cfi_startproc
 352 0000 90B5     		push	{r4, r7, lr}
 353              	.LCFI16:
 354              		.cfi_def_cfa_offset 12
 355              		.cfi_offset 4, -12
 356              		.cfi_offset 7, -8
 357              		.cfi_offset 14, -4
 358 0002 85B0     		sub	sp, sp, #20
 359              	.LCFI17:
 360              		.cfi_def_cfa_offset 32
ARM GAS  C:\Users\OEBN\AppData\Local\Temp\cc4YkDS7.s 			page 14


 361 0004 00AF     		add	r7, sp, #0
 362              	.LCFI18:
 363              		.cfi_def_cfa_register 7
 364 0006 7860     		str	r0, [r7, #4]
 382:.\Generated_Source\PSoC4/PWM_Timer.c ****     uint8 enableInterrupts;
 383:.\Generated_Source\PSoC4/PWM_Timer.c **** 
 384:.\Generated_Source\PSoC4/PWM_Timer.c ****     enableInterrupts = CyEnterCriticalSection();
 365              		.loc 1 384 0
 366 0008 3C1C     		mov	r4, r7
 367 000a 0F34     		add	r4, r4, #15
 368 000c FFF7FEFF 		bl	CyEnterCriticalSection
 369 0010 031C     		mov	r3, r0
 370 0012 2370     		strb	r3, [r4]
 385:.\Generated_Source\PSoC4/PWM_Timer.c **** 
 386:.\Generated_Source\PSoC4/PWM_Timer.c ****     PWM_Timer_CONTROL_REG &= (uint32)~PWM_Timer_PRESCALER_MASK;
 371              		.loc 1 386 0
 372 0014 0A4B     		ldr	r3, .L21
 373 0016 0A4A     		ldr	r2, .L21
 374 0018 1168     		ldr	r1, [r2]
 375 001a 0A4A     		ldr	r2, .L21+4
 376 001c 0A40     		and	r2, r1
 377 001e 1A60     		str	r2, [r3]
 387:.\Generated_Source\PSoC4/PWM_Timer.c ****     PWM_Timer_CONTROL_REG |= prescaler;
 378              		.loc 1 387 0
 379 0020 074B     		ldr	r3, .L21
 380 0022 074A     		ldr	r2, .L21
 381 0024 1168     		ldr	r1, [r2]
 382 0026 7A68     		ldr	r2, [r7, #4]
 383 0028 0A43     		orr	r2, r1
 384 002a 1A60     		str	r2, [r3]
 388:.\Generated_Source\PSoC4/PWM_Timer.c **** 
 389:.\Generated_Source\PSoC4/PWM_Timer.c ****     CyExitCriticalSection(enableInterrupts);
 385              		.loc 1 389 0
 386 002c 3B1C     		mov	r3, r7
 387 002e 0F33     		add	r3, r3, #15
 388 0030 1B78     		ldrb	r3, [r3]
 389 0032 181C     		mov	r0, r3
 390 0034 FFF7FEFF 		bl	CyExitCriticalSection
 390:.\Generated_Source\PSoC4/PWM_Timer.c **** }
 391              		.loc 1 390 0
 392 0038 BD46     		mov	sp, r7
 393 003a 05B0     		add	sp, sp, #20
 394              		@ sp needed for prologue
 395 003c 90BD     		pop	{r4, r7, pc}
 396              	.L22:
 397 003e C046     		.align	2
 398              	.L21:
 399 0040 00010540 		.word	1074069760
 400 0044 FF00FFFF 		.word	-65281
 401              		.cfi_endproc
 402              	.LFE6:
 403              		.size	PWM_Timer_SetPrescaler, .-PWM_Timer_SetPrescaler
 404              		.section	.text.PWM_Timer_SetOneShot,"ax",%progbits
 405              		.align	2
 406              		.global	PWM_Timer_SetOneShot
 407              		.code	16
 408              		.thumb_func
ARM GAS  C:\Users\OEBN\AppData\Local\Temp\cc4YkDS7.s 			page 15


 409              		.type	PWM_Timer_SetOneShot, %function
 410              	PWM_Timer_SetOneShot:
 411              	.LFB7:
 391:.\Generated_Source\PSoC4/PWM_Timer.c **** 
 392:.\Generated_Source\PSoC4/PWM_Timer.c **** 
 393:.\Generated_Source\PSoC4/PWM_Timer.c **** /*******************************************************************************
 394:.\Generated_Source\PSoC4/PWM_Timer.c **** * Function Name: PWM_Timer_SetOneShot
 395:.\Generated_Source\PSoC4/PWM_Timer.c **** ********************************************************************************
 396:.\Generated_Source\PSoC4/PWM_Timer.c **** *
 397:.\Generated_Source\PSoC4/PWM_Timer.c **** * Summary:
 398:.\Generated_Source\PSoC4/PWM_Timer.c **** *  Writes the register that controls whether the PWM_Timer runs
 399:.\Generated_Source\PSoC4/PWM_Timer.c **** *  continuously or stops when terminal count is reached.  By default the
 400:.\Generated_Source\PSoC4/PWM_Timer.c **** *  PWM_Timer operates in the continuous mode.
 401:.\Generated_Source\PSoC4/PWM_Timer.c **** *
 402:.\Generated_Source\PSoC4/PWM_Timer.c **** * Parameters:
 403:.\Generated_Source\PSoC4/PWM_Timer.c **** *  oneShotEnable
 404:.\Generated_Source\PSoC4/PWM_Timer.c **** *   Values:
 405:.\Generated_Source\PSoC4/PWM_Timer.c **** *     - 0 - Continuous
 406:.\Generated_Source\PSoC4/PWM_Timer.c **** *     - 1 - Enable One Shot
 407:.\Generated_Source\PSoC4/PWM_Timer.c **** *
 408:.\Generated_Source\PSoC4/PWM_Timer.c **** * Return:
 409:.\Generated_Source\PSoC4/PWM_Timer.c **** *  None
 410:.\Generated_Source\PSoC4/PWM_Timer.c **** *
 411:.\Generated_Source\PSoC4/PWM_Timer.c **** *******************************************************************************/
 412:.\Generated_Source\PSoC4/PWM_Timer.c **** void PWM_Timer_SetOneShot(uint32 oneShotEnable)
 413:.\Generated_Source\PSoC4/PWM_Timer.c **** {
 412              		.loc 1 413 0
 413              		.cfi_startproc
 414 0000 90B5     		push	{r4, r7, lr}
 415              	.LCFI19:
 416              		.cfi_def_cfa_offset 12
 417              		.cfi_offset 4, -12
 418              		.cfi_offset 7, -8
 419              		.cfi_offset 14, -4
 420 0002 85B0     		sub	sp, sp, #20
 421              	.LCFI20:
 422              		.cfi_def_cfa_offset 32
 423 0004 00AF     		add	r7, sp, #0
 424              	.LCFI21:
 425              		.cfi_def_cfa_register 7
 426 0006 7860     		str	r0, [r7, #4]
 414:.\Generated_Source\PSoC4/PWM_Timer.c ****     uint8 enableInterrupts;
 415:.\Generated_Source\PSoC4/PWM_Timer.c **** 
 416:.\Generated_Source\PSoC4/PWM_Timer.c ****     enableInterrupts = CyEnterCriticalSection();
 427              		.loc 1 416 0
 428 0008 3C1C     		mov	r4, r7
 429 000a 0F34     		add	r4, r4, #15
 430 000c FFF7FEFF 		bl	CyEnterCriticalSection
 431 0010 031C     		mov	r3, r0
 432 0012 2370     		strb	r3, [r4]
 417:.\Generated_Source\PSoC4/PWM_Timer.c **** 
 418:.\Generated_Source\PSoC4/PWM_Timer.c ****     PWM_Timer_CONTROL_REG &= (uint32)~PWM_Timer_ONESHOT_MASK;
 433              		.loc 1 418 0
 434 0014 0B4B     		ldr	r3, .L24
 435 0016 0B4A     		ldr	r2, .L24
 436 0018 1168     		ldr	r1, [r2]
 437 001a 0B4A     		ldr	r2, .L24+4
ARM GAS  C:\Users\OEBN\AppData\Local\Temp\cc4YkDS7.s 			page 16


 438 001c 0A40     		and	r2, r1
 439 001e 1A60     		str	r2, [r3]
 419:.\Generated_Source\PSoC4/PWM_Timer.c ****     PWM_Timer_CONTROL_REG |= ((uint32)((oneShotEnable & PWM_Timer_1BIT_MASK) <<
 440              		.loc 1 419 0
 441 0020 084B     		ldr	r3, .L24
 442 0022 084A     		ldr	r2, .L24
 443 0024 1168     		ldr	r1, [r2]
 444 0026 7868     		ldr	r0, [r7, #4]
 445 0028 0122     		mov	r2, #1
 446 002a 0240     		and	r2, r0
 447 002c 9204     		lsl	r2, r2, #18
 448 002e 0A43     		orr	r2, r1
 449 0030 1A60     		str	r2, [r3]
 420:.\Generated_Source\PSoC4/PWM_Timer.c ****                                                                PWM_Timer_ONESHOT_SHIFT));
 421:.\Generated_Source\PSoC4/PWM_Timer.c **** 
 422:.\Generated_Source\PSoC4/PWM_Timer.c ****     CyExitCriticalSection(enableInterrupts);
 450              		.loc 1 422 0
 451 0032 3B1C     		mov	r3, r7
 452 0034 0F33     		add	r3, r3, #15
 453 0036 1B78     		ldrb	r3, [r3]
 454 0038 181C     		mov	r0, r3
 455 003a FFF7FEFF 		bl	CyExitCriticalSection
 423:.\Generated_Source\PSoC4/PWM_Timer.c **** }
 456              		.loc 1 423 0
 457 003e BD46     		mov	sp, r7
 458 0040 05B0     		add	sp, sp, #20
 459              		@ sp needed for prologue
 460 0042 90BD     		pop	{r4, r7, pc}
 461              	.L25:
 462              		.align	2
 463              	.L24:
 464 0044 00010540 		.word	1074069760
 465 0048 FFFFFBFF 		.word	-262145
 466              		.cfi_endproc
 467              	.LFE7:
 468              		.size	PWM_Timer_SetOneShot, .-PWM_Timer_SetOneShot
 469              		.section	.text.PWM_Timer_SetPWMMode,"ax",%progbits
 470              		.align	2
 471              		.global	PWM_Timer_SetPWMMode
 472              		.code	16
 473              		.thumb_func
 474              		.type	PWM_Timer_SetPWMMode, %function
 475              	PWM_Timer_SetPWMMode:
 476              	.LFB8:
 424:.\Generated_Source\PSoC4/PWM_Timer.c **** 
 425:.\Generated_Source\PSoC4/PWM_Timer.c **** 
 426:.\Generated_Source\PSoC4/PWM_Timer.c **** /*******************************************************************************
 427:.\Generated_Source\PSoC4/PWM_Timer.c **** * Function Name: PWM_Timer_SetPWMMode
 428:.\Generated_Source\PSoC4/PWM_Timer.c **** ********************************************************************************
 429:.\Generated_Source\PSoC4/PWM_Timer.c **** *
 430:.\Generated_Source\PSoC4/PWM_Timer.c **** * Summary:
 431:.\Generated_Source\PSoC4/PWM_Timer.c **** *  Writes the control register that determines what mode of operation the PWM
 432:.\Generated_Source\PSoC4/PWM_Timer.c **** *  output lines are driven in.  There is a setting for what to do on a
 433:.\Generated_Source\PSoC4/PWM_Timer.c **** *  comparison match (CC_MATCH), on an overflow (OVERFLOW) and on an underflow
 434:.\Generated_Source\PSoC4/PWM_Timer.c **** *  (UNDERFLOW).  The value for each of the three must be ORed together to form
 435:.\Generated_Source\PSoC4/PWM_Timer.c **** *  the mode.
 436:.\Generated_Source\PSoC4/PWM_Timer.c **** *
ARM GAS  C:\Users\OEBN\AppData\Local\Temp\cc4YkDS7.s 			page 17


 437:.\Generated_Source\PSoC4/PWM_Timer.c **** * Parameters:
 438:.\Generated_Source\PSoC4/PWM_Timer.c **** *  modeMask: A combination of three mode settings.  Mask must include a value
 439:.\Generated_Source\PSoC4/PWM_Timer.c **** *  for each of the three or use one of the preconfigured PWM settings.
 440:.\Generated_Source\PSoC4/PWM_Timer.c **** *   Values:
 441:.\Generated_Source\PSoC4/PWM_Timer.c **** *     - CC_MATCH_SET        - Set on comparison match
 442:.\Generated_Source\PSoC4/PWM_Timer.c **** *     - CC_MATCH_CLEAR      - Clear on comparison match
 443:.\Generated_Source\PSoC4/PWM_Timer.c **** *     - CC_MATCH_INVERT     - Invert on comparison match
 444:.\Generated_Source\PSoC4/PWM_Timer.c **** *     - CC_MATCH_NO_CHANGE  - No change on comparison match
 445:.\Generated_Source\PSoC4/PWM_Timer.c **** *     - OVERLOW_SET         - Set on overflow
 446:.\Generated_Source\PSoC4/PWM_Timer.c **** *     - OVERLOW_CLEAR       - Clear on  overflow
 447:.\Generated_Source\PSoC4/PWM_Timer.c **** *     - OVERLOW_INVERT      - Invert on overflow
 448:.\Generated_Source\PSoC4/PWM_Timer.c **** *     - OVERLOW_NO_CHANGE   - No change on overflow
 449:.\Generated_Source\PSoC4/PWM_Timer.c **** *     - UNDERFLOW_SET       - Set on underflow
 450:.\Generated_Source\PSoC4/PWM_Timer.c **** *     - UNDERFLOW_CLEAR     - Clear on underflow
 451:.\Generated_Source\PSoC4/PWM_Timer.c **** *     - UNDERFLOW_INVERT    - Invert on underflow
 452:.\Generated_Source\PSoC4/PWM_Timer.c **** *     - UNDERFLOW_NO_CHANGE - No change on underflow
 453:.\Generated_Source\PSoC4/PWM_Timer.c **** *     - PWM_MODE_LEFT       - Setting for left aligned PWM.  Should be combined
 454:.\Generated_Source\PSoC4/PWM_Timer.c **** *                             with up counting mode
 455:.\Generated_Source\PSoC4/PWM_Timer.c **** *     - PWM_MODE_RIGHT      - Setting for right aligned PWM.  Should be combined
 456:.\Generated_Source\PSoC4/PWM_Timer.c **** *                             with down counting mode
 457:.\Generated_Source\PSoC4/PWM_Timer.c **** *     - PWM_MODE_CENTER     - Setting for center aligned PWM.  Should be
 458:.\Generated_Source\PSoC4/PWM_Timer.c **** *                             combined with up/down 0 mode
 459:.\Generated_Source\PSoC4/PWM_Timer.c **** *     - PWM_MODE_ASYM       - Setting for asymmetric PWM.  Should be combined
 460:.\Generated_Source\PSoC4/PWM_Timer.c **** *                             with up/down 1 mode
 461:.\Generated_Source\PSoC4/PWM_Timer.c **** *
 462:.\Generated_Source\PSoC4/PWM_Timer.c **** * Return:
 463:.\Generated_Source\PSoC4/PWM_Timer.c **** *  None
 464:.\Generated_Source\PSoC4/PWM_Timer.c **** *
 465:.\Generated_Source\PSoC4/PWM_Timer.c **** *******************************************************************************/
 466:.\Generated_Source\PSoC4/PWM_Timer.c **** void PWM_Timer_SetPWMMode(uint32 modeMask)
 467:.\Generated_Source\PSoC4/PWM_Timer.c **** {
 477              		.loc 1 467 0
 478              		.cfi_startproc
 479 0000 80B5     		push	{r7, lr}
 480              	.LCFI22:
 481              		.cfi_def_cfa_offset 8
 482              		.cfi_offset 7, -8
 483              		.cfi_offset 14, -4
 484 0002 82B0     		sub	sp, sp, #8
 485              	.LCFI23:
 486              		.cfi_def_cfa_offset 16
 487 0004 00AF     		add	r7, sp, #0
 488              	.LCFI24:
 489              		.cfi_def_cfa_register 7
 490 0006 7860     		str	r0, [r7, #4]
 468:.\Generated_Source\PSoC4/PWM_Timer.c ****     PWM_Timer_TRIG_CONTROL2_REG = (modeMask & PWM_Timer_6BIT_MASK);
 491              		.loc 1 468 0
 492 0008 034B     		ldr	r3, .L27
 493 000a 7968     		ldr	r1, [r7, #4]
 494 000c 3F22     		mov	r2, #63
 495 000e 0A40     		and	r2, r1
 496 0010 1A60     		str	r2, [r3]
 469:.\Generated_Source\PSoC4/PWM_Timer.c **** }
 497              		.loc 1 469 0
 498 0012 BD46     		mov	sp, r7
 499 0014 02B0     		add	sp, sp, #8
 500              		@ sp needed for prologue
ARM GAS  C:\Users\OEBN\AppData\Local\Temp\cc4YkDS7.s 			page 18


 501 0016 80BD     		pop	{r7, pc}
 502              	.L28:
 503              		.align	2
 504              	.L27:
 505 0018 28010540 		.word	1074069800
 506              		.cfi_endproc
 507              	.LFE8:
 508              		.size	PWM_Timer_SetPWMMode, .-PWM_Timer_SetPWMMode
 509              		.section	.text.PWM_Timer_SetPWMSyncKill,"ax",%progbits
 510              		.align	2
 511              		.global	PWM_Timer_SetPWMSyncKill
 512              		.code	16
 513              		.thumb_func
 514              		.type	PWM_Timer_SetPWMSyncKill, %function
 515              	PWM_Timer_SetPWMSyncKill:
 516              	.LFB9:
 470:.\Generated_Source\PSoC4/PWM_Timer.c **** 
 471:.\Generated_Source\PSoC4/PWM_Timer.c **** 
 472:.\Generated_Source\PSoC4/PWM_Timer.c **** 
 473:.\Generated_Source\PSoC4/PWM_Timer.c **** /*******************************************************************************
 474:.\Generated_Source\PSoC4/PWM_Timer.c **** * Function Name: PWM_Timer_SetPWMSyncKill
 475:.\Generated_Source\PSoC4/PWM_Timer.c **** ********************************************************************************
 476:.\Generated_Source\PSoC4/PWM_Timer.c **** *
 477:.\Generated_Source\PSoC4/PWM_Timer.c **** * Summary:
 478:.\Generated_Source\PSoC4/PWM_Timer.c **** *  Writes the register that controls whether the PWM kill signal (stop input)
 479:.\Generated_Source\PSoC4/PWM_Timer.c **** *  causes asynchronous or synchronous kill operation.  By default the kill
 480:.\Generated_Source\PSoC4/PWM_Timer.c **** *  operation is asynchronous.  This functionality is only applicable to the PWM
 481:.\Generated_Source\PSoC4/PWM_Timer.c **** *  and PWM with dead time modes.
 482:.\Generated_Source\PSoC4/PWM_Timer.c **** *
 483:.\Generated_Source\PSoC4/PWM_Timer.c **** *  For Synchronous mode the kill signal disables both the line and line_n
 484:.\Generated_Source\PSoC4/PWM_Timer.c **** *  signals until the next terminal count.
 485:.\Generated_Source\PSoC4/PWM_Timer.c **** *
 486:.\Generated_Source\PSoC4/PWM_Timer.c **** *  For Asynchronous mode the kill signal disables both the line and line_n
 487:.\Generated_Source\PSoC4/PWM_Timer.c **** *  signals when the kill signal is present.  This mode should only be used
 488:.\Generated_Source\PSoC4/PWM_Timer.c **** *  when the kill signal (stop input) is configured in the pass through mode
 489:.\Generated_Source\PSoC4/PWM_Timer.c **** *  (Level sensitive signal).
 490:.\Generated_Source\PSoC4/PWM_Timer.c **** 
 491:.\Generated_Source\PSoC4/PWM_Timer.c **** *
 492:.\Generated_Source\PSoC4/PWM_Timer.c **** * Parameters:
 493:.\Generated_Source\PSoC4/PWM_Timer.c **** *  syncKillEnable
 494:.\Generated_Source\PSoC4/PWM_Timer.c **** *   Values:
 495:.\Generated_Source\PSoC4/PWM_Timer.c **** *     - 0 - Asynchronous
 496:.\Generated_Source\PSoC4/PWM_Timer.c **** *     - 1 - Synchronous
 497:.\Generated_Source\PSoC4/PWM_Timer.c **** *
 498:.\Generated_Source\PSoC4/PWM_Timer.c **** * Return:
 499:.\Generated_Source\PSoC4/PWM_Timer.c **** *  None
 500:.\Generated_Source\PSoC4/PWM_Timer.c **** *
 501:.\Generated_Source\PSoC4/PWM_Timer.c **** *******************************************************************************/
 502:.\Generated_Source\PSoC4/PWM_Timer.c **** void PWM_Timer_SetPWMSyncKill(uint32 syncKillEnable)
 503:.\Generated_Source\PSoC4/PWM_Timer.c **** {
 517              		.loc 1 503 0
 518              		.cfi_startproc
 519 0000 90B5     		push	{r4, r7, lr}
 520              	.LCFI25:
 521              		.cfi_def_cfa_offset 12
 522              		.cfi_offset 4, -12
 523              		.cfi_offset 7, -8
ARM GAS  C:\Users\OEBN\AppData\Local\Temp\cc4YkDS7.s 			page 19


 524              		.cfi_offset 14, -4
 525 0002 85B0     		sub	sp, sp, #20
 526              	.LCFI26:
 527              		.cfi_def_cfa_offset 32
 528 0004 00AF     		add	r7, sp, #0
 529              	.LCFI27:
 530              		.cfi_def_cfa_register 7
 531 0006 7860     		str	r0, [r7, #4]
 504:.\Generated_Source\PSoC4/PWM_Timer.c ****     uint8 enableInterrupts;
 505:.\Generated_Source\PSoC4/PWM_Timer.c **** 
 506:.\Generated_Source\PSoC4/PWM_Timer.c ****     enableInterrupts = CyEnterCriticalSection();
 532              		.loc 1 506 0
 533 0008 3C1C     		mov	r4, r7
 534 000a 0F34     		add	r4, r4, #15
 535 000c FFF7FEFF 		bl	CyEnterCriticalSection
 536 0010 031C     		mov	r3, r0
 537 0012 2370     		strb	r3, [r4]
 507:.\Generated_Source\PSoC4/PWM_Timer.c **** 
 508:.\Generated_Source\PSoC4/PWM_Timer.c ****     PWM_Timer_CONTROL_REG &= (uint32)~PWM_Timer_PWM_SYNC_KILL_MASK;
 538              		.loc 1 508 0
 539 0014 0B4B     		ldr	r3, .L30
 540 0016 0B4A     		ldr	r2, .L30
 541 0018 1268     		ldr	r2, [r2]
 542 001a 0421     		mov	r1, #4
 543 001c 8A43     		bic	r2, r1
 544 001e 1A60     		str	r2, [r3]
 509:.\Generated_Source\PSoC4/PWM_Timer.c ****     PWM_Timer_CONTROL_REG |= ((uint32)((syncKillEnable & PWM_Timer_1BIT_MASK)  <<
 545              		.loc 1 509 0
 546 0020 084B     		ldr	r3, .L30
 547 0022 084A     		ldr	r2, .L30
 548 0024 1168     		ldr	r1, [r2]
 549 0026 7868     		ldr	r0, [r7, #4]
 550 0028 0122     		mov	r2, #1
 551 002a 0240     		and	r2, r0
 552 002c 9200     		lsl	r2, r2, #2
 553 002e 0A43     		orr	r2, r1
 554 0030 1A60     		str	r2, [r3]
 510:.\Generated_Source\PSoC4/PWM_Timer.c ****                                                PWM_Timer_PWM_SYNC_KILL_SHIFT));
 511:.\Generated_Source\PSoC4/PWM_Timer.c **** 
 512:.\Generated_Source\PSoC4/PWM_Timer.c ****     CyExitCriticalSection(enableInterrupts);
 555              		.loc 1 512 0
 556 0032 3B1C     		mov	r3, r7
 557 0034 0F33     		add	r3, r3, #15
 558 0036 1B78     		ldrb	r3, [r3]
 559 0038 181C     		mov	r0, r3
 560 003a FFF7FEFF 		bl	CyExitCriticalSection
 513:.\Generated_Source\PSoC4/PWM_Timer.c **** }
 561              		.loc 1 513 0
 562 003e BD46     		mov	sp, r7
 563 0040 05B0     		add	sp, sp, #20
 564              		@ sp needed for prologue
 565 0042 90BD     		pop	{r4, r7, pc}
 566              	.L31:
 567              		.align	2
 568              	.L30:
 569 0044 00010540 		.word	1074069760
 570              		.cfi_endproc
ARM GAS  C:\Users\OEBN\AppData\Local\Temp\cc4YkDS7.s 			page 20


 571              	.LFE9:
 572              		.size	PWM_Timer_SetPWMSyncKill, .-PWM_Timer_SetPWMSyncKill
 573              		.section	.text.PWM_Timer_SetPWMStopOnKill,"ax",%progbits
 574              		.align	2
 575              		.global	PWM_Timer_SetPWMStopOnKill
 576              		.code	16
 577              		.thumb_func
 578              		.type	PWM_Timer_SetPWMStopOnKill, %function
 579              	PWM_Timer_SetPWMStopOnKill:
 580              	.LFB10:
 514:.\Generated_Source\PSoC4/PWM_Timer.c **** 
 515:.\Generated_Source\PSoC4/PWM_Timer.c **** 
 516:.\Generated_Source\PSoC4/PWM_Timer.c **** /*******************************************************************************
 517:.\Generated_Source\PSoC4/PWM_Timer.c **** * Function Name: PWM_Timer_SetPWMStopOnKill
 518:.\Generated_Source\PSoC4/PWM_Timer.c **** ********************************************************************************
 519:.\Generated_Source\PSoC4/PWM_Timer.c **** *
 520:.\Generated_Source\PSoC4/PWM_Timer.c **** * Summary:
 521:.\Generated_Source\PSoC4/PWM_Timer.c **** *  Writes the register that controls whether the PWM kill signal (stop input)
 522:.\Generated_Source\PSoC4/PWM_Timer.c **** *  causes the PWM counter to stop.  By default the kill operation does not stop
 523:.\Generated_Source\PSoC4/PWM_Timer.c **** *  the counter.  This functionality is only applicable to the three PWM modes.
 524:.\Generated_Source\PSoC4/PWM_Timer.c **** *
 525:.\Generated_Source\PSoC4/PWM_Timer.c **** *
 526:.\Generated_Source\PSoC4/PWM_Timer.c **** * Parameters:
 527:.\Generated_Source\PSoC4/PWM_Timer.c **** *  stopOnKillEnable
 528:.\Generated_Source\PSoC4/PWM_Timer.c **** *   Values:
 529:.\Generated_Source\PSoC4/PWM_Timer.c **** *     - 0 - Don't stop
 530:.\Generated_Source\PSoC4/PWM_Timer.c **** *     - 1 - Stop
 531:.\Generated_Source\PSoC4/PWM_Timer.c **** *
 532:.\Generated_Source\PSoC4/PWM_Timer.c **** * Return:
 533:.\Generated_Source\PSoC4/PWM_Timer.c **** *  None
 534:.\Generated_Source\PSoC4/PWM_Timer.c **** *
 535:.\Generated_Source\PSoC4/PWM_Timer.c **** *******************************************************************************/
 536:.\Generated_Source\PSoC4/PWM_Timer.c **** void PWM_Timer_SetPWMStopOnKill(uint32 stopOnKillEnable)
 537:.\Generated_Source\PSoC4/PWM_Timer.c **** {
 581              		.loc 1 537 0
 582              		.cfi_startproc
 583 0000 90B5     		push	{r4, r7, lr}
 584              	.LCFI28:
 585              		.cfi_def_cfa_offset 12
 586              		.cfi_offset 4, -12
 587              		.cfi_offset 7, -8
 588              		.cfi_offset 14, -4
 589 0002 85B0     		sub	sp, sp, #20
 590              	.LCFI29:
 591              		.cfi_def_cfa_offset 32
 592 0004 00AF     		add	r7, sp, #0
 593              	.LCFI30:
 594              		.cfi_def_cfa_register 7
 595 0006 7860     		str	r0, [r7, #4]
 538:.\Generated_Source\PSoC4/PWM_Timer.c ****     uint8 enableInterrupts;
 539:.\Generated_Source\PSoC4/PWM_Timer.c **** 
 540:.\Generated_Source\PSoC4/PWM_Timer.c ****     enableInterrupts = CyEnterCriticalSection();
 596              		.loc 1 540 0
 597 0008 3C1C     		mov	r4, r7
 598 000a 0F34     		add	r4, r4, #15
 599 000c FFF7FEFF 		bl	CyEnterCriticalSection
 600 0010 031C     		mov	r3, r0
ARM GAS  C:\Users\OEBN\AppData\Local\Temp\cc4YkDS7.s 			page 21


 601 0012 2370     		strb	r3, [r4]
 541:.\Generated_Source\PSoC4/PWM_Timer.c **** 
 542:.\Generated_Source\PSoC4/PWM_Timer.c ****     PWM_Timer_CONTROL_REG &= (uint32)~PWM_Timer_PWM_STOP_KILL_MASK;
 602              		.loc 1 542 0
 603 0014 0B4B     		ldr	r3, .L33
 604 0016 0B4A     		ldr	r2, .L33
 605 0018 1268     		ldr	r2, [r2]
 606 001a 0821     		mov	r1, #8
 607 001c 8A43     		bic	r2, r1
 608 001e 1A60     		str	r2, [r3]
 543:.\Generated_Source\PSoC4/PWM_Timer.c ****     PWM_Timer_CONTROL_REG |= ((uint32)((stopOnKillEnable & PWM_Timer_1BIT_MASK)  <<
 609              		.loc 1 543 0
 610 0020 084B     		ldr	r3, .L33
 611 0022 084A     		ldr	r2, .L33
 612 0024 1168     		ldr	r1, [r2]
 613 0026 7868     		ldr	r0, [r7, #4]
 614 0028 0122     		mov	r2, #1
 615 002a 0240     		and	r2, r0
 616 002c D200     		lsl	r2, r2, #3
 617 002e 0A43     		orr	r2, r1
 618 0030 1A60     		str	r2, [r3]
 544:.\Generated_Source\PSoC4/PWM_Timer.c ****                                                          PWM_Timer_PWM_STOP_KILL_SHIFT));
 545:.\Generated_Source\PSoC4/PWM_Timer.c **** 
 546:.\Generated_Source\PSoC4/PWM_Timer.c ****     CyExitCriticalSection(enableInterrupts);
 619              		.loc 1 546 0
 620 0032 3B1C     		mov	r3, r7
 621 0034 0F33     		add	r3, r3, #15
 622 0036 1B78     		ldrb	r3, [r3]
 623 0038 181C     		mov	r0, r3
 624 003a FFF7FEFF 		bl	CyExitCriticalSection
 547:.\Generated_Source\PSoC4/PWM_Timer.c **** }
 625              		.loc 1 547 0
 626 003e BD46     		mov	sp, r7
 627 0040 05B0     		add	sp, sp, #20
 628              		@ sp needed for prologue
 629 0042 90BD     		pop	{r4, r7, pc}
 630              	.L34:
 631              		.align	2
 632              	.L33:
 633 0044 00010540 		.word	1074069760
 634              		.cfi_endproc
 635              	.LFE10:
 636              		.size	PWM_Timer_SetPWMStopOnKill, .-PWM_Timer_SetPWMStopOnKill
 637              		.section	.text.PWM_Timer_SetPWMDeadTime,"ax",%progbits
 638              		.align	2
 639              		.global	PWM_Timer_SetPWMDeadTime
 640              		.code	16
 641              		.thumb_func
 642              		.type	PWM_Timer_SetPWMDeadTime, %function
 643              	PWM_Timer_SetPWMDeadTime:
 644              	.LFB11:
 548:.\Generated_Source\PSoC4/PWM_Timer.c **** 
 549:.\Generated_Source\PSoC4/PWM_Timer.c **** 
 550:.\Generated_Source\PSoC4/PWM_Timer.c **** /*******************************************************************************
 551:.\Generated_Source\PSoC4/PWM_Timer.c **** * Function Name: PWM_Timer_SetPWMDeadTime
 552:.\Generated_Source\PSoC4/PWM_Timer.c **** ********************************************************************************
 553:.\Generated_Source\PSoC4/PWM_Timer.c **** *
ARM GAS  C:\Users\OEBN\AppData\Local\Temp\cc4YkDS7.s 			page 22


 554:.\Generated_Source\PSoC4/PWM_Timer.c **** * Summary:
 555:.\Generated_Source\PSoC4/PWM_Timer.c **** *  Writes the dead time control value.  This value delays the rising edge of
 556:.\Generated_Source\PSoC4/PWM_Timer.c **** *  both the line and line_n signals the designated number of cycles resulting
 557:.\Generated_Source\PSoC4/PWM_Timer.c **** *  in both signals being inactive for that many cycles.  This functionality is
 558:.\Generated_Source\PSoC4/PWM_Timer.c **** *  only applicable to the PWM in the dead time mode.
 559:.\Generated_Source\PSoC4/PWM_Timer.c **** 
 560:.\Generated_Source\PSoC4/PWM_Timer.c **** *
 561:.\Generated_Source\PSoC4/PWM_Timer.c **** * Parameters:
 562:.\Generated_Source\PSoC4/PWM_Timer.c **** *  Dead time to insert
 563:.\Generated_Source\PSoC4/PWM_Timer.c **** *   Values: 0 to 255
 564:.\Generated_Source\PSoC4/PWM_Timer.c **** *
 565:.\Generated_Source\PSoC4/PWM_Timer.c **** * Return:
 566:.\Generated_Source\PSoC4/PWM_Timer.c **** *  None
 567:.\Generated_Source\PSoC4/PWM_Timer.c **** *
 568:.\Generated_Source\PSoC4/PWM_Timer.c **** *******************************************************************************/
 569:.\Generated_Source\PSoC4/PWM_Timer.c **** void PWM_Timer_SetPWMDeadTime(uint32 deadTime)
 570:.\Generated_Source\PSoC4/PWM_Timer.c **** {
 645              		.loc 1 570 0
 646              		.cfi_startproc
 647 0000 90B5     		push	{r4, r7, lr}
 648              	.LCFI31:
 649              		.cfi_def_cfa_offset 12
 650              		.cfi_offset 4, -12
 651              		.cfi_offset 7, -8
 652              		.cfi_offset 14, -4
 653 0002 85B0     		sub	sp, sp, #20
 654              	.LCFI32:
 655              		.cfi_def_cfa_offset 32
 656 0004 00AF     		add	r7, sp, #0
 657              	.LCFI33:
 658              		.cfi_def_cfa_register 7
 659 0006 7860     		str	r0, [r7, #4]
 571:.\Generated_Source\PSoC4/PWM_Timer.c ****     uint8 enableInterrupts;
 572:.\Generated_Source\PSoC4/PWM_Timer.c **** 
 573:.\Generated_Source\PSoC4/PWM_Timer.c ****     enableInterrupts = CyEnterCriticalSection();
 660              		.loc 1 573 0
 661 0008 3C1C     		mov	r4, r7
 662 000a 0F34     		add	r4, r4, #15
 663 000c FFF7FEFF 		bl	CyEnterCriticalSection
 664 0010 031C     		mov	r3, r0
 665 0012 2370     		strb	r3, [r4]
 574:.\Generated_Source\PSoC4/PWM_Timer.c **** 
 575:.\Generated_Source\PSoC4/PWM_Timer.c ****     PWM_Timer_CONTROL_REG &= (uint32)~PWM_Timer_PRESCALER_MASK;
 666              		.loc 1 575 0
 667 0014 0B4B     		ldr	r3, .L36
 668 0016 0B4A     		ldr	r2, .L36
 669 0018 1168     		ldr	r1, [r2]
 670 001a 0B4A     		ldr	r2, .L36+4
 671 001c 0A40     		and	r2, r1
 672 001e 1A60     		str	r2, [r3]
 576:.\Generated_Source\PSoC4/PWM_Timer.c ****     PWM_Timer_CONTROL_REG |= ((uint32)((deadTime & PWM_Timer_8BIT_MASK) <<
 673              		.loc 1 576 0
 674 0020 084B     		ldr	r3, .L36
 675 0022 084A     		ldr	r2, .L36
 676 0024 1168     		ldr	r1, [r2]
 677 0026 7A68     		ldr	r2, [r7, #4]
 678 0028 1202     		lsl	r2, r2, #8
ARM GAS  C:\Users\OEBN\AppData\Local\Temp\cc4YkDS7.s 			page 23


 679 002a 1204     		lsl	r2, r2, #16
 680 002c 120C     		lsr	r2, r2, #16
 681 002e 0A43     		orr	r2, r1
 682 0030 1A60     		str	r2, [r3]
 577:.\Generated_Source\PSoC4/PWM_Timer.c ****                                                           PWM_Timer_PRESCALER_SHIFT));
 578:.\Generated_Source\PSoC4/PWM_Timer.c **** 
 579:.\Generated_Source\PSoC4/PWM_Timer.c ****     CyExitCriticalSection(enableInterrupts);
 683              		.loc 1 579 0
 684 0032 3B1C     		mov	r3, r7
 685 0034 0F33     		add	r3, r3, #15
 686 0036 1B78     		ldrb	r3, [r3]
 687 0038 181C     		mov	r0, r3
 688 003a FFF7FEFF 		bl	CyExitCriticalSection
 580:.\Generated_Source\PSoC4/PWM_Timer.c **** }
 689              		.loc 1 580 0
 690 003e BD46     		mov	sp, r7
 691 0040 05B0     		add	sp, sp, #20
 692              		@ sp needed for prologue
 693 0042 90BD     		pop	{r4, r7, pc}
 694              	.L37:
 695              		.align	2
 696              	.L36:
 697 0044 00010540 		.word	1074069760
 698 0048 FF00FFFF 		.word	-65281
 699              		.cfi_endproc
 700              	.LFE11:
 701              		.size	PWM_Timer_SetPWMDeadTime, .-PWM_Timer_SetPWMDeadTime
 702              		.section	.text.PWM_Timer_SetPWMInvert,"ax",%progbits
 703              		.align	2
 704              		.global	PWM_Timer_SetPWMInvert
 705              		.code	16
 706              		.thumb_func
 707              		.type	PWM_Timer_SetPWMInvert, %function
 708              	PWM_Timer_SetPWMInvert:
 709              	.LFB12:
 581:.\Generated_Source\PSoC4/PWM_Timer.c **** 
 582:.\Generated_Source\PSoC4/PWM_Timer.c **** 
 583:.\Generated_Source\PSoC4/PWM_Timer.c **** /*******************************************************************************
 584:.\Generated_Source\PSoC4/PWM_Timer.c **** * Function Name: PWM_Timer_SetPWMInvert
 585:.\Generated_Source\PSoC4/PWM_Timer.c **** ********************************************************************************
 586:.\Generated_Source\PSoC4/PWM_Timer.c **** *
 587:.\Generated_Source\PSoC4/PWM_Timer.c **** * Summary:
 588:.\Generated_Source\PSoC4/PWM_Timer.c **** *  Writes the bits that control whether the line and line_n outputs are
 589:.\Generated_Source\PSoC4/PWM_Timer.c **** *  inverted from their normal output values.  This functionality is only
 590:.\Generated_Source\PSoC4/PWM_Timer.c **** *  applicable to the three PWM modes.
 591:.\Generated_Source\PSoC4/PWM_Timer.c **** *
 592:.\Generated_Source\PSoC4/PWM_Timer.c **** * Parameters:
 593:.\Generated_Source\PSoC4/PWM_Timer.c **** *  mask: Mask of outputs to invert.
 594:.\Generated_Source\PSoC4/PWM_Timer.c **** *   Values:
 595:.\Generated_Source\PSoC4/PWM_Timer.c **** *         - PWM_Timer_INVERT_LINE   - Inverts the line output
 596:.\Generated_Source\PSoC4/PWM_Timer.c **** *         - PWM_Timer_INVERT_LINE_N - Inverts the line_n output
 597:.\Generated_Source\PSoC4/PWM_Timer.c **** *
 598:.\Generated_Source\PSoC4/PWM_Timer.c **** * Return:
 599:.\Generated_Source\PSoC4/PWM_Timer.c **** *  None
 600:.\Generated_Source\PSoC4/PWM_Timer.c **** *
 601:.\Generated_Source\PSoC4/PWM_Timer.c **** *******************************************************************************/
 602:.\Generated_Source\PSoC4/PWM_Timer.c **** void PWM_Timer_SetPWMInvert(uint32 mask)
ARM GAS  C:\Users\OEBN\AppData\Local\Temp\cc4YkDS7.s 			page 24


 603:.\Generated_Source\PSoC4/PWM_Timer.c **** {
 710              		.loc 1 603 0
 711              		.cfi_startproc
 712 0000 90B5     		push	{r4, r7, lr}
 713              	.LCFI34:
 714              		.cfi_def_cfa_offset 12
 715              		.cfi_offset 4, -12
 716              		.cfi_offset 7, -8
 717              		.cfi_offset 14, -4
 718 0002 85B0     		sub	sp, sp, #20
 719              	.LCFI35:
 720              		.cfi_def_cfa_offset 32
 721 0004 00AF     		add	r7, sp, #0
 722              	.LCFI36:
 723              		.cfi_def_cfa_register 7
 724 0006 7860     		str	r0, [r7, #4]
 604:.\Generated_Source\PSoC4/PWM_Timer.c ****     uint8 enableInterrupts;
 605:.\Generated_Source\PSoC4/PWM_Timer.c **** 
 606:.\Generated_Source\PSoC4/PWM_Timer.c ****     enableInterrupts = CyEnterCriticalSection();
 725              		.loc 1 606 0
 726 0008 3C1C     		mov	r4, r7
 727 000a 0F34     		add	r4, r4, #15
 728 000c FFF7FEFF 		bl	CyEnterCriticalSection
 729 0010 031C     		mov	r3, r0
 730 0012 2370     		strb	r3, [r4]
 607:.\Generated_Source\PSoC4/PWM_Timer.c **** 
 608:.\Generated_Source\PSoC4/PWM_Timer.c ****     PWM_Timer_CONTROL_REG &= (uint32)~PWM_Timer_INV_OUT_MASK;
 731              		.loc 1 608 0
 732 0014 0A4B     		ldr	r3, .L39
 733 0016 0A4A     		ldr	r2, .L39
 734 0018 1168     		ldr	r1, [r2]
 735 001a 0A4A     		ldr	r2, .L39+4
 736 001c 0A40     		and	r2, r1
 737 001e 1A60     		str	r2, [r3]
 609:.\Generated_Source\PSoC4/PWM_Timer.c ****     PWM_Timer_CONTROL_REG |= mask;
 738              		.loc 1 609 0
 739 0020 074B     		ldr	r3, .L39
 740 0022 074A     		ldr	r2, .L39
 741 0024 1168     		ldr	r1, [r2]
 742 0026 7A68     		ldr	r2, [r7, #4]
 743 0028 0A43     		orr	r2, r1
 744 002a 1A60     		str	r2, [r3]
 610:.\Generated_Source\PSoC4/PWM_Timer.c **** 
 611:.\Generated_Source\PSoC4/PWM_Timer.c ****     CyExitCriticalSection(enableInterrupts);
 745              		.loc 1 611 0
 746 002c 3B1C     		mov	r3, r7
 747 002e 0F33     		add	r3, r3, #15
 748 0030 1B78     		ldrb	r3, [r3]
 749 0032 181C     		mov	r0, r3
 750 0034 FFF7FEFF 		bl	CyExitCriticalSection
 612:.\Generated_Source\PSoC4/PWM_Timer.c **** }
 751              		.loc 1 612 0
 752 0038 BD46     		mov	sp, r7
 753 003a 05B0     		add	sp, sp, #20
 754              		@ sp needed for prologue
 755 003c 90BD     		pop	{r4, r7, pc}
 756              	.L40:
ARM GAS  C:\Users\OEBN\AppData\Local\Temp\cc4YkDS7.s 			page 25


 757 003e C046     		.align	2
 758              	.L39:
 759 0040 00010540 		.word	1074069760
 760 0044 FFFFCFFF 		.word	-3145729
 761              		.cfi_endproc
 762              	.LFE12:
 763              		.size	PWM_Timer_SetPWMInvert, .-PWM_Timer_SetPWMInvert
 764              		.section	.text.PWM_Timer_WriteCounter,"ax",%progbits
 765              		.align	2
 766              		.global	PWM_Timer_WriteCounter
 767              		.code	16
 768              		.thumb_func
 769              		.type	PWM_Timer_WriteCounter, %function
 770              	PWM_Timer_WriteCounter:
 771              	.LFB13:
 613:.\Generated_Source\PSoC4/PWM_Timer.c **** 
 614:.\Generated_Source\PSoC4/PWM_Timer.c **** 
 615:.\Generated_Source\PSoC4/PWM_Timer.c **** 
 616:.\Generated_Source\PSoC4/PWM_Timer.c **** /*******************************************************************************
 617:.\Generated_Source\PSoC4/PWM_Timer.c **** * Function Name: PWM_Timer_WriteCounter
 618:.\Generated_Source\PSoC4/PWM_Timer.c **** ********************************************************************************
 619:.\Generated_Source\PSoC4/PWM_Timer.c **** *
 620:.\Generated_Source\PSoC4/PWM_Timer.c **** * Summary:
 621:.\Generated_Source\PSoC4/PWM_Timer.c **** *  Writes a new 16bit counter value directly into the counter register, thus
 622:.\Generated_Source\PSoC4/PWM_Timer.c **** *  setting the counter (not the period) to the value written. It is not
 623:.\Generated_Source\PSoC4/PWM_Timer.c **** *  advised to write to this field when the counter is running.
 624:.\Generated_Source\PSoC4/PWM_Timer.c **** *
 625:.\Generated_Source\PSoC4/PWM_Timer.c **** * Parameters:
 626:.\Generated_Source\PSoC4/PWM_Timer.c **** *  count: value to write
 627:.\Generated_Source\PSoC4/PWM_Timer.c **** *
 628:.\Generated_Source\PSoC4/PWM_Timer.c **** * Return:
 629:.\Generated_Source\PSoC4/PWM_Timer.c **** *  None
 630:.\Generated_Source\PSoC4/PWM_Timer.c **** *
 631:.\Generated_Source\PSoC4/PWM_Timer.c **** *******************************************************************************/
 632:.\Generated_Source\PSoC4/PWM_Timer.c **** void PWM_Timer_WriteCounter(uint32 count)
 633:.\Generated_Source\PSoC4/PWM_Timer.c **** {
 772              		.loc 1 633 0
 773              		.cfi_startproc
 774 0000 80B5     		push	{r7, lr}
 775              	.LCFI37:
 776              		.cfi_def_cfa_offset 8
 777              		.cfi_offset 7, -8
 778              		.cfi_offset 14, -4
 779 0002 82B0     		sub	sp, sp, #8
 780              	.LCFI38:
 781              		.cfi_def_cfa_offset 16
 782 0004 00AF     		add	r7, sp, #0
 783              	.LCFI39:
 784              		.cfi_def_cfa_register 7
 785 0006 7860     		str	r0, [r7, #4]
 634:.\Generated_Source\PSoC4/PWM_Timer.c ****     PWM_Timer_COUNTER_REG = (count & PWM_Timer_16BIT_MASK);
 786              		.loc 1 634 0
 787 0008 034B     		ldr	r3, .L42
 788 000a 7A68     		ldr	r2, [r7, #4]
 789 000c 1204     		lsl	r2, r2, #16
 790 000e 120C     		lsr	r2, r2, #16
 791 0010 1A60     		str	r2, [r3]
ARM GAS  C:\Users\OEBN\AppData\Local\Temp\cc4YkDS7.s 			page 26


 635:.\Generated_Source\PSoC4/PWM_Timer.c **** }
 792              		.loc 1 635 0
 793 0012 BD46     		mov	sp, r7
 794 0014 02B0     		add	sp, sp, #8
 795              		@ sp needed for prologue
 796 0016 80BD     		pop	{r7, pc}
 797              	.L43:
 798              		.align	2
 799              	.L42:
 800 0018 08010540 		.word	1074069768
 801              		.cfi_endproc
 802              	.LFE13:
 803              		.size	PWM_Timer_WriteCounter, .-PWM_Timer_WriteCounter
 804              		.section	.text.PWM_Timer_ReadCounter,"ax",%progbits
 805              		.align	2
 806              		.global	PWM_Timer_ReadCounter
 807              		.code	16
 808              		.thumb_func
 809              		.type	PWM_Timer_ReadCounter, %function
 810              	PWM_Timer_ReadCounter:
 811              	.LFB14:
 636:.\Generated_Source\PSoC4/PWM_Timer.c **** 
 637:.\Generated_Source\PSoC4/PWM_Timer.c **** 
 638:.\Generated_Source\PSoC4/PWM_Timer.c **** /*******************************************************************************
 639:.\Generated_Source\PSoC4/PWM_Timer.c **** * Function Name: PWM_Timer_ReadCounter
 640:.\Generated_Source\PSoC4/PWM_Timer.c **** ********************************************************************************
 641:.\Generated_Source\PSoC4/PWM_Timer.c **** *
 642:.\Generated_Source\PSoC4/PWM_Timer.c **** * Summary:
 643:.\Generated_Source\PSoC4/PWM_Timer.c **** *  Reads the current counter value.
 644:.\Generated_Source\PSoC4/PWM_Timer.c **** *
 645:.\Generated_Source\PSoC4/PWM_Timer.c **** * Parameters:
 646:.\Generated_Source\PSoC4/PWM_Timer.c **** *  None
 647:.\Generated_Source\PSoC4/PWM_Timer.c **** *
 648:.\Generated_Source\PSoC4/PWM_Timer.c **** * Return:
 649:.\Generated_Source\PSoC4/PWM_Timer.c **** *  Current counter value
 650:.\Generated_Source\PSoC4/PWM_Timer.c **** *
 651:.\Generated_Source\PSoC4/PWM_Timer.c **** *******************************************************************************/
 652:.\Generated_Source\PSoC4/PWM_Timer.c **** uint32 PWM_Timer_ReadCounter(void)
 653:.\Generated_Source\PSoC4/PWM_Timer.c **** {
 812              		.loc 1 653 0
 813              		.cfi_startproc
 814 0000 80B5     		push	{r7, lr}
 815              	.LCFI40:
 816              		.cfi_def_cfa_offset 8
 817              		.cfi_offset 7, -8
 818              		.cfi_offset 14, -4
 819 0002 00AF     		add	r7, sp, #0
 820              	.LCFI41:
 821              		.cfi_def_cfa_register 7
 654:.\Generated_Source\PSoC4/PWM_Timer.c ****     return (PWM_Timer_COUNTER_REG & PWM_Timer_16BIT_MASK);
 822              		.loc 1 654 0
 823 0004 034B     		ldr	r3, .L46
 824 0006 1B68     		ldr	r3, [r3]
 825 0008 1B04     		lsl	r3, r3, #16
 826 000a 1B0C     		lsr	r3, r3, #16
 655:.\Generated_Source\PSoC4/PWM_Timer.c **** }
 827              		.loc 1 655 0
ARM GAS  C:\Users\OEBN\AppData\Local\Temp\cc4YkDS7.s 			page 27


 828 000c 181C     		mov	r0, r3
 829 000e BD46     		mov	sp, r7
 830              		@ sp needed for prologue
 831 0010 80BD     		pop	{r7, pc}
 832              	.L47:
 833 0012 C046     		.align	2
 834              	.L46:
 835 0014 08010540 		.word	1074069768
 836              		.cfi_endproc
 837              	.LFE14:
 838              		.size	PWM_Timer_ReadCounter, .-PWM_Timer_ReadCounter
 839              		.section	.text.PWM_Timer_SetCounterMode,"ax",%progbits
 840              		.align	2
 841              		.global	PWM_Timer_SetCounterMode
 842              		.code	16
 843              		.thumb_func
 844              		.type	PWM_Timer_SetCounterMode, %function
 845              	PWM_Timer_SetCounterMode:
 846              	.LFB15:
 656:.\Generated_Source\PSoC4/PWM_Timer.c **** 
 657:.\Generated_Source\PSoC4/PWM_Timer.c **** 
 658:.\Generated_Source\PSoC4/PWM_Timer.c **** /*******************************************************************************
 659:.\Generated_Source\PSoC4/PWM_Timer.c **** * Function Name: PWM_Timer_SetCounterMode
 660:.\Generated_Source\PSoC4/PWM_Timer.c **** ********************************************************************************
 661:.\Generated_Source\PSoC4/PWM_Timer.c **** *
 662:.\Generated_Source\PSoC4/PWM_Timer.c **** * Summary:
 663:.\Generated_Source\PSoC4/PWM_Timer.c **** *  Sets the counter mode.  Applicable to all modes except Quadrature Decoder
 664:.\Generated_Source\PSoC4/PWM_Timer.c **** *  and the PWM with a pseudo random output.
 665:.\Generated_Source\PSoC4/PWM_Timer.c **** *
 666:.\Generated_Source\PSoC4/PWM_Timer.c **** * Parameters:
 667:.\Generated_Source\PSoC4/PWM_Timer.c **** *  counterMode: Enumerated counter type values
 668:.\Generated_Source\PSoC4/PWM_Timer.c **** *   Values:
 669:.\Generated_Source\PSoC4/PWM_Timer.c **** *     - PWM_Timer_COUNT_UP       - Counts up
 670:.\Generated_Source\PSoC4/PWM_Timer.c **** *     - PWM_Timer_COUNT_DOWN     - Counts down
 671:.\Generated_Source\PSoC4/PWM_Timer.c **** *     - PWM_Timer_COUNT_UPDOWN0  - Counts up and down. Terminal count
 672:.\Generated_Source\PSoC4/PWM_Timer.c **** *                                         generated when counter reaches 0
 673:.\Generated_Source\PSoC4/PWM_Timer.c **** *     - PWM_Timer_COUNT_UPDOWN1  - Counts up and down. Terminal count
 674:.\Generated_Source\PSoC4/PWM_Timer.c **** *                                         generated both when counter reaches 0
 675:.\Generated_Source\PSoC4/PWM_Timer.c **** *                                         and period
 676:.\Generated_Source\PSoC4/PWM_Timer.c **** *
 677:.\Generated_Source\PSoC4/PWM_Timer.c **** * Return:
 678:.\Generated_Source\PSoC4/PWM_Timer.c **** *  None
 679:.\Generated_Source\PSoC4/PWM_Timer.c **** *
 680:.\Generated_Source\PSoC4/PWM_Timer.c **** *******************************************************************************/
 681:.\Generated_Source\PSoC4/PWM_Timer.c **** void PWM_Timer_SetCounterMode(uint32 counterMode)
 682:.\Generated_Source\PSoC4/PWM_Timer.c **** {
 847              		.loc 1 682 0
 848              		.cfi_startproc
 849 0000 90B5     		push	{r4, r7, lr}
 850              	.LCFI42:
 851              		.cfi_def_cfa_offset 12
 852              		.cfi_offset 4, -12
 853              		.cfi_offset 7, -8
 854              		.cfi_offset 14, -4
 855 0002 85B0     		sub	sp, sp, #20
 856              	.LCFI43:
 857              		.cfi_def_cfa_offset 32
ARM GAS  C:\Users\OEBN\AppData\Local\Temp\cc4YkDS7.s 			page 28


 858 0004 00AF     		add	r7, sp, #0
 859              	.LCFI44:
 860              		.cfi_def_cfa_register 7
 861 0006 7860     		str	r0, [r7, #4]
 683:.\Generated_Source\PSoC4/PWM_Timer.c ****     uint8 enableInterrupts;
 684:.\Generated_Source\PSoC4/PWM_Timer.c **** 
 685:.\Generated_Source\PSoC4/PWM_Timer.c ****     enableInterrupts = CyEnterCriticalSection();
 862              		.loc 1 685 0
 863 0008 3C1C     		mov	r4, r7
 864 000a 0F34     		add	r4, r4, #15
 865 000c FFF7FEFF 		bl	CyEnterCriticalSection
 866 0010 031C     		mov	r3, r0
 867 0012 2370     		strb	r3, [r4]
 686:.\Generated_Source\PSoC4/PWM_Timer.c **** 
 687:.\Generated_Source\PSoC4/PWM_Timer.c ****     PWM_Timer_CONTROL_REG &= (uint32)~PWM_Timer_UPDOWN_MASK;
 868              		.loc 1 687 0
 869 0014 0A4B     		ldr	r3, .L49
 870 0016 0A4A     		ldr	r2, .L49
 871 0018 1168     		ldr	r1, [r2]
 872 001a 0A4A     		ldr	r2, .L49+4
 873 001c 0A40     		and	r2, r1
 874 001e 1A60     		str	r2, [r3]
 688:.\Generated_Source\PSoC4/PWM_Timer.c ****     PWM_Timer_CONTROL_REG |= counterMode;
 875              		.loc 1 688 0
 876 0020 074B     		ldr	r3, .L49
 877 0022 074A     		ldr	r2, .L49
 878 0024 1168     		ldr	r1, [r2]
 879 0026 7A68     		ldr	r2, [r7, #4]
 880 0028 0A43     		orr	r2, r1
 881 002a 1A60     		str	r2, [r3]
 689:.\Generated_Source\PSoC4/PWM_Timer.c **** 
 690:.\Generated_Source\PSoC4/PWM_Timer.c ****     CyExitCriticalSection(enableInterrupts);
 882              		.loc 1 690 0
 883 002c 3B1C     		mov	r3, r7
 884 002e 0F33     		add	r3, r3, #15
 885 0030 1B78     		ldrb	r3, [r3]
 886 0032 181C     		mov	r0, r3
 887 0034 FFF7FEFF 		bl	CyExitCriticalSection
 691:.\Generated_Source\PSoC4/PWM_Timer.c **** }
 888              		.loc 1 691 0
 889 0038 BD46     		mov	sp, r7
 890 003a 05B0     		add	sp, sp, #20
 891              		@ sp needed for prologue
 892 003c 90BD     		pop	{r4, r7, pc}
 893              	.L50:
 894 003e C046     		.align	2
 895              	.L49:
 896 0040 00010540 		.word	1074069760
 897 0044 FFFFFCFF 		.word	-196609
 898              		.cfi_endproc
 899              	.LFE15:
 900              		.size	PWM_Timer_SetCounterMode, .-PWM_Timer_SetCounterMode
 901              		.section	.text.PWM_Timer_WritePeriod,"ax",%progbits
 902              		.align	2
 903              		.global	PWM_Timer_WritePeriod
 904              		.code	16
 905              		.thumb_func
ARM GAS  C:\Users\OEBN\AppData\Local\Temp\cc4YkDS7.s 			page 29


 906              		.type	PWM_Timer_WritePeriod, %function
 907              	PWM_Timer_WritePeriod:
 908              	.LFB16:
 692:.\Generated_Source\PSoC4/PWM_Timer.c **** 
 693:.\Generated_Source\PSoC4/PWM_Timer.c **** 
 694:.\Generated_Source\PSoC4/PWM_Timer.c **** /*******************************************************************************
 695:.\Generated_Source\PSoC4/PWM_Timer.c **** * Function Name: PWM_Timer_WritePeriod
 696:.\Generated_Source\PSoC4/PWM_Timer.c **** ********************************************************************************
 697:.\Generated_Source\PSoC4/PWM_Timer.c **** *
 698:.\Generated_Source\PSoC4/PWM_Timer.c **** * Summary:
 699:.\Generated_Source\PSoC4/PWM_Timer.c **** *  Writes the 16 bit period register with the new period value.
 700:.\Generated_Source\PSoC4/PWM_Timer.c **** *  To cause the counter to count for N cycles this register should be written
 701:.\Generated_Source\PSoC4/PWM_Timer.c **** *  with N-1 (counts from 0 to period inclusive).
 702:.\Generated_Source\PSoC4/PWM_Timer.c **** *
 703:.\Generated_Source\PSoC4/PWM_Timer.c **** * Parameters:
 704:.\Generated_Source\PSoC4/PWM_Timer.c **** *  period: Period value
 705:.\Generated_Source\PSoC4/PWM_Timer.c **** *
 706:.\Generated_Source\PSoC4/PWM_Timer.c **** * Return:
 707:.\Generated_Source\PSoC4/PWM_Timer.c **** *  None
 708:.\Generated_Source\PSoC4/PWM_Timer.c **** *
 709:.\Generated_Source\PSoC4/PWM_Timer.c **** *******************************************************************************/
 710:.\Generated_Source\PSoC4/PWM_Timer.c **** void PWM_Timer_WritePeriod(uint32 period)
 711:.\Generated_Source\PSoC4/PWM_Timer.c **** {
 909              		.loc 1 711 0
 910              		.cfi_startproc
 911 0000 80B5     		push	{r7, lr}
 912              	.LCFI45:
 913              		.cfi_def_cfa_offset 8
 914              		.cfi_offset 7, -8
 915              		.cfi_offset 14, -4
 916 0002 82B0     		sub	sp, sp, #8
 917              	.LCFI46:
 918              		.cfi_def_cfa_offset 16
 919 0004 00AF     		add	r7, sp, #0
 920              	.LCFI47:
 921              		.cfi_def_cfa_register 7
 922 0006 7860     		str	r0, [r7, #4]
 712:.\Generated_Source\PSoC4/PWM_Timer.c ****     PWM_Timer_PERIOD_REG = (period & PWM_Timer_16BIT_MASK);
 923              		.loc 1 712 0
 924 0008 034B     		ldr	r3, .L52
 925 000a 7A68     		ldr	r2, [r7, #4]
 926 000c 1204     		lsl	r2, r2, #16
 927 000e 120C     		lsr	r2, r2, #16
 928 0010 1A60     		str	r2, [r3]
 713:.\Generated_Source\PSoC4/PWM_Timer.c **** }
 929              		.loc 1 713 0
 930 0012 BD46     		mov	sp, r7
 931 0014 02B0     		add	sp, sp, #8
 932              		@ sp needed for prologue
 933 0016 80BD     		pop	{r7, pc}
 934              	.L53:
 935              		.align	2
 936              	.L52:
 937 0018 14010540 		.word	1074069780
 938              		.cfi_endproc
 939              	.LFE16:
 940              		.size	PWM_Timer_WritePeriod, .-PWM_Timer_WritePeriod
ARM GAS  C:\Users\OEBN\AppData\Local\Temp\cc4YkDS7.s 			page 30


 941              		.section	.text.PWM_Timer_ReadPeriod,"ax",%progbits
 942              		.align	2
 943              		.global	PWM_Timer_ReadPeriod
 944              		.code	16
 945              		.thumb_func
 946              		.type	PWM_Timer_ReadPeriod, %function
 947              	PWM_Timer_ReadPeriod:
 948              	.LFB17:
 714:.\Generated_Source\PSoC4/PWM_Timer.c **** 
 715:.\Generated_Source\PSoC4/PWM_Timer.c **** 
 716:.\Generated_Source\PSoC4/PWM_Timer.c **** /*******************************************************************************
 717:.\Generated_Source\PSoC4/PWM_Timer.c **** * Function Name: PWM_Timer_ReadPeriod
 718:.\Generated_Source\PSoC4/PWM_Timer.c **** ********************************************************************************
 719:.\Generated_Source\PSoC4/PWM_Timer.c **** *
 720:.\Generated_Source\PSoC4/PWM_Timer.c **** * Summary:
 721:.\Generated_Source\PSoC4/PWM_Timer.c **** *  Reads the 16 bit period register.
 722:.\Generated_Source\PSoC4/PWM_Timer.c **** *
 723:.\Generated_Source\PSoC4/PWM_Timer.c **** * Parameters:
 724:.\Generated_Source\PSoC4/PWM_Timer.c **** *  None
 725:.\Generated_Source\PSoC4/PWM_Timer.c **** *
 726:.\Generated_Source\PSoC4/PWM_Timer.c **** * Return:
 727:.\Generated_Source\PSoC4/PWM_Timer.c **** *  Period value
 728:.\Generated_Source\PSoC4/PWM_Timer.c **** *
 729:.\Generated_Source\PSoC4/PWM_Timer.c **** *******************************************************************************/
 730:.\Generated_Source\PSoC4/PWM_Timer.c **** uint32 PWM_Timer_ReadPeriod(void)
 731:.\Generated_Source\PSoC4/PWM_Timer.c **** {
 949              		.loc 1 731 0
 950              		.cfi_startproc
 951 0000 80B5     		push	{r7, lr}
 952              	.LCFI48:
 953              		.cfi_def_cfa_offset 8
 954              		.cfi_offset 7, -8
 955              		.cfi_offset 14, -4
 956 0002 00AF     		add	r7, sp, #0
 957              	.LCFI49:
 958              		.cfi_def_cfa_register 7
 732:.\Generated_Source\PSoC4/PWM_Timer.c ****     return (PWM_Timer_PERIOD_REG & PWM_Timer_16BIT_MASK);
 959              		.loc 1 732 0
 960 0004 034B     		ldr	r3, .L56
 961 0006 1B68     		ldr	r3, [r3]
 962 0008 1B04     		lsl	r3, r3, #16
 963 000a 1B0C     		lsr	r3, r3, #16
 733:.\Generated_Source\PSoC4/PWM_Timer.c **** }
 964              		.loc 1 733 0
 965 000c 181C     		mov	r0, r3
 966 000e BD46     		mov	sp, r7
 967              		@ sp needed for prologue
 968 0010 80BD     		pop	{r7, pc}
 969              	.L57:
 970 0012 C046     		.align	2
 971              	.L56:
 972 0014 14010540 		.word	1074069780
 973              		.cfi_endproc
 974              	.LFE17:
 975              		.size	PWM_Timer_ReadPeriod, .-PWM_Timer_ReadPeriod
 976              		.section	.text.PWM_Timer_SetCompareSwap,"ax",%progbits
 977              		.align	2
ARM GAS  C:\Users\OEBN\AppData\Local\Temp\cc4YkDS7.s 			page 31


 978              		.global	PWM_Timer_SetCompareSwap
 979              		.code	16
 980              		.thumb_func
 981              		.type	PWM_Timer_SetCompareSwap, %function
 982              	PWM_Timer_SetCompareSwap:
 983              	.LFB18:
 734:.\Generated_Source\PSoC4/PWM_Timer.c **** 
 735:.\Generated_Source\PSoC4/PWM_Timer.c **** 
 736:.\Generated_Source\PSoC4/PWM_Timer.c **** /*******************************************************************************
 737:.\Generated_Source\PSoC4/PWM_Timer.c **** * Function Name: PWM_Timer_SetCompareSwap
 738:.\Generated_Source\PSoC4/PWM_Timer.c **** ********************************************************************************
 739:.\Generated_Source\PSoC4/PWM_Timer.c **** *
 740:.\Generated_Source\PSoC4/PWM_Timer.c **** * Summary:
 741:.\Generated_Source\PSoC4/PWM_Timer.c **** *  Writes the register that controls whether the compare registers are
 742:.\Generated_Source\PSoC4/PWM_Timer.c **** *  swapped. When enabled in the Timer/Counter mode(without capture) the swap
 743:.\Generated_Source\PSoC4/PWM_Timer.c **** *  occurs at a TC event. In the PWM mode the swap occurs at the next TC event
 744:.\Generated_Source\PSoC4/PWM_Timer.c **** *  following a hardware switch event.
 745:.\Generated_Source\PSoC4/PWM_Timer.c **** *
 746:.\Generated_Source\PSoC4/PWM_Timer.c **** * Parameters:
 747:.\Generated_Source\PSoC4/PWM_Timer.c **** *  swapEnable
 748:.\Generated_Source\PSoC4/PWM_Timer.c **** *   Values:
 749:.\Generated_Source\PSoC4/PWM_Timer.c **** *     - 0 - Disable swap
 750:.\Generated_Source\PSoC4/PWM_Timer.c **** *     - 1 - Enable swap
 751:.\Generated_Source\PSoC4/PWM_Timer.c **** *
 752:.\Generated_Source\PSoC4/PWM_Timer.c **** * Return:
 753:.\Generated_Source\PSoC4/PWM_Timer.c **** *  None
 754:.\Generated_Source\PSoC4/PWM_Timer.c **** *
 755:.\Generated_Source\PSoC4/PWM_Timer.c **** *******************************************************************************/
 756:.\Generated_Source\PSoC4/PWM_Timer.c **** void PWM_Timer_SetCompareSwap(uint32 swapEnable)
 757:.\Generated_Source\PSoC4/PWM_Timer.c **** {
 984              		.loc 1 757 0
 985              		.cfi_startproc
 986 0000 90B5     		push	{r4, r7, lr}
 987              	.LCFI50:
 988              		.cfi_def_cfa_offset 12
 989              		.cfi_offset 4, -12
 990              		.cfi_offset 7, -8
 991              		.cfi_offset 14, -4
 992 0002 85B0     		sub	sp, sp, #20
 993              	.LCFI51:
 994              		.cfi_def_cfa_offset 32
 995 0004 00AF     		add	r7, sp, #0
 996              	.LCFI52:
 997              		.cfi_def_cfa_register 7
 998 0006 7860     		str	r0, [r7, #4]
 758:.\Generated_Source\PSoC4/PWM_Timer.c ****     uint8 enableInterrupts;
 759:.\Generated_Source\PSoC4/PWM_Timer.c **** 
 760:.\Generated_Source\PSoC4/PWM_Timer.c ****     enableInterrupts = CyEnterCriticalSection();
 999              		.loc 1 760 0
 1000 0008 3C1C     		mov	r4, r7
 1001 000a 0F34     		add	r4, r4, #15
 1002 000c FFF7FEFF 		bl	CyEnterCriticalSection
 1003 0010 031C     		mov	r3, r0
 1004 0012 2370     		strb	r3, [r4]
 761:.\Generated_Source\PSoC4/PWM_Timer.c **** 
 762:.\Generated_Source\PSoC4/PWM_Timer.c ****     PWM_Timer_CONTROL_REG &= (uint32)~PWM_Timer_RELOAD_CC_MASK;
 1005              		.loc 1 762 0
ARM GAS  C:\Users\OEBN\AppData\Local\Temp\cc4YkDS7.s 			page 32


 1006 0014 0B4B     		ldr	r3, .L59
 1007 0016 0B4A     		ldr	r2, .L59
 1008 0018 1268     		ldr	r2, [r2]
 1009 001a 0121     		mov	r1, #1
 1010 001c 8A43     		bic	r2, r1
 1011 001e 1A60     		str	r2, [r3]
 763:.\Generated_Source\PSoC4/PWM_Timer.c ****     PWM_Timer_CONTROL_REG |= (swapEnable & PWM_Timer_1BIT_MASK);
 1012              		.loc 1 763 0
 1013 0020 084B     		ldr	r3, .L59
 1014 0022 084A     		ldr	r2, .L59
 1015 0024 1168     		ldr	r1, [r2]
 1016 0026 7868     		ldr	r0, [r7, #4]
 1017 0028 0122     		mov	r2, #1
 1018 002a 0240     		and	r2, r0
 1019 002c 0A43     		orr	r2, r1
 1020 002e 1A60     		str	r2, [r3]
 764:.\Generated_Source\PSoC4/PWM_Timer.c **** 
 765:.\Generated_Source\PSoC4/PWM_Timer.c ****     CyExitCriticalSection(enableInterrupts);
 1021              		.loc 1 765 0
 1022 0030 3B1C     		mov	r3, r7
 1023 0032 0F33     		add	r3, r3, #15
 1024 0034 1B78     		ldrb	r3, [r3]
 1025 0036 181C     		mov	r0, r3
 1026 0038 FFF7FEFF 		bl	CyExitCriticalSection
 766:.\Generated_Source\PSoC4/PWM_Timer.c **** }
 1027              		.loc 1 766 0
 1028 003c BD46     		mov	sp, r7
 1029 003e 05B0     		add	sp, sp, #20
 1030              		@ sp needed for prologue
 1031 0040 90BD     		pop	{r4, r7, pc}
 1032              	.L60:
 1033 0042 C046     		.align	2
 1034              	.L59:
 1035 0044 00010540 		.word	1074069760
 1036              		.cfi_endproc
 1037              	.LFE18:
 1038              		.size	PWM_Timer_SetCompareSwap, .-PWM_Timer_SetCompareSwap
 1039              		.section	.text.PWM_Timer_WritePeriodBuf,"ax",%progbits
 1040              		.align	2
 1041              		.global	PWM_Timer_WritePeriodBuf
 1042              		.code	16
 1043              		.thumb_func
 1044              		.type	PWM_Timer_WritePeriodBuf, %function
 1045              	PWM_Timer_WritePeriodBuf:
 1046              	.LFB19:
 767:.\Generated_Source\PSoC4/PWM_Timer.c **** 
 768:.\Generated_Source\PSoC4/PWM_Timer.c **** 
 769:.\Generated_Source\PSoC4/PWM_Timer.c **** /*******************************************************************************
 770:.\Generated_Source\PSoC4/PWM_Timer.c **** * Function Name: PWM_Timer_WritePeriodBuf
 771:.\Generated_Source\PSoC4/PWM_Timer.c **** ********************************************************************************
 772:.\Generated_Source\PSoC4/PWM_Timer.c **** *
 773:.\Generated_Source\PSoC4/PWM_Timer.c **** * Summary:
 774:.\Generated_Source\PSoC4/PWM_Timer.c **** *  Writes the 16 bit period buf register with the new period value.
 775:.\Generated_Source\PSoC4/PWM_Timer.c **** *
 776:.\Generated_Source\PSoC4/PWM_Timer.c **** * Parameters:
 777:.\Generated_Source\PSoC4/PWM_Timer.c **** *  periodBuf: Period value
 778:.\Generated_Source\PSoC4/PWM_Timer.c **** *
ARM GAS  C:\Users\OEBN\AppData\Local\Temp\cc4YkDS7.s 			page 33


 779:.\Generated_Source\PSoC4/PWM_Timer.c **** * Return:
 780:.\Generated_Source\PSoC4/PWM_Timer.c **** *  None
 781:.\Generated_Source\PSoC4/PWM_Timer.c **** *
 782:.\Generated_Source\PSoC4/PWM_Timer.c **** *******************************************************************************/
 783:.\Generated_Source\PSoC4/PWM_Timer.c **** void PWM_Timer_WritePeriodBuf(uint32 periodBuf)
 784:.\Generated_Source\PSoC4/PWM_Timer.c **** {
 1047              		.loc 1 784 0
 1048              		.cfi_startproc
 1049 0000 80B5     		push	{r7, lr}
 1050              	.LCFI53:
 1051              		.cfi_def_cfa_offset 8
 1052              		.cfi_offset 7, -8
 1053              		.cfi_offset 14, -4
 1054 0002 82B0     		sub	sp, sp, #8
 1055              	.LCFI54:
 1056              		.cfi_def_cfa_offset 16
 1057 0004 00AF     		add	r7, sp, #0
 1058              	.LCFI55:
 1059              		.cfi_def_cfa_register 7
 1060 0006 7860     		str	r0, [r7, #4]
 785:.\Generated_Source\PSoC4/PWM_Timer.c ****     PWM_Timer_PERIOD_BUF_REG = (periodBuf & PWM_Timer_16BIT_MASK);
 1061              		.loc 1 785 0
 1062 0008 034B     		ldr	r3, .L62
 1063 000a 7A68     		ldr	r2, [r7, #4]
 1064 000c 1204     		lsl	r2, r2, #16
 1065 000e 120C     		lsr	r2, r2, #16
 1066 0010 1A60     		str	r2, [r3]
 786:.\Generated_Source\PSoC4/PWM_Timer.c **** }
 1067              		.loc 1 786 0
 1068 0012 BD46     		mov	sp, r7
 1069 0014 02B0     		add	sp, sp, #8
 1070              		@ sp needed for prologue
 1071 0016 80BD     		pop	{r7, pc}
 1072              	.L63:
 1073              		.align	2
 1074              	.L62:
 1075 0018 18010540 		.word	1074069784
 1076              		.cfi_endproc
 1077              	.LFE19:
 1078              		.size	PWM_Timer_WritePeriodBuf, .-PWM_Timer_WritePeriodBuf
 1079              		.section	.text.PWM_Timer_ReadPeriodBuf,"ax",%progbits
 1080              		.align	2
 1081              		.global	PWM_Timer_ReadPeriodBuf
 1082              		.code	16
 1083              		.thumb_func
 1084              		.type	PWM_Timer_ReadPeriodBuf, %function
 1085              	PWM_Timer_ReadPeriodBuf:
 1086              	.LFB20:
 787:.\Generated_Source\PSoC4/PWM_Timer.c **** 
 788:.\Generated_Source\PSoC4/PWM_Timer.c **** 
 789:.\Generated_Source\PSoC4/PWM_Timer.c **** /*******************************************************************************
 790:.\Generated_Source\PSoC4/PWM_Timer.c **** * Function Name: PWM_Timer_ReadPeriodBuf
 791:.\Generated_Source\PSoC4/PWM_Timer.c **** ********************************************************************************
 792:.\Generated_Source\PSoC4/PWM_Timer.c **** *
 793:.\Generated_Source\PSoC4/PWM_Timer.c **** * Summary:
 794:.\Generated_Source\PSoC4/PWM_Timer.c **** *  Reads the 16 bit period buf register.
 795:.\Generated_Source\PSoC4/PWM_Timer.c **** *
ARM GAS  C:\Users\OEBN\AppData\Local\Temp\cc4YkDS7.s 			page 34


 796:.\Generated_Source\PSoC4/PWM_Timer.c **** * Parameters:
 797:.\Generated_Source\PSoC4/PWM_Timer.c **** *  None
 798:.\Generated_Source\PSoC4/PWM_Timer.c **** *
 799:.\Generated_Source\PSoC4/PWM_Timer.c **** * Return:
 800:.\Generated_Source\PSoC4/PWM_Timer.c **** *  Period value
 801:.\Generated_Source\PSoC4/PWM_Timer.c **** *
 802:.\Generated_Source\PSoC4/PWM_Timer.c **** *******************************************************************************/
 803:.\Generated_Source\PSoC4/PWM_Timer.c **** uint32 PWM_Timer_ReadPeriodBuf(void)
 804:.\Generated_Source\PSoC4/PWM_Timer.c **** {
 1087              		.loc 1 804 0
 1088              		.cfi_startproc
 1089 0000 80B5     		push	{r7, lr}
 1090              	.LCFI56:
 1091              		.cfi_def_cfa_offset 8
 1092              		.cfi_offset 7, -8
 1093              		.cfi_offset 14, -4
 1094 0002 00AF     		add	r7, sp, #0
 1095              	.LCFI57:
 1096              		.cfi_def_cfa_register 7
 805:.\Generated_Source\PSoC4/PWM_Timer.c ****     return (PWM_Timer_PERIOD_BUF_REG & PWM_Timer_16BIT_MASK);
 1097              		.loc 1 805 0
 1098 0004 034B     		ldr	r3, .L66
 1099 0006 1B68     		ldr	r3, [r3]
 1100 0008 1B04     		lsl	r3, r3, #16
 1101 000a 1B0C     		lsr	r3, r3, #16
 806:.\Generated_Source\PSoC4/PWM_Timer.c **** }
 1102              		.loc 1 806 0
 1103 000c 181C     		mov	r0, r3
 1104 000e BD46     		mov	sp, r7
 1105              		@ sp needed for prologue
 1106 0010 80BD     		pop	{r7, pc}
 1107              	.L67:
 1108 0012 C046     		.align	2
 1109              	.L66:
 1110 0014 18010540 		.word	1074069784
 1111              		.cfi_endproc
 1112              	.LFE20:
 1113              		.size	PWM_Timer_ReadPeriodBuf, .-PWM_Timer_ReadPeriodBuf
 1114              		.section	.text.PWM_Timer_SetPeriodSwap,"ax",%progbits
 1115              		.align	2
 1116              		.global	PWM_Timer_SetPeriodSwap
 1117              		.code	16
 1118              		.thumb_func
 1119              		.type	PWM_Timer_SetPeriodSwap, %function
 1120              	PWM_Timer_SetPeriodSwap:
 1121              	.LFB21:
 807:.\Generated_Source\PSoC4/PWM_Timer.c **** 
 808:.\Generated_Source\PSoC4/PWM_Timer.c **** 
 809:.\Generated_Source\PSoC4/PWM_Timer.c **** /*******************************************************************************
 810:.\Generated_Source\PSoC4/PWM_Timer.c **** * Function Name: PWM_Timer_SetPeriodSwap
 811:.\Generated_Source\PSoC4/PWM_Timer.c **** ********************************************************************************
 812:.\Generated_Source\PSoC4/PWM_Timer.c **** *
 813:.\Generated_Source\PSoC4/PWM_Timer.c **** * Summary:
 814:.\Generated_Source\PSoC4/PWM_Timer.c **** *  Writes the register that controls whether the period registers are
 815:.\Generated_Source\PSoC4/PWM_Timer.c **** *  swapped. When enabled in Timer/Counter mode the swap occurs at a TC event.
 816:.\Generated_Source\PSoC4/PWM_Timer.c **** *  In the PWM mode the swap occurs at the next TC event following a hardware
 817:.\Generated_Source\PSoC4/PWM_Timer.c **** *  switch event.
ARM GAS  C:\Users\OEBN\AppData\Local\Temp\cc4YkDS7.s 			page 35


 818:.\Generated_Source\PSoC4/PWM_Timer.c **** *
 819:.\Generated_Source\PSoC4/PWM_Timer.c **** * Parameters:
 820:.\Generated_Source\PSoC4/PWM_Timer.c **** *  swapEnable
 821:.\Generated_Source\PSoC4/PWM_Timer.c **** *   Values:
 822:.\Generated_Source\PSoC4/PWM_Timer.c **** *     - 0 - Disable swap
 823:.\Generated_Source\PSoC4/PWM_Timer.c **** *     - 1 - Enable swap
 824:.\Generated_Source\PSoC4/PWM_Timer.c **** *
 825:.\Generated_Source\PSoC4/PWM_Timer.c **** * Return:
 826:.\Generated_Source\PSoC4/PWM_Timer.c **** *  None
 827:.\Generated_Source\PSoC4/PWM_Timer.c **** *
 828:.\Generated_Source\PSoC4/PWM_Timer.c **** *******************************************************************************/
 829:.\Generated_Source\PSoC4/PWM_Timer.c **** void PWM_Timer_SetPeriodSwap(uint32 swapEnable)
 830:.\Generated_Source\PSoC4/PWM_Timer.c **** {
 1122              		.loc 1 830 0
 1123              		.cfi_startproc
 1124 0000 90B5     		push	{r4, r7, lr}
 1125              	.LCFI58:
 1126              		.cfi_def_cfa_offset 12
 1127              		.cfi_offset 4, -12
 1128              		.cfi_offset 7, -8
 1129              		.cfi_offset 14, -4
 1130 0002 85B0     		sub	sp, sp, #20
 1131              	.LCFI59:
 1132              		.cfi_def_cfa_offset 32
 1133 0004 00AF     		add	r7, sp, #0
 1134              	.LCFI60:
 1135              		.cfi_def_cfa_register 7
 1136 0006 7860     		str	r0, [r7, #4]
 831:.\Generated_Source\PSoC4/PWM_Timer.c ****     uint8 enableInterrupts;
 832:.\Generated_Source\PSoC4/PWM_Timer.c **** 
 833:.\Generated_Source\PSoC4/PWM_Timer.c ****     enableInterrupts = CyEnterCriticalSection();
 1137              		.loc 1 833 0
 1138 0008 3C1C     		mov	r4, r7
 1139 000a 0F34     		add	r4, r4, #15
 1140 000c FFF7FEFF 		bl	CyEnterCriticalSection
 1141 0010 031C     		mov	r3, r0
 1142 0012 2370     		strb	r3, [r4]
 834:.\Generated_Source\PSoC4/PWM_Timer.c **** 
 835:.\Generated_Source\PSoC4/PWM_Timer.c ****     PWM_Timer_CONTROL_REG &= (uint32)~PWM_Timer_RELOAD_PERIOD_MASK;
 1143              		.loc 1 835 0
 1144 0014 0B4B     		ldr	r3, .L69
 1145 0016 0B4A     		ldr	r2, .L69
 1146 0018 1268     		ldr	r2, [r2]
 1147 001a 0221     		mov	r1, #2
 1148 001c 8A43     		bic	r2, r1
 1149 001e 1A60     		str	r2, [r3]
 836:.\Generated_Source\PSoC4/PWM_Timer.c ****     PWM_Timer_CONTROL_REG |= ((uint32)((swapEnable & PWM_Timer_1BIT_MASK) <<
 1150              		.loc 1 836 0
 1151 0020 084B     		ldr	r3, .L69
 1152 0022 084A     		ldr	r2, .L69
 1153 0024 1168     		ldr	r1, [r2]
 1154 0026 7868     		ldr	r0, [r7, #4]
 1155 0028 0122     		mov	r2, #1
 1156 002a 0240     		and	r2, r0
 1157 002c 5200     		lsl	r2, r2, #1
 1158 002e 0A43     		orr	r2, r1
 1159 0030 1A60     		str	r2, [r3]
ARM GAS  C:\Users\OEBN\AppData\Local\Temp\cc4YkDS7.s 			page 36


 837:.\Generated_Source\PSoC4/PWM_Timer.c ****                                                             PWM_Timer_RELOAD_PERIOD_SHIFT));
 838:.\Generated_Source\PSoC4/PWM_Timer.c **** 
 839:.\Generated_Source\PSoC4/PWM_Timer.c ****     CyExitCriticalSection(enableInterrupts);
 1160              		.loc 1 839 0
 1161 0032 3B1C     		mov	r3, r7
 1162 0034 0F33     		add	r3, r3, #15
 1163 0036 1B78     		ldrb	r3, [r3]
 1164 0038 181C     		mov	r0, r3
 1165 003a FFF7FEFF 		bl	CyExitCriticalSection
 840:.\Generated_Source\PSoC4/PWM_Timer.c **** }
 1166              		.loc 1 840 0
 1167 003e BD46     		mov	sp, r7
 1168 0040 05B0     		add	sp, sp, #20
 1169              		@ sp needed for prologue
 1170 0042 90BD     		pop	{r4, r7, pc}
 1171              	.L70:
 1172              		.align	2
 1173              	.L69:
 1174 0044 00010540 		.word	1074069760
 1175              		.cfi_endproc
 1176              	.LFE21:
 1177              		.size	PWM_Timer_SetPeriodSwap, .-PWM_Timer_SetPeriodSwap
 1178              		.section	.text.PWM_Timer_WriteCompare,"ax",%progbits
 1179              		.align	2
 1180              		.global	PWM_Timer_WriteCompare
 1181              		.code	16
 1182              		.thumb_func
 1183              		.type	PWM_Timer_WriteCompare, %function
 1184              	PWM_Timer_WriteCompare:
 1185              	.LFB22:
 841:.\Generated_Source\PSoC4/PWM_Timer.c **** 
 842:.\Generated_Source\PSoC4/PWM_Timer.c **** 
 843:.\Generated_Source\PSoC4/PWM_Timer.c **** /*******************************************************************************
 844:.\Generated_Source\PSoC4/PWM_Timer.c **** * Function Name: PWM_Timer_WriteCompare
 845:.\Generated_Source\PSoC4/PWM_Timer.c **** ********************************************************************************
 846:.\Generated_Source\PSoC4/PWM_Timer.c **** *
 847:.\Generated_Source\PSoC4/PWM_Timer.c **** * Summary:
 848:.\Generated_Source\PSoC4/PWM_Timer.c **** *  Writes the 16 bit compare register with the new compare value. Not
 849:.\Generated_Source\PSoC4/PWM_Timer.c **** *  applicable for Timer/Counter with Capture or in Quadrature Decoder modes.
 850:.\Generated_Source\PSoC4/PWM_Timer.c **** *
 851:.\Generated_Source\PSoC4/PWM_Timer.c **** * Parameters:
 852:.\Generated_Source\PSoC4/PWM_Timer.c **** *  compare: Compare value
 853:.\Generated_Source\PSoC4/PWM_Timer.c **** *
 854:.\Generated_Source\PSoC4/PWM_Timer.c **** * Return:
 855:.\Generated_Source\PSoC4/PWM_Timer.c **** *  None
 856:.\Generated_Source\PSoC4/PWM_Timer.c **** *
 857:.\Generated_Source\PSoC4/PWM_Timer.c **** *******************************************************************************/
 858:.\Generated_Source\PSoC4/PWM_Timer.c **** void PWM_Timer_WriteCompare(uint32 compare)
 859:.\Generated_Source\PSoC4/PWM_Timer.c **** {
 1186              		.loc 1 859 0
 1187              		.cfi_startproc
 1188 0000 80B5     		push	{r7, lr}
 1189              	.LCFI61:
 1190              		.cfi_def_cfa_offset 8
 1191              		.cfi_offset 7, -8
 1192              		.cfi_offset 14, -4
 1193 0002 82B0     		sub	sp, sp, #8
ARM GAS  C:\Users\OEBN\AppData\Local\Temp\cc4YkDS7.s 			page 37


 1194              	.LCFI62:
 1195              		.cfi_def_cfa_offset 16
 1196 0004 00AF     		add	r7, sp, #0
 1197              	.LCFI63:
 1198              		.cfi_def_cfa_register 7
 1199 0006 7860     		str	r0, [r7, #4]
 860:.\Generated_Source\PSoC4/PWM_Timer.c ****     #if (PWM_Timer_CY_TCPWM_V2)
 861:.\Generated_Source\PSoC4/PWM_Timer.c ****         uint32 currentMode;
 862:.\Generated_Source\PSoC4/PWM_Timer.c ****     #endif /* (PWM_Timer_CY_TCPWM_V2) */
 863:.\Generated_Source\PSoC4/PWM_Timer.c **** 
 864:.\Generated_Source\PSoC4/PWM_Timer.c ****     #if (PWM_Timer_CY_TCPWM_V2)
 865:.\Generated_Source\PSoC4/PWM_Timer.c ****         currentMode = ((PWM_Timer_CONTROL_REG & PWM_Timer_UPDOWN_MASK) >> PWM_Timer_UPDOWN_SHIFT);
 866:.\Generated_Source\PSoC4/PWM_Timer.c **** 
 867:.\Generated_Source\PSoC4/PWM_Timer.c ****         if (PWM_Timer__COUNT_DOWN == currentMode)
 868:.\Generated_Source\PSoC4/PWM_Timer.c ****         {
 869:.\Generated_Source\PSoC4/PWM_Timer.c ****             PWM_Timer_COMP_CAP_REG = ((compare + 1u) & PWM_Timer_16BIT_MASK);
 870:.\Generated_Source\PSoC4/PWM_Timer.c ****         }
 871:.\Generated_Source\PSoC4/PWM_Timer.c ****         else if (PWM_Timer__COUNT_UP == currentMode)
 872:.\Generated_Source\PSoC4/PWM_Timer.c ****         {
 873:.\Generated_Source\PSoC4/PWM_Timer.c ****             PWM_Timer_COMP_CAP_REG = ((compare - 1u) & PWM_Timer_16BIT_MASK);
 874:.\Generated_Source\PSoC4/PWM_Timer.c ****         }
 875:.\Generated_Source\PSoC4/PWM_Timer.c ****         else
 876:.\Generated_Source\PSoC4/PWM_Timer.c ****         {
 877:.\Generated_Source\PSoC4/PWM_Timer.c ****             PWM_Timer_COMP_CAP_REG = (compare & PWM_Timer_16BIT_MASK);
 878:.\Generated_Source\PSoC4/PWM_Timer.c ****         }
 879:.\Generated_Source\PSoC4/PWM_Timer.c ****     #else
 880:.\Generated_Source\PSoC4/PWM_Timer.c ****         PWM_Timer_COMP_CAP_REG = (compare & PWM_Timer_16BIT_MASK);
 1200              		.loc 1 880 0
 1201 0008 034B     		ldr	r3, .L72
 1202 000a 7A68     		ldr	r2, [r7, #4]
 1203 000c 1204     		lsl	r2, r2, #16
 1204 000e 120C     		lsr	r2, r2, #16
 1205 0010 1A60     		str	r2, [r3]
 881:.\Generated_Source\PSoC4/PWM_Timer.c ****     #endif /* (PWM_Timer_CY_TCPWM_V2) */
 882:.\Generated_Source\PSoC4/PWM_Timer.c **** }
 1206              		.loc 1 882 0
 1207 0012 BD46     		mov	sp, r7
 1208 0014 02B0     		add	sp, sp, #8
 1209              		@ sp needed for prologue
 1210 0016 80BD     		pop	{r7, pc}
 1211              	.L73:
 1212              		.align	2
 1213              	.L72:
 1214 0018 0C010540 		.word	1074069772
 1215              		.cfi_endproc
 1216              	.LFE22:
 1217              		.size	PWM_Timer_WriteCompare, .-PWM_Timer_WriteCompare
 1218              		.section	.text.PWM_Timer_ReadCompare,"ax",%progbits
 1219              		.align	2
 1220              		.global	PWM_Timer_ReadCompare
 1221              		.code	16
 1222              		.thumb_func
 1223              		.type	PWM_Timer_ReadCompare, %function
 1224              	PWM_Timer_ReadCompare:
 1225              	.LFB23:
 883:.\Generated_Source\PSoC4/PWM_Timer.c **** 
 884:.\Generated_Source\PSoC4/PWM_Timer.c **** 
ARM GAS  C:\Users\OEBN\AppData\Local\Temp\cc4YkDS7.s 			page 38


 885:.\Generated_Source\PSoC4/PWM_Timer.c **** /*******************************************************************************
 886:.\Generated_Source\PSoC4/PWM_Timer.c **** * Function Name: PWM_Timer_ReadCompare
 887:.\Generated_Source\PSoC4/PWM_Timer.c **** ********************************************************************************
 888:.\Generated_Source\PSoC4/PWM_Timer.c **** *
 889:.\Generated_Source\PSoC4/PWM_Timer.c **** * Summary:
 890:.\Generated_Source\PSoC4/PWM_Timer.c **** *  Reads the compare register. Not applicable for Timer/Counter with Capture
 891:.\Generated_Source\PSoC4/PWM_Timer.c **** *  or in Quadrature Decoder modes.
 892:.\Generated_Source\PSoC4/PWM_Timer.c **** *
 893:.\Generated_Source\PSoC4/PWM_Timer.c **** * Parameters:
 894:.\Generated_Source\PSoC4/PWM_Timer.c **** *  None
 895:.\Generated_Source\PSoC4/PWM_Timer.c **** *
 896:.\Generated_Source\PSoC4/PWM_Timer.c **** * Return:
 897:.\Generated_Source\PSoC4/PWM_Timer.c **** *  Compare value
 898:.\Generated_Source\PSoC4/PWM_Timer.c **** *
 899:.\Generated_Source\PSoC4/PWM_Timer.c **** *******************************************************************************/
 900:.\Generated_Source\PSoC4/PWM_Timer.c **** uint32 PWM_Timer_ReadCompare(void)
 901:.\Generated_Source\PSoC4/PWM_Timer.c **** {
 1226              		.loc 1 901 0
 1227              		.cfi_startproc
 1228 0000 80B5     		push	{r7, lr}
 1229              	.LCFI64:
 1230              		.cfi_def_cfa_offset 8
 1231              		.cfi_offset 7, -8
 1232              		.cfi_offset 14, -4
 1233 0002 00AF     		add	r7, sp, #0
 1234              	.LCFI65:
 1235              		.cfi_def_cfa_register 7
 902:.\Generated_Source\PSoC4/PWM_Timer.c ****     #if (PWM_Timer_CY_TCPWM_V2)
 903:.\Generated_Source\PSoC4/PWM_Timer.c ****         uint32 currentMode;
 904:.\Generated_Source\PSoC4/PWM_Timer.c ****         uint32 regVal;
 905:.\Generated_Source\PSoC4/PWM_Timer.c ****     #endif /* (PWM_Timer_CY_TCPWM_V2) */
 906:.\Generated_Source\PSoC4/PWM_Timer.c **** 
 907:.\Generated_Source\PSoC4/PWM_Timer.c ****     #if (PWM_Timer_CY_TCPWM_V2)
 908:.\Generated_Source\PSoC4/PWM_Timer.c ****         currentMode = ((PWM_Timer_CONTROL_REG & PWM_Timer_UPDOWN_MASK) >> PWM_Timer_UPDOWN_SHIFT);
 909:.\Generated_Source\PSoC4/PWM_Timer.c **** 
 910:.\Generated_Source\PSoC4/PWM_Timer.c ****         if (PWM_Timer__COUNT_DOWN == currentMode)
 911:.\Generated_Source\PSoC4/PWM_Timer.c ****         {
 912:.\Generated_Source\PSoC4/PWM_Timer.c ****             regVal = ((PWM_Timer_COMP_CAP_REG - 1u) & PWM_Timer_16BIT_MASK);
 913:.\Generated_Source\PSoC4/PWM_Timer.c ****         }
 914:.\Generated_Source\PSoC4/PWM_Timer.c ****         else if (PWM_Timer__COUNT_UP == currentMode)
 915:.\Generated_Source\PSoC4/PWM_Timer.c ****         {
 916:.\Generated_Source\PSoC4/PWM_Timer.c ****             regVal = ((PWM_Timer_COMP_CAP_REG + 1u) & PWM_Timer_16BIT_MASK);
 917:.\Generated_Source\PSoC4/PWM_Timer.c ****         }
 918:.\Generated_Source\PSoC4/PWM_Timer.c ****         else
 919:.\Generated_Source\PSoC4/PWM_Timer.c ****         {
 920:.\Generated_Source\PSoC4/PWM_Timer.c ****             regVal = (PWM_Timer_COMP_CAP_REG & PWM_Timer_16BIT_MASK);
 921:.\Generated_Source\PSoC4/PWM_Timer.c ****         }
 922:.\Generated_Source\PSoC4/PWM_Timer.c ****         return (regVal);
 923:.\Generated_Source\PSoC4/PWM_Timer.c ****     #else
 924:.\Generated_Source\PSoC4/PWM_Timer.c ****         return (PWM_Timer_COMP_CAP_REG & PWM_Timer_16BIT_MASK);
 1236              		.loc 1 924 0
 1237 0004 034B     		ldr	r3, .L76
 1238 0006 1B68     		ldr	r3, [r3]
 1239 0008 1B04     		lsl	r3, r3, #16
 1240 000a 1B0C     		lsr	r3, r3, #16
 925:.\Generated_Source\PSoC4/PWM_Timer.c ****     #endif /* (PWM_Timer_CY_TCPWM_V2) */
 926:.\Generated_Source\PSoC4/PWM_Timer.c **** }
ARM GAS  C:\Users\OEBN\AppData\Local\Temp\cc4YkDS7.s 			page 39


 1241              		.loc 1 926 0
 1242 000c 181C     		mov	r0, r3
 1243 000e BD46     		mov	sp, r7
 1244              		@ sp needed for prologue
 1245 0010 80BD     		pop	{r7, pc}
 1246              	.L77:
 1247 0012 C046     		.align	2
 1248              	.L76:
 1249 0014 0C010540 		.word	1074069772
 1250              		.cfi_endproc
 1251              	.LFE23:
 1252              		.size	PWM_Timer_ReadCompare, .-PWM_Timer_ReadCompare
 1253              		.section	.text.PWM_Timer_WriteCompareBuf,"ax",%progbits
 1254              		.align	2
 1255              		.global	PWM_Timer_WriteCompareBuf
 1256              		.code	16
 1257              		.thumb_func
 1258              		.type	PWM_Timer_WriteCompareBuf, %function
 1259              	PWM_Timer_WriteCompareBuf:
 1260              	.LFB24:
 927:.\Generated_Source\PSoC4/PWM_Timer.c **** 
 928:.\Generated_Source\PSoC4/PWM_Timer.c **** 
 929:.\Generated_Source\PSoC4/PWM_Timer.c **** /*******************************************************************************
 930:.\Generated_Source\PSoC4/PWM_Timer.c **** * Function Name: PWM_Timer_WriteCompareBuf
 931:.\Generated_Source\PSoC4/PWM_Timer.c **** ********************************************************************************
 932:.\Generated_Source\PSoC4/PWM_Timer.c **** *
 933:.\Generated_Source\PSoC4/PWM_Timer.c **** * Summary:
 934:.\Generated_Source\PSoC4/PWM_Timer.c **** *  Writes the 16 bit compare buffer register with the new compare value. Not
 935:.\Generated_Source\PSoC4/PWM_Timer.c **** *  applicable for Timer/Counter with Capture or in Quadrature Decoder modes.
 936:.\Generated_Source\PSoC4/PWM_Timer.c **** *
 937:.\Generated_Source\PSoC4/PWM_Timer.c **** * Parameters:
 938:.\Generated_Source\PSoC4/PWM_Timer.c **** *  compareBuf: Compare value
 939:.\Generated_Source\PSoC4/PWM_Timer.c **** *
 940:.\Generated_Source\PSoC4/PWM_Timer.c **** * Return:
 941:.\Generated_Source\PSoC4/PWM_Timer.c **** *  None
 942:.\Generated_Source\PSoC4/PWM_Timer.c **** *
 943:.\Generated_Source\PSoC4/PWM_Timer.c **** *******************************************************************************/
 944:.\Generated_Source\PSoC4/PWM_Timer.c **** void PWM_Timer_WriteCompareBuf(uint32 compareBuf)
 945:.\Generated_Source\PSoC4/PWM_Timer.c **** {
 1261              		.loc 1 945 0
 1262              		.cfi_startproc
 1263 0000 80B5     		push	{r7, lr}
 1264              	.LCFI66:
 1265              		.cfi_def_cfa_offset 8
 1266              		.cfi_offset 7, -8
 1267              		.cfi_offset 14, -4
 1268 0002 82B0     		sub	sp, sp, #8
 1269              	.LCFI67:
 1270              		.cfi_def_cfa_offset 16
 1271 0004 00AF     		add	r7, sp, #0
 1272              	.LCFI68:
 1273              		.cfi_def_cfa_register 7
 1274 0006 7860     		str	r0, [r7, #4]
 946:.\Generated_Source\PSoC4/PWM_Timer.c ****     #if (PWM_Timer_CY_TCPWM_V2)
 947:.\Generated_Source\PSoC4/PWM_Timer.c ****         uint32 currentMode;
 948:.\Generated_Source\PSoC4/PWM_Timer.c ****     #endif /* (PWM_Timer_CY_TCPWM_V2) */
 949:.\Generated_Source\PSoC4/PWM_Timer.c **** 
ARM GAS  C:\Users\OEBN\AppData\Local\Temp\cc4YkDS7.s 			page 40


 950:.\Generated_Source\PSoC4/PWM_Timer.c ****     #if (PWM_Timer_CY_TCPWM_V2)
 951:.\Generated_Source\PSoC4/PWM_Timer.c ****         currentMode = ((PWM_Timer_CONTROL_REG & PWM_Timer_UPDOWN_MASK) >> PWM_Timer_UPDOWN_SHIFT);
 952:.\Generated_Source\PSoC4/PWM_Timer.c **** 
 953:.\Generated_Source\PSoC4/PWM_Timer.c ****         if (PWM_Timer__COUNT_DOWN == currentMode)
 954:.\Generated_Source\PSoC4/PWM_Timer.c ****         {
 955:.\Generated_Source\PSoC4/PWM_Timer.c ****             PWM_Timer_COMP_CAP_BUF_REG = ((compareBuf + 1u) & PWM_Timer_16BIT_MASK);
 956:.\Generated_Source\PSoC4/PWM_Timer.c ****         }
 957:.\Generated_Source\PSoC4/PWM_Timer.c ****         else if (PWM_Timer__COUNT_UP == currentMode)
 958:.\Generated_Source\PSoC4/PWM_Timer.c ****         {
 959:.\Generated_Source\PSoC4/PWM_Timer.c ****             PWM_Timer_COMP_CAP_BUF_REG = ((compareBuf - 1u) & PWM_Timer_16BIT_MASK);
 960:.\Generated_Source\PSoC4/PWM_Timer.c ****         }
 961:.\Generated_Source\PSoC4/PWM_Timer.c ****         else
 962:.\Generated_Source\PSoC4/PWM_Timer.c ****         {
 963:.\Generated_Source\PSoC4/PWM_Timer.c ****             PWM_Timer_COMP_CAP_BUF_REG = (compareBuf & PWM_Timer_16BIT_MASK);
 964:.\Generated_Source\PSoC4/PWM_Timer.c ****         }
 965:.\Generated_Source\PSoC4/PWM_Timer.c ****     #else
 966:.\Generated_Source\PSoC4/PWM_Timer.c ****         PWM_Timer_COMP_CAP_BUF_REG = (compareBuf & PWM_Timer_16BIT_MASK);
 1275              		.loc 1 966 0
 1276 0008 034B     		ldr	r3, .L79
 1277 000a 7A68     		ldr	r2, [r7, #4]
 1278 000c 1204     		lsl	r2, r2, #16
 1279 000e 120C     		lsr	r2, r2, #16
 1280 0010 1A60     		str	r2, [r3]
 967:.\Generated_Source\PSoC4/PWM_Timer.c ****     #endif /* (PWM_Timer_CY_TCPWM_V2) */
 968:.\Generated_Source\PSoC4/PWM_Timer.c **** }
 1281              		.loc 1 968 0
 1282 0012 BD46     		mov	sp, r7
 1283 0014 02B0     		add	sp, sp, #8
 1284              		@ sp needed for prologue
 1285 0016 80BD     		pop	{r7, pc}
 1286              	.L80:
 1287              		.align	2
 1288              	.L79:
 1289 0018 10010540 		.word	1074069776
 1290              		.cfi_endproc
 1291              	.LFE24:
 1292              		.size	PWM_Timer_WriteCompareBuf, .-PWM_Timer_WriteCompareBuf
 1293              		.section	.text.PWM_Timer_ReadCompareBuf,"ax",%progbits
 1294              		.align	2
 1295              		.global	PWM_Timer_ReadCompareBuf
 1296              		.code	16
 1297              		.thumb_func
 1298              		.type	PWM_Timer_ReadCompareBuf, %function
 1299              	PWM_Timer_ReadCompareBuf:
 1300              	.LFB25:
 969:.\Generated_Source\PSoC4/PWM_Timer.c **** 
 970:.\Generated_Source\PSoC4/PWM_Timer.c **** 
 971:.\Generated_Source\PSoC4/PWM_Timer.c **** /*******************************************************************************
 972:.\Generated_Source\PSoC4/PWM_Timer.c **** * Function Name: PWM_Timer_ReadCompareBuf
 973:.\Generated_Source\PSoC4/PWM_Timer.c **** ********************************************************************************
 974:.\Generated_Source\PSoC4/PWM_Timer.c **** *
 975:.\Generated_Source\PSoC4/PWM_Timer.c **** * Summary:
 976:.\Generated_Source\PSoC4/PWM_Timer.c **** *  Reads the compare buffer register. Not applicable for Timer/Counter with
 977:.\Generated_Source\PSoC4/PWM_Timer.c **** *  Capture or in Quadrature Decoder modes.
 978:.\Generated_Source\PSoC4/PWM_Timer.c **** *
 979:.\Generated_Source\PSoC4/PWM_Timer.c **** * Parameters:
 980:.\Generated_Source\PSoC4/PWM_Timer.c **** *  None
ARM GAS  C:\Users\OEBN\AppData\Local\Temp\cc4YkDS7.s 			page 41


 981:.\Generated_Source\PSoC4/PWM_Timer.c **** *
 982:.\Generated_Source\PSoC4/PWM_Timer.c **** * Return:
 983:.\Generated_Source\PSoC4/PWM_Timer.c **** *  Compare buffer value
 984:.\Generated_Source\PSoC4/PWM_Timer.c **** *
 985:.\Generated_Source\PSoC4/PWM_Timer.c **** *******************************************************************************/
 986:.\Generated_Source\PSoC4/PWM_Timer.c **** uint32 PWM_Timer_ReadCompareBuf(void)
 987:.\Generated_Source\PSoC4/PWM_Timer.c **** {
 1301              		.loc 1 987 0
 1302              		.cfi_startproc
 1303 0000 80B5     		push	{r7, lr}
 1304              	.LCFI69:
 1305              		.cfi_def_cfa_offset 8
 1306              		.cfi_offset 7, -8
 1307              		.cfi_offset 14, -4
 1308 0002 00AF     		add	r7, sp, #0
 1309              	.LCFI70:
 1310              		.cfi_def_cfa_register 7
 988:.\Generated_Source\PSoC4/PWM_Timer.c ****     #if (PWM_Timer_CY_TCPWM_V2)
 989:.\Generated_Source\PSoC4/PWM_Timer.c ****         uint32 currentMode;
 990:.\Generated_Source\PSoC4/PWM_Timer.c ****         uint32 regVal;
 991:.\Generated_Source\PSoC4/PWM_Timer.c ****     #endif /* (PWM_Timer_CY_TCPWM_V2) */
 992:.\Generated_Source\PSoC4/PWM_Timer.c **** 
 993:.\Generated_Source\PSoC4/PWM_Timer.c ****     #if (PWM_Timer_CY_TCPWM_V2)
 994:.\Generated_Source\PSoC4/PWM_Timer.c ****         currentMode = ((PWM_Timer_CONTROL_REG & PWM_Timer_UPDOWN_MASK) >> PWM_Timer_UPDOWN_SHIFT);
 995:.\Generated_Source\PSoC4/PWM_Timer.c **** 
 996:.\Generated_Source\PSoC4/PWM_Timer.c ****         if (PWM_Timer__COUNT_DOWN == currentMode)
 997:.\Generated_Source\PSoC4/PWM_Timer.c ****         {
 998:.\Generated_Source\PSoC4/PWM_Timer.c ****             regVal = ((PWM_Timer_COMP_CAP_BUF_REG - 1u) & PWM_Timer_16BIT_MASK);
 999:.\Generated_Source\PSoC4/PWM_Timer.c ****         }
1000:.\Generated_Source\PSoC4/PWM_Timer.c ****         else if (PWM_Timer__COUNT_UP == currentMode)
1001:.\Generated_Source\PSoC4/PWM_Timer.c ****         {
1002:.\Generated_Source\PSoC4/PWM_Timer.c ****             regVal = ((PWM_Timer_COMP_CAP_BUF_REG + 1u) & PWM_Timer_16BIT_MASK);
1003:.\Generated_Source\PSoC4/PWM_Timer.c ****         }
1004:.\Generated_Source\PSoC4/PWM_Timer.c ****         else
1005:.\Generated_Source\PSoC4/PWM_Timer.c ****         {
1006:.\Generated_Source\PSoC4/PWM_Timer.c ****             regVal = (PWM_Timer_COMP_CAP_BUF_REG & PWM_Timer_16BIT_MASK);
1007:.\Generated_Source\PSoC4/PWM_Timer.c ****         }
1008:.\Generated_Source\PSoC4/PWM_Timer.c ****         return (regVal);
1009:.\Generated_Source\PSoC4/PWM_Timer.c ****     #else
1010:.\Generated_Source\PSoC4/PWM_Timer.c ****         return (PWM_Timer_COMP_CAP_BUF_REG & PWM_Timer_16BIT_MASK);
 1311              		.loc 1 1010 0
 1312 0004 034B     		ldr	r3, .L83
 1313 0006 1B68     		ldr	r3, [r3]
 1314 0008 1B04     		lsl	r3, r3, #16
 1315 000a 1B0C     		lsr	r3, r3, #16
1011:.\Generated_Source\PSoC4/PWM_Timer.c ****     #endif /* (PWM_Timer_CY_TCPWM_V2) */
1012:.\Generated_Source\PSoC4/PWM_Timer.c **** }
 1316              		.loc 1 1012 0
 1317 000c 181C     		mov	r0, r3
 1318 000e BD46     		mov	sp, r7
 1319              		@ sp needed for prologue
 1320 0010 80BD     		pop	{r7, pc}
 1321              	.L84:
 1322 0012 C046     		.align	2
 1323              	.L83:
 1324 0014 10010540 		.word	1074069776
 1325              		.cfi_endproc
ARM GAS  C:\Users\OEBN\AppData\Local\Temp\cc4YkDS7.s 			page 42


 1326              	.LFE25:
 1327              		.size	PWM_Timer_ReadCompareBuf, .-PWM_Timer_ReadCompareBuf
 1328              		.section	.text.PWM_Timer_ReadCapture,"ax",%progbits
 1329              		.align	2
 1330              		.global	PWM_Timer_ReadCapture
 1331              		.code	16
 1332              		.thumb_func
 1333              		.type	PWM_Timer_ReadCapture, %function
 1334              	PWM_Timer_ReadCapture:
 1335              	.LFB26:
1013:.\Generated_Source\PSoC4/PWM_Timer.c **** 
1014:.\Generated_Source\PSoC4/PWM_Timer.c **** 
1015:.\Generated_Source\PSoC4/PWM_Timer.c **** /*******************************************************************************
1016:.\Generated_Source\PSoC4/PWM_Timer.c **** * Function Name: PWM_Timer_ReadCapture
1017:.\Generated_Source\PSoC4/PWM_Timer.c **** ********************************************************************************
1018:.\Generated_Source\PSoC4/PWM_Timer.c **** *
1019:.\Generated_Source\PSoC4/PWM_Timer.c **** * Summary:
1020:.\Generated_Source\PSoC4/PWM_Timer.c **** *  Reads the captured counter value. This API is applicable only for
1021:.\Generated_Source\PSoC4/PWM_Timer.c **** *  Timer/Counter with the capture mode and Quadrature Decoder modes.
1022:.\Generated_Source\PSoC4/PWM_Timer.c **** *
1023:.\Generated_Source\PSoC4/PWM_Timer.c **** * Parameters:
1024:.\Generated_Source\PSoC4/PWM_Timer.c **** *  None
1025:.\Generated_Source\PSoC4/PWM_Timer.c **** *
1026:.\Generated_Source\PSoC4/PWM_Timer.c **** * Return:
1027:.\Generated_Source\PSoC4/PWM_Timer.c **** *  Capture value
1028:.\Generated_Source\PSoC4/PWM_Timer.c **** *
1029:.\Generated_Source\PSoC4/PWM_Timer.c **** *******************************************************************************/
1030:.\Generated_Source\PSoC4/PWM_Timer.c **** uint32 PWM_Timer_ReadCapture(void)
1031:.\Generated_Source\PSoC4/PWM_Timer.c **** {
 1336              		.loc 1 1031 0
 1337              		.cfi_startproc
 1338 0000 80B5     		push	{r7, lr}
 1339              	.LCFI71:
 1340              		.cfi_def_cfa_offset 8
 1341              		.cfi_offset 7, -8
 1342              		.cfi_offset 14, -4
 1343 0002 00AF     		add	r7, sp, #0
 1344              	.LCFI72:
 1345              		.cfi_def_cfa_register 7
1032:.\Generated_Source\PSoC4/PWM_Timer.c ****     return (PWM_Timer_COMP_CAP_REG & PWM_Timer_16BIT_MASK);
 1346              		.loc 1 1032 0
 1347 0004 034B     		ldr	r3, .L87
 1348 0006 1B68     		ldr	r3, [r3]
 1349 0008 1B04     		lsl	r3, r3, #16
 1350 000a 1B0C     		lsr	r3, r3, #16
1033:.\Generated_Source\PSoC4/PWM_Timer.c **** }
 1351              		.loc 1 1033 0
 1352 000c 181C     		mov	r0, r3
 1353 000e BD46     		mov	sp, r7
 1354              		@ sp needed for prologue
 1355 0010 80BD     		pop	{r7, pc}
 1356              	.L88:
 1357 0012 C046     		.align	2
 1358              	.L87:
 1359 0014 0C010540 		.word	1074069772
 1360              		.cfi_endproc
 1361              	.LFE26:
ARM GAS  C:\Users\OEBN\AppData\Local\Temp\cc4YkDS7.s 			page 43


 1362              		.size	PWM_Timer_ReadCapture, .-PWM_Timer_ReadCapture
 1363              		.section	.text.PWM_Timer_ReadCaptureBuf,"ax",%progbits
 1364              		.align	2
 1365              		.global	PWM_Timer_ReadCaptureBuf
 1366              		.code	16
 1367              		.thumb_func
 1368              		.type	PWM_Timer_ReadCaptureBuf, %function
 1369              	PWM_Timer_ReadCaptureBuf:
 1370              	.LFB27:
1034:.\Generated_Source\PSoC4/PWM_Timer.c **** 
1035:.\Generated_Source\PSoC4/PWM_Timer.c **** 
1036:.\Generated_Source\PSoC4/PWM_Timer.c **** /*******************************************************************************
1037:.\Generated_Source\PSoC4/PWM_Timer.c **** * Function Name: PWM_Timer_ReadCaptureBuf
1038:.\Generated_Source\PSoC4/PWM_Timer.c **** ********************************************************************************
1039:.\Generated_Source\PSoC4/PWM_Timer.c **** *
1040:.\Generated_Source\PSoC4/PWM_Timer.c **** * Summary:
1041:.\Generated_Source\PSoC4/PWM_Timer.c **** *  Reads the capture buffer register. This API is applicable only for
1042:.\Generated_Source\PSoC4/PWM_Timer.c **** *  Timer/Counter with the capture mode and Quadrature Decoder modes.
1043:.\Generated_Source\PSoC4/PWM_Timer.c **** *
1044:.\Generated_Source\PSoC4/PWM_Timer.c **** * Parameters:
1045:.\Generated_Source\PSoC4/PWM_Timer.c **** *  None
1046:.\Generated_Source\PSoC4/PWM_Timer.c **** *
1047:.\Generated_Source\PSoC4/PWM_Timer.c **** * Return:
1048:.\Generated_Source\PSoC4/PWM_Timer.c **** *  Capture buffer value
1049:.\Generated_Source\PSoC4/PWM_Timer.c **** *
1050:.\Generated_Source\PSoC4/PWM_Timer.c **** *******************************************************************************/
1051:.\Generated_Source\PSoC4/PWM_Timer.c **** uint32 PWM_Timer_ReadCaptureBuf(void)
1052:.\Generated_Source\PSoC4/PWM_Timer.c **** {
 1371              		.loc 1 1052 0
 1372              		.cfi_startproc
 1373 0000 80B5     		push	{r7, lr}
 1374              	.LCFI73:
 1375              		.cfi_def_cfa_offset 8
 1376              		.cfi_offset 7, -8
 1377              		.cfi_offset 14, -4
 1378 0002 00AF     		add	r7, sp, #0
 1379              	.LCFI74:
 1380              		.cfi_def_cfa_register 7
1053:.\Generated_Source\PSoC4/PWM_Timer.c ****     return (PWM_Timer_COMP_CAP_BUF_REG & PWM_Timer_16BIT_MASK);
 1381              		.loc 1 1053 0
 1382 0004 034B     		ldr	r3, .L91
 1383 0006 1B68     		ldr	r3, [r3]
 1384 0008 1B04     		lsl	r3, r3, #16
 1385 000a 1B0C     		lsr	r3, r3, #16
1054:.\Generated_Source\PSoC4/PWM_Timer.c **** }
 1386              		.loc 1 1054 0
 1387 000c 181C     		mov	r0, r3
 1388 000e BD46     		mov	sp, r7
 1389              		@ sp needed for prologue
 1390 0010 80BD     		pop	{r7, pc}
 1391              	.L92:
 1392 0012 C046     		.align	2
 1393              	.L91:
 1394 0014 10010540 		.word	1074069776
 1395              		.cfi_endproc
 1396              	.LFE27:
 1397              		.size	PWM_Timer_ReadCaptureBuf, .-PWM_Timer_ReadCaptureBuf
ARM GAS  C:\Users\OEBN\AppData\Local\Temp\cc4YkDS7.s 			page 44


 1398              		.section	.text.PWM_Timer_SetCaptureMode,"ax",%progbits
 1399              		.align	2
 1400              		.global	PWM_Timer_SetCaptureMode
 1401              		.code	16
 1402              		.thumb_func
 1403              		.type	PWM_Timer_SetCaptureMode, %function
 1404              	PWM_Timer_SetCaptureMode:
 1405              	.LFB28:
1055:.\Generated_Source\PSoC4/PWM_Timer.c **** 
1056:.\Generated_Source\PSoC4/PWM_Timer.c **** 
1057:.\Generated_Source\PSoC4/PWM_Timer.c **** /*******************************************************************************
1058:.\Generated_Source\PSoC4/PWM_Timer.c **** * Function Name: PWM_Timer_SetCaptureMode
1059:.\Generated_Source\PSoC4/PWM_Timer.c **** ********************************************************************************
1060:.\Generated_Source\PSoC4/PWM_Timer.c **** *
1061:.\Generated_Source\PSoC4/PWM_Timer.c **** * Summary:
1062:.\Generated_Source\PSoC4/PWM_Timer.c **** *  Sets the capture trigger mode. For PWM mode this is the switch input.
1063:.\Generated_Source\PSoC4/PWM_Timer.c **** *  This input is not applicable to the Timer/Counter without Capture and
1064:.\Generated_Source\PSoC4/PWM_Timer.c **** *  Quadrature Decoder modes.
1065:.\Generated_Source\PSoC4/PWM_Timer.c **** *
1066:.\Generated_Source\PSoC4/PWM_Timer.c **** * Parameters:
1067:.\Generated_Source\PSoC4/PWM_Timer.c **** *  triggerMode: Enumerated trigger mode value
1068:.\Generated_Source\PSoC4/PWM_Timer.c **** *   Values:
1069:.\Generated_Source\PSoC4/PWM_Timer.c **** *     - PWM_Timer_TRIG_LEVEL     - Level
1070:.\Generated_Source\PSoC4/PWM_Timer.c **** *     - PWM_Timer_TRIG_RISING    - Rising edge
1071:.\Generated_Source\PSoC4/PWM_Timer.c **** *     - PWM_Timer_TRIG_FALLING   - Falling edge
1072:.\Generated_Source\PSoC4/PWM_Timer.c **** *     - PWM_Timer_TRIG_BOTH      - Both rising and falling edge
1073:.\Generated_Source\PSoC4/PWM_Timer.c **** *
1074:.\Generated_Source\PSoC4/PWM_Timer.c **** * Return:
1075:.\Generated_Source\PSoC4/PWM_Timer.c **** *  None
1076:.\Generated_Source\PSoC4/PWM_Timer.c **** *
1077:.\Generated_Source\PSoC4/PWM_Timer.c **** *******************************************************************************/
1078:.\Generated_Source\PSoC4/PWM_Timer.c **** void PWM_Timer_SetCaptureMode(uint32 triggerMode)
1079:.\Generated_Source\PSoC4/PWM_Timer.c **** {
 1406              		.loc 1 1079 0
 1407              		.cfi_startproc
 1408 0000 90B5     		push	{r4, r7, lr}
 1409              	.LCFI75:
 1410              		.cfi_def_cfa_offset 12
 1411              		.cfi_offset 4, -12
 1412              		.cfi_offset 7, -8
 1413              		.cfi_offset 14, -4
 1414 0002 85B0     		sub	sp, sp, #20
 1415              	.LCFI76:
 1416              		.cfi_def_cfa_offset 32
 1417 0004 00AF     		add	r7, sp, #0
 1418              	.LCFI77:
 1419              		.cfi_def_cfa_register 7
 1420 0006 7860     		str	r0, [r7, #4]
1080:.\Generated_Source\PSoC4/PWM_Timer.c ****     uint8 enableInterrupts;
1081:.\Generated_Source\PSoC4/PWM_Timer.c **** 
1082:.\Generated_Source\PSoC4/PWM_Timer.c ****     enableInterrupts = CyEnterCriticalSection();
 1421              		.loc 1 1082 0
 1422 0008 3C1C     		mov	r4, r7
 1423 000a 0F34     		add	r4, r4, #15
 1424 000c FFF7FEFF 		bl	CyEnterCriticalSection
 1425 0010 031C     		mov	r3, r0
 1426 0012 2370     		strb	r3, [r4]
ARM GAS  C:\Users\OEBN\AppData\Local\Temp\cc4YkDS7.s 			page 45


1083:.\Generated_Source\PSoC4/PWM_Timer.c **** 
1084:.\Generated_Source\PSoC4/PWM_Timer.c ****     PWM_Timer_TRIG_CONTROL1_REG &= (uint32)~PWM_Timer_CAPTURE_MASK;
 1427              		.loc 1 1084 0
 1428 0014 0A4B     		ldr	r3, .L94
 1429 0016 0A4A     		ldr	r2, .L94
 1430 0018 1268     		ldr	r2, [r2]
 1431 001a 0321     		mov	r1, #3
 1432 001c 8A43     		bic	r2, r1
 1433 001e 1A60     		str	r2, [r3]
1085:.\Generated_Source\PSoC4/PWM_Timer.c ****     PWM_Timer_TRIG_CONTROL1_REG |= triggerMode;
 1434              		.loc 1 1085 0
 1435 0020 074B     		ldr	r3, .L94
 1436 0022 074A     		ldr	r2, .L94
 1437 0024 1168     		ldr	r1, [r2]
 1438 0026 7A68     		ldr	r2, [r7, #4]
 1439 0028 0A43     		orr	r2, r1
 1440 002a 1A60     		str	r2, [r3]
1086:.\Generated_Source\PSoC4/PWM_Timer.c **** 
1087:.\Generated_Source\PSoC4/PWM_Timer.c ****     CyExitCriticalSection(enableInterrupts);
 1441              		.loc 1 1087 0
 1442 002c 3B1C     		mov	r3, r7
 1443 002e 0F33     		add	r3, r3, #15
 1444 0030 1B78     		ldrb	r3, [r3]
 1445 0032 181C     		mov	r0, r3
 1446 0034 FFF7FEFF 		bl	CyExitCriticalSection
1088:.\Generated_Source\PSoC4/PWM_Timer.c **** }
 1447              		.loc 1 1088 0
 1448 0038 BD46     		mov	sp, r7
 1449 003a 05B0     		add	sp, sp, #20
 1450              		@ sp needed for prologue
 1451 003c 90BD     		pop	{r4, r7, pc}
 1452              	.L95:
 1453 003e C046     		.align	2
 1454              	.L94:
 1455 0040 24010540 		.word	1074069796
 1456              		.cfi_endproc
 1457              	.LFE28:
 1458              		.size	PWM_Timer_SetCaptureMode, .-PWM_Timer_SetCaptureMode
 1459              		.section	.text.PWM_Timer_SetReloadMode,"ax",%progbits
 1460              		.align	2
 1461              		.global	PWM_Timer_SetReloadMode
 1462              		.code	16
 1463              		.thumb_func
 1464              		.type	PWM_Timer_SetReloadMode, %function
 1465              	PWM_Timer_SetReloadMode:
 1466              	.LFB29:
1089:.\Generated_Source\PSoC4/PWM_Timer.c **** 
1090:.\Generated_Source\PSoC4/PWM_Timer.c **** 
1091:.\Generated_Source\PSoC4/PWM_Timer.c **** /*******************************************************************************
1092:.\Generated_Source\PSoC4/PWM_Timer.c **** * Function Name: PWM_Timer_SetReloadMode
1093:.\Generated_Source\PSoC4/PWM_Timer.c **** ********************************************************************************
1094:.\Generated_Source\PSoC4/PWM_Timer.c **** *
1095:.\Generated_Source\PSoC4/PWM_Timer.c **** * Summary:
1096:.\Generated_Source\PSoC4/PWM_Timer.c **** *  Sets the reload trigger mode. For Quadrature Decoder mode this is the index
1097:.\Generated_Source\PSoC4/PWM_Timer.c **** *  input.
1098:.\Generated_Source\PSoC4/PWM_Timer.c **** *
1099:.\Generated_Source\PSoC4/PWM_Timer.c **** * Parameters:
ARM GAS  C:\Users\OEBN\AppData\Local\Temp\cc4YkDS7.s 			page 46


1100:.\Generated_Source\PSoC4/PWM_Timer.c **** *  triggerMode: Enumerated trigger mode value
1101:.\Generated_Source\PSoC4/PWM_Timer.c **** *   Values:
1102:.\Generated_Source\PSoC4/PWM_Timer.c **** *     - PWM_Timer_TRIG_LEVEL     - Level
1103:.\Generated_Source\PSoC4/PWM_Timer.c **** *     - PWM_Timer_TRIG_RISING    - Rising edge
1104:.\Generated_Source\PSoC4/PWM_Timer.c **** *     - PWM_Timer_TRIG_FALLING   - Falling edge
1105:.\Generated_Source\PSoC4/PWM_Timer.c **** *     - PWM_Timer_TRIG_BOTH      - Both rising and falling edge
1106:.\Generated_Source\PSoC4/PWM_Timer.c **** *
1107:.\Generated_Source\PSoC4/PWM_Timer.c **** * Return:
1108:.\Generated_Source\PSoC4/PWM_Timer.c **** *  None
1109:.\Generated_Source\PSoC4/PWM_Timer.c **** *
1110:.\Generated_Source\PSoC4/PWM_Timer.c **** *******************************************************************************/
1111:.\Generated_Source\PSoC4/PWM_Timer.c **** void PWM_Timer_SetReloadMode(uint32 triggerMode)
1112:.\Generated_Source\PSoC4/PWM_Timer.c **** {
 1467              		.loc 1 1112 0
 1468              		.cfi_startproc
 1469 0000 90B5     		push	{r4, r7, lr}
 1470              	.LCFI78:
 1471              		.cfi_def_cfa_offset 12
 1472              		.cfi_offset 4, -12
 1473              		.cfi_offset 7, -8
 1474              		.cfi_offset 14, -4
 1475 0002 85B0     		sub	sp, sp, #20
 1476              	.LCFI79:
 1477              		.cfi_def_cfa_offset 32
 1478 0004 00AF     		add	r7, sp, #0
 1479              	.LCFI80:
 1480              		.cfi_def_cfa_register 7
 1481 0006 7860     		str	r0, [r7, #4]
1113:.\Generated_Source\PSoC4/PWM_Timer.c ****     uint8 enableInterrupts;
1114:.\Generated_Source\PSoC4/PWM_Timer.c **** 
1115:.\Generated_Source\PSoC4/PWM_Timer.c ****     enableInterrupts = CyEnterCriticalSection();
 1482              		.loc 1 1115 0
 1483 0008 3C1C     		mov	r4, r7
 1484 000a 0F34     		add	r4, r4, #15
 1485 000c FFF7FEFF 		bl	CyEnterCriticalSection
 1486 0010 031C     		mov	r3, r0
 1487 0012 2370     		strb	r3, [r4]
1116:.\Generated_Source\PSoC4/PWM_Timer.c **** 
1117:.\Generated_Source\PSoC4/PWM_Timer.c ****     PWM_Timer_TRIG_CONTROL1_REG &= (uint32)~PWM_Timer_RELOAD_MASK;
 1488              		.loc 1 1117 0
 1489 0014 0A4B     		ldr	r3, .L97
 1490 0016 0A4A     		ldr	r2, .L97
 1491 0018 1268     		ldr	r2, [r2]
 1492 001a 3021     		mov	r1, #48
 1493 001c 8A43     		bic	r2, r1
 1494 001e 1A60     		str	r2, [r3]
1118:.\Generated_Source\PSoC4/PWM_Timer.c ****     PWM_Timer_TRIG_CONTROL1_REG |= ((uint32)(triggerMode << PWM_Timer_RELOAD_SHIFT));
 1495              		.loc 1 1118 0
 1496 0020 074B     		ldr	r3, .L97
 1497 0022 074A     		ldr	r2, .L97
 1498 0024 1168     		ldr	r1, [r2]
 1499 0026 7A68     		ldr	r2, [r7, #4]
 1500 0028 1201     		lsl	r2, r2, #4
 1501 002a 0A43     		orr	r2, r1
 1502 002c 1A60     		str	r2, [r3]
1119:.\Generated_Source\PSoC4/PWM_Timer.c **** 
1120:.\Generated_Source\PSoC4/PWM_Timer.c ****     CyExitCriticalSection(enableInterrupts);
ARM GAS  C:\Users\OEBN\AppData\Local\Temp\cc4YkDS7.s 			page 47


 1503              		.loc 1 1120 0
 1504 002e 3B1C     		mov	r3, r7
 1505 0030 0F33     		add	r3, r3, #15
 1506 0032 1B78     		ldrb	r3, [r3]
 1507 0034 181C     		mov	r0, r3
 1508 0036 FFF7FEFF 		bl	CyExitCriticalSection
1121:.\Generated_Source\PSoC4/PWM_Timer.c **** }
 1509              		.loc 1 1121 0
 1510 003a BD46     		mov	sp, r7
 1511 003c 05B0     		add	sp, sp, #20
 1512              		@ sp needed for prologue
 1513 003e 90BD     		pop	{r4, r7, pc}
 1514              	.L98:
 1515              		.align	2
 1516              	.L97:
 1517 0040 24010540 		.word	1074069796
 1518              		.cfi_endproc
 1519              	.LFE29:
 1520              		.size	PWM_Timer_SetReloadMode, .-PWM_Timer_SetReloadMode
 1521              		.section	.text.PWM_Timer_SetStartMode,"ax",%progbits
 1522              		.align	2
 1523              		.global	PWM_Timer_SetStartMode
 1524              		.code	16
 1525              		.thumb_func
 1526              		.type	PWM_Timer_SetStartMode, %function
 1527              	PWM_Timer_SetStartMode:
 1528              	.LFB30:
1122:.\Generated_Source\PSoC4/PWM_Timer.c **** 
1123:.\Generated_Source\PSoC4/PWM_Timer.c **** 
1124:.\Generated_Source\PSoC4/PWM_Timer.c **** /*******************************************************************************
1125:.\Generated_Source\PSoC4/PWM_Timer.c **** * Function Name: PWM_Timer_SetStartMode
1126:.\Generated_Source\PSoC4/PWM_Timer.c **** ********************************************************************************
1127:.\Generated_Source\PSoC4/PWM_Timer.c **** *
1128:.\Generated_Source\PSoC4/PWM_Timer.c **** * Summary:
1129:.\Generated_Source\PSoC4/PWM_Timer.c **** *  Sets the start trigger mode. For Quadrature Decoder mode this is the
1130:.\Generated_Source\PSoC4/PWM_Timer.c **** *  phiB input.
1131:.\Generated_Source\PSoC4/PWM_Timer.c **** *
1132:.\Generated_Source\PSoC4/PWM_Timer.c **** * Parameters:
1133:.\Generated_Source\PSoC4/PWM_Timer.c **** *  triggerMode: Enumerated trigger mode value
1134:.\Generated_Source\PSoC4/PWM_Timer.c **** *   Values:
1135:.\Generated_Source\PSoC4/PWM_Timer.c **** *     - PWM_Timer_TRIG_LEVEL     - Level
1136:.\Generated_Source\PSoC4/PWM_Timer.c **** *     - PWM_Timer_TRIG_RISING    - Rising edge
1137:.\Generated_Source\PSoC4/PWM_Timer.c **** *     - PWM_Timer_TRIG_FALLING   - Falling edge
1138:.\Generated_Source\PSoC4/PWM_Timer.c **** *     - PWM_Timer_TRIG_BOTH      - Both rising and falling edge
1139:.\Generated_Source\PSoC4/PWM_Timer.c **** *
1140:.\Generated_Source\PSoC4/PWM_Timer.c **** * Return:
1141:.\Generated_Source\PSoC4/PWM_Timer.c **** *  None
1142:.\Generated_Source\PSoC4/PWM_Timer.c **** *
1143:.\Generated_Source\PSoC4/PWM_Timer.c **** *******************************************************************************/
1144:.\Generated_Source\PSoC4/PWM_Timer.c **** void PWM_Timer_SetStartMode(uint32 triggerMode)
1145:.\Generated_Source\PSoC4/PWM_Timer.c **** {
 1529              		.loc 1 1145 0
 1530              		.cfi_startproc
 1531 0000 90B5     		push	{r4, r7, lr}
 1532              	.LCFI81:
 1533              		.cfi_def_cfa_offset 12
 1534              		.cfi_offset 4, -12
ARM GAS  C:\Users\OEBN\AppData\Local\Temp\cc4YkDS7.s 			page 48


 1535              		.cfi_offset 7, -8
 1536              		.cfi_offset 14, -4
 1537 0002 85B0     		sub	sp, sp, #20
 1538              	.LCFI82:
 1539              		.cfi_def_cfa_offset 32
 1540 0004 00AF     		add	r7, sp, #0
 1541              	.LCFI83:
 1542              		.cfi_def_cfa_register 7
 1543 0006 7860     		str	r0, [r7, #4]
1146:.\Generated_Source\PSoC4/PWM_Timer.c ****     uint8 enableInterrupts;
1147:.\Generated_Source\PSoC4/PWM_Timer.c **** 
1148:.\Generated_Source\PSoC4/PWM_Timer.c ****     enableInterrupts = CyEnterCriticalSection();
 1544              		.loc 1 1148 0
 1545 0008 3C1C     		mov	r4, r7
 1546 000a 0F34     		add	r4, r4, #15
 1547 000c FFF7FEFF 		bl	CyEnterCriticalSection
 1548 0010 031C     		mov	r3, r0
 1549 0012 2370     		strb	r3, [r4]
1149:.\Generated_Source\PSoC4/PWM_Timer.c **** 
1150:.\Generated_Source\PSoC4/PWM_Timer.c ****     PWM_Timer_TRIG_CONTROL1_REG &= (uint32)~PWM_Timer_START_MASK;
 1550              		.loc 1 1150 0
 1551 0014 0A4B     		ldr	r3, .L100
 1552 0016 0A4A     		ldr	r2, .L100
 1553 0018 1168     		ldr	r1, [r2]
 1554 001a 0A4A     		ldr	r2, .L100+4
 1555 001c 0A40     		and	r2, r1
 1556 001e 1A60     		str	r2, [r3]
1151:.\Generated_Source\PSoC4/PWM_Timer.c ****     PWM_Timer_TRIG_CONTROL1_REG |= ((uint32)(triggerMode << PWM_Timer_START_SHIFT));
 1557              		.loc 1 1151 0
 1558 0020 074B     		ldr	r3, .L100
 1559 0022 074A     		ldr	r2, .L100
 1560 0024 1168     		ldr	r1, [r2]
 1561 0026 7A68     		ldr	r2, [r7, #4]
 1562 0028 1202     		lsl	r2, r2, #8
 1563 002a 0A43     		orr	r2, r1
 1564 002c 1A60     		str	r2, [r3]
1152:.\Generated_Source\PSoC4/PWM_Timer.c **** 
1153:.\Generated_Source\PSoC4/PWM_Timer.c ****     CyExitCriticalSection(enableInterrupts);
 1565              		.loc 1 1153 0
 1566 002e 3B1C     		mov	r3, r7
 1567 0030 0F33     		add	r3, r3, #15
 1568 0032 1B78     		ldrb	r3, [r3]
 1569 0034 181C     		mov	r0, r3
 1570 0036 FFF7FEFF 		bl	CyExitCriticalSection
1154:.\Generated_Source\PSoC4/PWM_Timer.c **** }
 1571              		.loc 1 1154 0
 1572 003a BD46     		mov	sp, r7
 1573 003c 05B0     		add	sp, sp, #20
 1574              		@ sp needed for prologue
 1575 003e 90BD     		pop	{r4, r7, pc}
 1576              	.L101:
 1577              		.align	2
 1578              	.L100:
 1579 0040 24010540 		.word	1074069796
 1580 0044 FFFCFFFF 		.word	-769
 1581              		.cfi_endproc
 1582              	.LFE30:
ARM GAS  C:\Users\OEBN\AppData\Local\Temp\cc4YkDS7.s 			page 49


 1583              		.size	PWM_Timer_SetStartMode, .-PWM_Timer_SetStartMode
 1584              		.section	.text.PWM_Timer_SetStopMode,"ax",%progbits
 1585              		.align	2
 1586              		.global	PWM_Timer_SetStopMode
 1587              		.code	16
 1588              		.thumb_func
 1589              		.type	PWM_Timer_SetStopMode, %function
 1590              	PWM_Timer_SetStopMode:
 1591              	.LFB31:
1155:.\Generated_Source\PSoC4/PWM_Timer.c **** 
1156:.\Generated_Source\PSoC4/PWM_Timer.c **** 
1157:.\Generated_Source\PSoC4/PWM_Timer.c **** /*******************************************************************************
1158:.\Generated_Source\PSoC4/PWM_Timer.c **** * Function Name: PWM_Timer_SetStopMode
1159:.\Generated_Source\PSoC4/PWM_Timer.c **** ********************************************************************************
1160:.\Generated_Source\PSoC4/PWM_Timer.c **** *
1161:.\Generated_Source\PSoC4/PWM_Timer.c **** * Summary:
1162:.\Generated_Source\PSoC4/PWM_Timer.c **** *  Sets the stop trigger mode. For PWM mode this is the kill input.
1163:.\Generated_Source\PSoC4/PWM_Timer.c **** *
1164:.\Generated_Source\PSoC4/PWM_Timer.c **** * Parameters:
1165:.\Generated_Source\PSoC4/PWM_Timer.c **** *  triggerMode: Enumerated trigger mode value
1166:.\Generated_Source\PSoC4/PWM_Timer.c **** *   Values:
1167:.\Generated_Source\PSoC4/PWM_Timer.c **** *     - PWM_Timer_TRIG_LEVEL     - Level
1168:.\Generated_Source\PSoC4/PWM_Timer.c **** *     - PWM_Timer_TRIG_RISING    - Rising edge
1169:.\Generated_Source\PSoC4/PWM_Timer.c **** *     - PWM_Timer_TRIG_FALLING   - Falling edge
1170:.\Generated_Source\PSoC4/PWM_Timer.c **** *     - PWM_Timer_TRIG_BOTH      - Both rising and falling edge
1171:.\Generated_Source\PSoC4/PWM_Timer.c **** *
1172:.\Generated_Source\PSoC4/PWM_Timer.c **** * Return:
1173:.\Generated_Source\PSoC4/PWM_Timer.c **** *  None
1174:.\Generated_Source\PSoC4/PWM_Timer.c **** *
1175:.\Generated_Source\PSoC4/PWM_Timer.c **** *******************************************************************************/
1176:.\Generated_Source\PSoC4/PWM_Timer.c **** void PWM_Timer_SetStopMode(uint32 triggerMode)
1177:.\Generated_Source\PSoC4/PWM_Timer.c **** {
 1592              		.loc 1 1177 0
 1593              		.cfi_startproc
 1594 0000 90B5     		push	{r4, r7, lr}
 1595              	.LCFI84:
 1596              		.cfi_def_cfa_offset 12
 1597              		.cfi_offset 4, -12
 1598              		.cfi_offset 7, -8
 1599              		.cfi_offset 14, -4
 1600 0002 85B0     		sub	sp, sp, #20
 1601              	.LCFI85:
 1602              		.cfi_def_cfa_offset 32
 1603 0004 00AF     		add	r7, sp, #0
 1604              	.LCFI86:
 1605              		.cfi_def_cfa_register 7
 1606 0006 7860     		str	r0, [r7, #4]
1178:.\Generated_Source\PSoC4/PWM_Timer.c ****     uint8 enableInterrupts;
1179:.\Generated_Source\PSoC4/PWM_Timer.c **** 
1180:.\Generated_Source\PSoC4/PWM_Timer.c ****     enableInterrupts = CyEnterCriticalSection();
 1607              		.loc 1 1180 0
 1608 0008 3C1C     		mov	r4, r7
 1609 000a 0F34     		add	r4, r4, #15
 1610 000c FFF7FEFF 		bl	CyEnterCriticalSection
 1611 0010 031C     		mov	r3, r0
 1612 0012 2370     		strb	r3, [r4]
1181:.\Generated_Source\PSoC4/PWM_Timer.c **** 
ARM GAS  C:\Users\OEBN\AppData\Local\Temp\cc4YkDS7.s 			page 50


1182:.\Generated_Source\PSoC4/PWM_Timer.c ****     PWM_Timer_TRIG_CONTROL1_REG &= (uint32)~PWM_Timer_STOP_MASK;
 1613              		.loc 1 1182 0
 1614 0014 0A4B     		ldr	r3, .L103
 1615 0016 0A4A     		ldr	r2, .L103
 1616 0018 1268     		ldr	r2, [r2]
 1617 001a C021     		mov	r1, #192
 1618 001c 8A43     		bic	r2, r1
 1619 001e 1A60     		str	r2, [r3]
1183:.\Generated_Source\PSoC4/PWM_Timer.c ****     PWM_Timer_TRIG_CONTROL1_REG |= ((uint32)(triggerMode << PWM_Timer_STOP_SHIFT));
 1620              		.loc 1 1183 0
 1621 0020 074B     		ldr	r3, .L103
 1622 0022 074A     		ldr	r2, .L103
 1623 0024 1168     		ldr	r1, [r2]
 1624 0026 7A68     		ldr	r2, [r7, #4]
 1625 0028 9201     		lsl	r2, r2, #6
 1626 002a 0A43     		orr	r2, r1
 1627 002c 1A60     		str	r2, [r3]
1184:.\Generated_Source\PSoC4/PWM_Timer.c **** 
1185:.\Generated_Source\PSoC4/PWM_Timer.c ****     CyExitCriticalSection(enableInterrupts);
 1628              		.loc 1 1185 0
 1629 002e 3B1C     		mov	r3, r7
 1630 0030 0F33     		add	r3, r3, #15
 1631 0032 1B78     		ldrb	r3, [r3]
 1632 0034 181C     		mov	r0, r3
 1633 0036 FFF7FEFF 		bl	CyExitCriticalSection
1186:.\Generated_Source\PSoC4/PWM_Timer.c **** }
 1634              		.loc 1 1186 0
 1635 003a BD46     		mov	sp, r7
 1636 003c 05B0     		add	sp, sp, #20
 1637              		@ sp needed for prologue
 1638 003e 90BD     		pop	{r4, r7, pc}
 1639              	.L104:
 1640              		.align	2
 1641              	.L103:
 1642 0040 24010540 		.word	1074069796
 1643              		.cfi_endproc
 1644              	.LFE31:
 1645              		.size	PWM_Timer_SetStopMode, .-PWM_Timer_SetStopMode
 1646              		.section	.text.PWM_Timer_SetCountMode,"ax",%progbits
 1647              		.align	2
 1648              		.global	PWM_Timer_SetCountMode
 1649              		.code	16
 1650              		.thumb_func
 1651              		.type	PWM_Timer_SetCountMode, %function
 1652              	PWM_Timer_SetCountMode:
 1653              	.LFB32:
1187:.\Generated_Source\PSoC4/PWM_Timer.c **** 
1188:.\Generated_Source\PSoC4/PWM_Timer.c **** 
1189:.\Generated_Source\PSoC4/PWM_Timer.c **** /*******************************************************************************
1190:.\Generated_Source\PSoC4/PWM_Timer.c **** * Function Name: PWM_Timer_SetCountMode
1191:.\Generated_Source\PSoC4/PWM_Timer.c **** ********************************************************************************
1192:.\Generated_Source\PSoC4/PWM_Timer.c **** *
1193:.\Generated_Source\PSoC4/PWM_Timer.c **** * Summary:
1194:.\Generated_Source\PSoC4/PWM_Timer.c **** *  Sets the count trigger mode. For Quadrature Decoder mode this is the phiA
1195:.\Generated_Source\PSoC4/PWM_Timer.c **** *  input.
1196:.\Generated_Source\PSoC4/PWM_Timer.c **** *
1197:.\Generated_Source\PSoC4/PWM_Timer.c **** * Parameters:
ARM GAS  C:\Users\OEBN\AppData\Local\Temp\cc4YkDS7.s 			page 51


1198:.\Generated_Source\PSoC4/PWM_Timer.c **** *  triggerMode: Enumerated trigger mode value
1199:.\Generated_Source\PSoC4/PWM_Timer.c **** *   Values:
1200:.\Generated_Source\PSoC4/PWM_Timer.c **** *     - PWM_Timer_TRIG_LEVEL     - Level
1201:.\Generated_Source\PSoC4/PWM_Timer.c **** *     - PWM_Timer_TRIG_RISING    - Rising edge
1202:.\Generated_Source\PSoC4/PWM_Timer.c **** *     - PWM_Timer_TRIG_FALLING   - Falling edge
1203:.\Generated_Source\PSoC4/PWM_Timer.c **** *     - PWM_Timer_TRIG_BOTH      - Both rising and falling edge
1204:.\Generated_Source\PSoC4/PWM_Timer.c **** *
1205:.\Generated_Source\PSoC4/PWM_Timer.c **** * Return:
1206:.\Generated_Source\PSoC4/PWM_Timer.c **** *  None
1207:.\Generated_Source\PSoC4/PWM_Timer.c **** *
1208:.\Generated_Source\PSoC4/PWM_Timer.c **** *******************************************************************************/
1209:.\Generated_Source\PSoC4/PWM_Timer.c **** void PWM_Timer_SetCountMode(uint32 triggerMode)
1210:.\Generated_Source\PSoC4/PWM_Timer.c **** {
 1654              		.loc 1 1210 0
 1655              		.cfi_startproc
 1656 0000 90B5     		push	{r4, r7, lr}
 1657              	.LCFI87:
 1658              		.cfi_def_cfa_offset 12
 1659              		.cfi_offset 4, -12
 1660              		.cfi_offset 7, -8
 1661              		.cfi_offset 14, -4
 1662 0002 85B0     		sub	sp, sp, #20
 1663              	.LCFI88:
 1664              		.cfi_def_cfa_offset 32
 1665 0004 00AF     		add	r7, sp, #0
 1666              	.LCFI89:
 1667              		.cfi_def_cfa_register 7
 1668 0006 7860     		str	r0, [r7, #4]
1211:.\Generated_Source\PSoC4/PWM_Timer.c ****     uint8 enableInterrupts;
1212:.\Generated_Source\PSoC4/PWM_Timer.c **** 
1213:.\Generated_Source\PSoC4/PWM_Timer.c ****     enableInterrupts = CyEnterCriticalSection();
 1669              		.loc 1 1213 0
 1670 0008 3C1C     		mov	r4, r7
 1671 000a 0F34     		add	r4, r4, #15
 1672 000c FFF7FEFF 		bl	CyEnterCriticalSection
 1673 0010 031C     		mov	r3, r0
 1674 0012 2370     		strb	r3, [r4]
1214:.\Generated_Source\PSoC4/PWM_Timer.c **** 
1215:.\Generated_Source\PSoC4/PWM_Timer.c ****     PWM_Timer_TRIG_CONTROL1_REG &= (uint32)~PWM_Timer_COUNT_MASK;
 1675              		.loc 1 1215 0
 1676 0014 0A4B     		ldr	r3, .L106
 1677 0016 0A4A     		ldr	r2, .L106
 1678 0018 1268     		ldr	r2, [r2]
 1679 001a 0C21     		mov	r1, #12
 1680 001c 8A43     		bic	r2, r1
 1681 001e 1A60     		str	r2, [r3]
1216:.\Generated_Source\PSoC4/PWM_Timer.c ****     PWM_Timer_TRIG_CONTROL1_REG |= ((uint32)(triggerMode << PWM_Timer_COUNT_SHIFT));
 1682              		.loc 1 1216 0
 1683 0020 074B     		ldr	r3, .L106
 1684 0022 074A     		ldr	r2, .L106
 1685 0024 1168     		ldr	r1, [r2]
 1686 0026 7A68     		ldr	r2, [r7, #4]
 1687 0028 9200     		lsl	r2, r2, #2
 1688 002a 0A43     		orr	r2, r1
 1689 002c 1A60     		str	r2, [r3]
1217:.\Generated_Source\PSoC4/PWM_Timer.c **** 
1218:.\Generated_Source\PSoC4/PWM_Timer.c ****     CyExitCriticalSection(enableInterrupts);
ARM GAS  C:\Users\OEBN\AppData\Local\Temp\cc4YkDS7.s 			page 52


 1690              		.loc 1 1218 0
 1691 002e 3B1C     		mov	r3, r7
 1692 0030 0F33     		add	r3, r3, #15
 1693 0032 1B78     		ldrb	r3, [r3]
 1694 0034 181C     		mov	r0, r3
 1695 0036 FFF7FEFF 		bl	CyExitCriticalSection
1219:.\Generated_Source\PSoC4/PWM_Timer.c **** }
 1696              		.loc 1 1219 0
 1697 003a BD46     		mov	sp, r7
 1698 003c 05B0     		add	sp, sp, #20
 1699              		@ sp needed for prologue
 1700 003e 90BD     		pop	{r4, r7, pc}
 1701              	.L107:
 1702              		.align	2
 1703              	.L106:
 1704 0040 24010540 		.word	1074069796
 1705              		.cfi_endproc
 1706              	.LFE32:
 1707              		.size	PWM_Timer_SetCountMode, .-PWM_Timer_SetCountMode
 1708              		.section	.text.PWM_Timer_TriggerCommand,"ax",%progbits
 1709              		.align	2
 1710              		.global	PWM_Timer_TriggerCommand
 1711              		.code	16
 1712              		.thumb_func
 1713              		.type	PWM_Timer_TriggerCommand, %function
 1714              	PWM_Timer_TriggerCommand:
 1715              	.LFB33:
1220:.\Generated_Source\PSoC4/PWM_Timer.c **** 
1221:.\Generated_Source\PSoC4/PWM_Timer.c **** 
1222:.\Generated_Source\PSoC4/PWM_Timer.c **** /*******************************************************************************
1223:.\Generated_Source\PSoC4/PWM_Timer.c **** * Function Name: PWM_Timer_TriggerCommand
1224:.\Generated_Source\PSoC4/PWM_Timer.c **** ********************************************************************************
1225:.\Generated_Source\PSoC4/PWM_Timer.c **** *
1226:.\Generated_Source\PSoC4/PWM_Timer.c **** * Summary:
1227:.\Generated_Source\PSoC4/PWM_Timer.c **** *  Triggers the designated command to occur on the designated TCPWM instances.
1228:.\Generated_Source\PSoC4/PWM_Timer.c **** *  The mask can be used to apply this command simultaneously to more than one
1229:.\Generated_Source\PSoC4/PWM_Timer.c **** *  instance.  This allows multiple TCPWM instances to be synchronized.
1230:.\Generated_Source\PSoC4/PWM_Timer.c **** *
1231:.\Generated_Source\PSoC4/PWM_Timer.c **** * Parameters:
1232:.\Generated_Source\PSoC4/PWM_Timer.c **** *  mask: A combination of mask bits for each instance of the TCPWM that the
1233:.\Generated_Source\PSoC4/PWM_Timer.c **** *        command should apply to.  This function from one instance can be used
1234:.\Generated_Source\PSoC4/PWM_Timer.c **** *        to apply the command to any of the instances in the design.
1235:.\Generated_Source\PSoC4/PWM_Timer.c **** *        The mask value for a specific instance is available with the MASK
1236:.\Generated_Source\PSoC4/PWM_Timer.c **** *        define.
1237:.\Generated_Source\PSoC4/PWM_Timer.c **** *  command: Enumerated command values. Capture command only applicable for
1238:.\Generated_Source\PSoC4/PWM_Timer.c **** *           Timer/Counter with Capture and PWM modes.
1239:.\Generated_Source\PSoC4/PWM_Timer.c **** *   Values:
1240:.\Generated_Source\PSoC4/PWM_Timer.c **** *     - PWM_Timer_CMD_CAPTURE    - Trigger Capture command
1241:.\Generated_Source\PSoC4/PWM_Timer.c **** *     - PWM_Timer_CMD_RELOAD     - Trigger Reload command
1242:.\Generated_Source\PSoC4/PWM_Timer.c **** *     - PWM_Timer_CMD_STOP       - Trigger Stop command
1243:.\Generated_Source\PSoC4/PWM_Timer.c **** *     - PWM_Timer_CMD_START      - Trigger Start command
1244:.\Generated_Source\PSoC4/PWM_Timer.c **** *
1245:.\Generated_Source\PSoC4/PWM_Timer.c **** * Return:
1246:.\Generated_Source\PSoC4/PWM_Timer.c **** *  None
1247:.\Generated_Source\PSoC4/PWM_Timer.c **** *
1248:.\Generated_Source\PSoC4/PWM_Timer.c **** *******************************************************************************/
1249:.\Generated_Source\PSoC4/PWM_Timer.c **** void PWM_Timer_TriggerCommand(uint32 mask, uint32 command)
ARM GAS  C:\Users\OEBN\AppData\Local\Temp\cc4YkDS7.s 			page 53


1250:.\Generated_Source\PSoC4/PWM_Timer.c **** {
 1716              		.loc 1 1250 0
 1717              		.cfi_startproc
 1718 0000 90B5     		push	{r4, r7, lr}
 1719              	.LCFI90:
 1720              		.cfi_def_cfa_offset 12
 1721              		.cfi_offset 4, -12
 1722              		.cfi_offset 7, -8
 1723              		.cfi_offset 14, -4
 1724 0002 85B0     		sub	sp, sp, #20
 1725              	.LCFI91:
 1726              		.cfi_def_cfa_offset 32
 1727 0004 00AF     		add	r7, sp, #0
 1728              	.LCFI92:
 1729              		.cfi_def_cfa_register 7
 1730 0006 7860     		str	r0, [r7, #4]
 1731 0008 3960     		str	r1, [r7]
1251:.\Generated_Source\PSoC4/PWM_Timer.c ****     uint8 enableInterrupts;
1252:.\Generated_Source\PSoC4/PWM_Timer.c **** 
1253:.\Generated_Source\PSoC4/PWM_Timer.c ****     enableInterrupts = CyEnterCriticalSection();
 1732              		.loc 1 1253 0
 1733 000a 3C1C     		mov	r4, r7
 1734 000c 0F34     		add	r4, r4, #15
 1735 000e FFF7FEFF 		bl	CyEnterCriticalSection
 1736 0012 031C     		mov	r3, r0
 1737 0014 2370     		strb	r3, [r4]
1254:.\Generated_Source\PSoC4/PWM_Timer.c **** 
1255:.\Generated_Source\PSoC4/PWM_Timer.c ****     PWM_Timer_COMMAND_REG = ((uint32)(mask << command));
 1738              		.loc 1 1255 0
 1739 0016 084B     		ldr	r3, .L109
 1740 0018 3A68     		ldr	r2, [r7]
 1741 001a 7968     		ldr	r1, [r7, #4]
 1742 001c 081C     		mov	r0, r1
 1743 001e 9040     		lsl	r0, r0, r2
 1744 0020 021C     		mov	r2, r0
 1745 0022 1A60     		str	r2, [r3]
1256:.\Generated_Source\PSoC4/PWM_Timer.c **** 
1257:.\Generated_Source\PSoC4/PWM_Timer.c ****     CyExitCriticalSection(enableInterrupts);
 1746              		.loc 1 1257 0
 1747 0024 3B1C     		mov	r3, r7
 1748 0026 0F33     		add	r3, r3, #15
 1749 0028 1B78     		ldrb	r3, [r3]
 1750 002a 181C     		mov	r0, r3
 1751 002c FFF7FEFF 		bl	CyExitCriticalSection
1258:.\Generated_Source\PSoC4/PWM_Timer.c **** }
 1752              		.loc 1 1258 0
 1753 0030 BD46     		mov	sp, r7
 1754 0032 05B0     		add	sp, sp, #20
 1755              		@ sp needed for prologue
 1756 0034 90BD     		pop	{r4, r7, pc}
 1757              	.L110:
 1758 0036 C046     		.align	2
 1759              	.L109:
 1760 0038 08000540 		.word	1074069512
 1761              		.cfi_endproc
 1762              	.LFE33:
 1763              		.size	PWM_Timer_TriggerCommand, .-PWM_Timer_TriggerCommand
ARM GAS  C:\Users\OEBN\AppData\Local\Temp\cc4YkDS7.s 			page 54


 1764              		.section	.text.PWM_Timer_ReadStatus,"ax",%progbits
 1765              		.align	2
 1766              		.global	PWM_Timer_ReadStatus
 1767              		.code	16
 1768              		.thumb_func
 1769              		.type	PWM_Timer_ReadStatus, %function
 1770              	PWM_Timer_ReadStatus:
 1771              	.LFB34:
1259:.\Generated_Source\PSoC4/PWM_Timer.c **** 
1260:.\Generated_Source\PSoC4/PWM_Timer.c **** 
1261:.\Generated_Source\PSoC4/PWM_Timer.c **** /*******************************************************************************
1262:.\Generated_Source\PSoC4/PWM_Timer.c **** * Function Name: PWM_Timer_ReadStatus
1263:.\Generated_Source\PSoC4/PWM_Timer.c **** ********************************************************************************
1264:.\Generated_Source\PSoC4/PWM_Timer.c **** *
1265:.\Generated_Source\PSoC4/PWM_Timer.c **** * Summary:
1266:.\Generated_Source\PSoC4/PWM_Timer.c **** *  Reads the status of the PWM_Timer.
1267:.\Generated_Source\PSoC4/PWM_Timer.c **** *
1268:.\Generated_Source\PSoC4/PWM_Timer.c **** * Parameters:
1269:.\Generated_Source\PSoC4/PWM_Timer.c **** *  None
1270:.\Generated_Source\PSoC4/PWM_Timer.c **** *
1271:.\Generated_Source\PSoC4/PWM_Timer.c **** * Return:
1272:.\Generated_Source\PSoC4/PWM_Timer.c **** *  Status
1273:.\Generated_Source\PSoC4/PWM_Timer.c **** *   Values:
1274:.\Generated_Source\PSoC4/PWM_Timer.c **** *     - PWM_Timer_STATUS_DOWN    - Set if counting down
1275:.\Generated_Source\PSoC4/PWM_Timer.c **** *     - PWM_Timer_STATUS_RUNNING - Set if counter is running
1276:.\Generated_Source\PSoC4/PWM_Timer.c **** *
1277:.\Generated_Source\PSoC4/PWM_Timer.c **** *******************************************************************************/
1278:.\Generated_Source\PSoC4/PWM_Timer.c **** uint32 PWM_Timer_ReadStatus(void)
1279:.\Generated_Source\PSoC4/PWM_Timer.c **** {
 1772              		.loc 1 1279 0
 1773              		.cfi_startproc
 1774 0000 80B5     		push	{r7, lr}
 1775              	.LCFI93:
 1776              		.cfi_def_cfa_offset 8
 1777              		.cfi_offset 7, -8
 1778              		.cfi_offset 14, -4
 1779 0002 00AF     		add	r7, sp, #0
 1780              	.LCFI94:
 1781              		.cfi_def_cfa_register 7
1280:.\Generated_Source\PSoC4/PWM_Timer.c ****     return ((PWM_Timer_STATUS_REG >> PWM_Timer_RUNNING_STATUS_SHIFT) |
 1782              		.loc 1 1280 0
 1783 0004 054B     		ldr	r3, .L113
 1784 0006 1B68     		ldr	r3, [r3]
 1785 0008 9A0F     		lsr	r2, r3, #30
1281:.\Generated_Source\PSoC4/PWM_Timer.c ****             (PWM_Timer_STATUS_REG & PWM_Timer_STATUS_DOWN));
 1786              		.loc 1 1281 0
 1787 000a 044B     		ldr	r3, .L113
 1788 000c 1968     		ldr	r1, [r3]
 1789 000e 0123     		mov	r3, #1
 1790 0010 0B40     		and	r3, r1
1280:.\Generated_Source\PSoC4/PWM_Timer.c ****     return ((PWM_Timer_STATUS_REG >> PWM_Timer_RUNNING_STATUS_SHIFT) |
 1791              		.loc 1 1280 0
 1792 0012 1343     		orr	r3, r2
1282:.\Generated_Source\PSoC4/PWM_Timer.c **** }
 1793              		.loc 1 1282 0
 1794 0014 181C     		mov	r0, r3
 1795 0016 BD46     		mov	sp, r7
ARM GAS  C:\Users\OEBN\AppData\Local\Temp\cc4YkDS7.s 			page 55


 1796              		@ sp needed for prologue
 1797 0018 80BD     		pop	{r7, pc}
 1798              	.L114:
 1799 001a C046     		.align	2
 1800              	.L113:
 1801 001c 04010540 		.word	1074069764
 1802              		.cfi_endproc
 1803              	.LFE34:
 1804              		.size	PWM_Timer_ReadStatus, .-PWM_Timer_ReadStatus
 1805              		.section	.text.PWM_Timer_SetInterruptMode,"ax",%progbits
 1806              		.align	2
 1807              		.global	PWM_Timer_SetInterruptMode
 1808              		.code	16
 1809              		.thumb_func
 1810              		.type	PWM_Timer_SetInterruptMode, %function
 1811              	PWM_Timer_SetInterruptMode:
 1812              	.LFB35:
1283:.\Generated_Source\PSoC4/PWM_Timer.c **** 
1284:.\Generated_Source\PSoC4/PWM_Timer.c **** 
1285:.\Generated_Source\PSoC4/PWM_Timer.c **** /*******************************************************************************
1286:.\Generated_Source\PSoC4/PWM_Timer.c **** * Function Name: PWM_Timer_SetInterruptMode
1287:.\Generated_Source\PSoC4/PWM_Timer.c **** ********************************************************************************
1288:.\Generated_Source\PSoC4/PWM_Timer.c **** *
1289:.\Generated_Source\PSoC4/PWM_Timer.c **** * Summary:
1290:.\Generated_Source\PSoC4/PWM_Timer.c **** *  Sets the interrupt mask to control which interrupt
1291:.\Generated_Source\PSoC4/PWM_Timer.c **** *  requests generate the interrupt signal.
1292:.\Generated_Source\PSoC4/PWM_Timer.c **** *
1293:.\Generated_Source\PSoC4/PWM_Timer.c **** * Parameters:
1294:.\Generated_Source\PSoC4/PWM_Timer.c **** *   interruptMask: Mask of bits to be enabled
1295:.\Generated_Source\PSoC4/PWM_Timer.c **** *   Values:
1296:.\Generated_Source\PSoC4/PWM_Timer.c **** *     - PWM_Timer_INTR_MASK_TC       - Terminal count mask
1297:.\Generated_Source\PSoC4/PWM_Timer.c **** *     - PWM_Timer_INTR_MASK_CC_MATCH - Compare count / capture mask
1298:.\Generated_Source\PSoC4/PWM_Timer.c **** *
1299:.\Generated_Source\PSoC4/PWM_Timer.c **** * Return:
1300:.\Generated_Source\PSoC4/PWM_Timer.c **** *  None
1301:.\Generated_Source\PSoC4/PWM_Timer.c **** *
1302:.\Generated_Source\PSoC4/PWM_Timer.c **** *******************************************************************************/
1303:.\Generated_Source\PSoC4/PWM_Timer.c **** void PWM_Timer_SetInterruptMode(uint32 interruptMask)
1304:.\Generated_Source\PSoC4/PWM_Timer.c **** {
 1813              		.loc 1 1304 0
 1814              		.cfi_startproc
 1815 0000 80B5     		push	{r7, lr}
 1816              	.LCFI95:
 1817              		.cfi_def_cfa_offset 8
 1818              		.cfi_offset 7, -8
 1819              		.cfi_offset 14, -4
 1820 0002 82B0     		sub	sp, sp, #8
 1821              	.LCFI96:
 1822              		.cfi_def_cfa_offset 16
 1823 0004 00AF     		add	r7, sp, #0
 1824              	.LCFI97:
 1825              		.cfi_def_cfa_register 7
 1826 0006 7860     		str	r0, [r7, #4]
1305:.\Generated_Source\PSoC4/PWM_Timer.c ****     PWM_Timer_INTERRUPT_MASK_REG =  interruptMask;
 1827              		.loc 1 1305 0
 1828 0008 024B     		ldr	r3, .L116
 1829 000a 7A68     		ldr	r2, [r7, #4]
ARM GAS  C:\Users\OEBN\AppData\Local\Temp\cc4YkDS7.s 			page 56


 1830 000c 1A60     		str	r2, [r3]
1306:.\Generated_Source\PSoC4/PWM_Timer.c **** }
 1831              		.loc 1 1306 0
 1832 000e BD46     		mov	sp, r7
 1833 0010 02B0     		add	sp, sp, #8
 1834              		@ sp needed for prologue
 1835 0012 80BD     		pop	{r7, pc}
 1836              	.L117:
 1837              		.align	2
 1838              	.L116:
 1839 0014 38010540 		.word	1074069816
 1840              		.cfi_endproc
 1841              	.LFE35:
 1842              		.size	PWM_Timer_SetInterruptMode, .-PWM_Timer_SetInterruptMode
 1843              		.section	.text.PWM_Timer_GetInterruptSourceMasked,"ax",%progbits
 1844              		.align	2
 1845              		.global	PWM_Timer_GetInterruptSourceMasked
 1846              		.code	16
 1847              		.thumb_func
 1848              		.type	PWM_Timer_GetInterruptSourceMasked, %function
 1849              	PWM_Timer_GetInterruptSourceMasked:
 1850              	.LFB36:
1307:.\Generated_Source\PSoC4/PWM_Timer.c **** 
1308:.\Generated_Source\PSoC4/PWM_Timer.c **** 
1309:.\Generated_Source\PSoC4/PWM_Timer.c **** /*******************************************************************************
1310:.\Generated_Source\PSoC4/PWM_Timer.c **** * Function Name: PWM_Timer_GetInterruptSourceMasked
1311:.\Generated_Source\PSoC4/PWM_Timer.c **** ********************************************************************************
1312:.\Generated_Source\PSoC4/PWM_Timer.c **** *
1313:.\Generated_Source\PSoC4/PWM_Timer.c **** * Summary:
1314:.\Generated_Source\PSoC4/PWM_Timer.c **** *  Gets the interrupt requests masked by the interrupt mask.
1315:.\Generated_Source\PSoC4/PWM_Timer.c **** *
1316:.\Generated_Source\PSoC4/PWM_Timer.c **** * Parameters:
1317:.\Generated_Source\PSoC4/PWM_Timer.c **** *   None
1318:.\Generated_Source\PSoC4/PWM_Timer.c **** *
1319:.\Generated_Source\PSoC4/PWM_Timer.c **** * Return:
1320:.\Generated_Source\PSoC4/PWM_Timer.c **** *  Masked interrupt source
1321:.\Generated_Source\PSoC4/PWM_Timer.c **** *   Values:
1322:.\Generated_Source\PSoC4/PWM_Timer.c **** *     - PWM_Timer_INTR_MASK_TC       - Terminal count mask
1323:.\Generated_Source\PSoC4/PWM_Timer.c **** *     - PWM_Timer_INTR_MASK_CC_MATCH - Compare count / capture mask
1324:.\Generated_Source\PSoC4/PWM_Timer.c **** *
1325:.\Generated_Source\PSoC4/PWM_Timer.c **** *******************************************************************************/
1326:.\Generated_Source\PSoC4/PWM_Timer.c **** uint32 PWM_Timer_GetInterruptSourceMasked(void)
1327:.\Generated_Source\PSoC4/PWM_Timer.c **** {
 1851              		.loc 1 1327 0
 1852              		.cfi_startproc
 1853 0000 80B5     		push	{r7, lr}
 1854              	.LCFI98:
 1855              		.cfi_def_cfa_offset 8
 1856              		.cfi_offset 7, -8
 1857              		.cfi_offset 14, -4
 1858 0002 00AF     		add	r7, sp, #0
 1859              	.LCFI99:
 1860              		.cfi_def_cfa_register 7
1328:.\Generated_Source\PSoC4/PWM_Timer.c ****     return (PWM_Timer_INTERRUPT_MASKED_REG);
 1861              		.loc 1 1328 0
 1862 0004 024B     		ldr	r3, .L120
 1863 0006 1B68     		ldr	r3, [r3]
ARM GAS  C:\Users\OEBN\AppData\Local\Temp\cc4YkDS7.s 			page 57


1329:.\Generated_Source\PSoC4/PWM_Timer.c **** }
 1864              		.loc 1 1329 0
 1865 0008 181C     		mov	r0, r3
 1866 000a BD46     		mov	sp, r7
 1867              		@ sp needed for prologue
 1868 000c 80BD     		pop	{r7, pc}
 1869              	.L121:
 1870 000e C046     		.align	2
 1871              	.L120:
 1872 0010 3C010540 		.word	1074069820
 1873              		.cfi_endproc
 1874              	.LFE36:
 1875              		.size	PWM_Timer_GetInterruptSourceMasked, .-PWM_Timer_GetInterruptSourceMasked
 1876              		.section	.text.PWM_Timer_GetInterruptSource,"ax",%progbits
 1877              		.align	2
 1878              		.global	PWM_Timer_GetInterruptSource
 1879              		.code	16
 1880              		.thumb_func
 1881              		.type	PWM_Timer_GetInterruptSource, %function
 1882              	PWM_Timer_GetInterruptSource:
 1883              	.LFB37:
1330:.\Generated_Source\PSoC4/PWM_Timer.c **** 
1331:.\Generated_Source\PSoC4/PWM_Timer.c **** 
1332:.\Generated_Source\PSoC4/PWM_Timer.c **** /*******************************************************************************
1333:.\Generated_Source\PSoC4/PWM_Timer.c **** * Function Name: PWM_Timer_GetInterruptSource
1334:.\Generated_Source\PSoC4/PWM_Timer.c **** ********************************************************************************
1335:.\Generated_Source\PSoC4/PWM_Timer.c **** *
1336:.\Generated_Source\PSoC4/PWM_Timer.c **** * Summary:
1337:.\Generated_Source\PSoC4/PWM_Timer.c **** *  Gets the interrupt requests (without masking).
1338:.\Generated_Source\PSoC4/PWM_Timer.c **** *
1339:.\Generated_Source\PSoC4/PWM_Timer.c **** * Parameters:
1340:.\Generated_Source\PSoC4/PWM_Timer.c **** *  None
1341:.\Generated_Source\PSoC4/PWM_Timer.c **** *
1342:.\Generated_Source\PSoC4/PWM_Timer.c **** * Return:
1343:.\Generated_Source\PSoC4/PWM_Timer.c **** *  Interrupt request value
1344:.\Generated_Source\PSoC4/PWM_Timer.c **** *   Values:
1345:.\Generated_Source\PSoC4/PWM_Timer.c **** *     - PWM_Timer_INTR_MASK_TC       - Terminal count mask
1346:.\Generated_Source\PSoC4/PWM_Timer.c **** *     - PWM_Timer_INTR_MASK_CC_MATCH - Compare count / capture mask
1347:.\Generated_Source\PSoC4/PWM_Timer.c **** *
1348:.\Generated_Source\PSoC4/PWM_Timer.c **** *******************************************************************************/
1349:.\Generated_Source\PSoC4/PWM_Timer.c **** uint32 PWM_Timer_GetInterruptSource(void)
1350:.\Generated_Source\PSoC4/PWM_Timer.c **** {
 1884              		.loc 1 1350 0
 1885              		.cfi_startproc
 1886 0000 80B5     		push	{r7, lr}
 1887              	.LCFI100:
 1888              		.cfi_def_cfa_offset 8
 1889              		.cfi_offset 7, -8
 1890              		.cfi_offset 14, -4
 1891 0002 00AF     		add	r7, sp, #0
 1892              	.LCFI101:
 1893              		.cfi_def_cfa_register 7
1351:.\Generated_Source\PSoC4/PWM_Timer.c ****     return (PWM_Timer_INTERRUPT_REQ_REG);
 1894              		.loc 1 1351 0
 1895 0004 024B     		ldr	r3, .L124
 1896 0006 1B68     		ldr	r3, [r3]
1352:.\Generated_Source\PSoC4/PWM_Timer.c **** }
ARM GAS  C:\Users\OEBN\AppData\Local\Temp\cc4YkDS7.s 			page 58


 1897              		.loc 1 1352 0
 1898 0008 181C     		mov	r0, r3
 1899 000a BD46     		mov	sp, r7
 1900              		@ sp needed for prologue
 1901 000c 80BD     		pop	{r7, pc}
 1902              	.L125:
 1903 000e C046     		.align	2
 1904              	.L124:
 1905 0010 30010540 		.word	1074069808
 1906              		.cfi_endproc
 1907              	.LFE37:
 1908              		.size	PWM_Timer_GetInterruptSource, .-PWM_Timer_GetInterruptSource
 1909              		.section	.text.PWM_Timer_ClearInterrupt,"ax",%progbits
 1910              		.align	2
 1911              		.global	PWM_Timer_ClearInterrupt
 1912              		.code	16
 1913              		.thumb_func
 1914              		.type	PWM_Timer_ClearInterrupt, %function
 1915              	PWM_Timer_ClearInterrupt:
 1916              	.LFB38:
1353:.\Generated_Source\PSoC4/PWM_Timer.c **** 
1354:.\Generated_Source\PSoC4/PWM_Timer.c **** 
1355:.\Generated_Source\PSoC4/PWM_Timer.c **** /*******************************************************************************
1356:.\Generated_Source\PSoC4/PWM_Timer.c **** * Function Name: PWM_Timer_ClearInterrupt
1357:.\Generated_Source\PSoC4/PWM_Timer.c **** ********************************************************************************
1358:.\Generated_Source\PSoC4/PWM_Timer.c **** *
1359:.\Generated_Source\PSoC4/PWM_Timer.c **** * Summary:
1360:.\Generated_Source\PSoC4/PWM_Timer.c **** *  Clears the interrupt request.
1361:.\Generated_Source\PSoC4/PWM_Timer.c **** *
1362:.\Generated_Source\PSoC4/PWM_Timer.c **** * Parameters:
1363:.\Generated_Source\PSoC4/PWM_Timer.c **** *   interruptMask: Mask of interrupts to clear
1364:.\Generated_Source\PSoC4/PWM_Timer.c **** *   Values:
1365:.\Generated_Source\PSoC4/PWM_Timer.c **** *     - PWM_Timer_INTR_MASK_TC       - Terminal count mask
1366:.\Generated_Source\PSoC4/PWM_Timer.c **** *     - PWM_Timer_INTR_MASK_CC_MATCH - Compare count / capture mask
1367:.\Generated_Source\PSoC4/PWM_Timer.c **** *
1368:.\Generated_Source\PSoC4/PWM_Timer.c **** * Return:
1369:.\Generated_Source\PSoC4/PWM_Timer.c **** *  None
1370:.\Generated_Source\PSoC4/PWM_Timer.c **** *
1371:.\Generated_Source\PSoC4/PWM_Timer.c **** *******************************************************************************/
1372:.\Generated_Source\PSoC4/PWM_Timer.c **** void PWM_Timer_ClearInterrupt(uint32 interruptMask)
1373:.\Generated_Source\PSoC4/PWM_Timer.c **** {
 1917              		.loc 1 1373 0
 1918              		.cfi_startproc
 1919 0000 80B5     		push	{r7, lr}
 1920              	.LCFI102:
 1921              		.cfi_def_cfa_offset 8
 1922              		.cfi_offset 7, -8
 1923              		.cfi_offset 14, -4
 1924 0002 82B0     		sub	sp, sp, #8
 1925              	.LCFI103:
 1926              		.cfi_def_cfa_offset 16
 1927 0004 00AF     		add	r7, sp, #0
 1928              	.LCFI104:
 1929              		.cfi_def_cfa_register 7
 1930 0006 7860     		str	r0, [r7, #4]
1374:.\Generated_Source\PSoC4/PWM_Timer.c ****     PWM_Timer_INTERRUPT_REQ_REG = interruptMask;
 1931              		.loc 1 1374 0
ARM GAS  C:\Users\OEBN\AppData\Local\Temp\cc4YkDS7.s 			page 59


 1932 0008 024B     		ldr	r3, .L127
 1933 000a 7A68     		ldr	r2, [r7, #4]
 1934 000c 1A60     		str	r2, [r3]
1375:.\Generated_Source\PSoC4/PWM_Timer.c **** }
 1935              		.loc 1 1375 0
 1936 000e BD46     		mov	sp, r7
 1937 0010 02B0     		add	sp, sp, #8
 1938              		@ sp needed for prologue
 1939 0012 80BD     		pop	{r7, pc}
 1940              	.L128:
 1941              		.align	2
 1942              	.L127:
 1943 0014 30010540 		.word	1074069808
 1944              		.cfi_endproc
 1945              	.LFE38:
 1946              		.size	PWM_Timer_ClearInterrupt, .-PWM_Timer_ClearInterrupt
 1947              		.section	.text.PWM_Timer_SetInterrupt,"ax",%progbits
 1948              		.align	2
 1949              		.global	PWM_Timer_SetInterrupt
 1950              		.code	16
 1951              		.thumb_func
 1952              		.type	PWM_Timer_SetInterrupt, %function
 1953              	PWM_Timer_SetInterrupt:
 1954              	.LFB39:
1376:.\Generated_Source\PSoC4/PWM_Timer.c **** 
1377:.\Generated_Source\PSoC4/PWM_Timer.c **** 
1378:.\Generated_Source\PSoC4/PWM_Timer.c **** /*******************************************************************************
1379:.\Generated_Source\PSoC4/PWM_Timer.c **** * Function Name: PWM_Timer_SetInterrupt
1380:.\Generated_Source\PSoC4/PWM_Timer.c **** ********************************************************************************
1381:.\Generated_Source\PSoC4/PWM_Timer.c **** *
1382:.\Generated_Source\PSoC4/PWM_Timer.c **** * Summary:
1383:.\Generated_Source\PSoC4/PWM_Timer.c **** *  Sets a software interrupt request.
1384:.\Generated_Source\PSoC4/PWM_Timer.c **** *
1385:.\Generated_Source\PSoC4/PWM_Timer.c **** * Parameters:
1386:.\Generated_Source\PSoC4/PWM_Timer.c **** *   interruptMask: Mask of interrupts to set
1387:.\Generated_Source\PSoC4/PWM_Timer.c **** *   Values:
1388:.\Generated_Source\PSoC4/PWM_Timer.c **** *     - PWM_Timer_INTR_MASK_TC       - Terminal count mask
1389:.\Generated_Source\PSoC4/PWM_Timer.c **** *     - PWM_Timer_INTR_MASK_CC_MATCH - Compare count / capture mask
1390:.\Generated_Source\PSoC4/PWM_Timer.c **** *
1391:.\Generated_Source\PSoC4/PWM_Timer.c **** * Return:
1392:.\Generated_Source\PSoC4/PWM_Timer.c **** *  None
1393:.\Generated_Source\PSoC4/PWM_Timer.c **** *
1394:.\Generated_Source\PSoC4/PWM_Timer.c **** *******************************************************************************/
1395:.\Generated_Source\PSoC4/PWM_Timer.c **** void PWM_Timer_SetInterrupt(uint32 interruptMask)
1396:.\Generated_Source\PSoC4/PWM_Timer.c **** {
 1955              		.loc 1 1396 0
 1956              		.cfi_startproc
 1957 0000 80B5     		push	{r7, lr}
 1958              	.LCFI105:
 1959              		.cfi_def_cfa_offset 8
 1960              		.cfi_offset 7, -8
 1961              		.cfi_offset 14, -4
 1962 0002 82B0     		sub	sp, sp, #8
 1963              	.LCFI106:
 1964              		.cfi_def_cfa_offset 16
 1965 0004 00AF     		add	r7, sp, #0
 1966              	.LCFI107:
ARM GAS  C:\Users\OEBN\AppData\Local\Temp\cc4YkDS7.s 			page 60


 1967              		.cfi_def_cfa_register 7
 1968 0006 7860     		str	r0, [r7, #4]
1397:.\Generated_Source\PSoC4/PWM_Timer.c ****     PWM_Timer_INTERRUPT_SET_REG = interruptMask;
 1969              		.loc 1 1397 0
 1970 0008 024B     		ldr	r3, .L130
 1971 000a 7A68     		ldr	r2, [r7, #4]
 1972 000c 1A60     		str	r2, [r3]
1398:.\Generated_Source\PSoC4/PWM_Timer.c **** }
 1973              		.loc 1 1398 0
 1974 000e BD46     		mov	sp, r7
 1975 0010 02B0     		add	sp, sp, #8
 1976              		@ sp needed for prologue
 1977 0012 80BD     		pop	{r7, pc}
 1978              	.L131:
 1979              		.align	2
 1980              	.L130:
 1981 0014 34010540 		.word	1074069812
 1982              		.cfi_endproc
 1983              	.LFE39:
 1984              		.size	PWM_Timer_SetInterrupt, .-PWM_Timer_SetInterrupt
 1985              		.text
 1986              	.Letext0:
 1987              		.file 2 ".\\Generated_Source\\PSoC4\\cytypes.h"