ARM GAS  C:\Users\ole\AppData\Local\Temp\ccZJuTj2.s 			page 1


   1              		.cpu cortex-m0
   2              		.fpu softvfp
   3              		.eabi_attribute 20, 1
   4              		.eabi_attribute 21, 1
   5              		.eabi_attribute 23, 3
   6              		.eabi_attribute 24, 1
   7              		.eabi_attribute 25, 1
   8              		.eabi_attribute 26, 1
   9              		.eabi_attribute 30, 6
  10              		.eabi_attribute 34, 0
  11              		.eabi_attribute 18, 4
  12              		.code	16
  13              		.file	"isr_blink.c"
  14              		.text
  15              	.Ltext0:
  16              		.cfi_sections	.debug_frame
  17              		.global	counter_blink
  18              		.bss
  19              		.align	1
  20              		.type	counter_blink, %object
  21              		.size	counter_blink, 2
  22              	counter_blink:
  23 0000 0000     		.space	2
  24              		.section	.text.isr_blink_Start,"ax",%progbits
  25              		.align	2
  26              		.global	isr_blink_Start
  27              		.code	16
  28              		.thumb_func
  29              		.type	isr_blink_Start, %function
  30              	isr_blink_Start:
  31              	.LFB0:
  32              		.file 1 ".\\Generated_Source\\PSoC4\\isr_blink.c"
   1:.\Generated_Source\PSoC4/isr_blink.c **** /*******************************************************************************
   2:.\Generated_Source\PSoC4/isr_blink.c **** * File Name: isr_blink.c  
   3:.\Generated_Source\PSoC4/isr_blink.c **** * Version 1.70
   4:.\Generated_Source\PSoC4/isr_blink.c **** *
   5:.\Generated_Source\PSoC4/isr_blink.c **** *  Description:
   6:.\Generated_Source\PSoC4/isr_blink.c **** *   API for controlling the state of an interrupt.
   7:.\Generated_Source\PSoC4/isr_blink.c **** *
   8:.\Generated_Source\PSoC4/isr_blink.c **** *
   9:.\Generated_Source\PSoC4/isr_blink.c **** *  Note:
  10:.\Generated_Source\PSoC4/isr_blink.c **** *
  11:.\Generated_Source\PSoC4/isr_blink.c **** ********************************************************************************
  12:.\Generated_Source\PSoC4/isr_blink.c **** * Copyright 2008-2012, Cypress Semiconductor Corporation.  All rights reserved.
  13:.\Generated_Source\PSoC4/isr_blink.c **** * You may use this file only in accordance with the license, terms, conditions, 
  14:.\Generated_Source\PSoC4/isr_blink.c **** * disclaimers, and limitations in the end user license agreement accompanying 
  15:.\Generated_Source\PSoC4/isr_blink.c **** * the software package with which this file was provided.
  16:.\Generated_Source\PSoC4/isr_blink.c **** *******************************************************************************/
  17:.\Generated_Source\PSoC4/isr_blink.c **** 
  18:.\Generated_Source\PSoC4/isr_blink.c **** 
  19:.\Generated_Source\PSoC4/isr_blink.c **** #include <cydevice_trm.h>
  20:.\Generated_Source\PSoC4/isr_blink.c **** #include <CyLib.h>
  21:.\Generated_Source\PSoC4/isr_blink.c **** #include <isr_blink.h>
  22:.\Generated_Source\PSoC4/isr_blink.c **** 
  23:.\Generated_Source\PSoC4/isr_blink.c **** #if !defined(isr_blink__REMOVED) /* Check for removal by optimization */
  24:.\Generated_Source\PSoC4/isr_blink.c **** 
  25:.\Generated_Source\PSoC4/isr_blink.c **** /*******************************************************************************
ARM GAS  C:\Users\ole\AppData\Local\Temp\ccZJuTj2.s 			page 2


  26:.\Generated_Source\PSoC4/isr_blink.c **** *  Place your includes, defines and code here 
  27:.\Generated_Source\PSoC4/isr_blink.c **** ********************************************************************************/
  28:.\Generated_Source\PSoC4/isr_blink.c **** /* `#START isr_blink_intc` */
  29:.\Generated_Source\PSoC4/isr_blink.c **** #include <uart_2_spi_uart.h>
  30:.\Generated_Source\PSoC4/isr_blink.c **** #include <blink_timer.h>
  31:.\Generated_Source\PSoC4/isr_blink.c ****     
  32:.\Generated_Source\PSoC4/isr_blink.c **** enum lights {strobe = 0, collision, navigation, landing};
  33:.\Generated_Source\PSoC4/isr_blink.c **** 
  34:.\Generated_Source\PSoC4/isr_blink.c **** extern uint8_t pwm_light[4];
  35:.\Generated_Source\PSoC4/isr_blink.c **** extern uint8_t pwm_light_adj[4];
  36:.\Generated_Source\PSoC4/isr_blink.c ****     
  37:.\Generated_Source\PSoC4/isr_blink.c **** extern uint16_t flashTime_StrobeLight;
  38:.\Generated_Source\PSoC4/isr_blink.c **** extern uint16_t pauseTime_StrobeLight;
  39:.\Generated_Source\PSoC4/isr_blink.c **** extern uint16_t flashTime_CollisionLight;
  40:.\Generated_Source\PSoC4/isr_blink.c **** 
  41:.\Generated_Source\PSoC4/isr_blink.c ****     
  42:.\Generated_Source\PSoC4/isr_blink.c ****     
  43:.\Generated_Source\PSoC4/isr_blink.c **** uint16_t counter_blink = 0;
  44:.\Generated_Source\PSoC4/isr_blink.c ****     
  45:.\Generated_Source\PSoC4/isr_blink.c **** /* `#END` */
  46:.\Generated_Source\PSoC4/isr_blink.c **** 
  47:.\Generated_Source\PSoC4/isr_blink.c **** extern cyisraddress CyRamVectors[CYINT_IRQ_BASE + CY_NUM_INTERRUPTS];
  48:.\Generated_Source\PSoC4/isr_blink.c **** 
  49:.\Generated_Source\PSoC4/isr_blink.c **** /* Declared in startup, used to set unused interrupts to. */
  50:.\Generated_Source\PSoC4/isr_blink.c **** CY_ISR_PROTO(IntDefaultHandler);
  51:.\Generated_Source\PSoC4/isr_blink.c **** 
  52:.\Generated_Source\PSoC4/isr_blink.c **** 
  53:.\Generated_Source\PSoC4/isr_blink.c **** /*******************************************************************************
  54:.\Generated_Source\PSoC4/isr_blink.c **** * Function Name: isr_blink_Start
  55:.\Generated_Source\PSoC4/isr_blink.c **** ********************************************************************************
  56:.\Generated_Source\PSoC4/isr_blink.c **** *
  57:.\Generated_Source\PSoC4/isr_blink.c **** * Summary:
  58:.\Generated_Source\PSoC4/isr_blink.c **** *  Set up the interrupt and enable it.
  59:.\Generated_Source\PSoC4/isr_blink.c **** *
  60:.\Generated_Source\PSoC4/isr_blink.c **** * Parameters:  
  61:.\Generated_Source\PSoC4/isr_blink.c **** *   None
  62:.\Generated_Source\PSoC4/isr_blink.c **** *
  63:.\Generated_Source\PSoC4/isr_blink.c **** * Return:
  64:.\Generated_Source\PSoC4/isr_blink.c **** *   None
  65:.\Generated_Source\PSoC4/isr_blink.c **** *
  66:.\Generated_Source\PSoC4/isr_blink.c **** *******************************************************************************/
  67:.\Generated_Source\PSoC4/isr_blink.c **** void isr_blink_Start(void)
  68:.\Generated_Source\PSoC4/isr_blink.c **** {
  33              		.loc 1 68 0
  34              		.cfi_startproc
  35 0000 80B5     		push	{r7, lr}
  36              		.cfi_def_cfa_offset 8
  37              		.cfi_offset 7, -8
  38              		.cfi_offset 14, -4
  39 0002 00AF     		add	r7, sp, #0
  40              		.cfi_def_cfa_register 7
  69:.\Generated_Source\PSoC4/isr_blink.c ****     /* For all we know the interrupt is active. */
  70:.\Generated_Source\PSoC4/isr_blink.c ****     isr_blink_Disable();
  41              		.loc 1 70 0
  42 0004 FFF7FEFF 		bl	isr_blink_Disable
  71:.\Generated_Source\PSoC4/isr_blink.c **** 
  72:.\Generated_Source\PSoC4/isr_blink.c ****     /* Set the ISR to point to the isr_blink Interrupt. */
ARM GAS  C:\Users\ole\AppData\Local\Temp\ccZJuTj2.s 			page 3


  73:.\Generated_Source\PSoC4/isr_blink.c ****     isr_blink_SetVector(&isr_blink_Interrupt);
  43              		.loc 1 73 0
  44 0008 054B     		ldr	r3, .L2
  45 000a 181C     		mov	r0, r3
  46 000c FFF7FEFF 		bl	isr_blink_SetVector
  74:.\Generated_Source\PSoC4/isr_blink.c **** 
  75:.\Generated_Source\PSoC4/isr_blink.c ****     /* Set the priority. */
  76:.\Generated_Source\PSoC4/isr_blink.c ****     isr_blink_SetPriority((uint8)isr_blink_INTC_PRIOR_NUMBER);
  47              		.loc 1 76 0
  48 0010 0320     		mov	r0, #3
  49 0012 FFF7FEFF 		bl	isr_blink_SetPriority
  77:.\Generated_Source\PSoC4/isr_blink.c **** 
  78:.\Generated_Source\PSoC4/isr_blink.c ****     /* Enable it. */
  79:.\Generated_Source\PSoC4/isr_blink.c ****     isr_blink_Enable();
  50              		.loc 1 79 0
  51 0016 FFF7FEFF 		bl	isr_blink_Enable
  80:.\Generated_Source\PSoC4/isr_blink.c **** }
  52              		.loc 1 80 0
  53 001a BD46     		mov	sp, r7
  54              		@ sp needed
  55 001c 80BD     		pop	{r7, pc}
  56              	.L3:
  57 001e C046     		.align	2
  58              	.L2:
  59 0020 00000000 		.word	isr_blink_Interrupt
  60              		.cfi_endproc
  61              	.LFE0:
  62              		.size	isr_blink_Start, .-isr_blink_Start
  63              		.section	.text.isr_blink_StartEx,"ax",%progbits
  64              		.align	2
  65              		.global	isr_blink_StartEx
  66              		.code	16
  67              		.thumb_func
  68              		.type	isr_blink_StartEx, %function
  69              	isr_blink_StartEx:
  70              	.LFB1:
  81:.\Generated_Source\PSoC4/isr_blink.c **** 
  82:.\Generated_Source\PSoC4/isr_blink.c **** 
  83:.\Generated_Source\PSoC4/isr_blink.c **** /*******************************************************************************
  84:.\Generated_Source\PSoC4/isr_blink.c **** * Function Name: isr_blink_StartEx
  85:.\Generated_Source\PSoC4/isr_blink.c **** ********************************************************************************
  86:.\Generated_Source\PSoC4/isr_blink.c **** *
  87:.\Generated_Source\PSoC4/isr_blink.c **** * Summary:
  88:.\Generated_Source\PSoC4/isr_blink.c **** *  Set up the interrupt and enable it.
  89:.\Generated_Source\PSoC4/isr_blink.c **** *
  90:.\Generated_Source\PSoC4/isr_blink.c **** * Parameters:  
  91:.\Generated_Source\PSoC4/isr_blink.c **** *   address: Address of the ISR to set in the interrupt vector table.
  92:.\Generated_Source\PSoC4/isr_blink.c **** *
  93:.\Generated_Source\PSoC4/isr_blink.c **** * Return:
  94:.\Generated_Source\PSoC4/isr_blink.c **** *   None
  95:.\Generated_Source\PSoC4/isr_blink.c **** *
  96:.\Generated_Source\PSoC4/isr_blink.c **** *******************************************************************************/
  97:.\Generated_Source\PSoC4/isr_blink.c **** void isr_blink_StartEx(cyisraddress address)
  98:.\Generated_Source\PSoC4/isr_blink.c **** {
  71              		.loc 1 98 0
  72              		.cfi_startproc
  73 0000 80B5     		push	{r7, lr}
ARM GAS  C:\Users\ole\AppData\Local\Temp\ccZJuTj2.s 			page 4


  74              		.cfi_def_cfa_offset 8
  75              		.cfi_offset 7, -8
  76              		.cfi_offset 14, -4
  77 0002 82B0     		sub	sp, sp, #8
  78              		.cfi_def_cfa_offset 16
  79 0004 00AF     		add	r7, sp, #0
  80              		.cfi_def_cfa_register 7
  81 0006 7860     		str	r0, [r7, #4]
  99:.\Generated_Source\PSoC4/isr_blink.c ****     /* For all we know the interrupt is active. */
 100:.\Generated_Source\PSoC4/isr_blink.c ****     isr_blink_Disable();
  82              		.loc 1 100 0
  83 0008 FFF7FEFF 		bl	isr_blink_Disable
 101:.\Generated_Source\PSoC4/isr_blink.c **** 
 102:.\Generated_Source\PSoC4/isr_blink.c ****     /* Set the ISR to point to the isr_blink Interrupt. */
 103:.\Generated_Source\PSoC4/isr_blink.c ****     isr_blink_SetVector(address);
  84              		.loc 1 103 0
  85 000c 7B68     		ldr	r3, [r7, #4]
  86 000e 181C     		mov	r0, r3
  87 0010 FFF7FEFF 		bl	isr_blink_SetVector
 104:.\Generated_Source\PSoC4/isr_blink.c **** 
 105:.\Generated_Source\PSoC4/isr_blink.c ****     /* Set the priority. */
 106:.\Generated_Source\PSoC4/isr_blink.c ****     isr_blink_SetPriority((uint8)isr_blink_INTC_PRIOR_NUMBER);
  88              		.loc 1 106 0
  89 0014 0320     		mov	r0, #3
  90 0016 FFF7FEFF 		bl	isr_blink_SetPriority
 107:.\Generated_Source\PSoC4/isr_blink.c **** 
 108:.\Generated_Source\PSoC4/isr_blink.c ****     /* Enable it. */
 109:.\Generated_Source\PSoC4/isr_blink.c ****     isr_blink_Enable();
  91              		.loc 1 109 0
  92 001a FFF7FEFF 		bl	isr_blink_Enable
 110:.\Generated_Source\PSoC4/isr_blink.c **** }
  93              		.loc 1 110 0
  94 001e BD46     		mov	sp, r7
  95 0020 02B0     		add	sp, sp, #8
  96              		@ sp needed
  97 0022 80BD     		pop	{r7, pc}
  98              		.cfi_endproc
  99              	.LFE1:
 100              		.size	isr_blink_StartEx, .-isr_blink_StartEx
 101              		.section	.text.isr_blink_Stop,"ax",%progbits
 102              		.align	2
 103              		.global	isr_blink_Stop
 104              		.code	16
 105              		.thumb_func
 106              		.type	isr_blink_Stop, %function
 107              	isr_blink_Stop:
 108              	.LFB2:
 111:.\Generated_Source\PSoC4/isr_blink.c **** 
 112:.\Generated_Source\PSoC4/isr_blink.c **** 
 113:.\Generated_Source\PSoC4/isr_blink.c **** /*******************************************************************************
 114:.\Generated_Source\PSoC4/isr_blink.c **** * Function Name: isr_blink_Stop
 115:.\Generated_Source\PSoC4/isr_blink.c **** ********************************************************************************
 116:.\Generated_Source\PSoC4/isr_blink.c **** *
 117:.\Generated_Source\PSoC4/isr_blink.c **** * Summary:
 118:.\Generated_Source\PSoC4/isr_blink.c **** *   Disables and removes the interrupt.
 119:.\Generated_Source\PSoC4/isr_blink.c **** *
 120:.\Generated_Source\PSoC4/isr_blink.c **** * Parameters:  
ARM GAS  C:\Users\ole\AppData\Local\Temp\ccZJuTj2.s 			page 5


 121:.\Generated_Source\PSoC4/isr_blink.c **** *
 122:.\Generated_Source\PSoC4/isr_blink.c **** * Return:
 123:.\Generated_Source\PSoC4/isr_blink.c **** *   None
 124:.\Generated_Source\PSoC4/isr_blink.c **** *
 125:.\Generated_Source\PSoC4/isr_blink.c **** *******************************************************************************/
 126:.\Generated_Source\PSoC4/isr_blink.c **** void isr_blink_Stop(void)
 127:.\Generated_Source\PSoC4/isr_blink.c **** {
 109              		.loc 1 127 0
 110              		.cfi_startproc
 111 0000 80B5     		push	{r7, lr}
 112              		.cfi_def_cfa_offset 8
 113              		.cfi_offset 7, -8
 114              		.cfi_offset 14, -4
 115 0002 00AF     		add	r7, sp, #0
 116              		.cfi_def_cfa_register 7
 128:.\Generated_Source\PSoC4/isr_blink.c ****     /* Disable this interrupt. */
 129:.\Generated_Source\PSoC4/isr_blink.c ****     isr_blink_Disable();
 117              		.loc 1 129 0
 118 0004 FFF7FEFF 		bl	isr_blink_Disable
 130:.\Generated_Source\PSoC4/isr_blink.c **** 
 131:.\Generated_Source\PSoC4/isr_blink.c ****     /* Set the ISR to point to the passive one. */
 132:.\Generated_Source\PSoC4/isr_blink.c ****     isr_blink_SetVector(&IntDefaultHandler);
 119              		.loc 1 132 0
 120 0008 024B     		ldr	r3, .L6
 121 000a 181C     		mov	r0, r3
 122 000c FFF7FEFF 		bl	isr_blink_SetVector
 133:.\Generated_Source\PSoC4/isr_blink.c **** }
 123              		.loc 1 133 0
 124 0010 BD46     		mov	sp, r7
 125              		@ sp needed
 126 0012 80BD     		pop	{r7, pc}
 127              	.L7:
 128              		.align	2
 129              	.L6:
 130 0014 00000000 		.word	IntDefaultHandler
 131              		.cfi_endproc
 132              	.LFE2:
 133              		.size	isr_blink_Stop, .-isr_blink_Stop
 134              		.section	.text.isr_blink_Interrupt,"ax",%progbits
 135              		.align	2
 136              		.global	isr_blink_Interrupt
 137              		.code	16
 138              		.thumb_func
 139              		.type	isr_blink_Interrupt, %function
 140              	isr_blink_Interrupt:
 141              	.LFB3:
 134:.\Generated_Source\PSoC4/isr_blink.c **** 
 135:.\Generated_Source\PSoC4/isr_blink.c **** 
 136:.\Generated_Source\PSoC4/isr_blink.c **** /*******************************************************************************
 137:.\Generated_Source\PSoC4/isr_blink.c **** * Function Name: isr_blink_Interrupt
 138:.\Generated_Source\PSoC4/isr_blink.c **** ********************************************************************************
 139:.\Generated_Source\PSoC4/isr_blink.c **** *
 140:.\Generated_Source\PSoC4/isr_blink.c **** * Summary:
 141:.\Generated_Source\PSoC4/isr_blink.c **** *   The default Interrupt Service Routine for isr_blink.
 142:.\Generated_Source\PSoC4/isr_blink.c **** *
 143:.\Generated_Source\PSoC4/isr_blink.c **** *   Add custom code between the coments to keep the next version of this file
 144:.\Generated_Source\PSoC4/isr_blink.c **** *   from over writting your code.
ARM GAS  C:\Users\ole\AppData\Local\Temp\ccZJuTj2.s 			page 6


 145:.\Generated_Source\PSoC4/isr_blink.c **** *
 146:.\Generated_Source\PSoC4/isr_blink.c **** * Parameters:  
 147:.\Generated_Source\PSoC4/isr_blink.c **** *   None
 148:.\Generated_Source\PSoC4/isr_blink.c **** *
 149:.\Generated_Source\PSoC4/isr_blink.c **** * Return:
 150:.\Generated_Source\PSoC4/isr_blink.c **** *   None
 151:.\Generated_Source\PSoC4/isr_blink.c **** *
 152:.\Generated_Source\PSoC4/isr_blink.c **** *******************************************************************************/
 153:.\Generated_Source\PSoC4/isr_blink.c **** CY_ISR(isr_blink_Interrupt)
 154:.\Generated_Source\PSoC4/isr_blink.c **** {
 142              		.loc 1 154 0
 143              		.cfi_startproc
 144 0000 80B5     		push	{r7, lr}
 145              		.cfi_def_cfa_offset 8
 146              		.cfi_offset 7, -8
 147              		.cfi_offset 14, -4
 148 0002 00AF     		add	r7, sp, #0
 149              		.cfi_def_cfa_register 7
 155:.\Generated_Source\PSoC4/isr_blink.c ****     /*  Place your Interrupt code here. */
 156:.\Generated_Source\PSoC4/isr_blink.c ****     /* `#START isr_blink_Interrupt` */
 157:.\Generated_Source\PSoC4/isr_blink.c **** 
 158:.\Generated_Source\PSoC4/isr_blink.c ****     
 159:.\Generated_Source\PSoC4/isr_blink.c ****     isr_blink_ClearPending();
 150              		.loc 1 159 0
 151 0004 FFF7FEFF 		bl	isr_blink_ClearPending
 160:.\Generated_Source\PSoC4/isr_blink.c ****     Blink_Timer_ClearInterrupt(Blink_Timer_INTR_MASK_TC);
 152              		.loc 1 160 0
 153 0008 0120     		mov	r0, #1
 154 000a FFF7FEFF 		bl	Blink_Timer_ClearInterrupt
 161:.\Generated_Source\PSoC4/isr_blink.c ****     //UART_2_UartPutChar('I');
 162:.\Generated_Source\PSoC4/isr_blink.c ****     pwm_light[landing] = pwm_light_adj[landing];
 155              		.loc 1 162 0
 156 000e 364B     		ldr	r3, .L16
 157 0010 DA78     		ldrb	r2, [r3, #3]
 158 0012 364B     		ldr	r3, .L16+4
 159 0014 DA70     		strb	r2, [r3, #3]
 163:.\Generated_Source\PSoC4/isr_blink.c ****     pwm_light[navigation] = pwm_light_adj[navigation];
 160              		.loc 1 163 0
 161 0016 344B     		ldr	r3, .L16
 162 0018 9A78     		ldrb	r2, [r3, #2]
 163 001a 344B     		ldr	r3, .L16+4
 164 001c 9A70     		strb	r2, [r3, #2]
 164:.\Generated_Source\PSoC4/isr_blink.c ****     
 165:.\Generated_Source\PSoC4/isr_blink.c ****     if (counter_blink == 0)
 165              		.loc 1 165 0
 166 001e 344B     		ldr	r3, .L16+8
 167 0020 1B88     		ldrh	r3, [r3]
 168 0022 002B     		cmp	r3, #0
 169 0024 05D1     		bne	.L9
 166:.\Generated_Source\PSoC4/isr_blink.c ****     {
 167:.\Generated_Source\PSoC4/isr_blink.c ****         pwm_light[collision] = 0x00;
 170              		.loc 1 167 0
 171 0026 314B     		ldr	r3, .L16+4
 172 0028 0022     		mov	r2, #0
 173 002a 5A70     		strb	r2, [r3, #1]
 168:.\Generated_Source\PSoC4/isr_blink.c ****         pwm_light[strobe] = 0x00;
 174              		.loc 1 168 0
ARM GAS  C:\Users\ole\AppData\Local\Temp\ccZJuTj2.s 			page 7


 175 002c 2F4B     		ldr	r3, .L16+4
 176 002e 0022     		mov	r2, #0
 177 0030 1A70     		strb	r2, [r3]
 178              	.L9:
 169:.\Generated_Source\PSoC4/isr_blink.c ****     }
 170:.\Generated_Source\PSoC4/isr_blink.c ****     
 171:.\Generated_Source\PSoC4/isr_blink.c ****     if (counter_blink == 600)
 179              		.loc 1 171 0
 180 0032 2F4B     		ldr	r3, .L16+8
 181 0034 1A88     		ldrh	r2, [r3]
 182 0036 9623     		mov	r3, #150
 183 0038 9B00     		lsl	r3, r3, #2
 184 003a 9A42     		cmp	r2, r3
 185 003c 03D1     		bne	.L10
 172:.\Generated_Source\PSoC4/isr_blink.c ****     {
 173:.\Generated_Source\PSoC4/isr_blink.c ****         pwm_light[collision] = pwm_light_adj[collision];
 186              		.loc 1 173 0
 187 003e 2A4B     		ldr	r3, .L16
 188 0040 5A78     		ldrb	r2, [r3, #1]
 189 0042 2A4B     		ldr	r3, .L16+4
 190 0044 5A70     		strb	r2, [r3, #1]
 191              	.L10:
 174:.\Generated_Source\PSoC4/isr_blink.c ****     }
 175:.\Generated_Source\PSoC4/isr_blink.c ****     if (counter_blink == 600 + flashTime_CollisionLight)
 192              		.loc 1 175 0
 193 0046 2A4B     		ldr	r3, .L16+8
 194 0048 1B88     		ldrh	r3, [r3]
 195 004a 1A1C     		mov	r2, r3
 196 004c 294B     		ldr	r3, .L16+12
 197 004e 1B88     		ldrh	r3, [r3]
 198 0050 9620     		mov	r0, #150
 199 0052 8000     		lsl	r0, r0, #2
 200 0054 1B18     		add	r3, r3, r0
 201 0056 9A42     		cmp	r2, r3
 202 0058 02D1     		bne	.L11
 176:.\Generated_Source\PSoC4/isr_blink.c ****     {
 177:.\Generated_Source\PSoC4/isr_blink.c ****         pwm_light[collision] = 0x00;
 203              		.loc 1 177 0
 204 005a 244B     		ldr	r3, .L16+4
 205 005c 0022     		mov	r2, #0
 206 005e 5A70     		strb	r2, [r3, #1]
 207              	.L11:
 178:.\Generated_Source\PSoC4/isr_blink.c ****     }
 179:.\Generated_Source\PSoC4/isr_blink.c ****     
 180:.\Generated_Source\PSoC4/isr_blink.c ****     if (counter_blink == 1020)
 208              		.loc 1 180 0
 209 0060 234B     		ldr	r3, .L16+8
 210 0062 1A88     		ldrh	r2, [r3]
 211 0064 FF23     		mov	r3, #255
 212 0066 9B00     		lsl	r3, r3, #2
 213 0068 9A42     		cmp	r2, r3
 214 006a 03D1     		bne	.L12
 181:.\Generated_Source\PSoC4/isr_blink.c ****     {
 182:.\Generated_Source\PSoC4/isr_blink.c ****          pwm_light[strobe] =  pwm_light_adj[strobe];
 215              		.loc 1 182 0
 216 006c 1E4B     		ldr	r3, .L16
 217 006e 1A78     		ldrb	r2, [r3]
ARM GAS  C:\Users\ole\AppData\Local\Temp\ccZJuTj2.s 			page 8


 218 0070 1E4B     		ldr	r3, .L16+4
 219 0072 1A70     		strb	r2, [r3]
 220              	.L12:
 183:.\Generated_Source\PSoC4/isr_blink.c ****     }
 184:.\Generated_Source\PSoC4/isr_blink.c ****     if (counter_blink == 1020 + flashTime_StrobeLight)
 221              		.loc 1 184 0
 222 0074 1E4B     		ldr	r3, .L16+8
 223 0076 1B88     		ldrh	r3, [r3]
 224 0078 1A1C     		mov	r2, r3
 225 007a 1F4B     		ldr	r3, .L16+16
 226 007c 1B88     		ldrh	r3, [r3]
 227 007e FF21     		mov	r1, #255
 228 0080 8900     		lsl	r1, r1, #2
 229 0082 5B18     		add	r3, r3, r1
 230 0084 9A42     		cmp	r2, r3
 231 0086 02D1     		bne	.L13
 185:.\Generated_Source\PSoC4/isr_blink.c ****     {
 186:.\Generated_Source\PSoC4/isr_blink.c ****          pwm_light[strobe] = 0x00;
 232              		.loc 1 186 0
 233 0088 184B     		ldr	r3, .L16+4
 234 008a 0022     		mov	r2, #0
 235 008c 1A70     		strb	r2, [r3]
 236              	.L13:
 187:.\Generated_Source\PSoC4/isr_blink.c ****     }
 188:.\Generated_Source\PSoC4/isr_blink.c ****     if (counter_blink == 1020 + flashTime_StrobeLight + 60)
 237              		.loc 1 188 0
 238 008e 184B     		ldr	r3, .L16+8
 239 0090 1B88     		ldrh	r3, [r3]
 240 0092 1A1C     		mov	r2, r3
 241 0094 184B     		ldr	r3, .L16+16
 242 0096 1B88     		ldrh	r3, [r3]
 243 0098 8720     		mov	r0, #135
 244 009a C000     		lsl	r0, r0, #3
 245 009c 1B18     		add	r3, r3, r0
 246 009e 9A42     		cmp	r2, r3
 247 00a0 03D1     		bne	.L14
 189:.\Generated_Source\PSoC4/isr_blink.c ****     {
 190:.\Generated_Source\PSoC4/isr_blink.c ****          pwm_light[strobe] =  pwm_light_adj[strobe];
 248              		.loc 1 190 0
 249 00a2 114B     		ldr	r3, .L16
 250 00a4 1A78     		ldrb	r2, [r3]
 251 00a6 114B     		ldr	r3, .L16+4
 252 00a8 1A70     		strb	r2, [r3]
 253              	.L14:
 191:.\Generated_Source\PSoC4/isr_blink.c ****     }
 192:.\Generated_Source\PSoC4/isr_blink.c ****     if (counter_blink == 1020 + flashTime_StrobeLight + pauseTime_StrobeLight + flashTime_StrobeLig
 254              		.loc 1 192 0
 255 00aa 114B     		ldr	r3, .L16+8
 256 00ac 1B88     		ldrh	r3, [r3]
 257 00ae 1A1C     		mov	r2, r3
 258 00b0 114B     		ldr	r3, .L16+16
 259 00b2 1B88     		ldrh	r3, [r3]
 260 00b4 FF20     		mov	r0, #255
 261 00b6 8000     		lsl	r0, r0, #2
 262 00b8 1918     		add	r1, r3, r0
 263 00ba 104B     		ldr	r3, .L16+20
 264 00bc 1B88     		ldrh	r3, [r3]
ARM GAS  C:\Users\ole\AppData\Local\Temp\ccZJuTj2.s 			page 9


 265 00be C918     		add	r1, r1, r3
 266 00c0 0D4B     		ldr	r3, .L16+16
 267 00c2 1B88     		ldrh	r3, [r3]
 268 00c4 CB18     		add	r3, r1, r3
 269 00c6 9A42     		cmp	r2, r3
 270 00c8 05D1     		bne	.L15
 193:.\Generated_Source\PSoC4/isr_blink.c ****     {
 194:.\Generated_Source\PSoC4/isr_blink.c ****          pwm_light[strobe] = 0x00;
 271              		.loc 1 194 0
 272 00ca 084B     		ldr	r3, .L16+4
 273 00cc 0022     		mov	r2, #0
 274 00ce 1A70     		strb	r2, [r3]
 195:.\Generated_Source\PSoC4/isr_blink.c ****         counter_blink = 0;
 275              		.loc 1 195 0
 276 00d0 074B     		ldr	r3, .L16+8
 277 00d2 0022     		mov	r2, #0
 278 00d4 1A80     		strh	r2, [r3]
 279              	.L15:
 196:.\Generated_Source\PSoC4/isr_blink.c ****     }
 197:.\Generated_Source\PSoC4/isr_blink.c ****     counter_blink++;
 280              		.loc 1 197 0
 281 00d6 064B     		ldr	r3, .L16+8
 282 00d8 1B88     		ldrh	r3, [r3]
 283 00da 0133     		add	r3, r3, #1
 284 00dc 9AB2     		uxth	r2, r3
 285 00de 044B     		ldr	r3, .L16+8
 286 00e0 1A80     		strh	r2, [r3]
 198:.\Generated_Source\PSoC4/isr_blink.c ****     /* `#END` */
 199:.\Generated_Source\PSoC4/isr_blink.c **** }
 287              		.loc 1 199 0
 288 00e2 BD46     		mov	sp, r7
 289              		@ sp needed
 290 00e4 80BD     		pop	{r7, pc}
 291              	.L17:
 292 00e6 C046     		.align	2
 293              	.L16:
 294 00e8 00000000 		.word	pwm_light_adj
 295 00ec 00000000 		.word	pwm_light
 296 00f0 00000000 		.word	counter_blink
 297 00f4 00000000 		.word	flashTime_CollisionLight
 298 00f8 00000000 		.word	flashTime_StrobeLight
 299 00fc 00000000 		.word	pauseTime_StrobeLight
 300              		.cfi_endproc
 301              	.LFE3:
 302              		.size	isr_blink_Interrupt, .-isr_blink_Interrupt
 303              		.section	.text.isr_blink_SetVector,"ax",%progbits
 304              		.align	2
 305              		.global	isr_blink_SetVector
 306              		.code	16
 307              		.thumb_func
 308              		.type	isr_blink_SetVector, %function
 309              	isr_blink_SetVector:
 310              	.LFB4:
 200:.\Generated_Source\PSoC4/isr_blink.c **** 
 201:.\Generated_Source\PSoC4/isr_blink.c **** 
 202:.\Generated_Source\PSoC4/isr_blink.c **** /*******************************************************************************
 203:.\Generated_Source\PSoC4/isr_blink.c **** * Function Name: isr_blink_SetVector
ARM GAS  C:\Users\ole\AppData\Local\Temp\ccZJuTj2.s 			page 10


 204:.\Generated_Source\PSoC4/isr_blink.c **** ********************************************************************************
 205:.\Generated_Source\PSoC4/isr_blink.c **** *
 206:.\Generated_Source\PSoC4/isr_blink.c **** * Summary:
 207:.\Generated_Source\PSoC4/isr_blink.c **** *   Change the ISR vector for the Interrupt. Note calling isr_blink_Start
 208:.\Generated_Source\PSoC4/isr_blink.c **** *   will override any effect this method would have had. To set the vector 
 209:.\Generated_Source\PSoC4/isr_blink.c **** *   before the component has been started use isr_blink_StartEx instead.
 210:.\Generated_Source\PSoC4/isr_blink.c **** *
 211:.\Generated_Source\PSoC4/isr_blink.c **** * Parameters:
 212:.\Generated_Source\PSoC4/isr_blink.c **** *   address: Address of the ISR to set in the interrupt vector table.
 213:.\Generated_Source\PSoC4/isr_blink.c **** *
 214:.\Generated_Source\PSoC4/isr_blink.c **** * Return:
 215:.\Generated_Source\PSoC4/isr_blink.c **** *   None
 216:.\Generated_Source\PSoC4/isr_blink.c **** *
 217:.\Generated_Source\PSoC4/isr_blink.c **** *******************************************************************************/
 218:.\Generated_Source\PSoC4/isr_blink.c **** void isr_blink_SetVector(cyisraddress address)
 219:.\Generated_Source\PSoC4/isr_blink.c **** {
 311              		.loc 1 219 0
 312              		.cfi_startproc
 313 0000 80B5     		push	{r7, lr}
 314              		.cfi_def_cfa_offset 8
 315              		.cfi_offset 7, -8
 316              		.cfi_offset 14, -4
 317 0002 82B0     		sub	sp, sp, #8
 318              		.cfi_def_cfa_offset 16
 319 0004 00AF     		add	r7, sp, #0
 320              		.cfi_def_cfa_register 7
 321 0006 7860     		str	r0, [r7, #4]
 220:.\Generated_Source\PSoC4/isr_blink.c ****     CyRamVectors[CYINT_IRQ_BASE + isr_blink__INTC_NUMBER] = address;
 322              		.loc 1 220 0
 323 0008 034A     		ldr	r2, .L19
 324 000a 8423     		mov	r3, #132
 325 000c 7968     		ldr	r1, [r7, #4]
 326 000e D150     		str	r1, [r2, r3]
 221:.\Generated_Source\PSoC4/isr_blink.c **** }
 327              		.loc 1 221 0
 328 0010 BD46     		mov	sp, r7
 329 0012 02B0     		add	sp, sp, #8
 330              		@ sp needed
 331 0014 80BD     		pop	{r7, pc}
 332              	.L20:
 333 0016 C046     		.align	2
 334              	.L19:
 335 0018 00000000 		.word	CyRamVectors
 336              		.cfi_endproc
 337              	.LFE4:
 338              		.size	isr_blink_SetVector, .-isr_blink_SetVector
 339              		.section	.text.isr_blink_GetVector,"ax",%progbits
 340              		.align	2
 341              		.global	isr_blink_GetVector
 342              		.code	16
 343              		.thumb_func
 344              		.type	isr_blink_GetVector, %function
 345              	isr_blink_GetVector:
 346              	.LFB5:
 222:.\Generated_Source\PSoC4/isr_blink.c **** 
 223:.\Generated_Source\PSoC4/isr_blink.c **** 
 224:.\Generated_Source\PSoC4/isr_blink.c **** /*******************************************************************************
ARM GAS  C:\Users\ole\AppData\Local\Temp\ccZJuTj2.s 			page 11


 225:.\Generated_Source\PSoC4/isr_blink.c **** * Function Name: isr_blink_GetVector
 226:.\Generated_Source\PSoC4/isr_blink.c **** ********************************************************************************
 227:.\Generated_Source\PSoC4/isr_blink.c **** *
 228:.\Generated_Source\PSoC4/isr_blink.c **** * Summary:
 229:.\Generated_Source\PSoC4/isr_blink.c **** *   Gets the "address" of the current ISR vector for the Interrupt.
 230:.\Generated_Source\PSoC4/isr_blink.c **** *
 231:.\Generated_Source\PSoC4/isr_blink.c **** * Parameters:
 232:.\Generated_Source\PSoC4/isr_blink.c **** *   None
 233:.\Generated_Source\PSoC4/isr_blink.c **** *
 234:.\Generated_Source\PSoC4/isr_blink.c **** * Return:
 235:.\Generated_Source\PSoC4/isr_blink.c **** *   Address of the ISR in the interrupt vector table.
 236:.\Generated_Source\PSoC4/isr_blink.c **** *
 237:.\Generated_Source\PSoC4/isr_blink.c **** *******************************************************************************/
 238:.\Generated_Source\PSoC4/isr_blink.c **** cyisraddress isr_blink_GetVector(void)
 239:.\Generated_Source\PSoC4/isr_blink.c **** {
 347              		.loc 1 239 0
 348              		.cfi_startproc
 349 0000 80B5     		push	{r7, lr}
 350              		.cfi_def_cfa_offset 8
 351              		.cfi_offset 7, -8
 352              		.cfi_offset 14, -4
 353 0002 00AF     		add	r7, sp, #0
 354              		.cfi_def_cfa_register 7
 240:.\Generated_Source\PSoC4/isr_blink.c ****     return CyRamVectors[CYINT_IRQ_BASE + isr_blink__INTC_NUMBER];
 355              		.loc 1 240 0
 356 0004 024A     		ldr	r2, .L23
 357 0006 8423     		mov	r3, #132
 358 0008 D358     		ldr	r3, [r2, r3]
 241:.\Generated_Source\PSoC4/isr_blink.c **** }
 359              		.loc 1 241 0
 360 000a 181C     		mov	r0, r3
 361 000c BD46     		mov	sp, r7
 362              		@ sp needed
 363 000e 80BD     		pop	{r7, pc}
 364              	.L24:
 365              		.align	2
 366              	.L23:
 367 0010 00000000 		.word	CyRamVectors
 368              		.cfi_endproc
 369              	.LFE5:
 370              		.size	isr_blink_GetVector, .-isr_blink_GetVector
 371              		.section	.text.isr_blink_SetPriority,"ax",%progbits
 372              		.align	2
 373              		.global	isr_blink_SetPriority
 374              		.code	16
 375              		.thumb_func
 376              		.type	isr_blink_SetPriority, %function
 377              	isr_blink_SetPriority:
 378              	.LFB6:
 242:.\Generated_Source\PSoC4/isr_blink.c **** 
 243:.\Generated_Source\PSoC4/isr_blink.c **** 
 244:.\Generated_Source\PSoC4/isr_blink.c **** /*******************************************************************************
 245:.\Generated_Source\PSoC4/isr_blink.c **** * Function Name: isr_blink_SetPriority
 246:.\Generated_Source\PSoC4/isr_blink.c **** ********************************************************************************
 247:.\Generated_Source\PSoC4/isr_blink.c **** *
 248:.\Generated_Source\PSoC4/isr_blink.c **** * Summary:
 249:.\Generated_Source\PSoC4/isr_blink.c **** *   Sets the Priority of the Interrupt. Note calling isr_blink_Start
ARM GAS  C:\Users\ole\AppData\Local\Temp\ccZJuTj2.s 			page 12


 250:.\Generated_Source\PSoC4/isr_blink.c **** *   or isr_blink_StartEx will override any effect this method would 
 251:.\Generated_Source\PSoC4/isr_blink.c **** *   have had. This method should only be called after isr_blink_Start or 
 252:.\Generated_Source\PSoC4/isr_blink.c **** *   isr_blink_StartEx has been called. To set the initial
 253:.\Generated_Source\PSoC4/isr_blink.c **** *   priority for the component use the cydwr file in the tool.
 254:.\Generated_Source\PSoC4/isr_blink.c **** *
 255:.\Generated_Source\PSoC4/isr_blink.c **** * Parameters:
 256:.\Generated_Source\PSoC4/isr_blink.c **** *   priority: Priority of the interrupt. 0 - 3, 0 being the highest.
 257:.\Generated_Source\PSoC4/isr_blink.c **** *
 258:.\Generated_Source\PSoC4/isr_blink.c **** * Return:
 259:.\Generated_Source\PSoC4/isr_blink.c **** *   None
 260:.\Generated_Source\PSoC4/isr_blink.c **** *
 261:.\Generated_Source\PSoC4/isr_blink.c **** *******************************************************************************/
 262:.\Generated_Source\PSoC4/isr_blink.c **** void isr_blink_SetPriority(uint8 priority)
 263:.\Generated_Source\PSoC4/isr_blink.c **** {
 379              		.loc 1 263 0
 380              		.cfi_startproc
 381 0000 90B5     		push	{r4, r7, lr}
 382              		.cfi_def_cfa_offset 12
 383              		.cfi_offset 4, -12
 384              		.cfi_offset 7, -8
 385              		.cfi_offset 14, -4
 386 0002 85B0     		sub	sp, sp, #20
 387              		.cfi_def_cfa_offset 32
 388 0004 00AF     		add	r7, sp, #0
 389              		.cfi_def_cfa_register 7
 390 0006 021C     		mov	r2, r0
 391 0008 FB1D     		add	r3, r7, #7
 392 000a 1A70     		strb	r2, [r3]
 264:.\Generated_Source\PSoC4/isr_blink.c **** 	uint8 interruptState;
 265:.\Generated_Source\PSoC4/isr_blink.c ****     uint32 priorityOffset = ((isr_blink__INTC_NUMBER % 4u) * 8u) + 6u;
 393              		.loc 1 265 0
 394 000c 0E23     		mov	r3, #14
 395 000e FB60     		str	r3, [r7, #12]
 266:.\Generated_Source\PSoC4/isr_blink.c ****     
 267:.\Generated_Source\PSoC4/isr_blink.c **** 	interruptState = CyEnterCriticalSection();
 396              		.loc 1 267 0
 397 0010 3C1C     		mov	r4, r7
 398 0012 0B34     		add	r4, r4, #11
 399 0014 FFF7FEFF 		bl	CyEnterCriticalSection
 400 0018 031C     		mov	r3, r0
 401 001a 2370     		strb	r3, [r4]
 268:.\Generated_Source\PSoC4/isr_blink.c ****     *isr_blink_INTC_PRIOR = (*isr_blink_INTC_PRIOR & (uint32)(~isr_blink__INTC_PRIOR_MASK)) |
 402              		.loc 1 268 0
 403 001c 0A4B     		ldr	r3, .L26
 404 001e 0A4A     		ldr	r2, .L26
 405 0020 1168     		ldr	r1, [r2]
 406 0022 0A4A     		ldr	r2, .L26+4
 407 0024 1140     		and	r1, r2
 269:.\Generated_Source\PSoC4/isr_blink.c ****                                     ((uint32)priority << priorityOffset);
 408              		.loc 1 269 0
 409 0026 FA1D     		add	r2, r7, #7
 410 0028 1078     		ldrb	r0, [r2]
 411 002a FA68     		ldr	r2, [r7, #12]
 412 002c 041C     		mov	r4, r0
 413 002e 9440     		lsl	r4, r4, r2
 414 0030 221C     		mov	r2, r4
 268:.\Generated_Source\PSoC4/isr_blink.c ****     *isr_blink_INTC_PRIOR = (*isr_blink_INTC_PRIOR & (uint32)(~isr_blink__INTC_PRIOR_MASK)) |
ARM GAS  C:\Users\ole\AppData\Local\Temp\ccZJuTj2.s 			page 13


 415              		.loc 1 268 0
 416 0032 0A43     		orr	r2, r1
 417 0034 1A60     		str	r2, [r3]
 270:.\Generated_Source\PSoC4/isr_blink.c **** 	CyExitCriticalSection(interruptState);
 418              		.loc 1 270 0
 419 0036 3B1C     		mov	r3, r7
 420 0038 0B33     		add	r3, r3, #11
 421 003a 1B78     		ldrb	r3, [r3]
 422 003c 181C     		mov	r0, r3
 423 003e FFF7FEFF 		bl	CyExitCriticalSection
 271:.\Generated_Source\PSoC4/isr_blink.c **** }
 424              		.loc 1 271 0
 425 0042 BD46     		mov	sp, r7
 426 0044 05B0     		add	sp, sp, #20
 427              		@ sp needed
 428 0046 90BD     		pop	{r4, r7, pc}
 429              	.L27:
 430              		.align	2
 431              	.L26:
 432 0048 10E400E0 		.word	-536812528
 433 004c FF3FFFFF 		.word	-49153
 434              		.cfi_endproc
 435              	.LFE6:
 436              		.size	isr_blink_SetPriority, .-isr_blink_SetPriority
 437              		.section	.text.isr_blink_GetPriority,"ax",%progbits
 438              		.align	2
 439              		.global	isr_blink_GetPriority
 440              		.code	16
 441              		.thumb_func
 442              		.type	isr_blink_GetPriority, %function
 443              	isr_blink_GetPriority:
 444              	.LFB7:
 272:.\Generated_Source\PSoC4/isr_blink.c **** 
 273:.\Generated_Source\PSoC4/isr_blink.c **** 
 274:.\Generated_Source\PSoC4/isr_blink.c **** /*******************************************************************************
 275:.\Generated_Source\PSoC4/isr_blink.c **** * Function Name: isr_blink_GetPriority
 276:.\Generated_Source\PSoC4/isr_blink.c **** ********************************************************************************
 277:.\Generated_Source\PSoC4/isr_blink.c **** *
 278:.\Generated_Source\PSoC4/isr_blink.c **** * Summary:
 279:.\Generated_Source\PSoC4/isr_blink.c **** *   Gets the Priority of the Interrupt.
 280:.\Generated_Source\PSoC4/isr_blink.c **** *
 281:.\Generated_Source\PSoC4/isr_blink.c **** * Parameters:
 282:.\Generated_Source\PSoC4/isr_blink.c **** *   None
 283:.\Generated_Source\PSoC4/isr_blink.c **** *
 284:.\Generated_Source\PSoC4/isr_blink.c **** * Return:
 285:.\Generated_Source\PSoC4/isr_blink.c **** *   Priority of the interrupt. 0 - 3, 0 being the highest.
 286:.\Generated_Source\PSoC4/isr_blink.c **** *
 287:.\Generated_Source\PSoC4/isr_blink.c **** *******************************************************************************/
 288:.\Generated_Source\PSoC4/isr_blink.c **** uint8 isr_blink_GetPriority(void)
 289:.\Generated_Source\PSoC4/isr_blink.c **** {
 445              		.loc 1 289 0
 446              		.cfi_startproc
 447 0000 80B5     		push	{r7, lr}
 448              		.cfi_def_cfa_offset 8
 449              		.cfi_offset 7, -8
 450              		.cfi_offset 14, -4
 451 0002 82B0     		sub	sp, sp, #8
ARM GAS  C:\Users\ole\AppData\Local\Temp\ccZJuTj2.s 			page 14


 452              		.cfi_def_cfa_offset 16
 453 0004 00AF     		add	r7, sp, #0
 454              		.cfi_def_cfa_register 7
 290:.\Generated_Source\PSoC4/isr_blink.c ****     uint32 priority;
 291:.\Generated_Source\PSoC4/isr_blink.c **** 	uint32 priorityOffset = ((isr_blink__INTC_NUMBER % 4u) * 8u) + 6u;
 455              		.loc 1 291 0
 456 0006 0E23     		mov	r3, #14
 457 0008 7B60     		str	r3, [r7, #4]
 292:.\Generated_Source\PSoC4/isr_blink.c **** 
 293:.\Generated_Source\PSoC4/isr_blink.c ****     priority = (*isr_blink_INTC_PRIOR & isr_blink__INTC_PRIOR_MASK) >> priorityOffset;
 458              		.loc 1 293 0
 459 000a 084B     		ldr	r3, .L30
 460 000c 1A68     		ldr	r2, [r3]
 461 000e C023     		mov	r3, #192
 462 0010 1B02     		lsl	r3, r3, #8
 463 0012 1A40     		and	r2, r3
 464 0014 7B68     		ldr	r3, [r7, #4]
 465 0016 111C     		mov	r1, r2
 466 0018 D940     		lsr	r1, r1, r3
 467 001a 0B1C     		mov	r3, r1
 468 001c 3B60     		str	r3, [r7]
 294:.\Generated_Source\PSoC4/isr_blink.c **** 
 295:.\Generated_Source\PSoC4/isr_blink.c ****     return (uint8)priority;
 469              		.loc 1 295 0
 470 001e 3B68     		ldr	r3, [r7]
 471 0020 DBB2     		uxtb	r3, r3
 296:.\Generated_Source\PSoC4/isr_blink.c **** }
 472              		.loc 1 296 0
 473 0022 181C     		mov	r0, r3
 474 0024 BD46     		mov	sp, r7
 475 0026 02B0     		add	sp, sp, #8
 476              		@ sp needed
 477 0028 80BD     		pop	{r7, pc}
 478              	.L31:
 479 002a C046     		.align	2
 480              	.L30:
 481 002c 10E400E0 		.word	-536812528
 482              		.cfi_endproc
 483              	.LFE7:
 484              		.size	isr_blink_GetPriority, .-isr_blink_GetPriority
 485              		.section	.text.isr_blink_Enable,"ax",%progbits
 486              		.align	2
 487              		.global	isr_blink_Enable
 488              		.code	16
 489              		.thumb_func
 490              		.type	isr_blink_Enable, %function
 491              	isr_blink_Enable:
 492              	.LFB8:
 297:.\Generated_Source\PSoC4/isr_blink.c **** 
 298:.\Generated_Source\PSoC4/isr_blink.c **** 
 299:.\Generated_Source\PSoC4/isr_blink.c **** /*******************************************************************************
 300:.\Generated_Source\PSoC4/isr_blink.c **** * Function Name: isr_blink_Enable
 301:.\Generated_Source\PSoC4/isr_blink.c **** ********************************************************************************
 302:.\Generated_Source\PSoC4/isr_blink.c **** *
 303:.\Generated_Source\PSoC4/isr_blink.c **** * Summary:
 304:.\Generated_Source\PSoC4/isr_blink.c **** *   Enables the interrupt.
 305:.\Generated_Source\PSoC4/isr_blink.c **** *
ARM GAS  C:\Users\ole\AppData\Local\Temp\ccZJuTj2.s 			page 15


 306:.\Generated_Source\PSoC4/isr_blink.c **** * Parameters:
 307:.\Generated_Source\PSoC4/isr_blink.c **** *   None
 308:.\Generated_Source\PSoC4/isr_blink.c **** *
 309:.\Generated_Source\PSoC4/isr_blink.c **** * Return:
 310:.\Generated_Source\PSoC4/isr_blink.c **** *   None
 311:.\Generated_Source\PSoC4/isr_blink.c **** *
 312:.\Generated_Source\PSoC4/isr_blink.c **** *******************************************************************************/
 313:.\Generated_Source\PSoC4/isr_blink.c **** void isr_blink_Enable(void)
 314:.\Generated_Source\PSoC4/isr_blink.c **** {
 493              		.loc 1 314 0
 494              		.cfi_startproc
 495 0000 80B5     		push	{r7, lr}
 496              		.cfi_def_cfa_offset 8
 497              		.cfi_offset 7, -8
 498              		.cfi_offset 14, -4
 499 0002 00AF     		add	r7, sp, #0
 500              		.cfi_def_cfa_register 7
 315:.\Generated_Source\PSoC4/isr_blink.c ****     /* Enable the general interrupt. */
 316:.\Generated_Source\PSoC4/isr_blink.c ****     *isr_blink_INTC_SET_EN = isr_blink__INTC_MASK;
 501              		.loc 1 316 0
 502 0004 024B     		ldr	r3, .L33
 503 0006 8022     		mov	r2, #128
 504 0008 9202     		lsl	r2, r2, #10
 505 000a 1A60     		str	r2, [r3]
 317:.\Generated_Source\PSoC4/isr_blink.c **** }
 506              		.loc 1 317 0
 507 000c BD46     		mov	sp, r7
 508              		@ sp needed
 509 000e 80BD     		pop	{r7, pc}
 510              	.L34:
 511              		.align	2
 512              	.L33:
 513 0010 00E100E0 		.word	-536813312
 514              		.cfi_endproc
 515              	.LFE8:
 516              		.size	isr_blink_Enable, .-isr_blink_Enable
 517              		.section	.text.isr_blink_GetState,"ax",%progbits
 518              		.align	2
 519              		.global	isr_blink_GetState
 520              		.code	16
 521              		.thumb_func
 522              		.type	isr_blink_GetState, %function
 523              	isr_blink_GetState:
 524              	.LFB9:
 318:.\Generated_Source\PSoC4/isr_blink.c **** 
 319:.\Generated_Source\PSoC4/isr_blink.c **** 
 320:.\Generated_Source\PSoC4/isr_blink.c **** /*******************************************************************************
 321:.\Generated_Source\PSoC4/isr_blink.c **** * Function Name: isr_blink_GetState
 322:.\Generated_Source\PSoC4/isr_blink.c **** ********************************************************************************
 323:.\Generated_Source\PSoC4/isr_blink.c **** *
 324:.\Generated_Source\PSoC4/isr_blink.c **** * Summary:
 325:.\Generated_Source\PSoC4/isr_blink.c **** *   Gets the state (enabled, disabled) of the Interrupt.
 326:.\Generated_Source\PSoC4/isr_blink.c **** *
 327:.\Generated_Source\PSoC4/isr_blink.c **** * Parameters:
 328:.\Generated_Source\PSoC4/isr_blink.c **** *   None
 329:.\Generated_Source\PSoC4/isr_blink.c **** *
 330:.\Generated_Source\PSoC4/isr_blink.c **** * Return:
ARM GAS  C:\Users\ole\AppData\Local\Temp\ccZJuTj2.s 			page 16


 331:.\Generated_Source\PSoC4/isr_blink.c **** *   1 if enabled, 0 if disabled.
 332:.\Generated_Source\PSoC4/isr_blink.c **** *
 333:.\Generated_Source\PSoC4/isr_blink.c **** *******************************************************************************/
 334:.\Generated_Source\PSoC4/isr_blink.c **** uint8 isr_blink_GetState(void)
 335:.\Generated_Source\PSoC4/isr_blink.c **** {
 525              		.loc 1 335 0
 526              		.cfi_startproc
 527 0000 80B5     		push	{r7, lr}
 528              		.cfi_def_cfa_offset 8
 529              		.cfi_offset 7, -8
 530              		.cfi_offset 14, -4
 531 0002 00AF     		add	r7, sp, #0
 532              		.cfi_def_cfa_register 7
 336:.\Generated_Source\PSoC4/isr_blink.c ****     /* Get the state of the general interrupt. */
 337:.\Generated_Source\PSoC4/isr_blink.c ****     return ((*isr_blink_INTC_SET_EN & (uint32)isr_blink__INTC_MASK) != 0u) ? 1u:0u;
 533              		.loc 1 337 0
 534 0004 054B     		ldr	r3, .L39
 535 0006 1A68     		ldr	r2, [r3]
 536 0008 8023     		mov	r3, #128
 537 000a 9B02     		lsl	r3, r3, #10
 538 000c 1340     		and	r3, r2
 539 000e 01D0     		beq	.L36
 540              		.loc 1 337 0 is_stmt 0 discriminator 1
 541 0010 0123     		mov	r3, #1
 542 0012 00E0     		b	.L37
 543              	.L36:
 544              		.loc 1 337 0 discriminator 2
 545 0014 0023     		mov	r3, #0
 546              	.L37:
 338:.\Generated_Source\PSoC4/isr_blink.c **** }
 547              		.loc 1 338 0 is_stmt 1 discriminator 3
 548 0016 181C     		mov	r0, r3
 549 0018 BD46     		mov	sp, r7
 550              		@ sp needed
 551 001a 80BD     		pop	{r7, pc}
 552              	.L40:
 553              		.align	2
 554              	.L39:
 555 001c 00E100E0 		.word	-536813312
 556              		.cfi_endproc
 557              	.LFE9:
 558              		.size	isr_blink_GetState, .-isr_blink_GetState
 559              		.section	.text.isr_blink_Disable,"ax",%progbits
 560              		.align	2
 561              		.global	isr_blink_Disable
 562              		.code	16
 563              		.thumb_func
 564              		.type	isr_blink_Disable, %function
 565              	isr_blink_Disable:
 566              	.LFB10:
 339:.\Generated_Source\PSoC4/isr_blink.c **** 
 340:.\Generated_Source\PSoC4/isr_blink.c **** 
 341:.\Generated_Source\PSoC4/isr_blink.c **** /*******************************************************************************
 342:.\Generated_Source\PSoC4/isr_blink.c **** * Function Name: isr_blink_Disable
 343:.\Generated_Source\PSoC4/isr_blink.c **** ********************************************************************************
 344:.\Generated_Source\PSoC4/isr_blink.c **** *
 345:.\Generated_Source\PSoC4/isr_blink.c **** * Summary:
ARM GAS  C:\Users\ole\AppData\Local\Temp\ccZJuTj2.s 			page 17


 346:.\Generated_Source\PSoC4/isr_blink.c **** *   Disables the Interrupt.
 347:.\Generated_Source\PSoC4/isr_blink.c **** *
 348:.\Generated_Source\PSoC4/isr_blink.c **** * Parameters:
 349:.\Generated_Source\PSoC4/isr_blink.c **** *   None
 350:.\Generated_Source\PSoC4/isr_blink.c **** *
 351:.\Generated_Source\PSoC4/isr_blink.c **** * Return:
 352:.\Generated_Source\PSoC4/isr_blink.c **** *   None
 353:.\Generated_Source\PSoC4/isr_blink.c **** *
 354:.\Generated_Source\PSoC4/isr_blink.c **** *******************************************************************************/
 355:.\Generated_Source\PSoC4/isr_blink.c **** void isr_blink_Disable(void)
 356:.\Generated_Source\PSoC4/isr_blink.c **** {
 567              		.loc 1 356 0
 568              		.cfi_startproc
 569 0000 80B5     		push	{r7, lr}
 570              		.cfi_def_cfa_offset 8
 571              		.cfi_offset 7, -8
 572              		.cfi_offset 14, -4
 573 0002 00AF     		add	r7, sp, #0
 574              		.cfi_def_cfa_register 7
 357:.\Generated_Source\PSoC4/isr_blink.c ****     /* Disable the general interrupt. */
 358:.\Generated_Source\PSoC4/isr_blink.c ****     *isr_blink_INTC_CLR_EN = isr_blink__INTC_MASK;
 575              		.loc 1 358 0
 576 0004 024B     		ldr	r3, .L42
 577 0006 8022     		mov	r2, #128
 578 0008 9202     		lsl	r2, r2, #10
 579 000a 1A60     		str	r2, [r3]
 359:.\Generated_Source\PSoC4/isr_blink.c **** }
 580              		.loc 1 359 0
 581 000c BD46     		mov	sp, r7
 582              		@ sp needed
 583 000e 80BD     		pop	{r7, pc}
 584              	.L43:
 585              		.align	2
 586              	.L42:
 587 0010 80E100E0 		.word	-536813184
 588              		.cfi_endproc
 589              	.LFE10:
 590              		.size	isr_blink_Disable, .-isr_blink_Disable
 591              		.section	.text.isr_blink_SetPending,"ax",%progbits
 592              		.align	2
 593              		.global	isr_blink_SetPending
 594              		.code	16
 595              		.thumb_func
 596              		.type	isr_blink_SetPending, %function
 597              	isr_blink_SetPending:
 598              	.LFB11:
 360:.\Generated_Source\PSoC4/isr_blink.c **** 
 361:.\Generated_Source\PSoC4/isr_blink.c **** 
 362:.\Generated_Source\PSoC4/isr_blink.c **** /*******************************************************************************
 363:.\Generated_Source\PSoC4/isr_blink.c **** * Function Name: isr_blink_SetPending
 364:.\Generated_Source\PSoC4/isr_blink.c **** ********************************************************************************
 365:.\Generated_Source\PSoC4/isr_blink.c **** *
 366:.\Generated_Source\PSoC4/isr_blink.c **** * Summary:
 367:.\Generated_Source\PSoC4/isr_blink.c **** *   Causes the Interrupt to enter the pending state, a software method of
 368:.\Generated_Source\PSoC4/isr_blink.c **** *   generating the interrupt.
 369:.\Generated_Source\PSoC4/isr_blink.c **** *
 370:.\Generated_Source\PSoC4/isr_blink.c **** * Parameters:
ARM GAS  C:\Users\ole\AppData\Local\Temp\ccZJuTj2.s 			page 18


 371:.\Generated_Source\PSoC4/isr_blink.c **** *   None
 372:.\Generated_Source\PSoC4/isr_blink.c **** *
 373:.\Generated_Source\PSoC4/isr_blink.c **** * Return:
 374:.\Generated_Source\PSoC4/isr_blink.c **** *   None
 375:.\Generated_Source\PSoC4/isr_blink.c **** *
 376:.\Generated_Source\PSoC4/isr_blink.c **** *******************************************************************************/
 377:.\Generated_Source\PSoC4/isr_blink.c **** void isr_blink_SetPending(void)
 378:.\Generated_Source\PSoC4/isr_blink.c **** {
 599              		.loc 1 378 0
 600              		.cfi_startproc
 601 0000 80B5     		push	{r7, lr}
 602              		.cfi_def_cfa_offset 8
 603              		.cfi_offset 7, -8
 604              		.cfi_offset 14, -4
 605 0002 00AF     		add	r7, sp, #0
 606              		.cfi_def_cfa_register 7
 379:.\Generated_Source\PSoC4/isr_blink.c ****     *isr_blink_INTC_SET_PD = isr_blink__INTC_MASK;
 607              		.loc 1 379 0
 608 0004 024B     		ldr	r3, .L45
 609 0006 8022     		mov	r2, #128
 610 0008 9202     		lsl	r2, r2, #10
 611 000a 1A60     		str	r2, [r3]
 380:.\Generated_Source\PSoC4/isr_blink.c **** }
 612              		.loc 1 380 0
 613 000c BD46     		mov	sp, r7
 614              		@ sp needed
 615 000e 80BD     		pop	{r7, pc}
 616              	.L46:
 617              		.align	2
 618              	.L45:
 619 0010 00E200E0 		.word	-536813056
 620              		.cfi_endproc
 621              	.LFE11:
 622              		.size	isr_blink_SetPending, .-isr_blink_SetPending
 623              		.section	.text.isr_blink_ClearPending,"ax",%progbits
 624              		.align	2
 625              		.global	isr_blink_ClearPending
 626              		.code	16
 627              		.thumb_func
 628              		.type	isr_blink_ClearPending, %function
 629              	isr_blink_ClearPending:
 630              	.LFB12:
 381:.\Generated_Source\PSoC4/isr_blink.c **** 
 382:.\Generated_Source\PSoC4/isr_blink.c **** 
 383:.\Generated_Source\PSoC4/isr_blink.c **** /*******************************************************************************
 384:.\Generated_Source\PSoC4/isr_blink.c **** * Function Name: isr_blink_ClearPending
 385:.\Generated_Source\PSoC4/isr_blink.c **** ********************************************************************************
 386:.\Generated_Source\PSoC4/isr_blink.c **** *
 387:.\Generated_Source\PSoC4/isr_blink.c **** * Summary:
 388:.\Generated_Source\PSoC4/isr_blink.c **** *   Clears a pending interrupt.
 389:.\Generated_Source\PSoC4/isr_blink.c **** *
 390:.\Generated_Source\PSoC4/isr_blink.c **** * Parameters:
 391:.\Generated_Source\PSoC4/isr_blink.c **** *   None
 392:.\Generated_Source\PSoC4/isr_blink.c **** *
 393:.\Generated_Source\PSoC4/isr_blink.c **** * Return:
 394:.\Generated_Source\PSoC4/isr_blink.c **** *   None
 395:.\Generated_Source\PSoC4/isr_blink.c **** *
ARM GAS  C:\Users\ole\AppData\Local\Temp\ccZJuTj2.s 			page 19


 396:.\Generated_Source\PSoC4/isr_blink.c **** *******************************************************************************/
 397:.\Generated_Source\PSoC4/isr_blink.c **** void isr_blink_ClearPending(void)
 398:.\Generated_Source\PSoC4/isr_blink.c **** {
 631              		.loc 1 398 0
 632              		.cfi_startproc
 633 0000 80B5     		push	{r7, lr}
 634              		.cfi_def_cfa_offset 8
 635              		.cfi_offset 7, -8
 636              		.cfi_offset 14, -4
 637 0002 00AF     		add	r7, sp, #0
 638              		.cfi_def_cfa_register 7
 399:.\Generated_Source\PSoC4/isr_blink.c ****     *isr_blink_INTC_CLR_PD = isr_blink__INTC_MASK;
 639              		.loc 1 399 0
 640 0004 024B     		ldr	r3, .L48
 641 0006 8022     		mov	r2, #128
 642 0008 9202     		lsl	r2, r2, #10
 643 000a 1A60     		str	r2, [r3]
 400:.\Generated_Source\PSoC4/isr_blink.c **** }
 644              		.loc 1 400 0
 645 000c BD46     		mov	sp, r7
 646              		@ sp needed
 647 000e 80BD     		pop	{r7, pc}
 648              	.L49:
 649              		.align	2
 650              	.L48:
 651 0010 80E200E0 		.word	-536812928
 652              		.cfi_endproc
 653              	.LFE12:
 654              		.size	isr_blink_ClearPending, .-isr_blink_ClearPending
 655              		.text
 656              	.Letext0:
 657              		.file 2 "c:\\program files (x86)\\cypress\\psoc creator\\3.1\\psoc creator\\import\\gnu_cs\\arm\\4
 658              		.file 3 "c:\\program files (x86)\\cypress\\psoc creator\\3.1\\psoc creator\\import\\gnu_cs\\arm\\4
 659              		.file 4 ".\\Generated_Source\\PSoC4/cytypes.h"