ARM GAS  C:\Users\ole\AppData\Local\Temp\cc2bsNDg.s 			page 1


   1              		.cpu cortex-m0
   2              		.fpu softvfp
   3              		.eabi_attribute 20, 1
   4              		.eabi_attribute 21, 1
   5              		.eabi_attribute 23, 3
   6              		.eabi_attribute 24, 1
   7              		.eabi_attribute 25, 1
   8              		.eabi_attribute 26, 1
   9              		.eabi_attribute 30, 6
  10              		.eabi_attribute 34, 0
  11              		.eabi_attribute 18, 4
  12              		.code	16
  13              		.file	"isr_RC.c"
  14              		.text
  15              	.Ltext0:
  16              		.cfi_sections	.debug_frame
  17              		.global	channelCount
  18              		.bss
  19              		.type	channelCount, %object
  20              		.size	channelCount, 1
  21              	channelCount:
  22 0000 00       		.space	1
  23              		.global	cppm_sync
  24              		.type	cppm_sync, %object
  25              		.size	cppm_sync, 1
  26              	cppm_sync:
  27 0001 00       		.space	1
  28              		.section	.text.isr_RC_Start,"ax",%progbits
  29              		.align	2
  30              		.global	isr_RC_Start
  31              		.code	16
  32              		.thumb_func
  33              		.type	isr_RC_Start, %function
  34              	isr_RC_Start:
  35              	.LFB33:
  36              		.file 1 ".\\Generated_Source\\PSoC4\\isr_RC.c"
   1:.\Generated_Source\PSoC4/isr_RC.c **** /*******************************************************************************
   2:.\Generated_Source\PSoC4/isr_RC.c **** * File Name: isr_RC.c  
   3:.\Generated_Source\PSoC4/isr_RC.c **** * Version 1.70
   4:.\Generated_Source\PSoC4/isr_RC.c **** *
   5:.\Generated_Source\PSoC4/isr_RC.c **** *  Description:
   6:.\Generated_Source\PSoC4/isr_RC.c **** *   API for controlling the state of an interrupt.
   7:.\Generated_Source\PSoC4/isr_RC.c **** *
   8:.\Generated_Source\PSoC4/isr_RC.c **** *
   9:.\Generated_Source\PSoC4/isr_RC.c **** *  Note:
  10:.\Generated_Source\PSoC4/isr_RC.c **** *
  11:.\Generated_Source\PSoC4/isr_RC.c **** ********************************************************************************
  12:.\Generated_Source\PSoC4/isr_RC.c **** * Copyright 2008-2015, Cypress Semiconductor Corporation.  All rights reserved.
  13:.\Generated_Source\PSoC4/isr_RC.c **** * You may use this file only in accordance with the license, terms, conditions, 
  14:.\Generated_Source\PSoC4/isr_RC.c **** * disclaimers, and limitations in the end user license agreement accompanying 
  15:.\Generated_Source\PSoC4/isr_RC.c **** * the software package with which this file was provided.
  16:.\Generated_Source\PSoC4/isr_RC.c **** *******************************************************************************/
  17:.\Generated_Source\PSoC4/isr_RC.c **** 
  18:.\Generated_Source\PSoC4/isr_RC.c **** 
  19:.\Generated_Source\PSoC4/isr_RC.c **** #include <cydevice_trm.h>
  20:.\Generated_Source\PSoC4/isr_RC.c **** #include <CyLib.h>
  21:.\Generated_Source\PSoC4/isr_RC.c **** #include <isr_RC.h>
ARM GAS  C:\Users\ole\AppData\Local\Temp\cc2bsNDg.s 			page 2


  22:.\Generated_Source\PSoC4/isr_RC.c **** 
  23:.\Generated_Source\PSoC4/isr_RC.c **** #if !defined(isr_RC__REMOVED) /* Check for removal by optimization */
  24:.\Generated_Source\PSoC4/isr_RC.c **** 
  25:.\Generated_Source\PSoC4/isr_RC.c **** /*******************************************************************************
  26:.\Generated_Source\PSoC4/isr_RC.c **** *  Place your includes, defines and code here 
  27:.\Generated_Source\PSoC4/isr_RC.c **** ********************************************************************************/
  28:.\Generated_Source\PSoC4/isr_RC.c **** /* `#START isr_RC_intc` */
  29:.\Generated_Source\PSoC4/isr_RC.c **** #include <project.h>
  30:.\Generated_Source\PSoC4/isr_RC.c **** #include <stdio.h>
  31:.\Generated_Source\PSoC4/isr_RC.c **** 
  32:.\Generated_Source\PSoC4/isr_RC.c **** enum lights {strobe = 0, collision, navigation, landing};
  33:.\Generated_Source\PSoC4/isr_RC.c **** 
  34:.\Generated_Source\PSoC4/isr_RC.c **** uint8_t channelCount = 0;
  35:.\Generated_Source\PSoC4/isr_RC.c **** uint8_t cppm_sync = 0;
  36:.\Generated_Source\PSoC4/isr_RC.c **** extern int16_t channelTime[8];
  37:.\Generated_Source\PSoC4/isr_RC.c **** extern uint8_t pwm_light_adj[4];
  38:.\Generated_Source\PSoC4/isr_RC.c **** /* `#END` */
  39:.\Generated_Source\PSoC4/isr_RC.c **** 
  40:.\Generated_Source\PSoC4/isr_RC.c **** extern cyisraddress CyRamVectors[CYINT_IRQ_BASE + CY_NUM_INTERRUPTS];
  41:.\Generated_Source\PSoC4/isr_RC.c **** 
  42:.\Generated_Source\PSoC4/isr_RC.c **** /* Declared in startup, used to set unused interrupts to. */
  43:.\Generated_Source\PSoC4/isr_RC.c **** CY_ISR_PROTO(IntDefaultHandler);
  44:.\Generated_Source\PSoC4/isr_RC.c **** 
  45:.\Generated_Source\PSoC4/isr_RC.c **** 
  46:.\Generated_Source\PSoC4/isr_RC.c **** /*******************************************************************************
  47:.\Generated_Source\PSoC4/isr_RC.c **** * Function Name: isr_RC_Start
  48:.\Generated_Source\PSoC4/isr_RC.c **** ********************************************************************************
  49:.\Generated_Source\PSoC4/isr_RC.c **** *
  50:.\Generated_Source\PSoC4/isr_RC.c **** * Summary:
  51:.\Generated_Source\PSoC4/isr_RC.c **** *  Set up the interrupt and enable it. This function disables the interrupt, 
  52:.\Generated_Source\PSoC4/isr_RC.c **** *  sets the default interrupt vector, sets the priority from the value in the
  53:.\Generated_Source\PSoC4/isr_RC.c **** *  Design Wide Resources Interrupt Editor, then enables the interrupt to the 
  54:.\Generated_Source\PSoC4/isr_RC.c **** *  interrupt controller.
  55:.\Generated_Source\PSoC4/isr_RC.c **** *
  56:.\Generated_Source\PSoC4/isr_RC.c **** * Parameters:  
  57:.\Generated_Source\PSoC4/isr_RC.c **** *   None
  58:.\Generated_Source\PSoC4/isr_RC.c **** *
  59:.\Generated_Source\PSoC4/isr_RC.c **** * Return:
  60:.\Generated_Source\PSoC4/isr_RC.c **** *   None
  61:.\Generated_Source\PSoC4/isr_RC.c **** *
  62:.\Generated_Source\PSoC4/isr_RC.c **** *******************************************************************************/
  63:.\Generated_Source\PSoC4/isr_RC.c **** void isr_RC_Start(void)
  64:.\Generated_Source\PSoC4/isr_RC.c **** {
  37              		.loc 1 64 0
  38              		.cfi_startproc
  39 0000 80B5     		push	{r7, lr}
  40              		.cfi_def_cfa_offset 8
  41              		.cfi_offset 7, -8
  42              		.cfi_offset 14, -4
  43 0002 00AF     		add	r7, sp, #0
  44              		.cfi_def_cfa_register 7
  65:.\Generated_Source\PSoC4/isr_RC.c ****     /* For all we know the interrupt is active. */
  66:.\Generated_Source\PSoC4/isr_RC.c ****     isr_RC_Disable();
  45              		.loc 1 66 0
  46 0004 FFF7FEFF 		bl	isr_RC_Disable
  67:.\Generated_Source\PSoC4/isr_RC.c **** 
  68:.\Generated_Source\PSoC4/isr_RC.c ****     /* Set the ISR to point to the isr_RC Interrupt. */
ARM GAS  C:\Users\ole\AppData\Local\Temp\cc2bsNDg.s 			page 3


  69:.\Generated_Source\PSoC4/isr_RC.c ****     isr_RC_SetVector(&isr_RC_Interrupt);
  47              		.loc 1 69 0
  48 0008 054B     		ldr	r3, .L2
  49 000a 181C     		mov	r0, r3
  50 000c FFF7FEFF 		bl	isr_RC_SetVector
  70:.\Generated_Source\PSoC4/isr_RC.c **** 
  71:.\Generated_Source\PSoC4/isr_RC.c ****     /* Set the priority. */
  72:.\Generated_Source\PSoC4/isr_RC.c ****     isr_RC_SetPriority((uint8)isr_RC_INTC_PRIOR_NUMBER);
  51              		.loc 1 72 0
  52 0010 0320     		mov	r0, #3
  53 0012 FFF7FEFF 		bl	isr_RC_SetPriority
  73:.\Generated_Source\PSoC4/isr_RC.c **** 
  74:.\Generated_Source\PSoC4/isr_RC.c ****     /* Enable it. */
  75:.\Generated_Source\PSoC4/isr_RC.c ****     isr_RC_Enable();
  54              		.loc 1 75 0
  55 0016 FFF7FEFF 		bl	isr_RC_Enable
  76:.\Generated_Source\PSoC4/isr_RC.c **** }
  56              		.loc 1 76 0
  57 001a BD46     		mov	sp, r7
  58              		@ sp needed
  59 001c 80BD     		pop	{r7, pc}
  60              	.L3:
  61 001e C046     		.align	2
  62              	.L2:
  63 0020 00000000 		.word	isr_RC_Interrupt
  64              		.cfi_endproc
  65              	.LFE33:
  66              		.size	isr_RC_Start, .-isr_RC_Start
  67              		.section	.text.isr_RC_StartEx,"ax",%progbits
  68              		.align	2
  69              		.global	isr_RC_StartEx
  70              		.code	16
  71              		.thumb_func
  72              		.type	isr_RC_StartEx, %function
  73              	isr_RC_StartEx:
  74              	.LFB34:
  77:.\Generated_Source\PSoC4/isr_RC.c **** 
  78:.\Generated_Source\PSoC4/isr_RC.c **** 
  79:.\Generated_Source\PSoC4/isr_RC.c **** /*******************************************************************************
  80:.\Generated_Source\PSoC4/isr_RC.c **** * Function Name: isr_RC_StartEx
  81:.\Generated_Source\PSoC4/isr_RC.c **** ********************************************************************************
  82:.\Generated_Source\PSoC4/isr_RC.c **** *
  83:.\Generated_Source\PSoC4/isr_RC.c **** * Summary:
  84:.\Generated_Source\PSoC4/isr_RC.c **** *  Sets up the interrupt and enables it. This function disables the interrupt,
  85:.\Generated_Source\PSoC4/isr_RC.c **** *  sets the interrupt vector based on the address passed in, sets the priority 
  86:.\Generated_Source\PSoC4/isr_RC.c **** *  from the value in the Design Wide Resources Interrupt Editor, then enables 
  87:.\Generated_Source\PSoC4/isr_RC.c **** *  the interrupt to the interrupt controller.
  88:.\Generated_Source\PSoC4/isr_RC.c **** *  
  89:.\Generated_Source\PSoC4/isr_RC.c **** *  When defining ISR functions, the CY_ISR and CY_ISR_PROTO macros should be 
  90:.\Generated_Source\PSoC4/isr_RC.c **** *  used to provide consistent definition across compilers:
  91:.\Generated_Source\PSoC4/isr_RC.c **** *  
  92:.\Generated_Source\PSoC4/isr_RC.c **** *  Function definition example:
  93:.\Generated_Source\PSoC4/isr_RC.c **** *   CY_ISR(MyISR)
  94:.\Generated_Source\PSoC4/isr_RC.c **** *   {
  95:.\Generated_Source\PSoC4/isr_RC.c **** *   }
  96:.\Generated_Source\PSoC4/isr_RC.c **** *   Function prototype example:
  97:.\Generated_Source\PSoC4/isr_RC.c **** *   CY_ISR_PROTO(MyISR);
ARM GAS  C:\Users\ole\AppData\Local\Temp\cc2bsNDg.s 			page 4


  98:.\Generated_Source\PSoC4/isr_RC.c **** *
  99:.\Generated_Source\PSoC4/isr_RC.c **** * Parameters:  
 100:.\Generated_Source\PSoC4/isr_RC.c **** *   address: Address of the ISR to set in the interrupt vector table.
 101:.\Generated_Source\PSoC4/isr_RC.c **** *
 102:.\Generated_Source\PSoC4/isr_RC.c **** * Return:
 103:.\Generated_Source\PSoC4/isr_RC.c **** *   None
 104:.\Generated_Source\PSoC4/isr_RC.c **** *
 105:.\Generated_Source\PSoC4/isr_RC.c **** *******************************************************************************/
 106:.\Generated_Source\PSoC4/isr_RC.c **** void isr_RC_StartEx(cyisraddress address)
 107:.\Generated_Source\PSoC4/isr_RC.c **** {
  75              		.loc 1 107 0
  76              		.cfi_startproc
  77 0000 80B5     		push	{r7, lr}
  78              		.cfi_def_cfa_offset 8
  79              		.cfi_offset 7, -8
  80              		.cfi_offset 14, -4
  81 0002 82B0     		sub	sp, sp, #8
  82              		.cfi_def_cfa_offset 16
  83 0004 00AF     		add	r7, sp, #0
  84              		.cfi_def_cfa_register 7
  85 0006 7860     		str	r0, [r7, #4]
 108:.\Generated_Source\PSoC4/isr_RC.c ****     /* For all we know the interrupt is active. */
 109:.\Generated_Source\PSoC4/isr_RC.c ****     isr_RC_Disable();
  86              		.loc 1 109 0
  87 0008 FFF7FEFF 		bl	isr_RC_Disable
 110:.\Generated_Source\PSoC4/isr_RC.c **** 
 111:.\Generated_Source\PSoC4/isr_RC.c ****     /* Set the ISR to point to the isr_RC Interrupt. */
 112:.\Generated_Source\PSoC4/isr_RC.c ****     isr_RC_SetVector(address);
  88              		.loc 1 112 0
  89 000c 7B68     		ldr	r3, [r7, #4]
  90 000e 181C     		mov	r0, r3
  91 0010 FFF7FEFF 		bl	isr_RC_SetVector
 113:.\Generated_Source\PSoC4/isr_RC.c **** 
 114:.\Generated_Source\PSoC4/isr_RC.c ****     /* Set the priority. */
 115:.\Generated_Source\PSoC4/isr_RC.c ****     isr_RC_SetPriority((uint8)isr_RC_INTC_PRIOR_NUMBER);
  92              		.loc 1 115 0
  93 0014 0320     		mov	r0, #3
  94 0016 FFF7FEFF 		bl	isr_RC_SetPriority
 116:.\Generated_Source\PSoC4/isr_RC.c **** 
 117:.\Generated_Source\PSoC4/isr_RC.c ****     /* Enable it. */
 118:.\Generated_Source\PSoC4/isr_RC.c ****     isr_RC_Enable();
  95              		.loc 1 118 0
  96 001a FFF7FEFF 		bl	isr_RC_Enable
 119:.\Generated_Source\PSoC4/isr_RC.c **** }
  97              		.loc 1 119 0
  98 001e BD46     		mov	sp, r7
  99 0020 02B0     		add	sp, sp, #8
 100              		@ sp needed
 101 0022 80BD     		pop	{r7, pc}
 102              		.cfi_endproc
 103              	.LFE34:
 104              		.size	isr_RC_StartEx, .-isr_RC_StartEx
 105              		.section	.text.isr_RC_Stop,"ax",%progbits
 106              		.align	2
 107              		.global	isr_RC_Stop
 108              		.code	16
 109              		.thumb_func
ARM GAS  C:\Users\ole\AppData\Local\Temp\cc2bsNDg.s 			page 5


 110              		.type	isr_RC_Stop, %function
 111              	isr_RC_Stop:
 112              	.LFB35:
 120:.\Generated_Source\PSoC4/isr_RC.c **** 
 121:.\Generated_Source\PSoC4/isr_RC.c **** 
 122:.\Generated_Source\PSoC4/isr_RC.c **** /*******************************************************************************
 123:.\Generated_Source\PSoC4/isr_RC.c **** * Function Name: isr_RC_Stop
 124:.\Generated_Source\PSoC4/isr_RC.c **** ********************************************************************************
 125:.\Generated_Source\PSoC4/isr_RC.c **** *
 126:.\Generated_Source\PSoC4/isr_RC.c **** * Summary:
 127:.\Generated_Source\PSoC4/isr_RC.c **** *   Disables and removes the interrupt.
 128:.\Generated_Source\PSoC4/isr_RC.c **** *
 129:.\Generated_Source\PSoC4/isr_RC.c **** * Parameters:  
 130:.\Generated_Source\PSoC4/isr_RC.c **** *   None
 131:.\Generated_Source\PSoC4/isr_RC.c **** *
 132:.\Generated_Source\PSoC4/isr_RC.c **** * Return:
 133:.\Generated_Source\PSoC4/isr_RC.c **** *   None
 134:.\Generated_Source\PSoC4/isr_RC.c **** *
 135:.\Generated_Source\PSoC4/isr_RC.c **** *******************************************************************************/
 136:.\Generated_Source\PSoC4/isr_RC.c **** void isr_RC_Stop(void)
 137:.\Generated_Source\PSoC4/isr_RC.c **** {
 113              		.loc 1 137 0
 114              		.cfi_startproc
 115 0000 80B5     		push	{r7, lr}
 116              		.cfi_def_cfa_offset 8
 117              		.cfi_offset 7, -8
 118              		.cfi_offset 14, -4
 119 0002 00AF     		add	r7, sp, #0
 120              		.cfi_def_cfa_register 7
 138:.\Generated_Source\PSoC4/isr_RC.c ****     /* Disable this interrupt. */
 139:.\Generated_Source\PSoC4/isr_RC.c ****     isr_RC_Disable();
 121              		.loc 1 139 0
 122 0004 FFF7FEFF 		bl	isr_RC_Disable
 140:.\Generated_Source\PSoC4/isr_RC.c **** 
 141:.\Generated_Source\PSoC4/isr_RC.c ****     /* Set the ISR to point to the passive one. */
 142:.\Generated_Source\PSoC4/isr_RC.c ****     isr_RC_SetVector(&IntDefaultHandler);
 123              		.loc 1 142 0
 124 0008 024B     		ldr	r3, .L6
 125 000a 181C     		mov	r0, r3
 126 000c FFF7FEFF 		bl	isr_RC_SetVector
 143:.\Generated_Source\PSoC4/isr_RC.c **** }
 127              		.loc 1 143 0
 128 0010 BD46     		mov	sp, r7
 129              		@ sp needed
 130 0012 80BD     		pop	{r7, pc}
 131              	.L7:
 132              		.align	2
 133              	.L6:
 134 0014 00000000 		.word	IntDefaultHandler
 135              		.cfi_endproc
 136              	.LFE35:
 137              		.size	isr_RC_Stop, .-isr_RC_Stop
 138              		.section	.text.isr_RC_Interrupt,"ax",%progbits
 139              		.align	2
 140              		.global	isr_RC_Interrupt
 141              		.code	16
 142              		.thumb_func
ARM GAS  C:\Users\ole\AppData\Local\Temp\cc2bsNDg.s 			page 6


 143              		.type	isr_RC_Interrupt, %function
 144              	isr_RC_Interrupt:
 145              	.LFB36:
 144:.\Generated_Source\PSoC4/isr_RC.c **** 
 145:.\Generated_Source\PSoC4/isr_RC.c **** 
 146:.\Generated_Source\PSoC4/isr_RC.c **** /*******************************************************************************
 147:.\Generated_Source\PSoC4/isr_RC.c **** * Function Name: isr_RC_Interrupt
 148:.\Generated_Source\PSoC4/isr_RC.c **** ********************************************************************************
 149:.\Generated_Source\PSoC4/isr_RC.c **** *
 150:.\Generated_Source\PSoC4/isr_RC.c **** * Summary:
 151:.\Generated_Source\PSoC4/isr_RC.c **** *   The default Interrupt Service Routine for isr_RC.
 152:.\Generated_Source\PSoC4/isr_RC.c **** *
 153:.\Generated_Source\PSoC4/isr_RC.c **** *   Add custom code between the START and END comments to keep the next version
 154:.\Generated_Source\PSoC4/isr_RC.c **** *   of this file from over-writing your code.
 155:.\Generated_Source\PSoC4/isr_RC.c **** *
 156:.\Generated_Source\PSoC4/isr_RC.c **** *   Note You may use either the default ISR by using this API, or you may define
 157:.\Generated_Source\PSoC4/isr_RC.c **** *   your own separate ISR through ISR_StartEx().
 158:.\Generated_Source\PSoC4/isr_RC.c **** *
 159:.\Generated_Source\PSoC4/isr_RC.c **** * Parameters:  
 160:.\Generated_Source\PSoC4/isr_RC.c **** *   None
 161:.\Generated_Source\PSoC4/isr_RC.c **** *
 162:.\Generated_Source\PSoC4/isr_RC.c **** * Return:
 163:.\Generated_Source\PSoC4/isr_RC.c **** *   None
 164:.\Generated_Source\PSoC4/isr_RC.c **** *
 165:.\Generated_Source\PSoC4/isr_RC.c **** *******************************************************************************/
 166:.\Generated_Source\PSoC4/isr_RC.c **** CY_ISR(isr_RC_Interrupt)
 167:.\Generated_Source\PSoC4/isr_RC.c **** {
 146              		.loc 1 167 0
 147              		.cfi_startproc
 148 0000 80B5     		push	{r7, lr}
 149              		.cfi_def_cfa_offset 8
 150              		.cfi_offset 7, -8
 151              		.cfi_offset 14, -4
 152 0002 82B0     		sub	sp, sp, #8
 153              		.cfi_def_cfa_offset 16
 154 0004 00AF     		add	r7, sp, #0
 155              		.cfi_def_cfa_register 7
 168:.\Generated_Source\PSoC4/isr_RC.c ****     /*  Place your Interrupt code here. */
 169:.\Generated_Source\PSoC4/isr_RC.c ****     /* `#START isr_RC_Interrupt` */
 170:.\Generated_Source\PSoC4/isr_RC.c ****     //char8 buffer[10];
 171:.\Generated_Source\PSoC4/isr_RC.c ****     int time;
 172:.\Generated_Source\PSoC4/isr_RC.c ****     isr_RC_ClearPending();
 156              		.loc 1 172 0
 157 0006 FFF7FEFF 		bl	isr_RC_ClearPending
 173:.\Generated_Source\PSoC4/isr_RC.c ****     RC_Timer_ClearInterrupt(RC_Timer_INTR_MASK_CC_MATCH);
 158              		.loc 1 173 0
 159 000a 0220     		mov	r0, #2
 160 000c FFF7FEFF 		bl	RC_Timer_ClearInterrupt
 174:.\Generated_Source\PSoC4/isr_RC.c ****     time = (int) RC_Timer_ReadCounter();
 161              		.loc 1 174 0
 162 0010 FFF7FEFF 		bl	RC_Timer_ReadCounter
 163 0014 031C     		mov	r3, r0
 164 0016 7B60     		str	r3, [r7, #4]
 175:.\Generated_Source\PSoC4/isr_RC.c ****     RC_Timer_WriteCounter(0);
 165              		.loc 1 175 0
 166 0018 0020     		mov	r0, #0
 167 001a FFF7FEFF 		bl	RC_Timer_WriteCounter
ARM GAS  C:\Users\ole\AppData\Local\Temp\cc2bsNDg.s 			page 7


 176:.\Generated_Source\PSoC4/isr_RC.c ****     if  (time > 4000)
 168              		.loc 1 176 0
 169 001e 7A68     		ldr	r2, [r7, #4]
 170 0020 FA23     		mov	r3, #250
 171 0022 1B01     		lsl	r3, r3, #4
 172 0024 9A42     		cmp	r2, r3
 173 0026 06DD     		ble	.L9
 177:.\Generated_Source\PSoC4/isr_RC.c ****     {
 178:.\Generated_Source\PSoC4/isr_RC.c ****         channelCount = 0;
 174              		.loc 1 178 0
 175 0028 144B     		ldr	r3, .L12
 176 002a 0022     		mov	r2, #0
 177 002c 1A70     		strb	r2, [r3]
 179:.\Generated_Source\PSoC4/isr_RC.c ****         cppm_sync = 1;
 178              		.loc 1 179 0
 179 002e 144B     		ldr	r3, .L12+4
 180 0030 0122     		mov	r2, #1
 181 0032 1A70     		strb	r2, [r3]
 182 0034 1EE0     		b	.L8
 183              	.L9:
 180:.\Generated_Source\PSoC4/isr_RC.c ****         //UART_2_UartPutChar('x');
 181:.\Generated_Source\PSoC4/isr_RC.c ****     }else if (time > 900 && cppm_sync == 1 && channelCount < 8)
 184              		.loc 1 181 0
 185 0036 7A68     		ldr	r2, [r7, #4]
 186 0038 E123     		mov	r3, #225
 187 003a 9B00     		lsl	r3, r3, #2
 188 003c 9A42     		cmp	r2, r3
 189 003e 16DD     		ble	.L11
 190              		.loc 1 181 0 is_stmt 0 discriminator 1
 191 0040 0F4B     		ldr	r3, .L12+4
 192 0042 1B78     		ldrb	r3, [r3]
 193 0044 012B     		cmp	r3, #1
 194 0046 12D1     		bne	.L11
 195 0048 0C4B     		ldr	r3, .L12
 196 004a 1B78     		ldrb	r3, [r3]
 197 004c 072B     		cmp	r3, #7
 198 004e 0ED8     		bhi	.L11
 182:.\Generated_Source\PSoC4/isr_RC.c ****     {
 183:.\Generated_Source\PSoC4/isr_RC.c ****         channelTime[channelCount] = time;
 199              		.loc 1 183 0 is_stmt 1
 200 0050 0A4B     		ldr	r3, .L12
 201 0052 1B78     		ldrb	r3, [r3]
 202 0054 1A1C     		mov	r2, r3
 203 0056 7B68     		ldr	r3, [r7, #4]
 204 0058 99B2     		uxth	r1, r3
 205 005a 0A4B     		ldr	r3, .L12+8
 206 005c 5200     		lsl	r2, r2, #1
 207 005e D152     		strh	r1, [r2, r3]
 184:.\Generated_Source\PSoC4/isr_RC.c ****         
 185:.\Generated_Source\PSoC4/isr_RC.c ****         //sprintf(buffer,"Ch %d ", channelCount);
 186:.\Generated_Source\PSoC4/isr_RC.c ****         //UART_2_UartPutString(buffer);
 187:.\Generated_Source\PSoC4/isr_RC.c ****         //sprintf(buffer,"T: %d", channelTime[channelCount]);
 188:.\Generated_Source\PSoC4/isr_RC.c ****         //UART_2_UartPutString(buffer);
 189:.\Generated_Source\PSoC4/isr_RC.c ****         
 190:.\Generated_Source\PSoC4/isr_RC.c ****         channelCount++;
 208              		.loc 1 190 0
 209 0060 064B     		ldr	r3, .L12
ARM GAS  C:\Users\ole\AppData\Local\Temp\cc2bsNDg.s 			page 8


 210 0062 1B78     		ldrb	r3, [r3]
 211 0064 0133     		add	r3, r3, #1
 212 0066 DAB2     		uxtb	r2, r3
 213 0068 044B     		ldr	r3, .L12
 214 006a 1A70     		strb	r2, [r3]
 215 006c 02E0     		b	.L8
 216              	.L11:
 191:.\Generated_Source\PSoC4/isr_RC.c ****     }else cppm_sync = 0;
 217              		.loc 1 191 0
 218 006e 044B     		ldr	r3, .L12+4
 219 0070 0022     		mov	r2, #0
 220 0072 1A70     		strb	r2, [r3]
 221              	.L8:
 192:.\Generated_Source\PSoC4/isr_RC.c ****     //channelCount++;
 193:.\Generated_Source\PSoC4/isr_RC.c ****   
 194:.\Generated_Source\PSoC4/isr_RC.c ****     
 195:.\Generated_Source\PSoC4/isr_RC.c ****     /* `#END` */
 196:.\Generated_Source\PSoC4/isr_RC.c **** }
 222              		.loc 1 196 0
 223 0074 BD46     		mov	sp, r7
 224 0076 02B0     		add	sp, sp, #8
 225              		@ sp needed
 226 0078 80BD     		pop	{r7, pc}
 227              	.L13:
 228 007a C046     		.align	2
 229              	.L12:
 230 007c 00000000 		.word	channelCount
 231 0080 00000000 		.word	cppm_sync
 232 0084 00000000 		.word	channelTime
 233              		.cfi_endproc
 234              	.LFE36:
 235              		.size	isr_RC_Interrupt, .-isr_RC_Interrupt
 236              		.section	.text.isr_RC_SetVector,"ax",%progbits
 237              		.align	2
 238              		.global	isr_RC_SetVector
 239              		.code	16
 240              		.thumb_func
 241              		.type	isr_RC_SetVector, %function
 242              	isr_RC_SetVector:
 243              	.LFB37:
 197:.\Generated_Source\PSoC4/isr_RC.c **** 
 198:.\Generated_Source\PSoC4/isr_RC.c **** 
 199:.\Generated_Source\PSoC4/isr_RC.c **** /*******************************************************************************
 200:.\Generated_Source\PSoC4/isr_RC.c **** * Function Name: isr_RC_SetVector
 201:.\Generated_Source\PSoC4/isr_RC.c **** ********************************************************************************
 202:.\Generated_Source\PSoC4/isr_RC.c **** *
 203:.\Generated_Source\PSoC4/isr_RC.c **** * Summary:
 204:.\Generated_Source\PSoC4/isr_RC.c **** *   Change the ISR vector for the Interrupt. Note calling isr_RC_Start
 205:.\Generated_Source\PSoC4/isr_RC.c **** *   will override any effect this method would have had. To set the vector 
 206:.\Generated_Source\PSoC4/isr_RC.c **** *   before the component has been started use isr_RC_StartEx instead.
 207:.\Generated_Source\PSoC4/isr_RC.c **** * 
 208:.\Generated_Source\PSoC4/isr_RC.c **** *   When defining ISR functions, the CY_ISR and CY_ISR_PROTO macros should be 
 209:.\Generated_Source\PSoC4/isr_RC.c **** *   used to provide consistent definition across compilers:
 210:.\Generated_Source\PSoC4/isr_RC.c **** *
 211:.\Generated_Source\PSoC4/isr_RC.c **** *   Function definition example:
 212:.\Generated_Source\PSoC4/isr_RC.c **** *   CY_ISR(MyISR)
 213:.\Generated_Source\PSoC4/isr_RC.c **** *   {
ARM GAS  C:\Users\ole\AppData\Local\Temp\cc2bsNDg.s 			page 9


 214:.\Generated_Source\PSoC4/isr_RC.c **** *   }
 215:.\Generated_Source\PSoC4/isr_RC.c **** *
 216:.\Generated_Source\PSoC4/isr_RC.c **** *   Function prototype example:
 217:.\Generated_Source\PSoC4/isr_RC.c **** *     CY_ISR_PROTO(MyISR);
 218:.\Generated_Source\PSoC4/isr_RC.c **** *
 219:.\Generated_Source\PSoC4/isr_RC.c **** * Parameters:
 220:.\Generated_Source\PSoC4/isr_RC.c **** *   address: Address of the ISR to set in the interrupt vector table.
 221:.\Generated_Source\PSoC4/isr_RC.c **** *
 222:.\Generated_Source\PSoC4/isr_RC.c **** * Return:
 223:.\Generated_Source\PSoC4/isr_RC.c **** *   None
 224:.\Generated_Source\PSoC4/isr_RC.c **** *
 225:.\Generated_Source\PSoC4/isr_RC.c **** *******************************************************************************/
 226:.\Generated_Source\PSoC4/isr_RC.c **** void isr_RC_SetVector(cyisraddress address)
 227:.\Generated_Source\PSoC4/isr_RC.c **** {
 244              		.loc 1 227 0
 245              		.cfi_startproc
 246 0000 80B5     		push	{r7, lr}
 247              		.cfi_def_cfa_offset 8
 248              		.cfi_offset 7, -8
 249              		.cfi_offset 14, -4
 250 0002 82B0     		sub	sp, sp, #8
 251              		.cfi_def_cfa_offset 16
 252 0004 00AF     		add	r7, sp, #0
 253              		.cfi_def_cfa_register 7
 254 0006 7860     		str	r0, [r7, #4]
 228:.\Generated_Source\PSoC4/isr_RC.c ****     CyRamVectors[CYINT_IRQ_BASE + isr_RC__INTC_NUMBER] = address;
 255              		.loc 1 228 0
 256 0008 034A     		ldr	r2, .L15
 257 000a 8823     		mov	r3, #136
 258 000c 7968     		ldr	r1, [r7, #4]
 259 000e D150     		str	r1, [r2, r3]
 229:.\Generated_Source\PSoC4/isr_RC.c **** }
 260              		.loc 1 229 0
 261 0010 BD46     		mov	sp, r7
 262 0012 02B0     		add	sp, sp, #8
 263              		@ sp needed
 264 0014 80BD     		pop	{r7, pc}
 265              	.L16:
 266 0016 C046     		.align	2
 267              	.L15:
 268 0018 00000000 		.word	CyRamVectors
 269              		.cfi_endproc
 270              	.LFE37:
 271              		.size	isr_RC_SetVector, .-isr_RC_SetVector
 272              		.section	.text.isr_RC_GetVector,"ax",%progbits
 273              		.align	2
 274              		.global	isr_RC_GetVector
 275              		.code	16
 276              		.thumb_func
 277              		.type	isr_RC_GetVector, %function
 278              	isr_RC_GetVector:
 279              	.LFB38:
 230:.\Generated_Source\PSoC4/isr_RC.c **** 
 231:.\Generated_Source\PSoC4/isr_RC.c **** 
 232:.\Generated_Source\PSoC4/isr_RC.c **** /*******************************************************************************
 233:.\Generated_Source\PSoC4/isr_RC.c **** * Function Name: isr_RC_GetVector
 234:.\Generated_Source\PSoC4/isr_RC.c **** ********************************************************************************
ARM GAS  C:\Users\ole\AppData\Local\Temp\cc2bsNDg.s 			page 10


 235:.\Generated_Source\PSoC4/isr_RC.c **** *
 236:.\Generated_Source\PSoC4/isr_RC.c **** * Summary:
 237:.\Generated_Source\PSoC4/isr_RC.c **** *   Gets the "address" of the current ISR vector for the Interrupt.
 238:.\Generated_Source\PSoC4/isr_RC.c **** *
 239:.\Generated_Source\PSoC4/isr_RC.c **** * Parameters:
 240:.\Generated_Source\PSoC4/isr_RC.c **** *   None
 241:.\Generated_Source\PSoC4/isr_RC.c **** *
 242:.\Generated_Source\PSoC4/isr_RC.c **** * Return:
 243:.\Generated_Source\PSoC4/isr_RC.c **** *   Address of the ISR in the interrupt vector table.
 244:.\Generated_Source\PSoC4/isr_RC.c **** *
 245:.\Generated_Source\PSoC4/isr_RC.c **** *******************************************************************************/
 246:.\Generated_Source\PSoC4/isr_RC.c **** cyisraddress isr_RC_GetVector(void)
 247:.\Generated_Source\PSoC4/isr_RC.c **** {
 280              		.loc 1 247 0
 281              		.cfi_startproc
 282 0000 80B5     		push	{r7, lr}
 283              		.cfi_def_cfa_offset 8
 284              		.cfi_offset 7, -8
 285              		.cfi_offset 14, -4
 286 0002 00AF     		add	r7, sp, #0
 287              		.cfi_def_cfa_register 7
 248:.\Generated_Source\PSoC4/isr_RC.c ****     return CyRamVectors[CYINT_IRQ_BASE + isr_RC__INTC_NUMBER];
 288              		.loc 1 248 0
 289 0004 024A     		ldr	r2, .L19
 290 0006 8823     		mov	r3, #136
 291 0008 D358     		ldr	r3, [r2, r3]
 249:.\Generated_Source\PSoC4/isr_RC.c **** }
 292              		.loc 1 249 0
 293 000a 181C     		mov	r0, r3
 294 000c BD46     		mov	sp, r7
 295              		@ sp needed
 296 000e 80BD     		pop	{r7, pc}
 297              	.L20:
 298              		.align	2
 299              	.L19:
 300 0010 00000000 		.word	CyRamVectors
 301              		.cfi_endproc
 302              	.LFE38:
 303              		.size	isr_RC_GetVector, .-isr_RC_GetVector
 304              		.section	.text.isr_RC_SetPriority,"ax",%progbits
 305              		.align	2
 306              		.global	isr_RC_SetPriority
 307              		.code	16
 308              		.thumb_func
 309              		.type	isr_RC_SetPriority, %function
 310              	isr_RC_SetPriority:
 311              	.LFB39:
 250:.\Generated_Source\PSoC4/isr_RC.c **** 
 251:.\Generated_Source\PSoC4/isr_RC.c **** 
 252:.\Generated_Source\PSoC4/isr_RC.c **** /*******************************************************************************
 253:.\Generated_Source\PSoC4/isr_RC.c **** * Function Name: isr_RC_SetPriority
 254:.\Generated_Source\PSoC4/isr_RC.c **** ********************************************************************************
 255:.\Generated_Source\PSoC4/isr_RC.c **** *
 256:.\Generated_Source\PSoC4/isr_RC.c **** * Summary:
 257:.\Generated_Source\PSoC4/isr_RC.c **** *   Sets the Priority of the Interrupt. 
 258:.\Generated_Source\PSoC4/isr_RC.c **** *
 259:.\Generated_Source\PSoC4/isr_RC.c **** *   Note calling isr_RC_Start or isr_RC_StartEx will 
ARM GAS  C:\Users\ole\AppData\Local\Temp\cc2bsNDg.s 			page 11


 260:.\Generated_Source\PSoC4/isr_RC.c **** *   override any effect this API would have had. This API should only be called
 261:.\Generated_Source\PSoC4/isr_RC.c **** *   after isr_RC_Start or isr_RC_StartEx has been called. 
 262:.\Generated_Source\PSoC4/isr_RC.c **** *   To set the initial priority for the component, use the Design-Wide Resources
 263:.\Generated_Source\PSoC4/isr_RC.c **** *   Interrupt Editor.
 264:.\Generated_Source\PSoC4/isr_RC.c **** *
 265:.\Generated_Source\PSoC4/isr_RC.c **** *   Note This API has no effect on Non-maskable interrupt NMI).
 266:.\Generated_Source\PSoC4/isr_RC.c **** *
 267:.\Generated_Source\PSoC4/isr_RC.c **** * Parameters:
 268:.\Generated_Source\PSoC4/isr_RC.c **** *   priority: Priority of the interrupt, 0 being the highest priority
 269:.\Generated_Source\PSoC4/isr_RC.c **** *             PSoC 3 and PSoC 5LP: Priority is from 0 to 7.
 270:.\Generated_Source\PSoC4/isr_RC.c **** *             PSoC 4: Priority is from 0 to 3.
 271:.\Generated_Source\PSoC4/isr_RC.c **** *
 272:.\Generated_Source\PSoC4/isr_RC.c **** * Return:
 273:.\Generated_Source\PSoC4/isr_RC.c **** *   None
 274:.\Generated_Source\PSoC4/isr_RC.c **** *
 275:.\Generated_Source\PSoC4/isr_RC.c **** *******************************************************************************/
 276:.\Generated_Source\PSoC4/isr_RC.c **** void isr_RC_SetPriority(uint8 priority)
 277:.\Generated_Source\PSoC4/isr_RC.c **** {
 312              		.loc 1 277 0
 313              		.cfi_startproc
 314 0000 90B5     		push	{r4, r7, lr}
 315              		.cfi_def_cfa_offset 12
 316              		.cfi_offset 4, -12
 317              		.cfi_offset 7, -8
 318              		.cfi_offset 14, -4
 319 0002 85B0     		sub	sp, sp, #20
 320              		.cfi_def_cfa_offset 32
 321 0004 00AF     		add	r7, sp, #0
 322              		.cfi_def_cfa_register 7
 323 0006 021C     		mov	r2, r0
 324 0008 FB1D     		add	r3, r7, #7
 325 000a 1A70     		strb	r2, [r3]
 278:.\Generated_Source\PSoC4/isr_RC.c **** 	uint8 interruptState;
 279:.\Generated_Source\PSoC4/isr_RC.c ****     uint32 priorityOffset = ((isr_RC__INTC_NUMBER % 4u) * 8u) + 6u;
 326              		.loc 1 279 0
 327 000c 1623     		mov	r3, #22
 328 000e FB60     		str	r3, [r7, #12]
 280:.\Generated_Source\PSoC4/isr_RC.c ****     
 281:.\Generated_Source\PSoC4/isr_RC.c **** 	interruptState = CyEnterCriticalSection();
 329              		.loc 1 281 0
 330 0010 3C1C     		mov	r4, r7
 331 0012 0B34     		add	r4, r4, #11
 332 0014 FFF7FEFF 		bl	CyEnterCriticalSection
 333 0018 031C     		mov	r3, r0
 334 001a 2370     		strb	r3, [r4]
 282:.\Generated_Source\PSoC4/isr_RC.c ****     *isr_RC_INTC_PRIOR = (*isr_RC_INTC_PRIOR & (uint32)(~isr_RC__INTC_PRIOR_MASK)) |
 335              		.loc 1 282 0
 336 001c 0A4B     		ldr	r3, .L22
 337 001e 0A4A     		ldr	r2, .L22
 338 0020 1168     		ldr	r1, [r2]
 339 0022 0A4A     		ldr	r2, .L22+4
 340 0024 1140     		and	r1, r2
 283:.\Generated_Source\PSoC4/isr_RC.c ****                                     ((uint32)priority << priorityOffset);
 341              		.loc 1 283 0
 342 0026 FA1D     		add	r2, r7, #7
 343 0028 1078     		ldrb	r0, [r2]
 344 002a FA68     		ldr	r2, [r7, #12]
ARM GAS  C:\Users\ole\AppData\Local\Temp\cc2bsNDg.s 			page 12


 345 002c 041C     		mov	r4, r0
 346 002e 9440     		lsl	r4, r4, r2
 347 0030 221C     		mov	r2, r4
 282:.\Generated_Source\PSoC4/isr_RC.c ****     *isr_RC_INTC_PRIOR = (*isr_RC_INTC_PRIOR & (uint32)(~isr_RC__INTC_PRIOR_MASK)) |
 348              		.loc 1 282 0
 349 0032 0A43     		orr	r2, r1
 350 0034 1A60     		str	r2, [r3]
 284:.\Generated_Source\PSoC4/isr_RC.c **** 	CyExitCriticalSection(interruptState);
 351              		.loc 1 284 0
 352 0036 3B1C     		mov	r3, r7
 353 0038 0B33     		add	r3, r3, #11
 354 003a 1B78     		ldrb	r3, [r3]
 355 003c 181C     		mov	r0, r3
 356 003e FFF7FEFF 		bl	CyExitCriticalSection
 285:.\Generated_Source\PSoC4/isr_RC.c **** }
 357              		.loc 1 285 0
 358 0042 BD46     		mov	sp, r7
 359 0044 05B0     		add	sp, sp, #20
 360              		@ sp needed
 361 0046 90BD     		pop	{r4, r7, pc}
 362              	.L23:
 363              		.align	2
 364              	.L22:
 365 0048 10E400E0 		.word	-536812528
 366 004c FFFF3FFF 		.word	-12582913
 367              		.cfi_endproc
 368              	.LFE39:
 369              		.size	isr_RC_SetPriority, .-isr_RC_SetPriority
 370              		.section	.text.isr_RC_GetPriority,"ax",%progbits
 371              		.align	2
 372              		.global	isr_RC_GetPriority
 373              		.code	16
 374              		.thumb_func
 375              		.type	isr_RC_GetPriority, %function
 376              	isr_RC_GetPriority:
 377              	.LFB40:
 286:.\Generated_Source\PSoC4/isr_RC.c **** 
 287:.\Generated_Source\PSoC4/isr_RC.c **** 
 288:.\Generated_Source\PSoC4/isr_RC.c **** /*******************************************************************************
 289:.\Generated_Source\PSoC4/isr_RC.c **** * Function Name: isr_RC_GetPriority
 290:.\Generated_Source\PSoC4/isr_RC.c **** ********************************************************************************
 291:.\Generated_Source\PSoC4/isr_RC.c **** *
 292:.\Generated_Source\PSoC4/isr_RC.c **** * Summary:
 293:.\Generated_Source\PSoC4/isr_RC.c **** *   Gets the Priority of the Interrupt.
 294:.\Generated_Source\PSoC4/isr_RC.c **** *
 295:.\Generated_Source\PSoC4/isr_RC.c **** * Parameters:
 296:.\Generated_Source\PSoC4/isr_RC.c **** *   None
 297:.\Generated_Source\PSoC4/isr_RC.c **** *
 298:.\Generated_Source\PSoC4/isr_RC.c **** * Return:
 299:.\Generated_Source\PSoC4/isr_RC.c **** *   Priority of the interrupt, 0 being the highest priority
 300:.\Generated_Source\PSoC4/isr_RC.c **** *    PSoC 3 and PSoC 5LP: Priority is from 0 to 7.
 301:.\Generated_Source\PSoC4/isr_RC.c **** *    PSoC 4: Priority is from 0 to 3.
 302:.\Generated_Source\PSoC4/isr_RC.c **** *
 303:.\Generated_Source\PSoC4/isr_RC.c **** *******************************************************************************/
 304:.\Generated_Source\PSoC4/isr_RC.c **** uint8 isr_RC_GetPriority(void)
 305:.\Generated_Source\PSoC4/isr_RC.c **** {
 378              		.loc 1 305 0
ARM GAS  C:\Users\ole\AppData\Local\Temp\cc2bsNDg.s 			page 13


 379              		.cfi_startproc
 380 0000 80B5     		push	{r7, lr}
 381              		.cfi_def_cfa_offset 8
 382              		.cfi_offset 7, -8
 383              		.cfi_offset 14, -4
 384 0002 82B0     		sub	sp, sp, #8
 385              		.cfi_def_cfa_offset 16
 386 0004 00AF     		add	r7, sp, #0
 387              		.cfi_def_cfa_register 7
 306:.\Generated_Source\PSoC4/isr_RC.c ****     uint32 priority;
 307:.\Generated_Source\PSoC4/isr_RC.c **** 	uint32 priorityOffset = ((isr_RC__INTC_NUMBER % 4u) * 8u) + 6u;
 388              		.loc 1 307 0
 389 0006 1623     		mov	r3, #22
 390 0008 7B60     		str	r3, [r7, #4]
 308:.\Generated_Source\PSoC4/isr_RC.c **** 
 309:.\Generated_Source\PSoC4/isr_RC.c ****     priority = (*isr_RC_INTC_PRIOR & isr_RC__INTC_PRIOR_MASK) >> priorityOffset;
 391              		.loc 1 309 0
 392 000a 084B     		ldr	r3, .L26
 393 000c 1A68     		ldr	r2, [r3]
 394 000e C023     		mov	r3, #192
 395 0010 1B04     		lsl	r3, r3, #16
 396 0012 1A40     		and	r2, r3
 397 0014 7B68     		ldr	r3, [r7, #4]
 398 0016 111C     		mov	r1, r2
 399 0018 D940     		lsr	r1, r1, r3
 400 001a 0B1C     		mov	r3, r1
 401 001c 3B60     		str	r3, [r7]
 310:.\Generated_Source\PSoC4/isr_RC.c **** 
 311:.\Generated_Source\PSoC4/isr_RC.c ****     return (uint8)priority;
 402              		.loc 1 311 0
 403 001e 3B68     		ldr	r3, [r7]
 404 0020 DBB2     		uxtb	r3, r3
 312:.\Generated_Source\PSoC4/isr_RC.c **** }
 405              		.loc 1 312 0
 406 0022 181C     		mov	r0, r3
 407 0024 BD46     		mov	sp, r7
 408 0026 02B0     		add	sp, sp, #8
 409              		@ sp needed
 410 0028 80BD     		pop	{r7, pc}
 411              	.L27:
 412 002a C046     		.align	2
 413              	.L26:
 414 002c 10E400E0 		.word	-536812528
 415              		.cfi_endproc
 416              	.LFE40:
 417              		.size	isr_RC_GetPriority, .-isr_RC_GetPriority
 418              		.section	.text.isr_RC_Enable,"ax",%progbits
 419              		.align	2
 420              		.global	isr_RC_Enable
 421              		.code	16
 422              		.thumb_func
 423              		.type	isr_RC_Enable, %function
 424              	isr_RC_Enable:
 425              	.LFB41:
 313:.\Generated_Source\PSoC4/isr_RC.c **** 
 314:.\Generated_Source\PSoC4/isr_RC.c **** 
 315:.\Generated_Source\PSoC4/isr_RC.c **** /*******************************************************************************
ARM GAS  C:\Users\ole\AppData\Local\Temp\cc2bsNDg.s 			page 14


 316:.\Generated_Source\PSoC4/isr_RC.c **** * Function Name: isr_RC_Enable
 317:.\Generated_Source\PSoC4/isr_RC.c **** ********************************************************************************
 318:.\Generated_Source\PSoC4/isr_RC.c **** *
 319:.\Generated_Source\PSoC4/isr_RC.c **** * Summary:
 320:.\Generated_Source\PSoC4/isr_RC.c **** *   Enables the interrupt to the interrupt controller. Do not call this function
 321:.\Generated_Source\PSoC4/isr_RC.c **** *   unless ISR_Start() has been called or the functionality of the ISR_Start() 
 322:.\Generated_Source\PSoC4/isr_RC.c **** *   function, which sets the vector and the priority, has been called.
 323:.\Generated_Source\PSoC4/isr_RC.c **** *
 324:.\Generated_Source\PSoC4/isr_RC.c **** * Parameters:
 325:.\Generated_Source\PSoC4/isr_RC.c **** *   None
 326:.\Generated_Source\PSoC4/isr_RC.c **** *
 327:.\Generated_Source\PSoC4/isr_RC.c **** * Return:
 328:.\Generated_Source\PSoC4/isr_RC.c **** *   None
 329:.\Generated_Source\PSoC4/isr_RC.c **** *
 330:.\Generated_Source\PSoC4/isr_RC.c **** *******************************************************************************/
 331:.\Generated_Source\PSoC4/isr_RC.c **** void isr_RC_Enable(void)
 332:.\Generated_Source\PSoC4/isr_RC.c **** {
 426              		.loc 1 332 0
 427              		.cfi_startproc
 428 0000 80B5     		push	{r7, lr}
 429              		.cfi_def_cfa_offset 8
 430              		.cfi_offset 7, -8
 431              		.cfi_offset 14, -4
 432 0002 00AF     		add	r7, sp, #0
 433              		.cfi_def_cfa_register 7
 333:.\Generated_Source\PSoC4/isr_RC.c ****     /* Enable the general interrupt. */
 334:.\Generated_Source\PSoC4/isr_RC.c ****     *isr_RC_INTC_SET_EN = isr_RC__INTC_MASK;
 434              		.loc 1 334 0
 435 0004 024B     		ldr	r3, .L29
 436 0006 8022     		mov	r2, #128
 437 0008 D202     		lsl	r2, r2, #11
 438 000a 1A60     		str	r2, [r3]
 335:.\Generated_Source\PSoC4/isr_RC.c **** }
 439              		.loc 1 335 0
 440 000c BD46     		mov	sp, r7
 441              		@ sp needed
 442 000e 80BD     		pop	{r7, pc}
 443              	.L30:
 444              		.align	2
 445              	.L29:
 446 0010 00E100E0 		.word	-536813312
 447              		.cfi_endproc
 448              	.LFE41:
 449              		.size	isr_RC_Enable, .-isr_RC_Enable
 450              		.section	.text.isr_RC_GetState,"ax",%progbits
 451              		.align	2
 452              		.global	isr_RC_GetState
 453              		.code	16
 454              		.thumb_func
 455              		.type	isr_RC_GetState, %function
 456              	isr_RC_GetState:
 457              	.LFB42:
 336:.\Generated_Source\PSoC4/isr_RC.c **** 
 337:.\Generated_Source\PSoC4/isr_RC.c **** 
 338:.\Generated_Source\PSoC4/isr_RC.c **** /*******************************************************************************
 339:.\Generated_Source\PSoC4/isr_RC.c **** * Function Name: isr_RC_GetState
 340:.\Generated_Source\PSoC4/isr_RC.c **** ********************************************************************************
ARM GAS  C:\Users\ole\AppData\Local\Temp\cc2bsNDg.s 			page 15


 341:.\Generated_Source\PSoC4/isr_RC.c **** *
 342:.\Generated_Source\PSoC4/isr_RC.c **** * Summary:
 343:.\Generated_Source\PSoC4/isr_RC.c **** *   Gets the state (enabled, disabled) of the Interrupt.
 344:.\Generated_Source\PSoC4/isr_RC.c **** *
 345:.\Generated_Source\PSoC4/isr_RC.c **** * Parameters:
 346:.\Generated_Source\PSoC4/isr_RC.c **** *   None
 347:.\Generated_Source\PSoC4/isr_RC.c **** *
 348:.\Generated_Source\PSoC4/isr_RC.c **** * Return:
 349:.\Generated_Source\PSoC4/isr_RC.c **** *   1 if enabled, 0 if disabled.
 350:.\Generated_Source\PSoC4/isr_RC.c **** *
 351:.\Generated_Source\PSoC4/isr_RC.c **** *******************************************************************************/
 352:.\Generated_Source\PSoC4/isr_RC.c **** uint8 isr_RC_GetState(void)
 353:.\Generated_Source\PSoC4/isr_RC.c **** {
 458              		.loc 1 353 0
 459              		.cfi_startproc
 460 0000 80B5     		push	{r7, lr}
 461              		.cfi_def_cfa_offset 8
 462              		.cfi_offset 7, -8
 463              		.cfi_offset 14, -4
 464 0002 00AF     		add	r7, sp, #0
 465              		.cfi_def_cfa_register 7
 354:.\Generated_Source\PSoC4/isr_RC.c ****     /* Get the state of the general interrupt. */
 355:.\Generated_Source\PSoC4/isr_RC.c ****     return ((*isr_RC_INTC_SET_EN & (uint32)isr_RC__INTC_MASK) != 0u) ? 1u:0u;
 466              		.loc 1 355 0
 467 0004 054B     		ldr	r3, .L35
 468 0006 1A68     		ldr	r2, [r3]
 469 0008 8023     		mov	r3, #128
 470 000a DB02     		lsl	r3, r3, #11
 471 000c 1340     		and	r3, r2
 472 000e 01D0     		beq	.L32
 473              		.loc 1 355 0 is_stmt 0 discriminator 1
 474 0010 0123     		mov	r3, #1
 475 0012 00E0     		b	.L33
 476              	.L32:
 477              		.loc 1 355 0 discriminator 2
 478 0014 0023     		mov	r3, #0
 479              	.L33:
 356:.\Generated_Source\PSoC4/isr_RC.c **** }
 480              		.loc 1 356 0 is_stmt 1 discriminator 3
 481 0016 181C     		mov	r0, r3
 482 0018 BD46     		mov	sp, r7
 483              		@ sp needed
 484 001a 80BD     		pop	{r7, pc}
 485              	.L36:
 486              		.align	2
 487              	.L35:
 488 001c 00E100E0 		.word	-536813312
 489              		.cfi_endproc
 490              	.LFE42:
 491              		.size	isr_RC_GetState, .-isr_RC_GetState
 492              		.section	.text.isr_RC_Disable,"ax",%progbits
 493              		.align	2
 494              		.global	isr_RC_Disable
 495              		.code	16
 496              		.thumb_func
 497              		.type	isr_RC_Disable, %function
 498              	isr_RC_Disable:
ARM GAS  C:\Users\ole\AppData\Local\Temp\cc2bsNDg.s 			page 16


 499              	.LFB43:
 357:.\Generated_Source\PSoC4/isr_RC.c **** 
 358:.\Generated_Source\PSoC4/isr_RC.c **** 
 359:.\Generated_Source\PSoC4/isr_RC.c **** /*******************************************************************************
 360:.\Generated_Source\PSoC4/isr_RC.c **** * Function Name: isr_RC_Disable
 361:.\Generated_Source\PSoC4/isr_RC.c **** ********************************************************************************
 362:.\Generated_Source\PSoC4/isr_RC.c **** *
 363:.\Generated_Source\PSoC4/isr_RC.c **** * Summary:
 364:.\Generated_Source\PSoC4/isr_RC.c **** *   Disables the Interrupt in the interrupt controller.
 365:.\Generated_Source\PSoC4/isr_RC.c **** *
 366:.\Generated_Source\PSoC4/isr_RC.c **** * Parameters:
 367:.\Generated_Source\PSoC4/isr_RC.c **** *   None
 368:.\Generated_Source\PSoC4/isr_RC.c **** *
 369:.\Generated_Source\PSoC4/isr_RC.c **** * Return:
 370:.\Generated_Source\PSoC4/isr_RC.c **** *   None
 371:.\Generated_Source\PSoC4/isr_RC.c **** *
 372:.\Generated_Source\PSoC4/isr_RC.c **** *******************************************************************************/
 373:.\Generated_Source\PSoC4/isr_RC.c **** void isr_RC_Disable(void)
 374:.\Generated_Source\PSoC4/isr_RC.c **** {
 500              		.loc 1 374 0
 501              		.cfi_startproc
 502 0000 80B5     		push	{r7, lr}
 503              		.cfi_def_cfa_offset 8
 504              		.cfi_offset 7, -8
 505              		.cfi_offset 14, -4
 506 0002 00AF     		add	r7, sp, #0
 507              		.cfi_def_cfa_register 7
 375:.\Generated_Source\PSoC4/isr_RC.c ****     /* Disable the general interrupt. */
 376:.\Generated_Source\PSoC4/isr_RC.c ****     *isr_RC_INTC_CLR_EN = isr_RC__INTC_MASK;
 508              		.loc 1 376 0
 509 0004 024B     		ldr	r3, .L38
 510 0006 8022     		mov	r2, #128
 511 0008 D202     		lsl	r2, r2, #11
 512 000a 1A60     		str	r2, [r3]
 377:.\Generated_Source\PSoC4/isr_RC.c **** }
 513              		.loc 1 377 0
 514 000c BD46     		mov	sp, r7
 515              		@ sp needed
 516 000e 80BD     		pop	{r7, pc}
 517              	.L39:
 518              		.align	2
 519              	.L38:
 520 0010 80E100E0 		.word	-536813184
 521              		.cfi_endproc
 522              	.LFE43:
 523              		.size	isr_RC_Disable, .-isr_RC_Disable
 524              		.section	.text.isr_RC_SetPending,"ax",%progbits
 525              		.align	2
 526              		.global	isr_RC_SetPending
 527              		.code	16
 528              		.thumb_func
 529              		.type	isr_RC_SetPending, %function
 530              	isr_RC_SetPending:
 531              	.LFB44:
 378:.\Generated_Source\PSoC4/isr_RC.c **** 
 379:.\Generated_Source\PSoC4/isr_RC.c **** 
 380:.\Generated_Source\PSoC4/isr_RC.c **** /*******************************************************************************
ARM GAS  C:\Users\ole\AppData\Local\Temp\cc2bsNDg.s 			page 17


 381:.\Generated_Source\PSoC4/isr_RC.c **** * Function Name: isr_RC_SetPending
 382:.\Generated_Source\PSoC4/isr_RC.c **** ********************************************************************************
 383:.\Generated_Source\PSoC4/isr_RC.c **** *
 384:.\Generated_Source\PSoC4/isr_RC.c **** * Summary:
 385:.\Generated_Source\PSoC4/isr_RC.c **** *   Causes the Interrupt to enter the pending state, a software method of
 386:.\Generated_Source\PSoC4/isr_RC.c **** *   generating the interrupt.
 387:.\Generated_Source\PSoC4/isr_RC.c **** *
 388:.\Generated_Source\PSoC4/isr_RC.c **** * Parameters:
 389:.\Generated_Source\PSoC4/isr_RC.c **** *   None
 390:.\Generated_Source\PSoC4/isr_RC.c **** *
 391:.\Generated_Source\PSoC4/isr_RC.c **** * Return:
 392:.\Generated_Source\PSoC4/isr_RC.c **** *   None
 393:.\Generated_Source\PSoC4/isr_RC.c **** *
 394:.\Generated_Source\PSoC4/isr_RC.c **** * Side Effects:
 395:.\Generated_Source\PSoC4/isr_RC.c **** *   If interrupts are enabled and the interrupt is set up properly, the ISR is
 396:.\Generated_Source\PSoC4/isr_RC.c **** *   entered (depending on the priority of this interrupt and other pending 
 397:.\Generated_Source\PSoC4/isr_RC.c **** *   interrupts).
 398:.\Generated_Source\PSoC4/isr_RC.c **** *
 399:.\Generated_Source\PSoC4/isr_RC.c **** *******************************************************************************/
 400:.\Generated_Source\PSoC4/isr_RC.c **** void isr_RC_SetPending(void)
 401:.\Generated_Source\PSoC4/isr_RC.c **** {
 532              		.loc 1 401 0
 533              		.cfi_startproc
 534 0000 80B5     		push	{r7, lr}
 535              		.cfi_def_cfa_offset 8
 536              		.cfi_offset 7, -8
 537              		.cfi_offset 14, -4
 538 0002 00AF     		add	r7, sp, #0
 539              		.cfi_def_cfa_register 7
 402:.\Generated_Source\PSoC4/isr_RC.c ****     *isr_RC_INTC_SET_PD = isr_RC__INTC_MASK;
 540              		.loc 1 402 0
 541 0004 024B     		ldr	r3, .L41
 542 0006 8022     		mov	r2, #128
 543 0008 D202     		lsl	r2, r2, #11
 544 000a 1A60     		str	r2, [r3]
 403:.\Generated_Source\PSoC4/isr_RC.c **** }
 545              		.loc 1 403 0
 546 000c BD46     		mov	sp, r7
 547              		@ sp needed
 548 000e 80BD     		pop	{r7, pc}
 549              	.L42:
 550              		.align	2
 551              	.L41:
 552 0010 00E200E0 		.word	-536813056
 553              		.cfi_endproc
 554              	.LFE44:
 555              		.size	isr_RC_SetPending, .-isr_RC_SetPending
 556              		.section	.text.isr_RC_ClearPending,"ax",%progbits
 557              		.align	2
 558              		.global	isr_RC_ClearPending
 559              		.code	16
 560              		.thumb_func
 561              		.type	isr_RC_ClearPending, %function
 562              	isr_RC_ClearPending:
 563              	.LFB45:
 404:.\Generated_Source\PSoC4/isr_RC.c **** 
 405:.\Generated_Source\PSoC4/isr_RC.c **** 
ARM GAS  C:\Users\ole\AppData\Local\Temp\cc2bsNDg.s 			page 18


 406:.\Generated_Source\PSoC4/isr_RC.c **** /*******************************************************************************
 407:.\Generated_Source\PSoC4/isr_RC.c **** * Function Name: isr_RC_ClearPending
 408:.\Generated_Source\PSoC4/isr_RC.c **** ********************************************************************************
 409:.\Generated_Source\PSoC4/isr_RC.c **** *
 410:.\Generated_Source\PSoC4/isr_RC.c **** * Summary:
 411:.\Generated_Source\PSoC4/isr_RC.c **** *   Clears a pending interrupt in the interrupt controller.
 412:.\Generated_Source\PSoC4/isr_RC.c **** *
 413:.\Generated_Source\PSoC4/isr_RC.c **** *   Note Some interrupt sources are clear-on-read and require the block 
 414:.\Generated_Source\PSoC4/isr_RC.c **** *   interrupt/status register to be read/cleared with the appropriate block API 
 415:.\Generated_Source\PSoC4/isr_RC.c **** *   (GPIO, UART, and so on). Otherwise the ISR will continue to remain in 
 416:.\Generated_Source\PSoC4/isr_RC.c **** *   pending state even though the interrupt itself is cleared using this API.
 417:.\Generated_Source\PSoC4/isr_RC.c **** *
 418:.\Generated_Source\PSoC4/isr_RC.c **** * Parameters:
 419:.\Generated_Source\PSoC4/isr_RC.c **** *   None
 420:.\Generated_Source\PSoC4/isr_RC.c **** *
 421:.\Generated_Source\PSoC4/isr_RC.c **** * Return:
 422:.\Generated_Source\PSoC4/isr_RC.c **** *   None
 423:.\Generated_Source\PSoC4/isr_RC.c **** *
 424:.\Generated_Source\PSoC4/isr_RC.c **** *******************************************************************************/
 425:.\Generated_Source\PSoC4/isr_RC.c **** void isr_RC_ClearPending(void)
 426:.\Generated_Source\PSoC4/isr_RC.c **** {
 564              		.loc 1 426 0
 565              		.cfi_startproc
 566 0000 80B5     		push	{r7, lr}
 567              		.cfi_def_cfa_offset 8
 568              		.cfi_offset 7, -8
 569              		.cfi_offset 14, -4
 570 0002 00AF     		add	r7, sp, #0
 571              		.cfi_def_cfa_register 7
 427:.\Generated_Source\PSoC4/isr_RC.c ****     *isr_RC_INTC_CLR_PD = isr_RC__INTC_MASK;
 572              		.loc 1 427 0
 573 0004 024B     		ldr	r3, .L44
 574 0006 8022     		mov	r2, #128
 575 0008 D202     		lsl	r2, r2, #11
 576 000a 1A60     		str	r2, [r3]
 428:.\Generated_Source\PSoC4/isr_RC.c **** }
 577              		.loc 1 428 0
 578 000c BD46     		mov	sp, r7
 579              		@ sp needed
 580 000e 80BD     		pop	{r7, pc}
 581              	.L45:
 582              		.align	2
 583              	.L44:
 584 0010 80E200E0 		.word	-536812928
 585              		.cfi_endproc
 586              	.LFE45:
 587              		.size	isr_RC_ClearPending, .-isr_RC_ClearPending
 588              		.text
 589              	.Letext0:
 590              		.file 2 "c:\\program files (x86)\\cypress\\psoc creator\\3.1\\psoc creator\\import\\gnu_cs\\arm\\4
 591              		.file 3 "c:\\program files (x86)\\cypress\\psoc creator\\3.1\\psoc creator\\import\\gnu_cs\\arm\\4
 592              		.file 4 ".\\Generated_Source\\PSoC4/cytypes.h"