ARM GAS  C:\Users\ole\AppData\Local\Temp\ccgkHzQF.s 			page 1


   1              		.cpu cortex-m0
   2              		.fpu softvfp
   3              		.eabi_attribute 20, 1
   4              		.eabi_attribute 21, 1
   5              		.eabi_attribute 23, 3
   6              		.eabi_attribute 24, 1
   7              		.eabi_attribute 25, 1
   8              		.eabi_attribute 26, 1
   9              		.eabi_attribute 30, 6
  10              		.eabi_attribute 34, 0
  11              		.eabi_attribute 18, 4
  12              		.code	16
  13              		.file	"isr_pwm.c"
  14              		.text
  15              	.Ltext0:
  16              		.cfi_sections	.debug_frame
  17              		.global	counter_pwm
  18              		.bss
  19              		.type	counter_pwm, %object
  20              		.size	counter_pwm, 1
  21              	counter_pwm:
  22 0000 00       		.space	1
  23              		.section	.text.isr_pwm_Start,"ax",%progbits
  24              		.align	2
  25              		.global	isr_pwm_Start
  26              		.code	16
  27              		.thumb_func
  28              		.type	isr_pwm_Start, %function
  29              	isr_pwm_Start:
  30              	.LFB33:
  31              		.file 1 ".\\Generated_Source\\PSoC4\\isr_pwm.c"
   1:.\Generated_Source\PSoC4/isr_pwm.c **** /*******************************************************************************
   2:.\Generated_Source\PSoC4/isr_pwm.c **** * File Name: isr_pwm.c  
   3:.\Generated_Source\PSoC4/isr_pwm.c **** * Version 1.70
   4:.\Generated_Source\PSoC4/isr_pwm.c **** *
   5:.\Generated_Source\PSoC4/isr_pwm.c **** *  Description:
   6:.\Generated_Source\PSoC4/isr_pwm.c **** *   API for controlling the state of an interrupt.
   7:.\Generated_Source\PSoC4/isr_pwm.c **** *
   8:.\Generated_Source\PSoC4/isr_pwm.c **** *
   9:.\Generated_Source\PSoC4/isr_pwm.c **** *  Note:
  10:.\Generated_Source\PSoC4/isr_pwm.c **** *
  11:.\Generated_Source\PSoC4/isr_pwm.c **** ********************************************************************************
  12:.\Generated_Source\PSoC4/isr_pwm.c **** * Copyright 2008-2015, Cypress Semiconductor Corporation.  All rights reserved.
  13:.\Generated_Source\PSoC4/isr_pwm.c **** * You may use this file only in accordance with the license, terms, conditions, 
  14:.\Generated_Source\PSoC4/isr_pwm.c **** * disclaimers, and limitations in the end user license agreement accompanying 
  15:.\Generated_Source\PSoC4/isr_pwm.c **** * the software package with which this file was provided.
  16:.\Generated_Source\PSoC4/isr_pwm.c **** *******************************************************************************/
  17:.\Generated_Source\PSoC4/isr_pwm.c **** 
  18:.\Generated_Source\PSoC4/isr_pwm.c **** 
  19:.\Generated_Source\PSoC4/isr_pwm.c **** #include <cydevice_trm.h>
  20:.\Generated_Source\PSoC4/isr_pwm.c **** #include <CyLib.h>
  21:.\Generated_Source\PSoC4/isr_pwm.c **** #include <isr_pwm.h>
  22:.\Generated_Source\PSoC4/isr_pwm.c **** 
  23:.\Generated_Source\PSoC4/isr_pwm.c **** #if !defined(isr_pwm__REMOVED) /* Check for removal by optimization */
  24:.\Generated_Source\PSoC4/isr_pwm.c **** 
  25:.\Generated_Source\PSoC4/isr_pwm.c **** /*******************************************************************************
  26:.\Generated_Source\PSoC4/isr_pwm.c **** *  Place your includes, defines and code here 
ARM GAS  C:\Users\ole\AppData\Local\Temp\ccgkHzQF.s 			page 2


  27:.\Generated_Source\PSoC4/isr_pwm.c **** ********************************************************************************/
  28:.\Generated_Source\PSoC4/isr_pwm.c **** /* `#START isr_pwm_intc` */
  29:.\Generated_Source\PSoC4/isr_pwm.c **** #include <project.h>
  30:.\Generated_Source\PSoC4/isr_pwm.c **** 
  31:.\Generated_Source\PSoC4/isr_pwm.c **** enum lights {strobe = 0, collision, navigation, landing};
  32:.\Generated_Source\PSoC4/isr_pwm.c **** 
  33:.\Generated_Source\PSoC4/isr_pwm.c **** extern  uint8_t pwm_light[4];
  34:.\Generated_Source\PSoC4/isr_pwm.c ****     
  35:.\Generated_Source\PSoC4/isr_pwm.c **** uint8_t counter_pwm = 0;
  36:.\Generated_Source\PSoC4/isr_pwm.c **** 
  37:.\Generated_Source\PSoC4/isr_pwm.c **** /* `#END` */
  38:.\Generated_Source\PSoC4/isr_pwm.c **** 
  39:.\Generated_Source\PSoC4/isr_pwm.c **** extern cyisraddress CyRamVectors[CYINT_IRQ_BASE + CY_NUM_INTERRUPTS];
  40:.\Generated_Source\PSoC4/isr_pwm.c **** 
  41:.\Generated_Source\PSoC4/isr_pwm.c **** /* Declared in startup, used to set unused interrupts to. */
  42:.\Generated_Source\PSoC4/isr_pwm.c **** CY_ISR_PROTO(IntDefaultHandler);
  43:.\Generated_Source\PSoC4/isr_pwm.c **** 
  44:.\Generated_Source\PSoC4/isr_pwm.c **** 
  45:.\Generated_Source\PSoC4/isr_pwm.c **** /*******************************************************************************
  46:.\Generated_Source\PSoC4/isr_pwm.c **** * Function Name: isr_pwm_Start
  47:.\Generated_Source\PSoC4/isr_pwm.c **** ********************************************************************************
  48:.\Generated_Source\PSoC4/isr_pwm.c **** *
  49:.\Generated_Source\PSoC4/isr_pwm.c **** * Summary:
  50:.\Generated_Source\PSoC4/isr_pwm.c **** *  Set up the interrupt and enable it. This function disables the interrupt, 
  51:.\Generated_Source\PSoC4/isr_pwm.c **** *  sets the default interrupt vector, sets the priority from the value in the
  52:.\Generated_Source\PSoC4/isr_pwm.c **** *  Design Wide Resources Interrupt Editor, then enables the interrupt to the 
  53:.\Generated_Source\PSoC4/isr_pwm.c **** *  interrupt controller.
  54:.\Generated_Source\PSoC4/isr_pwm.c **** *
  55:.\Generated_Source\PSoC4/isr_pwm.c **** * Parameters:  
  56:.\Generated_Source\PSoC4/isr_pwm.c **** *   None
  57:.\Generated_Source\PSoC4/isr_pwm.c **** *
  58:.\Generated_Source\PSoC4/isr_pwm.c **** * Return:
  59:.\Generated_Source\PSoC4/isr_pwm.c **** *   None
  60:.\Generated_Source\PSoC4/isr_pwm.c **** *
  61:.\Generated_Source\PSoC4/isr_pwm.c **** *******************************************************************************/
  62:.\Generated_Source\PSoC4/isr_pwm.c **** void isr_pwm_Start(void)
  63:.\Generated_Source\PSoC4/isr_pwm.c **** {
  32              		.loc 1 63 0
  33              		.cfi_startproc
  34 0000 80B5     		push	{r7, lr}
  35              		.cfi_def_cfa_offset 8
  36              		.cfi_offset 7, -8
  37              		.cfi_offset 14, -4
  38 0002 00AF     		add	r7, sp, #0
  39              		.cfi_def_cfa_register 7
  64:.\Generated_Source\PSoC4/isr_pwm.c ****     /* For all we know the interrupt is active. */
  65:.\Generated_Source\PSoC4/isr_pwm.c ****     isr_pwm_Disable();
  40              		.loc 1 65 0
  41 0004 FFF7FEFF 		bl	isr_pwm_Disable
  66:.\Generated_Source\PSoC4/isr_pwm.c **** 
  67:.\Generated_Source\PSoC4/isr_pwm.c ****     /* Set the ISR to point to the isr_pwm Interrupt. */
  68:.\Generated_Source\PSoC4/isr_pwm.c ****     isr_pwm_SetVector(&isr_pwm_Interrupt);
  42              		.loc 1 68 0
  43 0008 054B     		ldr	r3, .L2
  44 000a 181C     		mov	r0, r3
  45 000c FFF7FEFF 		bl	isr_pwm_SetVector
  69:.\Generated_Source\PSoC4/isr_pwm.c **** 
ARM GAS  C:\Users\ole\AppData\Local\Temp\ccgkHzQF.s 			page 3


  70:.\Generated_Source\PSoC4/isr_pwm.c ****     /* Set the priority. */
  71:.\Generated_Source\PSoC4/isr_pwm.c ****     isr_pwm_SetPriority((uint8)isr_pwm_INTC_PRIOR_NUMBER);
  46              		.loc 1 71 0
  47 0010 0320     		mov	r0, #3
  48 0012 FFF7FEFF 		bl	isr_pwm_SetPriority
  72:.\Generated_Source\PSoC4/isr_pwm.c **** 
  73:.\Generated_Source\PSoC4/isr_pwm.c ****     /* Enable it. */
  74:.\Generated_Source\PSoC4/isr_pwm.c ****     isr_pwm_Enable();
  49              		.loc 1 74 0
  50 0016 FFF7FEFF 		bl	isr_pwm_Enable
  75:.\Generated_Source\PSoC4/isr_pwm.c **** }
  51              		.loc 1 75 0
  52 001a BD46     		mov	sp, r7
  53              		@ sp needed
  54 001c 80BD     		pop	{r7, pc}
  55              	.L3:
  56 001e C046     		.align	2
  57              	.L2:
  58 0020 00000000 		.word	isr_pwm_Interrupt
  59              		.cfi_endproc
  60              	.LFE33:
  61              		.size	isr_pwm_Start, .-isr_pwm_Start
  62              		.section	.text.isr_pwm_StartEx,"ax",%progbits
  63              		.align	2
  64              		.global	isr_pwm_StartEx
  65              		.code	16
  66              		.thumb_func
  67              		.type	isr_pwm_StartEx, %function
  68              	isr_pwm_StartEx:
  69              	.LFB34:
  76:.\Generated_Source\PSoC4/isr_pwm.c **** 
  77:.\Generated_Source\PSoC4/isr_pwm.c **** 
  78:.\Generated_Source\PSoC4/isr_pwm.c **** /*******************************************************************************
  79:.\Generated_Source\PSoC4/isr_pwm.c **** * Function Name: isr_pwm_StartEx
  80:.\Generated_Source\PSoC4/isr_pwm.c **** ********************************************************************************
  81:.\Generated_Source\PSoC4/isr_pwm.c **** *
  82:.\Generated_Source\PSoC4/isr_pwm.c **** * Summary:
  83:.\Generated_Source\PSoC4/isr_pwm.c **** *  Sets up the interrupt and enables it. This function disables the interrupt,
  84:.\Generated_Source\PSoC4/isr_pwm.c **** *  sets the interrupt vector based on the address passed in, sets the priority 
  85:.\Generated_Source\PSoC4/isr_pwm.c **** *  from the value in the Design Wide Resources Interrupt Editor, then enables 
  86:.\Generated_Source\PSoC4/isr_pwm.c **** *  the interrupt to the interrupt controller.
  87:.\Generated_Source\PSoC4/isr_pwm.c **** *  
  88:.\Generated_Source\PSoC4/isr_pwm.c **** *  When defining ISR functions, the CY_ISR and CY_ISR_PROTO macros should be 
  89:.\Generated_Source\PSoC4/isr_pwm.c **** *  used to provide consistent definition across compilers:
  90:.\Generated_Source\PSoC4/isr_pwm.c **** *  
  91:.\Generated_Source\PSoC4/isr_pwm.c **** *  Function definition example:
  92:.\Generated_Source\PSoC4/isr_pwm.c **** *   CY_ISR(MyISR)
  93:.\Generated_Source\PSoC4/isr_pwm.c **** *   {
  94:.\Generated_Source\PSoC4/isr_pwm.c **** *   }
  95:.\Generated_Source\PSoC4/isr_pwm.c **** *   Function prototype example:
  96:.\Generated_Source\PSoC4/isr_pwm.c **** *   CY_ISR_PROTO(MyISR);
  97:.\Generated_Source\PSoC4/isr_pwm.c **** *
  98:.\Generated_Source\PSoC4/isr_pwm.c **** * Parameters:  
  99:.\Generated_Source\PSoC4/isr_pwm.c **** *   address: Address of the ISR to set in the interrupt vector table.
 100:.\Generated_Source\PSoC4/isr_pwm.c **** *
 101:.\Generated_Source\PSoC4/isr_pwm.c **** * Return:
 102:.\Generated_Source\PSoC4/isr_pwm.c **** *   None
ARM GAS  C:\Users\ole\AppData\Local\Temp\ccgkHzQF.s 			page 4


 103:.\Generated_Source\PSoC4/isr_pwm.c **** *
 104:.\Generated_Source\PSoC4/isr_pwm.c **** *******************************************************************************/
 105:.\Generated_Source\PSoC4/isr_pwm.c **** void isr_pwm_StartEx(cyisraddress address)
 106:.\Generated_Source\PSoC4/isr_pwm.c **** {
  70              		.loc 1 106 0
  71              		.cfi_startproc
  72 0000 80B5     		push	{r7, lr}
  73              		.cfi_def_cfa_offset 8
  74              		.cfi_offset 7, -8
  75              		.cfi_offset 14, -4
  76 0002 82B0     		sub	sp, sp, #8
  77              		.cfi_def_cfa_offset 16
  78 0004 00AF     		add	r7, sp, #0
  79              		.cfi_def_cfa_register 7
  80 0006 7860     		str	r0, [r7, #4]
 107:.\Generated_Source\PSoC4/isr_pwm.c ****     /* For all we know the interrupt is active. */
 108:.\Generated_Source\PSoC4/isr_pwm.c ****     isr_pwm_Disable();
  81              		.loc 1 108 0
  82 0008 FFF7FEFF 		bl	isr_pwm_Disable
 109:.\Generated_Source\PSoC4/isr_pwm.c **** 
 110:.\Generated_Source\PSoC4/isr_pwm.c ****     /* Set the ISR to point to the isr_pwm Interrupt. */
 111:.\Generated_Source\PSoC4/isr_pwm.c ****     isr_pwm_SetVector(address);
  83              		.loc 1 111 0
  84 000c 7B68     		ldr	r3, [r7, #4]
  85 000e 181C     		mov	r0, r3
  86 0010 FFF7FEFF 		bl	isr_pwm_SetVector
 112:.\Generated_Source\PSoC4/isr_pwm.c **** 
 113:.\Generated_Source\PSoC4/isr_pwm.c ****     /* Set the priority. */
 114:.\Generated_Source\PSoC4/isr_pwm.c ****     isr_pwm_SetPriority((uint8)isr_pwm_INTC_PRIOR_NUMBER);
  87              		.loc 1 114 0
  88 0014 0320     		mov	r0, #3
  89 0016 FFF7FEFF 		bl	isr_pwm_SetPriority
 115:.\Generated_Source\PSoC4/isr_pwm.c **** 
 116:.\Generated_Source\PSoC4/isr_pwm.c ****     /* Enable it. */
 117:.\Generated_Source\PSoC4/isr_pwm.c ****     isr_pwm_Enable();
  90              		.loc 1 117 0
  91 001a FFF7FEFF 		bl	isr_pwm_Enable
 118:.\Generated_Source\PSoC4/isr_pwm.c **** }
  92              		.loc 1 118 0
  93 001e BD46     		mov	sp, r7
  94 0020 02B0     		add	sp, sp, #8
  95              		@ sp needed
  96 0022 80BD     		pop	{r7, pc}
  97              		.cfi_endproc
  98              	.LFE34:
  99              		.size	isr_pwm_StartEx, .-isr_pwm_StartEx
 100              		.section	.text.isr_pwm_Stop,"ax",%progbits
 101              		.align	2
 102              		.global	isr_pwm_Stop
 103              		.code	16
 104              		.thumb_func
 105              		.type	isr_pwm_Stop, %function
 106              	isr_pwm_Stop:
 107              	.LFB35:
 119:.\Generated_Source\PSoC4/isr_pwm.c **** 
 120:.\Generated_Source\PSoC4/isr_pwm.c **** 
 121:.\Generated_Source\PSoC4/isr_pwm.c **** /*******************************************************************************
ARM GAS  C:\Users\ole\AppData\Local\Temp\ccgkHzQF.s 			page 5


 122:.\Generated_Source\PSoC4/isr_pwm.c **** * Function Name: isr_pwm_Stop
 123:.\Generated_Source\PSoC4/isr_pwm.c **** ********************************************************************************
 124:.\Generated_Source\PSoC4/isr_pwm.c **** *
 125:.\Generated_Source\PSoC4/isr_pwm.c **** * Summary:
 126:.\Generated_Source\PSoC4/isr_pwm.c **** *   Disables and removes the interrupt.
 127:.\Generated_Source\PSoC4/isr_pwm.c **** *
 128:.\Generated_Source\PSoC4/isr_pwm.c **** * Parameters:  
 129:.\Generated_Source\PSoC4/isr_pwm.c **** *   None
 130:.\Generated_Source\PSoC4/isr_pwm.c **** *
 131:.\Generated_Source\PSoC4/isr_pwm.c **** * Return:
 132:.\Generated_Source\PSoC4/isr_pwm.c **** *   None
 133:.\Generated_Source\PSoC4/isr_pwm.c **** *
 134:.\Generated_Source\PSoC4/isr_pwm.c **** *******************************************************************************/
 135:.\Generated_Source\PSoC4/isr_pwm.c **** void isr_pwm_Stop(void)
 136:.\Generated_Source\PSoC4/isr_pwm.c **** {
 108              		.loc 1 136 0
 109              		.cfi_startproc
 110 0000 80B5     		push	{r7, lr}
 111              		.cfi_def_cfa_offset 8
 112              		.cfi_offset 7, -8
 113              		.cfi_offset 14, -4
 114 0002 00AF     		add	r7, sp, #0
 115              		.cfi_def_cfa_register 7
 137:.\Generated_Source\PSoC4/isr_pwm.c ****     /* Disable this interrupt. */
 138:.\Generated_Source\PSoC4/isr_pwm.c ****     isr_pwm_Disable();
 116              		.loc 1 138 0
 117 0004 FFF7FEFF 		bl	isr_pwm_Disable
 139:.\Generated_Source\PSoC4/isr_pwm.c **** 
 140:.\Generated_Source\PSoC4/isr_pwm.c ****     /* Set the ISR to point to the passive one. */
 141:.\Generated_Source\PSoC4/isr_pwm.c ****     isr_pwm_SetVector(&IntDefaultHandler);
 118              		.loc 1 141 0
 119 0008 024B     		ldr	r3, .L6
 120 000a 181C     		mov	r0, r3
 121 000c FFF7FEFF 		bl	isr_pwm_SetVector
 142:.\Generated_Source\PSoC4/isr_pwm.c **** }
 122              		.loc 1 142 0
 123 0010 BD46     		mov	sp, r7
 124              		@ sp needed
 125 0012 80BD     		pop	{r7, pc}
 126              	.L7:
 127              		.align	2
 128              	.L6:
 129 0014 00000000 		.word	IntDefaultHandler
 130              		.cfi_endproc
 131              	.LFE35:
 132              		.size	isr_pwm_Stop, .-isr_pwm_Stop
 133              		.section	.text.isr_pwm_Interrupt,"ax",%progbits
 134              		.align	2
 135              		.global	isr_pwm_Interrupt
 136              		.code	16
 137              		.thumb_func
 138              		.type	isr_pwm_Interrupt, %function
 139              	isr_pwm_Interrupt:
 140              	.LFB36:
 143:.\Generated_Source\PSoC4/isr_pwm.c **** 
 144:.\Generated_Source\PSoC4/isr_pwm.c **** 
 145:.\Generated_Source\PSoC4/isr_pwm.c **** /*******************************************************************************
ARM GAS  C:\Users\ole\AppData\Local\Temp\ccgkHzQF.s 			page 6


 146:.\Generated_Source\PSoC4/isr_pwm.c **** * Function Name: isr_pwm_Interrupt
 147:.\Generated_Source\PSoC4/isr_pwm.c **** ********************************************************************************
 148:.\Generated_Source\PSoC4/isr_pwm.c **** *
 149:.\Generated_Source\PSoC4/isr_pwm.c **** * Summary:
 150:.\Generated_Source\PSoC4/isr_pwm.c **** *   The default Interrupt Service Routine for isr_pwm.
 151:.\Generated_Source\PSoC4/isr_pwm.c **** *
 152:.\Generated_Source\PSoC4/isr_pwm.c **** *   Add custom code between the START and END comments to keep the next version
 153:.\Generated_Source\PSoC4/isr_pwm.c **** *   of this file from over-writing your code.
 154:.\Generated_Source\PSoC4/isr_pwm.c **** *
 155:.\Generated_Source\PSoC4/isr_pwm.c **** *   Note You may use either the default ISR by using this API, or you may define
 156:.\Generated_Source\PSoC4/isr_pwm.c **** *   your own separate ISR through ISR_StartEx().
 157:.\Generated_Source\PSoC4/isr_pwm.c **** *
 158:.\Generated_Source\PSoC4/isr_pwm.c **** * Parameters:  
 159:.\Generated_Source\PSoC4/isr_pwm.c **** *   None
 160:.\Generated_Source\PSoC4/isr_pwm.c **** *
 161:.\Generated_Source\PSoC4/isr_pwm.c **** * Return:
 162:.\Generated_Source\PSoC4/isr_pwm.c **** *   None
 163:.\Generated_Source\PSoC4/isr_pwm.c **** *
 164:.\Generated_Source\PSoC4/isr_pwm.c **** *******************************************************************************/
 165:.\Generated_Source\PSoC4/isr_pwm.c **** CY_ISR(isr_pwm_Interrupt)
 166:.\Generated_Source\PSoC4/isr_pwm.c **** {
 141              		.loc 1 166 0
 142              		.cfi_startproc
 143 0000 80B5     		push	{r7, lr}
 144              		.cfi_def_cfa_offset 8
 145              		.cfi_offset 7, -8
 146              		.cfi_offset 14, -4
 147 0002 00AF     		add	r7, sp, #0
 148              		.cfi_def_cfa_register 7
 167:.\Generated_Source\PSoC4/isr_pwm.c ****     /*  Place your Interrupt code here. */
 168:.\Generated_Source\PSoC4/isr_pwm.c ****     /* `#START isr_pwm_Interrupt` */
 169:.\Generated_Source\PSoC4/isr_pwm.c ****     isr_pwm_ClearPending();
 149              		.loc 1 169 0
 150 0004 FFF7FEFF 		bl	isr_pwm_ClearPending
 170:.\Generated_Source\PSoC4/isr_pwm.c ****     PWM_Timer_ClearInterrupt(PWM_Timer_INTR_MASK_TC);
 151              		.loc 1 170 0
 152 0008 0120     		mov	r0, #1
 153 000a FFF7FEFF 		bl	PWM_Timer_ClearInterrupt
 171:.\Generated_Source\PSoC4/isr_pwm.c ****     if (counter_pwm == 0 &&  pwm_light[landing] != 0)      //PWM frame start
 154              		.loc 1 171 0
 155 000e 2C4B     		ldr	r3, .L17
 156 0010 1B78     		ldrb	r3, [r3]
 157 0012 002B     		cmp	r3, #0
 158 0014 06D1     		bne	.L9
 159              		.loc 1 171 0 is_stmt 0 discriminator 1
 160 0016 2B4B     		ldr	r3, .L17+4
 161 0018 DB78     		ldrb	r3, [r3, #3]
 162 001a 002B     		cmp	r3, #0
 163 001c 02D0     		beq	.L9
 172:.\Generated_Source\PSoC4/isr_pwm.c ****     {
 173:.\Generated_Source\PSoC4/isr_pwm.c ****         LandingLight_Write(0xFF);
 164              		.loc 1 173 0 is_stmt 1
 165 001e FF20     		mov	r0, #255
 166 0020 FFF7FEFF 		bl	LandingLight_Write
 167              	.L9:
 174:.\Generated_Source\PSoC4/isr_pwm.c ****     }
 175:.\Generated_Source\PSoC4/isr_pwm.c ****     if (counter_pwm == 0 &&  pwm_light[navigation] != 0)      //PWM frame start
ARM GAS  C:\Users\ole\AppData\Local\Temp\ccgkHzQF.s 			page 7


 168              		.loc 1 175 0
 169 0024 264B     		ldr	r3, .L17
 170 0026 1B78     		ldrb	r3, [r3]
 171 0028 002B     		cmp	r3, #0
 172 002a 06D1     		bne	.L10
 173              		.loc 1 175 0 is_stmt 0 discriminator 1
 174 002c 254B     		ldr	r3, .L17+4
 175 002e 9B78     		ldrb	r3, [r3, #2]
 176 0030 002B     		cmp	r3, #0
 177 0032 02D0     		beq	.L10
 176:.\Generated_Source\PSoC4/isr_pwm.c ****     {
 177:.\Generated_Source\PSoC4/isr_pwm.c ****         NavLight_Write(0xFF);
 178              		.loc 1 177 0 is_stmt 1
 179 0034 FF20     		mov	r0, #255
 180 0036 FFF7FEFF 		bl	NavLight_Write
 181              	.L10:
 178:.\Generated_Source\PSoC4/isr_pwm.c ****     }
 179:.\Generated_Source\PSoC4/isr_pwm.c ****     if (counter_pwm == 0 &&  pwm_light[strobe] != 0)      //PWM frame start
 182              		.loc 1 179 0
 183 003a 214B     		ldr	r3, .L17
 184 003c 1B78     		ldrb	r3, [r3]
 185 003e 002B     		cmp	r3, #0
 186 0040 06D1     		bne	.L11
 187              		.loc 1 179 0 is_stmt 0 discriminator 1
 188 0042 204B     		ldr	r3, .L17+4
 189 0044 1B78     		ldrb	r3, [r3]
 190 0046 002B     		cmp	r3, #0
 191 0048 02D0     		beq	.L11
 180:.\Generated_Source\PSoC4/isr_pwm.c ****     {
 181:.\Generated_Source\PSoC4/isr_pwm.c ****         StrobeLight_Write(0xFF);
 192              		.loc 1 181 0 is_stmt 1
 193 004a FF20     		mov	r0, #255
 194 004c FFF7FEFF 		bl	StrobeLight_Write
 195              	.L11:
 182:.\Generated_Source\PSoC4/isr_pwm.c ****     }
 183:.\Generated_Source\PSoC4/isr_pwm.c ****     if (counter_pwm == 0 &&  pwm_light[collision] != 0)      //PWM frame start
 196              		.loc 1 183 0
 197 0050 1B4B     		ldr	r3, .L17
 198 0052 1B78     		ldrb	r3, [r3]
 199 0054 002B     		cmp	r3, #0
 200 0056 06D1     		bne	.L12
 201              		.loc 1 183 0 is_stmt 0 discriminator 1
 202 0058 1A4B     		ldr	r3, .L17+4
 203 005a 5B78     		ldrb	r3, [r3, #1]
 204 005c 002B     		cmp	r3, #0
 205 005e 02D0     		beq	.L12
 184:.\Generated_Source\PSoC4/isr_pwm.c ****     {
 185:.\Generated_Source\PSoC4/isr_pwm.c ****         CollisionLight_Write(0xFF);
 206              		.loc 1 185 0 is_stmt 1
 207 0060 FF20     		mov	r0, #255
 208 0062 FFF7FEFF 		bl	CollisionLight_Write
 209              	.L12:
 186:.\Generated_Source\PSoC4/isr_pwm.c ****     }
 187:.\Generated_Source\PSoC4/isr_pwm.c ****     if (counter_pwm ==  pwm_light[landing]) LandingLight_Write(0x00);      //PWM turn LandingLight 
 210              		.loc 1 187 0
 211 0066 174B     		ldr	r3, .L17+4
 212 0068 DA78     		ldrb	r2, [r3, #3]
ARM GAS  C:\Users\ole\AppData\Local\Temp\ccgkHzQF.s 			page 8


 213 006a 154B     		ldr	r3, .L17
 214 006c 1B78     		ldrb	r3, [r3]
 215 006e 9A42     		cmp	r2, r3
 216 0070 02D1     		bne	.L13
 217              		.loc 1 187 0 is_stmt 0 discriminator 1
 218 0072 0020     		mov	r0, #0
 219 0074 FFF7FEFF 		bl	LandingLight_Write
 220              	.L13:
 188:.\Generated_Source\PSoC4/isr_pwm.c ****     if (counter_pwm ==  pwm_light[navigation]) NavLight_Write(0x00);              //PWM turn Landin
 221              		.loc 1 188 0 is_stmt 1
 222 0078 124B     		ldr	r3, .L17+4
 223 007a 9A78     		ldrb	r2, [r3, #2]
 224 007c 104B     		ldr	r3, .L17
 225 007e 1B78     		ldrb	r3, [r3]
 226 0080 9A42     		cmp	r2, r3
 227 0082 02D1     		bne	.L14
 228              		.loc 1 188 0 is_stmt 0 discriminator 1
 229 0084 0020     		mov	r0, #0
 230 0086 FFF7FEFF 		bl	NavLight_Write
 231              	.L14:
 189:.\Generated_Source\PSoC4/isr_pwm.c ****     if (counter_pwm ==  pwm_light[strobe]) StrobeLight_Write(0x00);        //PWM turn LandingLight 
 232              		.loc 1 189 0 is_stmt 1
 233 008a 0E4B     		ldr	r3, .L17+4
 234 008c 1A78     		ldrb	r2, [r3]
 235 008e 0C4B     		ldr	r3, .L17
 236 0090 1B78     		ldrb	r3, [r3]
 237 0092 9A42     		cmp	r2, r3
 238 0094 02D1     		bne	.L15
 239              		.loc 1 189 0 is_stmt 0 discriminator 1
 240 0096 0020     		mov	r0, #0
 241 0098 FFF7FEFF 		bl	StrobeLight_Write
 242              	.L15:
 190:.\Generated_Source\PSoC4/isr_pwm.c ****     if (counter_pwm ==  pwm_light[collision]) CollisionLight_Write(0x00);  //PWM turn LandingLight 
 243              		.loc 1 190 0 is_stmt 1
 244 009c 094B     		ldr	r3, .L17+4
 245 009e 5A78     		ldrb	r2, [r3, #1]
 246 00a0 074B     		ldr	r3, .L17
 247 00a2 1B78     		ldrb	r3, [r3]
 248 00a4 9A42     		cmp	r2, r3
 249 00a6 02D1     		bne	.L16
 250              		.loc 1 190 0 is_stmt 0 discriminator 1
 251 00a8 0020     		mov	r0, #0
 252 00aa FFF7FEFF 		bl	CollisionLight_Write
 253              	.L16:
 191:.\Generated_Source\PSoC4/isr_pwm.c ****         
 192:.\Generated_Source\PSoC4/isr_pwm.c ****     
 193:.\Generated_Source\PSoC4/isr_pwm.c ****     counter_pwm++;
 254              		.loc 1 193 0 is_stmt 1
 255 00ae 044B     		ldr	r3, .L17
 256 00b0 1B78     		ldrb	r3, [r3]
 257 00b2 0133     		add	r3, r3, #1
 258 00b4 DAB2     		uxtb	r2, r3
 259 00b6 024B     		ldr	r3, .L17
 260 00b8 1A70     		strb	r2, [r3]
 194:.\Generated_Source\PSoC4/isr_pwm.c ****     
 195:.\Generated_Source\PSoC4/isr_pwm.c ****     /* `#END` */
 196:.\Generated_Source\PSoC4/isr_pwm.c **** }
ARM GAS  C:\Users\ole\AppData\Local\Temp\ccgkHzQF.s 			page 9


 261              		.loc 1 196 0
 262 00ba BD46     		mov	sp, r7
 263              		@ sp needed
 264 00bc 80BD     		pop	{r7, pc}
 265              	.L18:
 266 00be C046     		.align	2
 267              	.L17:
 268 00c0 00000000 		.word	counter_pwm
 269 00c4 00000000 		.word	pwm_light
 270              		.cfi_endproc
 271              	.LFE36:
 272              		.size	isr_pwm_Interrupt, .-isr_pwm_Interrupt
 273              		.section	.text.isr_pwm_SetVector,"ax",%progbits
 274              		.align	2
 275              		.global	isr_pwm_SetVector
 276              		.code	16
 277              		.thumb_func
 278              		.type	isr_pwm_SetVector, %function
 279              	isr_pwm_SetVector:
 280              	.LFB37:
 197:.\Generated_Source\PSoC4/isr_pwm.c **** 
 198:.\Generated_Source\PSoC4/isr_pwm.c **** 
 199:.\Generated_Source\PSoC4/isr_pwm.c **** /*******************************************************************************
 200:.\Generated_Source\PSoC4/isr_pwm.c **** * Function Name: isr_pwm_SetVector
 201:.\Generated_Source\PSoC4/isr_pwm.c **** ********************************************************************************
 202:.\Generated_Source\PSoC4/isr_pwm.c **** *
 203:.\Generated_Source\PSoC4/isr_pwm.c **** * Summary:
 204:.\Generated_Source\PSoC4/isr_pwm.c **** *   Change the ISR vector for the Interrupt. Note calling isr_pwm_Start
 205:.\Generated_Source\PSoC4/isr_pwm.c **** *   will override any effect this method would have had. To set the vector 
 206:.\Generated_Source\PSoC4/isr_pwm.c **** *   before the component has been started use isr_pwm_StartEx instead.
 207:.\Generated_Source\PSoC4/isr_pwm.c **** * 
 208:.\Generated_Source\PSoC4/isr_pwm.c **** *   When defining ISR functions, the CY_ISR and CY_ISR_PROTO macros should be 
 209:.\Generated_Source\PSoC4/isr_pwm.c **** *   used to provide consistent definition across compilers:
 210:.\Generated_Source\PSoC4/isr_pwm.c **** *
 211:.\Generated_Source\PSoC4/isr_pwm.c **** *   Function definition example:
 212:.\Generated_Source\PSoC4/isr_pwm.c **** *   CY_ISR(MyISR)
 213:.\Generated_Source\PSoC4/isr_pwm.c **** *   {
 214:.\Generated_Source\PSoC4/isr_pwm.c **** *   }
 215:.\Generated_Source\PSoC4/isr_pwm.c **** *
 216:.\Generated_Source\PSoC4/isr_pwm.c **** *   Function prototype example:
 217:.\Generated_Source\PSoC4/isr_pwm.c **** *     CY_ISR_PROTO(MyISR);
 218:.\Generated_Source\PSoC4/isr_pwm.c **** *
 219:.\Generated_Source\PSoC4/isr_pwm.c **** * Parameters:
 220:.\Generated_Source\PSoC4/isr_pwm.c **** *   address: Address of the ISR to set in the interrupt vector table.
 221:.\Generated_Source\PSoC4/isr_pwm.c **** *
 222:.\Generated_Source\PSoC4/isr_pwm.c **** * Return:
 223:.\Generated_Source\PSoC4/isr_pwm.c **** *   None
 224:.\Generated_Source\PSoC4/isr_pwm.c **** *
 225:.\Generated_Source\PSoC4/isr_pwm.c **** *******************************************************************************/
 226:.\Generated_Source\PSoC4/isr_pwm.c **** void isr_pwm_SetVector(cyisraddress address)
 227:.\Generated_Source\PSoC4/isr_pwm.c **** {
 281              		.loc 1 227 0
 282              		.cfi_startproc
 283 0000 80B5     		push	{r7, lr}
 284              		.cfi_def_cfa_offset 8
 285              		.cfi_offset 7, -8
 286              		.cfi_offset 14, -4
ARM GAS  C:\Users\ole\AppData\Local\Temp\ccgkHzQF.s 			page 10


 287 0002 82B0     		sub	sp, sp, #8
 288              		.cfi_def_cfa_offset 16
 289 0004 00AF     		add	r7, sp, #0
 290              		.cfi_def_cfa_register 7
 291 0006 7860     		str	r0, [r7, #4]
 228:.\Generated_Source\PSoC4/isr_pwm.c ****     CyRamVectors[CYINT_IRQ_BASE + isr_pwm__INTC_NUMBER] = address;
 292              		.loc 1 228 0
 293 0008 034A     		ldr	r2, .L20
 294 000a 8023     		mov	r3, #128
 295 000c 7968     		ldr	r1, [r7, #4]
 296 000e D150     		str	r1, [r2, r3]
 229:.\Generated_Source\PSoC4/isr_pwm.c **** }
 297              		.loc 1 229 0
 298 0010 BD46     		mov	sp, r7
 299 0012 02B0     		add	sp, sp, #8
 300              		@ sp needed
 301 0014 80BD     		pop	{r7, pc}
 302              	.L21:
 303 0016 C046     		.align	2
 304              	.L20:
 305 0018 00000000 		.word	CyRamVectors
 306              		.cfi_endproc
 307              	.LFE37:
 308              		.size	isr_pwm_SetVector, .-isr_pwm_SetVector
 309              		.section	.text.isr_pwm_GetVector,"ax",%progbits
 310              		.align	2
 311              		.global	isr_pwm_GetVector
 312              		.code	16
 313              		.thumb_func
 314              		.type	isr_pwm_GetVector, %function
 315              	isr_pwm_GetVector:
 316              	.LFB38:
 230:.\Generated_Source\PSoC4/isr_pwm.c **** 
 231:.\Generated_Source\PSoC4/isr_pwm.c **** 
 232:.\Generated_Source\PSoC4/isr_pwm.c **** /*******************************************************************************
 233:.\Generated_Source\PSoC4/isr_pwm.c **** * Function Name: isr_pwm_GetVector
 234:.\Generated_Source\PSoC4/isr_pwm.c **** ********************************************************************************
 235:.\Generated_Source\PSoC4/isr_pwm.c **** *
 236:.\Generated_Source\PSoC4/isr_pwm.c **** * Summary:
 237:.\Generated_Source\PSoC4/isr_pwm.c **** *   Gets the "address" of the current ISR vector for the Interrupt.
 238:.\Generated_Source\PSoC4/isr_pwm.c **** *
 239:.\Generated_Source\PSoC4/isr_pwm.c **** * Parameters:
 240:.\Generated_Source\PSoC4/isr_pwm.c **** *   None
 241:.\Generated_Source\PSoC4/isr_pwm.c **** *
 242:.\Generated_Source\PSoC4/isr_pwm.c **** * Return:
 243:.\Generated_Source\PSoC4/isr_pwm.c **** *   Address of the ISR in the interrupt vector table.
 244:.\Generated_Source\PSoC4/isr_pwm.c **** *
 245:.\Generated_Source\PSoC4/isr_pwm.c **** *******************************************************************************/
 246:.\Generated_Source\PSoC4/isr_pwm.c **** cyisraddress isr_pwm_GetVector(void)
 247:.\Generated_Source\PSoC4/isr_pwm.c **** {
 317              		.loc 1 247 0
 318              		.cfi_startproc
 319 0000 80B5     		push	{r7, lr}
 320              		.cfi_def_cfa_offset 8
 321              		.cfi_offset 7, -8
 322              		.cfi_offset 14, -4
 323 0002 00AF     		add	r7, sp, #0
ARM GAS  C:\Users\ole\AppData\Local\Temp\ccgkHzQF.s 			page 11


 324              		.cfi_def_cfa_register 7
 248:.\Generated_Source\PSoC4/isr_pwm.c ****     return CyRamVectors[CYINT_IRQ_BASE + isr_pwm__INTC_NUMBER];
 325              		.loc 1 248 0
 326 0004 024A     		ldr	r2, .L24
 327 0006 8023     		mov	r3, #128
 328 0008 D358     		ldr	r3, [r2, r3]
 249:.\Generated_Source\PSoC4/isr_pwm.c **** }
 329              		.loc 1 249 0
 330 000a 181C     		mov	r0, r3
 331 000c BD46     		mov	sp, r7
 332              		@ sp needed
 333 000e 80BD     		pop	{r7, pc}
 334              	.L25:
 335              		.align	2
 336              	.L24:
 337 0010 00000000 		.word	CyRamVectors
 338              		.cfi_endproc
 339              	.LFE38:
 340              		.size	isr_pwm_GetVector, .-isr_pwm_GetVector
 341              		.section	.text.isr_pwm_SetPriority,"ax",%progbits
 342              		.align	2
 343              		.global	isr_pwm_SetPriority
 344              		.code	16
 345              		.thumb_func
 346              		.type	isr_pwm_SetPriority, %function
 347              	isr_pwm_SetPriority:
 348              	.LFB39:
 250:.\Generated_Source\PSoC4/isr_pwm.c **** 
 251:.\Generated_Source\PSoC4/isr_pwm.c **** 
 252:.\Generated_Source\PSoC4/isr_pwm.c **** /*******************************************************************************
 253:.\Generated_Source\PSoC4/isr_pwm.c **** * Function Name: isr_pwm_SetPriority
 254:.\Generated_Source\PSoC4/isr_pwm.c **** ********************************************************************************
 255:.\Generated_Source\PSoC4/isr_pwm.c **** *
 256:.\Generated_Source\PSoC4/isr_pwm.c **** * Summary:
 257:.\Generated_Source\PSoC4/isr_pwm.c **** *   Sets the Priority of the Interrupt. 
 258:.\Generated_Source\PSoC4/isr_pwm.c **** *
 259:.\Generated_Source\PSoC4/isr_pwm.c **** *   Note calling isr_pwm_Start or isr_pwm_StartEx will 
 260:.\Generated_Source\PSoC4/isr_pwm.c **** *   override any effect this API would have had. This API should only be called
 261:.\Generated_Source\PSoC4/isr_pwm.c **** *   after isr_pwm_Start or isr_pwm_StartEx has been called. 
 262:.\Generated_Source\PSoC4/isr_pwm.c **** *   To set the initial priority for the component, use the Design-Wide Resources
 263:.\Generated_Source\PSoC4/isr_pwm.c **** *   Interrupt Editor.
 264:.\Generated_Source\PSoC4/isr_pwm.c **** *
 265:.\Generated_Source\PSoC4/isr_pwm.c **** *   Note This API has no effect on Non-maskable interrupt NMI).
 266:.\Generated_Source\PSoC4/isr_pwm.c **** *
 267:.\Generated_Source\PSoC4/isr_pwm.c **** * Parameters:
 268:.\Generated_Source\PSoC4/isr_pwm.c **** *   priority: Priority of the interrupt, 0 being the highest priority
 269:.\Generated_Source\PSoC4/isr_pwm.c **** *             PSoC 3 and PSoC 5LP: Priority is from 0 to 7.
 270:.\Generated_Source\PSoC4/isr_pwm.c **** *             PSoC 4: Priority is from 0 to 3.
 271:.\Generated_Source\PSoC4/isr_pwm.c **** *
 272:.\Generated_Source\PSoC4/isr_pwm.c **** * Return:
 273:.\Generated_Source\PSoC4/isr_pwm.c **** *   None
 274:.\Generated_Source\PSoC4/isr_pwm.c **** *
 275:.\Generated_Source\PSoC4/isr_pwm.c **** *******************************************************************************/
 276:.\Generated_Source\PSoC4/isr_pwm.c **** void isr_pwm_SetPriority(uint8 priority)
 277:.\Generated_Source\PSoC4/isr_pwm.c **** {
 349              		.loc 1 277 0
 350              		.cfi_startproc
ARM GAS  C:\Users\ole\AppData\Local\Temp\ccgkHzQF.s 			page 12


 351 0000 90B5     		push	{r4, r7, lr}
 352              		.cfi_def_cfa_offset 12
 353              		.cfi_offset 4, -12
 354              		.cfi_offset 7, -8
 355              		.cfi_offset 14, -4
 356 0002 85B0     		sub	sp, sp, #20
 357              		.cfi_def_cfa_offset 32
 358 0004 00AF     		add	r7, sp, #0
 359              		.cfi_def_cfa_register 7
 360 0006 021C     		mov	r2, r0
 361 0008 FB1D     		add	r3, r7, #7
 362 000a 1A70     		strb	r2, [r3]
 278:.\Generated_Source\PSoC4/isr_pwm.c **** 	uint8 interruptState;
 279:.\Generated_Source\PSoC4/isr_pwm.c ****     uint32 priorityOffset = ((isr_pwm__INTC_NUMBER % 4u) * 8u) + 6u;
 363              		.loc 1 279 0
 364 000c 0623     		mov	r3, #6
 365 000e FB60     		str	r3, [r7, #12]
 280:.\Generated_Source\PSoC4/isr_pwm.c ****     
 281:.\Generated_Source\PSoC4/isr_pwm.c **** 	interruptState = CyEnterCriticalSection();
 366              		.loc 1 281 0
 367 0010 3C1C     		mov	r4, r7
 368 0012 0B34     		add	r4, r4, #11
 369 0014 FFF7FEFF 		bl	CyEnterCriticalSection
 370 0018 031C     		mov	r3, r0
 371 001a 2370     		strb	r3, [r4]
 282:.\Generated_Source\PSoC4/isr_pwm.c ****     *isr_pwm_INTC_PRIOR = (*isr_pwm_INTC_PRIOR & (uint32)(~isr_pwm__INTC_PRIOR_MASK)) |
 372              		.loc 1 282 0
 373 001c 0B4B     		ldr	r3, .L27
 374 001e 0B4A     		ldr	r2, .L27
 375 0020 1268     		ldr	r2, [r2]
 376 0022 C021     		mov	r1, #192
 377 0024 101C     		mov	r0, r2
 378 0026 8843     		bic	r0, r1
 379 0028 011C     		mov	r1, r0
 283:.\Generated_Source\PSoC4/isr_pwm.c ****                                     ((uint32)priority << priorityOffset);
 380              		.loc 1 283 0
 381 002a FA1D     		add	r2, r7, #7
 382 002c 1078     		ldrb	r0, [r2]
 383 002e FA68     		ldr	r2, [r7, #12]
 384 0030 041C     		mov	r4, r0
 385 0032 9440     		lsl	r4, r4, r2
 386 0034 221C     		mov	r2, r4
 282:.\Generated_Source\PSoC4/isr_pwm.c ****     *isr_pwm_INTC_PRIOR = (*isr_pwm_INTC_PRIOR & (uint32)(~isr_pwm__INTC_PRIOR_MASK)) |
 387              		.loc 1 282 0
 388 0036 0A43     		orr	r2, r1
 389 0038 1A60     		str	r2, [r3]
 284:.\Generated_Source\PSoC4/isr_pwm.c **** 	CyExitCriticalSection(interruptState);
 390              		.loc 1 284 0
 391 003a 3B1C     		mov	r3, r7
 392 003c 0B33     		add	r3, r3, #11
 393 003e 1B78     		ldrb	r3, [r3]
 394 0040 181C     		mov	r0, r3
 395 0042 FFF7FEFF 		bl	CyExitCriticalSection
 285:.\Generated_Source\PSoC4/isr_pwm.c **** }
 396              		.loc 1 285 0
 397 0046 BD46     		mov	sp, r7
 398 0048 05B0     		add	sp, sp, #20
ARM GAS  C:\Users\ole\AppData\Local\Temp\ccgkHzQF.s 			page 13


 399              		@ sp needed
 400 004a 90BD     		pop	{r4, r7, pc}
 401              	.L28:
 402              		.align	2
 403              	.L27:
 404 004c 10E400E0 		.word	-536812528
 405              		.cfi_endproc
 406              	.LFE39:
 407              		.size	isr_pwm_SetPriority, .-isr_pwm_SetPriority
 408              		.section	.text.isr_pwm_GetPriority,"ax",%progbits
 409              		.align	2
 410              		.global	isr_pwm_GetPriority
 411              		.code	16
 412              		.thumb_func
 413              		.type	isr_pwm_GetPriority, %function
 414              	isr_pwm_GetPriority:
 415              	.LFB40:
 286:.\Generated_Source\PSoC4/isr_pwm.c **** 
 287:.\Generated_Source\PSoC4/isr_pwm.c **** 
 288:.\Generated_Source\PSoC4/isr_pwm.c **** /*******************************************************************************
 289:.\Generated_Source\PSoC4/isr_pwm.c **** * Function Name: isr_pwm_GetPriority
 290:.\Generated_Source\PSoC4/isr_pwm.c **** ********************************************************************************
 291:.\Generated_Source\PSoC4/isr_pwm.c **** *
 292:.\Generated_Source\PSoC4/isr_pwm.c **** * Summary:
 293:.\Generated_Source\PSoC4/isr_pwm.c **** *   Gets the Priority of the Interrupt.
 294:.\Generated_Source\PSoC4/isr_pwm.c **** *
 295:.\Generated_Source\PSoC4/isr_pwm.c **** * Parameters:
 296:.\Generated_Source\PSoC4/isr_pwm.c **** *   None
 297:.\Generated_Source\PSoC4/isr_pwm.c **** *
 298:.\Generated_Source\PSoC4/isr_pwm.c **** * Return:
 299:.\Generated_Source\PSoC4/isr_pwm.c **** *   Priority of the interrupt, 0 being the highest priority
 300:.\Generated_Source\PSoC4/isr_pwm.c **** *    PSoC 3 and PSoC 5LP: Priority is from 0 to 7.
 301:.\Generated_Source\PSoC4/isr_pwm.c **** *    PSoC 4: Priority is from 0 to 3.
 302:.\Generated_Source\PSoC4/isr_pwm.c **** *
 303:.\Generated_Source\PSoC4/isr_pwm.c **** *******************************************************************************/
 304:.\Generated_Source\PSoC4/isr_pwm.c **** uint8 isr_pwm_GetPriority(void)
 305:.\Generated_Source\PSoC4/isr_pwm.c **** {
 416              		.loc 1 305 0
 417              		.cfi_startproc
 418 0000 80B5     		push	{r7, lr}
 419              		.cfi_def_cfa_offset 8
 420              		.cfi_offset 7, -8
 421              		.cfi_offset 14, -4
 422 0002 82B0     		sub	sp, sp, #8
 423              		.cfi_def_cfa_offset 16
 424 0004 00AF     		add	r7, sp, #0
 425              		.cfi_def_cfa_register 7
 306:.\Generated_Source\PSoC4/isr_pwm.c ****     uint32 priority;
 307:.\Generated_Source\PSoC4/isr_pwm.c **** 	uint32 priorityOffset = ((isr_pwm__INTC_NUMBER % 4u) * 8u) + 6u;
 426              		.loc 1 307 0
 427 0006 0623     		mov	r3, #6
 428 0008 7B60     		str	r3, [r7, #4]
 308:.\Generated_Source\PSoC4/isr_pwm.c **** 
 309:.\Generated_Source\PSoC4/isr_pwm.c ****     priority = (*isr_pwm_INTC_PRIOR & isr_pwm__INTC_PRIOR_MASK) >> priorityOffset;
 429              		.loc 1 309 0
 430 000a 074B     		ldr	r3, .L31
 431 000c 1A68     		ldr	r2, [r3]
ARM GAS  C:\Users\ole\AppData\Local\Temp\ccgkHzQF.s 			page 14


 432 000e C023     		mov	r3, #192
 433 0010 1A40     		and	r2, r3
 434 0012 7B68     		ldr	r3, [r7, #4]
 435 0014 111C     		mov	r1, r2
 436 0016 D940     		lsr	r1, r1, r3
 437 0018 0B1C     		mov	r3, r1
 438 001a 3B60     		str	r3, [r7]
 310:.\Generated_Source\PSoC4/isr_pwm.c **** 
 311:.\Generated_Source\PSoC4/isr_pwm.c ****     return (uint8)priority;
 439              		.loc 1 311 0
 440 001c 3B68     		ldr	r3, [r7]
 441 001e DBB2     		uxtb	r3, r3
 312:.\Generated_Source\PSoC4/isr_pwm.c **** }
 442              		.loc 1 312 0
 443 0020 181C     		mov	r0, r3
 444 0022 BD46     		mov	sp, r7
 445 0024 02B0     		add	sp, sp, #8
 446              		@ sp needed
 447 0026 80BD     		pop	{r7, pc}
 448              	.L32:
 449              		.align	2
 450              	.L31:
 451 0028 10E400E0 		.word	-536812528
 452              		.cfi_endproc
 453              	.LFE40:
 454              		.size	isr_pwm_GetPriority, .-isr_pwm_GetPriority
 455              		.section	.text.isr_pwm_Enable,"ax",%progbits
 456              		.align	2
 457              		.global	isr_pwm_Enable
 458              		.code	16
 459              		.thumb_func
 460              		.type	isr_pwm_Enable, %function
 461              	isr_pwm_Enable:
 462              	.LFB41:
 313:.\Generated_Source\PSoC4/isr_pwm.c **** 
 314:.\Generated_Source\PSoC4/isr_pwm.c **** 
 315:.\Generated_Source\PSoC4/isr_pwm.c **** /*******************************************************************************
 316:.\Generated_Source\PSoC4/isr_pwm.c **** * Function Name: isr_pwm_Enable
 317:.\Generated_Source\PSoC4/isr_pwm.c **** ********************************************************************************
 318:.\Generated_Source\PSoC4/isr_pwm.c **** *
 319:.\Generated_Source\PSoC4/isr_pwm.c **** * Summary:
 320:.\Generated_Source\PSoC4/isr_pwm.c **** *   Enables the interrupt to the interrupt controller. Do not call this function
 321:.\Generated_Source\PSoC4/isr_pwm.c **** *   unless ISR_Start() has been called or the functionality of the ISR_Start() 
 322:.\Generated_Source\PSoC4/isr_pwm.c **** *   function, which sets the vector and the priority, has been called.
 323:.\Generated_Source\PSoC4/isr_pwm.c **** *
 324:.\Generated_Source\PSoC4/isr_pwm.c **** * Parameters:
 325:.\Generated_Source\PSoC4/isr_pwm.c **** *   None
 326:.\Generated_Source\PSoC4/isr_pwm.c **** *
 327:.\Generated_Source\PSoC4/isr_pwm.c **** * Return:
 328:.\Generated_Source\PSoC4/isr_pwm.c **** *   None
 329:.\Generated_Source\PSoC4/isr_pwm.c **** *
 330:.\Generated_Source\PSoC4/isr_pwm.c **** *******************************************************************************/
 331:.\Generated_Source\PSoC4/isr_pwm.c **** void isr_pwm_Enable(void)
 332:.\Generated_Source\PSoC4/isr_pwm.c **** {
 463              		.loc 1 332 0
 464              		.cfi_startproc
 465 0000 80B5     		push	{r7, lr}
ARM GAS  C:\Users\ole\AppData\Local\Temp\ccgkHzQF.s 			page 15


 466              		.cfi_def_cfa_offset 8
 467              		.cfi_offset 7, -8
 468              		.cfi_offset 14, -4
 469 0002 00AF     		add	r7, sp, #0
 470              		.cfi_def_cfa_register 7
 333:.\Generated_Source\PSoC4/isr_pwm.c ****     /* Enable the general interrupt. */
 334:.\Generated_Source\PSoC4/isr_pwm.c ****     *isr_pwm_INTC_SET_EN = isr_pwm__INTC_MASK;
 471              		.loc 1 334 0
 472 0004 024B     		ldr	r3, .L34
 473 0006 8022     		mov	r2, #128
 474 0008 5202     		lsl	r2, r2, #9
 475 000a 1A60     		str	r2, [r3]
 335:.\Generated_Source\PSoC4/isr_pwm.c **** }
 476              		.loc 1 335 0
 477 000c BD46     		mov	sp, r7
 478              		@ sp needed
 479 000e 80BD     		pop	{r7, pc}
 480              	.L35:
 481              		.align	2
 482              	.L34:
 483 0010 00E100E0 		.word	-536813312
 484              		.cfi_endproc
 485              	.LFE41:
 486              		.size	isr_pwm_Enable, .-isr_pwm_Enable
 487              		.section	.text.isr_pwm_GetState,"ax",%progbits
 488              		.align	2
 489              		.global	isr_pwm_GetState
 490              		.code	16
 491              		.thumb_func
 492              		.type	isr_pwm_GetState, %function
 493              	isr_pwm_GetState:
 494              	.LFB42:
 336:.\Generated_Source\PSoC4/isr_pwm.c **** 
 337:.\Generated_Source\PSoC4/isr_pwm.c **** 
 338:.\Generated_Source\PSoC4/isr_pwm.c **** /*******************************************************************************
 339:.\Generated_Source\PSoC4/isr_pwm.c **** * Function Name: isr_pwm_GetState
 340:.\Generated_Source\PSoC4/isr_pwm.c **** ********************************************************************************
 341:.\Generated_Source\PSoC4/isr_pwm.c **** *
 342:.\Generated_Source\PSoC4/isr_pwm.c **** * Summary:
 343:.\Generated_Source\PSoC4/isr_pwm.c **** *   Gets the state (enabled, disabled) of the Interrupt.
 344:.\Generated_Source\PSoC4/isr_pwm.c **** *
 345:.\Generated_Source\PSoC4/isr_pwm.c **** * Parameters:
 346:.\Generated_Source\PSoC4/isr_pwm.c **** *   None
 347:.\Generated_Source\PSoC4/isr_pwm.c **** *
 348:.\Generated_Source\PSoC4/isr_pwm.c **** * Return:
 349:.\Generated_Source\PSoC4/isr_pwm.c **** *   1 if enabled, 0 if disabled.
 350:.\Generated_Source\PSoC4/isr_pwm.c **** *
 351:.\Generated_Source\PSoC4/isr_pwm.c **** *******************************************************************************/
 352:.\Generated_Source\PSoC4/isr_pwm.c **** uint8 isr_pwm_GetState(void)
 353:.\Generated_Source\PSoC4/isr_pwm.c **** {
 495              		.loc 1 353 0
 496              		.cfi_startproc
 497 0000 80B5     		push	{r7, lr}
 498              		.cfi_def_cfa_offset 8
 499              		.cfi_offset 7, -8
 500              		.cfi_offset 14, -4
 501 0002 00AF     		add	r7, sp, #0
ARM GAS  C:\Users\ole\AppData\Local\Temp\ccgkHzQF.s 			page 16


 502              		.cfi_def_cfa_register 7
 354:.\Generated_Source\PSoC4/isr_pwm.c ****     /* Get the state of the general interrupt. */
 355:.\Generated_Source\PSoC4/isr_pwm.c ****     return ((*isr_pwm_INTC_SET_EN & (uint32)isr_pwm__INTC_MASK) != 0u) ? 1u:0u;
 503              		.loc 1 355 0
 504 0004 054B     		ldr	r3, .L40
 505 0006 1A68     		ldr	r2, [r3]
 506 0008 8023     		mov	r3, #128
 507 000a 5B02     		lsl	r3, r3, #9
 508 000c 1340     		and	r3, r2
 509 000e 01D0     		beq	.L37
 510              		.loc 1 355 0 is_stmt 0 discriminator 1
 511 0010 0123     		mov	r3, #1
 512 0012 00E0     		b	.L38
 513              	.L37:
 514              		.loc 1 355 0 discriminator 2
 515 0014 0023     		mov	r3, #0
 516              	.L38:
 356:.\Generated_Source\PSoC4/isr_pwm.c **** }
 517              		.loc 1 356 0 is_stmt 1 discriminator 3
 518 0016 181C     		mov	r0, r3
 519 0018 BD46     		mov	sp, r7
 520              		@ sp needed
 521 001a 80BD     		pop	{r7, pc}
 522              	.L41:
 523              		.align	2
 524              	.L40:
 525 001c 00E100E0 		.word	-536813312
 526              		.cfi_endproc
 527              	.LFE42:
 528              		.size	isr_pwm_GetState, .-isr_pwm_GetState
 529              		.section	.text.isr_pwm_Disable,"ax",%progbits
 530              		.align	2
 531              		.global	isr_pwm_Disable
 532              		.code	16
 533              		.thumb_func
 534              		.type	isr_pwm_Disable, %function
 535              	isr_pwm_Disable:
 536              	.LFB43:
 357:.\Generated_Source\PSoC4/isr_pwm.c **** 
 358:.\Generated_Source\PSoC4/isr_pwm.c **** 
 359:.\Generated_Source\PSoC4/isr_pwm.c **** /*******************************************************************************
 360:.\Generated_Source\PSoC4/isr_pwm.c **** * Function Name: isr_pwm_Disable
 361:.\Generated_Source\PSoC4/isr_pwm.c **** ********************************************************************************
 362:.\Generated_Source\PSoC4/isr_pwm.c **** *
 363:.\Generated_Source\PSoC4/isr_pwm.c **** * Summary:
 364:.\Generated_Source\PSoC4/isr_pwm.c **** *   Disables the Interrupt in the interrupt controller.
 365:.\Generated_Source\PSoC4/isr_pwm.c **** *
 366:.\Generated_Source\PSoC4/isr_pwm.c **** * Parameters:
 367:.\Generated_Source\PSoC4/isr_pwm.c **** *   None
 368:.\Generated_Source\PSoC4/isr_pwm.c **** *
 369:.\Generated_Source\PSoC4/isr_pwm.c **** * Return:
 370:.\Generated_Source\PSoC4/isr_pwm.c **** *   None
 371:.\Generated_Source\PSoC4/isr_pwm.c **** *
 372:.\Generated_Source\PSoC4/isr_pwm.c **** *******************************************************************************/
 373:.\Generated_Source\PSoC4/isr_pwm.c **** void isr_pwm_Disable(void)
 374:.\Generated_Source\PSoC4/isr_pwm.c **** {
 537              		.loc 1 374 0
ARM GAS  C:\Users\ole\AppData\Local\Temp\ccgkHzQF.s 			page 17


 538              		.cfi_startproc
 539 0000 80B5     		push	{r7, lr}
 540              		.cfi_def_cfa_offset 8
 541              		.cfi_offset 7, -8
 542              		.cfi_offset 14, -4
 543 0002 00AF     		add	r7, sp, #0
 544              		.cfi_def_cfa_register 7
 375:.\Generated_Source\PSoC4/isr_pwm.c ****     /* Disable the general interrupt. */
 376:.\Generated_Source\PSoC4/isr_pwm.c ****     *isr_pwm_INTC_CLR_EN = isr_pwm__INTC_MASK;
 545              		.loc 1 376 0
 546 0004 024B     		ldr	r3, .L43
 547 0006 8022     		mov	r2, #128
 548 0008 5202     		lsl	r2, r2, #9
 549 000a 1A60     		str	r2, [r3]
 377:.\Generated_Source\PSoC4/isr_pwm.c **** }
 550              		.loc 1 377 0
 551 000c BD46     		mov	sp, r7
 552              		@ sp needed
 553 000e 80BD     		pop	{r7, pc}
 554              	.L44:
 555              		.align	2
 556              	.L43:
 557 0010 80E100E0 		.word	-536813184
 558              		.cfi_endproc
 559              	.LFE43:
 560              		.size	isr_pwm_Disable, .-isr_pwm_Disable
 561              		.section	.text.isr_pwm_SetPending,"ax",%progbits
 562              		.align	2
 563              		.global	isr_pwm_SetPending
 564              		.code	16
 565              		.thumb_func
 566              		.type	isr_pwm_SetPending, %function
 567              	isr_pwm_SetPending:
 568              	.LFB44:
 378:.\Generated_Source\PSoC4/isr_pwm.c **** 
 379:.\Generated_Source\PSoC4/isr_pwm.c **** 
 380:.\Generated_Source\PSoC4/isr_pwm.c **** /*******************************************************************************
 381:.\Generated_Source\PSoC4/isr_pwm.c **** * Function Name: isr_pwm_SetPending
 382:.\Generated_Source\PSoC4/isr_pwm.c **** ********************************************************************************
 383:.\Generated_Source\PSoC4/isr_pwm.c **** *
 384:.\Generated_Source\PSoC4/isr_pwm.c **** * Summary:
 385:.\Generated_Source\PSoC4/isr_pwm.c **** *   Causes the Interrupt to enter the pending state, a software method of
 386:.\Generated_Source\PSoC4/isr_pwm.c **** *   generating the interrupt.
 387:.\Generated_Source\PSoC4/isr_pwm.c **** *
 388:.\Generated_Source\PSoC4/isr_pwm.c **** * Parameters:
 389:.\Generated_Source\PSoC4/isr_pwm.c **** *   None
 390:.\Generated_Source\PSoC4/isr_pwm.c **** *
 391:.\Generated_Source\PSoC4/isr_pwm.c **** * Return:
 392:.\Generated_Source\PSoC4/isr_pwm.c **** *   None
 393:.\Generated_Source\PSoC4/isr_pwm.c **** *
 394:.\Generated_Source\PSoC4/isr_pwm.c **** * Side Effects:
 395:.\Generated_Source\PSoC4/isr_pwm.c **** *   If interrupts are enabled and the interrupt is set up properly, the ISR is
 396:.\Generated_Source\PSoC4/isr_pwm.c **** *   entered (depending on the priority of this interrupt and other pending 
 397:.\Generated_Source\PSoC4/isr_pwm.c **** *   interrupts).
 398:.\Generated_Source\PSoC4/isr_pwm.c **** *
 399:.\Generated_Source\PSoC4/isr_pwm.c **** *******************************************************************************/
 400:.\Generated_Source\PSoC4/isr_pwm.c **** void isr_pwm_SetPending(void)
ARM GAS  C:\Users\ole\AppData\Local\Temp\ccgkHzQF.s 			page 18


 401:.\Generated_Source\PSoC4/isr_pwm.c **** {
 569              		.loc 1 401 0
 570              		.cfi_startproc
 571 0000 80B5     		push	{r7, lr}
 572              		.cfi_def_cfa_offset 8
 573              		.cfi_offset 7, -8
 574              		.cfi_offset 14, -4
 575 0002 00AF     		add	r7, sp, #0
 576              		.cfi_def_cfa_register 7
 402:.\Generated_Source\PSoC4/isr_pwm.c ****     *isr_pwm_INTC_SET_PD = isr_pwm__INTC_MASK;
 577              		.loc 1 402 0
 578 0004 024B     		ldr	r3, .L46
 579 0006 8022     		mov	r2, #128
 580 0008 5202     		lsl	r2, r2, #9
 581 000a 1A60     		str	r2, [r3]
 403:.\Generated_Source\PSoC4/isr_pwm.c **** }
 582              		.loc 1 403 0
 583 000c BD46     		mov	sp, r7
 584              		@ sp needed
 585 000e 80BD     		pop	{r7, pc}
 586              	.L47:
 587              		.align	2
 588              	.L46:
 589 0010 00E200E0 		.word	-536813056
 590              		.cfi_endproc
 591              	.LFE44:
 592              		.size	isr_pwm_SetPending, .-isr_pwm_SetPending
 593              		.section	.text.isr_pwm_ClearPending,"ax",%progbits
 594              		.align	2
 595              		.global	isr_pwm_ClearPending
 596              		.code	16
 597              		.thumb_func
 598              		.type	isr_pwm_ClearPending, %function
 599              	isr_pwm_ClearPending:
 600              	.LFB45:
 404:.\Generated_Source\PSoC4/isr_pwm.c **** 
 405:.\Generated_Source\PSoC4/isr_pwm.c **** 
 406:.\Generated_Source\PSoC4/isr_pwm.c **** /*******************************************************************************
 407:.\Generated_Source\PSoC4/isr_pwm.c **** * Function Name: isr_pwm_ClearPending
 408:.\Generated_Source\PSoC4/isr_pwm.c **** ********************************************************************************
 409:.\Generated_Source\PSoC4/isr_pwm.c **** *
 410:.\Generated_Source\PSoC4/isr_pwm.c **** * Summary:
 411:.\Generated_Source\PSoC4/isr_pwm.c **** *   Clears a pending interrupt in the interrupt controller.
 412:.\Generated_Source\PSoC4/isr_pwm.c **** *
 413:.\Generated_Source\PSoC4/isr_pwm.c **** *   Note Some interrupt sources are clear-on-read and require the block 
 414:.\Generated_Source\PSoC4/isr_pwm.c **** *   interrupt/status register to be read/cleared with the appropriate block API 
 415:.\Generated_Source\PSoC4/isr_pwm.c **** *   (GPIO, UART, and so on). Otherwise the ISR will continue to remain in 
 416:.\Generated_Source\PSoC4/isr_pwm.c **** *   pending state even though the interrupt itself is cleared using this API.
 417:.\Generated_Source\PSoC4/isr_pwm.c **** *
 418:.\Generated_Source\PSoC4/isr_pwm.c **** * Parameters:
 419:.\Generated_Source\PSoC4/isr_pwm.c **** *   None
 420:.\Generated_Source\PSoC4/isr_pwm.c **** *
 421:.\Generated_Source\PSoC4/isr_pwm.c **** * Return:
 422:.\Generated_Source\PSoC4/isr_pwm.c **** *   None
 423:.\Generated_Source\PSoC4/isr_pwm.c **** *
 424:.\Generated_Source\PSoC4/isr_pwm.c **** *******************************************************************************/
 425:.\Generated_Source\PSoC4/isr_pwm.c **** void isr_pwm_ClearPending(void)
ARM GAS  C:\Users\ole\AppData\Local\Temp\ccgkHzQF.s 			page 19


 426:.\Generated_Source\PSoC4/isr_pwm.c **** {
 601              		.loc 1 426 0
 602              		.cfi_startproc
 603 0000 80B5     		push	{r7, lr}
 604              		.cfi_def_cfa_offset 8
 605              		.cfi_offset 7, -8
 606              		.cfi_offset 14, -4
 607 0002 00AF     		add	r7, sp, #0
 608              		.cfi_def_cfa_register 7
 427:.\Generated_Source\PSoC4/isr_pwm.c ****     *isr_pwm_INTC_CLR_PD = isr_pwm__INTC_MASK;
 609              		.loc 1 427 0
 610 0004 024B     		ldr	r3, .L49
 611 0006 8022     		mov	r2, #128
 612 0008 5202     		lsl	r2, r2, #9
 613 000a 1A60     		str	r2, [r3]
 428:.\Generated_Source\PSoC4/isr_pwm.c **** }
 614              		.loc 1 428 0
 615 000c BD46     		mov	sp, r7
 616              		@ sp needed
 617 000e 80BD     		pop	{r7, pc}
 618              	.L50:
 619              		.align	2
 620              	.L49:
 621 0010 80E200E0 		.word	-536812928
 622              		.cfi_endproc
 623              	.LFE45:
 624              		.size	isr_pwm_ClearPending, .-isr_pwm_ClearPending
 625              		.text
 626              	.Letext0:
 627              		.file 2 "c:\\program files (x86)\\cypress\\psoc creator\\3.1\\psoc creator\\import\\gnu_cs\\arm\\4
 628              		.file 3 "c:\\program files (x86)\\cypress\\psoc creator\\3.1\\psoc creator\\import\\gnu_cs\\arm\\4
 629              		.file 4 ".\\Generated_Source\\PSoC4/cytypes.h"