ARM GAS  C:\Users\ole\AppData\Local\Temp\ccEH75ob.s 			page 1


   1              		.cpu cortex-m0
   2              		.fpu softvfp
   3              		.eabi_attribute 20, 1
   4              		.eabi_attribute 21, 1
   5              		.eabi_attribute 23, 3
   6              		.eabi_attribute 24, 1
   7              		.eabi_attribute 25, 1
   8              		.eabi_attribute 26, 1
   9              		.eabi_attribute 30, 6
  10              		.eabi_attribute 34, 0
  11              		.eabi_attribute 18, 4
  12              		.code	16
  13              		.file	"isr_blink.c"
  14              		.text
  15              	.Ltext0:
  16              		.cfi_sections	.debug_frame
  17              		.global	seconds
  18              		.bss
  19              		.align	2
  20              		.type	seconds, %object
  21              		.size	seconds, 4
  22              	seconds:
  23 0000 00000000 		.space	4
  24              		.global	counter_blink
  25              		.align	1
  26              		.type	counter_blink, %object
  27              		.size	counter_blink, 2
  28              	counter_blink:
  29 0004 0000     		.space	2
  30              		.global	counter_off_millis
  31              		.align	1
  32              		.type	counter_off_millis, %object
  33              		.size	counter_off_millis, 2
  34              	counter_off_millis:
  35 0006 0000     		.space	2
  36              		.global	counter_setup_millis
  37              		.align	1
  38              		.type	counter_setup_millis, %object
  39              		.size	counter_setup_millis, 2
  40              	counter_setup_millis:
  41 0008 0000     		.space	2
  42              		.global	counter_setup_adj_millis
  43              		.align	1
  44              		.type	counter_setup_adj_millis, %object
  45              		.size	counter_setup_adj_millis, 2
  46              	counter_setup_adj_millis:
  47 000a 0000     		.space	2
  48              		.global	counter_button_millis
  49              		.align	1
  50              		.type	counter_button_millis, %object
  51              		.size	counter_button_millis, 2
  52              	counter_button_millis:
  53 000c 0000     		.space	2
  54 000e 0000     		.section	.text.isr_blink_Start,"ax",%progbits
  55              		.align	2
  56              		.global	isr_blink_Start
  57              		.code	16
ARM GAS  C:\Users\ole\AppData\Local\Temp\ccEH75ob.s 			page 2


  58              		.thumb_func
  59              		.type	isr_blink_Start, %function
  60              	isr_blink_Start:
  61              	.LFB33:
  62              		.file 1 ".\\Generated_Source\\PSoC4\\isr_blink.c"
   1:.\Generated_Source\PSoC4/isr_blink.c **** /*******************************************************************************
   2:.\Generated_Source\PSoC4/isr_blink.c **** * File Name: isr_blink.c  
   3:.\Generated_Source\PSoC4/isr_blink.c **** * Version 1.70
   4:.\Generated_Source\PSoC4/isr_blink.c **** *
   5:.\Generated_Source\PSoC4/isr_blink.c **** *  Description:
   6:.\Generated_Source\PSoC4/isr_blink.c **** *   API for controlling the state of an interrupt.
   7:.\Generated_Source\PSoC4/isr_blink.c **** *
   8:.\Generated_Source\PSoC4/isr_blink.c **** *
   9:.\Generated_Source\PSoC4/isr_blink.c **** *  Note:
  10:.\Generated_Source\PSoC4/isr_blink.c **** *
  11:.\Generated_Source\PSoC4/isr_blink.c **** ********************************************************************************
  12:.\Generated_Source\PSoC4/isr_blink.c **** * Copyright 2008-2012, Cypress Semiconductor Corporation.  All rights reserved.
  13:.\Generated_Source\PSoC4/isr_blink.c **** * You may use this file only in accordance with the license, terms, conditions, 
  14:.\Generated_Source\PSoC4/isr_blink.c **** * disclaimers, and limitations in the end user license agreement accompanying 
  15:.\Generated_Source\PSoC4/isr_blink.c **** * the software package with which this file was provided.
  16:.\Generated_Source\PSoC4/isr_blink.c **** *******************************************************************************/
  17:.\Generated_Source\PSoC4/isr_blink.c **** 
  18:.\Generated_Source\PSoC4/isr_blink.c **** 
  19:.\Generated_Source\PSoC4/isr_blink.c **** #include <cydevice_trm.h>
  20:.\Generated_Source\PSoC4/isr_blink.c **** #include <CyLib.h>
  21:.\Generated_Source\PSoC4/isr_blink.c **** #include <isr_blink.h>
  22:.\Generated_Source\PSoC4/isr_blink.c **** 
  23:.\Generated_Source\PSoC4/isr_blink.c **** #if !defined(isr_blink__REMOVED) /* Check for removal by optimization */
  24:.\Generated_Source\PSoC4/isr_blink.c **** 
  25:.\Generated_Source\PSoC4/isr_blink.c **** /*******************************************************************************
  26:.\Generated_Source\PSoC4/isr_blink.c **** *  Place your includes, defines and code here 
  27:.\Generated_Source\PSoC4/isr_blink.c **** ********************************************************************************/
  28:.\Generated_Source\PSoC4/isr_blink.c **** /* `#START isr_blink_intc` */
  29:.\Generated_Source\PSoC4/isr_blink.c **** #include <project.h>
  30:.\Generated_Source\PSoC4/isr_blink.c ****     
  31:.\Generated_Source\PSoC4/isr_blink.c **** enum lights {strobe = 0, collision, navigation, landing};
  32:.\Generated_Source\PSoC4/isr_blink.c **** enum chanels {ch1 = 0, ch2, ch3, ch4, ch5, ch6, ch7, ch8};
  33:.\Generated_Source\PSoC4/isr_blink.c **** 
  34:.\Generated_Source\PSoC4/isr_blink.c **** extern uint8_t pwm_light[4];
  35:.\Generated_Source\PSoC4/isr_blink.c **** extern uint8_t pwm_light_adj[4];
  36:.\Generated_Source\PSoC4/isr_blink.c **** extern uint8_t channelValue[8];
  37:.\Generated_Source\PSoC4/isr_blink.c **** 
  38:.\Generated_Source\PSoC4/isr_blink.c **** extern uint8_t lightOff;
  39:.\Generated_Source\PSoC4/isr_blink.c **** 
  40:.\Generated_Source\PSoC4/isr_blink.c **** uint32_t seconds = 0;
  41:.\Generated_Source\PSoC4/isr_blink.c ****     
  42:.\Generated_Source\PSoC4/isr_blink.c **** extern uint16_t flashTime_StrobeLight;
  43:.\Generated_Source\PSoC4/isr_blink.c **** extern uint16_t pauseTime_StrobeLight;
  44:.\Generated_Source\PSoC4/isr_blink.c **** extern uint16_t flashTime_CollisionLight;
  45:.\Generated_Source\PSoC4/isr_blink.c **** 
  46:.\Generated_Source\PSoC4/isr_blink.c ****     
  47:.\Generated_Source\PSoC4/isr_blink.c ****     
  48:.\Generated_Source\PSoC4/isr_blink.c **** uint16_t counter_blink = 0;
  49:.\Generated_Source\PSoC4/isr_blink.c **** uint16_t counter_off_millis = 0;
  50:.\Generated_Source\PSoC4/isr_blink.c **** uint16_t counter_setup_millis = 0;
  51:.\Generated_Source\PSoC4/isr_blink.c **** uint16_t counter_setup_adj_millis = 0;
  52:.\Generated_Source\PSoC4/isr_blink.c **** uint16_t counter_button_millis = 0;
ARM GAS  C:\Users\ole\AppData\Local\Temp\ccEH75ob.s 			page 3


  53:.\Generated_Source\PSoC4/isr_blink.c ****     
  54:.\Generated_Source\PSoC4/isr_blink.c **** /* `#END` */
  55:.\Generated_Source\PSoC4/isr_blink.c **** 
  56:.\Generated_Source\PSoC4/isr_blink.c **** extern cyisraddress CyRamVectors[CYINT_IRQ_BASE + CY_NUM_INTERRUPTS];
  57:.\Generated_Source\PSoC4/isr_blink.c **** 
  58:.\Generated_Source\PSoC4/isr_blink.c **** /* Declared in startup, used to set unused interrupts to. */
  59:.\Generated_Source\PSoC4/isr_blink.c **** CY_ISR_PROTO(IntDefaultHandler);
  60:.\Generated_Source\PSoC4/isr_blink.c **** 
  61:.\Generated_Source\PSoC4/isr_blink.c **** 
  62:.\Generated_Source\PSoC4/isr_blink.c **** /*******************************************************************************
  63:.\Generated_Source\PSoC4/isr_blink.c **** * Function Name: isr_blink_Start
  64:.\Generated_Source\PSoC4/isr_blink.c **** ********************************************************************************
  65:.\Generated_Source\PSoC4/isr_blink.c **** *
  66:.\Generated_Source\PSoC4/isr_blink.c **** * Summary:
  67:.\Generated_Source\PSoC4/isr_blink.c **** *  Set up the interrupt and enable it.
  68:.\Generated_Source\PSoC4/isr_blink.c **** *
  69:.\Generated_Source\PSoC4/isr_blink.c **** * Parameters:  
  70:.\Generated_Source\PSoC4/isr_blink.c **** *   None
  71:.\Generated_Source\PSoC4/isr_blink.c **** *
  72:.\Generated_Source\PSoC4/isr_blink.c **** * Return:
  73:.\Generated_Source\PSoC4/isr_blink.c **** *   None
  74:.\Generated_Source\PSoC4/isr_blink.c **** *
  75:.\Generated_Source\PSoC4/isr_blink.c **** *******************************************************************************/
  76:.\Generated_Source\PSoC4/isr_blink.c **** void isr_blink_Start(void)
  77:.\Generated_Source\PSoC4/isr_blink.c **** {
  63              		.loc 1 77 0
  64              		.cfi_startproc
  65 0000 80B5     		push	{r7, lr}
  66              		.cfi_def_cfa_offset 8
  67              		.cfi_offset 7, -8
  68              		.cfi_offset 14, -4
  69 0002 00AF     		add	r7, sp, #0
  70              		.cfi_def_cfa_register 7
  78:.\Generated_Source\PSoC4/isr_blink.c ****     /* For all we know the interrupt is active. */
  79:.\Generated_Source\PSoC4/isr_blink.c ****     isr_blink_Disable();
  71              		.loc 1 79 0
  72 0004 FFF7FEFF 		bl	isr_blink_Disable
  80:.\Generated_Source\PSoC4/isr_blink.c **** 
  81:.\Generated_Source\PSoC4/isr_blink.c ****     /* Set the ISR to point to the isr_blink Interrupt. */
  82:.\Generated_Source\PSoC4/isr_blink.c ****     isr_blink_SetVector(&isr_blink_Interrupt);
  73              		.loc 1 82 0
  74 0008 054B     		ldr	r3, .L2
  75 000a 181C     		mov	r0, r3
  76 000c FFF7FEFF 		bl	isr_blink_SetVector
  83:.\Generated_Source\PSoC4/isr_blink.c **** 
  84:.\Generated_Source\PSoC4/isr_blink.c ****     /* Set the priority. */
  85:.\Generated_Source\PSoC4/isr_blink.c ****     isr_blink_SetPriority((uint8)isr_blink_INTC_PRIOR_NUMBER);
  77              		.loc 1 85 0
  78 0010 0320     		mov	r0, #3
  79 0012 FFF7FEFF 		bl	isr_blink_SetPriority
  86:.\Generated_Source\PSoC4/isr_blink.c **** 
  87:.\Generated_Source\PSoC4/isr_blink.c ****     /* Enable it. */
  88:.\Generated_Source\PSoC4/isr_blink.c ****     isr_blink_Enable();
  80              		.loc 1 88 0
  81 0016 FFF7FEFF 		bl	isr_blink_Enable
  89:.\Generated_Source\PSoC4/isr_blink.c **** }
  82              		.loc 1 89 0
ARM GAS  C:\Users\ole\AppData\Local\Temp\ccEH75ob.s 			page 4


  83 001a BD46     		mov	sp, r7
  84              		@ sp needed
  85 001c 80BD     		pop	{r7, pc}
  86              	.L3:
  87 001e C046     		.align	2
  88              	.L2:
  89 0020 00000000 		.word	isr_blink_Interrupt
  90              		.cfi_endproc
  91              	.LFE33:
  92              		.size	isr_blink_Start, .-isr_blink_Start
  93              		.section	.text.isr_blink_StartEx,"ax",%progbits
  94              		.align	2
  95              		.global	isr_blink_StartEx
  96              		.code	16
  97              		.thumb_func
  98              		.type	isr_blink_StartEx, %function
  99              	isr_blink_StartEx:
 100              	.LFB34:
  90:.\Generated_Source\PSoC4/isr_blink.c **** 
  91:.\Generated_Source\PSoC4/isr_blink.c **** 
  92:.\Generated_Source\PSoC4/isr_blink.c **** /*******************************************************************************
  93:.\Generated_Source\PSoC4/isr_blink.c **** * Function Name: isr_blink_StartEx
  94:.\Generated_Source\PSoC4/isr_blink.c **** ********************************************************************************
  95:.\Generated_Source\PSoC4/isr_blink.c **** *
  96:.\Generated_Source\PSoC4/isr_blink.c **** * Summary:
  97:.\Generated_Source\PSoC4/isr_blink.c **** *  Set up the interrupt and enable it.
  98:.\Generated_Source\PSoC4/isr_blink.c **** *
  99:.\Generated_Source\PSoC4/isr_blink.c **** * Parameters:  
 100:.\Generated_Source\PSoC4/isr_blink.c **** *   address: Address of the ISR to set in the interrupt vector table.
 101:.\Generated_Source\PSoC4/isr_blink.c **** *
 102:.\Generated_Source\PSoC4/isr_blink.c **** * Return:
 103:.\Generated_Source\PSoC4/isr_blink.c **** *   None
 104:.\Generated_Source\PSoC4/isr_blink.c **** *
 105:.\Generated_Source\PSoC4/isr_blink.c **** *******************************************************************************/
 106:.\Generated_Source\PSoC4/isr_blink.c **** void isr_blink_StartEx(cyisraddress address)
 107:.\Generated_Source\PSoC4/isr_blink.c **** {
 101              		.loc 1 107 0
 102              		.cfi_startproc
 103 0000 80B5     		push	{r7, lr}
 104              		.cfi_def_cfa_offset 8
 105              		.cfi_offset 7, -8
 106              		.cfi_offset 14, -4
 107 0002 82B0     		sub	sp, sp, #8
 108              		.cfi_def_cfa_offset 16
 109 0004 00AF     		add	r7, sp, #0
 110              		.cfi_def_cfa_register 7
 111 0006 7860     		str	r0, [r7, #4]
 108:.\Generated_Source\PSoC4/isr_blink.c ****     /* For all we know the interrupt is active. */
 109:.\Generated_Source\PSoC4/isr_blink.c ****     isr_blink_Disable();
 112              		.loc 1 109 0
 113 0008 FFF7FEFF 		bl	isr_blink_Disable
 110:.\Generated_Source\PSoC4/isr_blink.c **** 
 111:.\Generated_Source\PSoC4/isr_blink.c ****     /* Set the ISR to point to the isr_blink Interrupt. */
 112:.\Generated_Source\PSoC4/isr_blink.c ****     isr_blink_SetVector(address);
 114              		.loc 1 112 0
 115 000c 7B68     		ldr	r3, [r7, #4]
 116 000e 181C     		mov	r0, r3
ARM GAS  C:\Users\ole\AppData\Local\Temp\ccEH75ob.s 			page 5


 117 0010 FFF7FEFF 		bl	isr_blink_SetVector
 113:.\Generated_Source\PSoC4/isr_blink.c **** 
 114:.\Generated_Source\PSoC4/isr_blink.c ****     /* Set the priority. */
 115:.\Generated_Source\PSoC4/isr_blink.c ****     isr_blink_SetPriority((uint8)isr_blink_INTC_PRIOR_NUMBER);
 118              		.loc 1 115 0
 119 0014 0320     		mov	r0, #3
 120 0016 FFF7FEFF 		bl	isr_blink_SetPriority
 116:.\Generated_Source\PSoC4/isr_blink.c **** 
 117:.\Generated_Source\PSoC4/isr_blink.c ****     /* Enable it. */
 118:.\Generated_Source\PSoC4/isr_blink.c ****     isr_blink_Enable();
 121              		.loc 1 118 0
 122 001a FFF7FEFF 		bl	isr_blink_Enable
 119:.\Generated_Source\PSoC4/isr_blink.c **** }
 123              		.loc 1 119 0
 124 001e BD46     		mov	sp, r7
 125 0020 02B0     		add	sp, sp, #8
 126              		@ sp needed
 127 0022 80BD     		pop	{r7, pc}
 128              		.cfi_endproc
 129              	.LFE34:
 130              		.size	isr_blink_StartEx, .-isr_blink_StartEx
 131              		.section	.text.isr_blink_Stop,"ax",%progbits
 132              		.align	2
 133              		.global	isr_blink_Stop
 134              		.code	16
 135              		.thumb_func
 136              		.type	isr_blink_Stop, %function
 137              	isr_blink_Stop:
 138              	.LFB35:
 120:.\Generated_Source\PSoC4/isr_blink.c **** 
 121:.\Generated_Source\PSoC4/isr_blink.c **** 
 122:.\Generated_Source\PSoC4/isr_blink.c **** /*******************************************************************************
 123:.\Generated_Source\PSoC4/isr_blink.c **** * Function Name: isr_blink_Stop
 124:.\Generated_Source\PSoC4/isr_blink.c **** ********************************************************************************
 125:.\Generated_Source\PSoC4/isr_blink.c **** *
 126:.\Generated_Source\PSoC4/isr_blink.c **** * Summary:
 127:.\Generated_Source\PSoC4/isr_blink.c **** *   Disables and removes the interrupt.
 128:.\Generated_Source\PSoC4/isr_blink.c **** *
 129:.\Generated_Source\PSoC4/isr_blink.c **** * Parameters:  
 130:.\Generated_Source\PSoC4/isr_blink.c **** *
 131:.\Generated_Source\PSoC4/isr_blink.c **** * Return:
 132:.\Generated_Source\PSoC4/isr_blink.c **** *   None
 133:.\Generated_Source\PSoC4/isr_blink.c **** *
 134:.\Generated_Source\PSoC4/isr_blink.c **** *******************************************************************************/
 135:.\Generated_Source\PSoC4/isr_blink.c **** void isr_blink_Stop(void)
 136:.\Generated_Source\PSoC4/isr_blink.c **** {
 139              		.loc 1 136 0
 140              		.cfi_startproc
 141 0000 80B5     		push	{r7, lr}
 142              		.cfi_def_cfa_offset 8
 143              		.cfi_offset 7, -8
 144              		.cfi_offset 14, -4
 145 0002 00AF     		add	r7, sp, #0
 146              		.cfi_def_cfa_register 7
 137:.\Generated_Source\PSoC4/isr_blink.c ****     /* Disable this interrupt. */
 138:.\Generated_Source\PSoC4/isr_blink.c ****     isr_blink_Disable();
 147              		.loc 1 138 0
ARM GAS  C:\Users\ole\AppData\Local\Temp\ccEH75ob.s 			page 6


 148 0004 FFF7FEFF 		bl	isr_blink_Disable
 139:.\Generated_Source\PSoC4/isr_blink.c **** 
 140:.\Generated_Source\PSoC4/isr_blink.c ****     /* Set the ISR to point to the passive one. */
 141:.\Generated_Source\PSoC4/isr_blink.c ****     isr_blink_SetVector(&IntDefaultHandler);
 149              		.loc 1 141 0
 150 0008 024B     		ldr	r3, .L6
 151 000a 181C     		mov	r0, r3
 152 000c FFF7FEFF 		bl	isr_blink_SetVector
 142:.\Generated_Source\PSoC4/isr_blink.c **** }
 153              		.loc 1 142 0
 154 0010 BD46     		mov	sp, r7
 155              		@ sp needed
 156 0012 80BD     		pop	{r7, pc}
 157              	.L7:
 158              		.align	2
 159              	.L6:
 160 0014 00000000 		.word	IntDefaultHandler
 161              		.cfi_endproc
 162              	.LFE35:
 163              		.size	isr_blink_Stop, .-isr_blink_Stop
 164              		.section	.text.isr_blink_Interrupt,"ax",%progbits
 165              		.align	2
 166              		.global	isr_blink_Interrupt
 167              		.code	16
 168              		.thumb_func
 169              		.type	isr_blink_Interrupt, %function
 170              	isr_blink_Interrupt:
 171              	.LFB36:
 143:.\Generated_Source\PSoC4/isr_blink.c **** 
 144:.\Generated_Source\PSoC4/isr_blink.c **** 
 145:.\Generated_Source\PSoC4/isr_blink.c **** /*******************************************************************************
 146:.\Generated_Source\PSoC4/isr_blink.c **** * Function Name: isr_blink_Interrupt
 147:.\Generated_Source\PSoC4/isr_blink.c **** ********************************************************************************
 148:.\Generated_Source\PSoC4/isr_blink.c **** *
 149:.\Generated_Source\PSoC4/isr_blink.c **** * Summary:
 150:.\Generated_Source\PSoC4/isr_blink.c **** *   The default Interrupt Service Routine for isr_blink.
 151:.\Generated_Source\PSoC4/isr_blink.c **** *
 152:.\Generated_Source\PSoC4/isr_blink.c **** *   Add custom code between the coments to keep the next version of this file
 153:.\Generated_Source\PSoC4/isr_blink.c **** *   from over writting your code.
 154:.\Generated_Source\PSoC4/isr_blink.c **** *
 155:.\Generated_Source\PSoC4/isr_blink.c **** * Parameters:  
 156:.\Generated_Source\PSoC4/isr_blink.c **** *   None
 157:.\Generated_Source\PSoC4/isr_blink.c **** *
 158:.\Generated_Source\PSoC4/isr_blink.c **** * Return:
 159:.\Generated_Source\PSoC4/isr_blink.c **** *   None
 160:.\Generated_Source\PSoC4/isr_blink.c **** *
 161:.\Generated_Source\PSoC4/isr_blink.c **** *******************************************************************************/
 162:.\Generated_Source\PSoC4/isr_blink.c **** CY_ISR(isr_blink_Interrupt)
 163:.\Generated_Source\PSoC4/isr_blink.c **** {
 172              		.loc 1 163 0
 173              		.cfi_startproc
 174 0000 80B5     		push	{r7, lr}
 175              		.cfi_def_cfa_offset 8
 176              		.cfi_offset 7, -8
 177              		.cfi_offset 14, -4
 178 0002 00AF     		add	r7, sp, #0
 179              		.cfi_def_cfa_register 7
ARM GAS  C:\Users\ole\AppData\Local\Temp\ccEH75ob.s 			page 7


 164:.\Generated_Source\PSoC4/isr_blink.c ****     /*  Place your Interrupt code here. */
 165:.\Generated_Source\PSoC4/isr_blink.c ****     /* `#START isr_blink_Interrupt` */
 166:.\Generated_Source\PSoC4/isr_blink.c **** 
 167:.\Generated_Source\PSoC4/isr_blink.c ****     
 168:.\Generated_Source\PSoC4/isr_blink.c ****     isr_blink_ClearPending();
 180              		.loc 1 168 0
 181 0004 FFF7FEFF 		bl	isr_blink_ClearPending
 169:.\Generated_Source\PSoC4/isr_blink.c ****     Blink_Timer_ClearInterrupt(Blink_Timer_INTR_MASK_TC);
 182              		.loc 1 169 0
 183 0008 0120     		mov	r0, #1
 184 000a FFF7FEFF 		bl	Blink_Timer_ClearInterrupt
 170:.\Generated_Source\PSoC4/isr_blink.c ****     //UART_2_UartPutChar('I');
 171:.\Generated_Source\PSoC4/isr_blink.c **** 
 172:.\Generated_Source\PSoC4/isr_blink.c ****     if (lightOff == 0)
 185              		.loc 1 172 0
 186 000e 5A4B     		ldr	r3, .L24
 187 0010 1B78     		ldrb	r3, [r3]
 188 0012 002B     		cmp	r3, #0
 189 0014 00D0     		beq	.LCB102
 190 0016 64E0     		b	.L9	@long jump
 191              	.LCB102:
 173:.\Generated_Source\PSoC4/isr_blink.c ****     {
 174:.\Generated_Source\PSoC4/isr_blink.c ****         pwm_light[landing] = pwm_light_adj[landing];
 192              		.loc 1 174 0
 193 0018 584B     		ldr	r3, .L24+4
 194 001a DA78     		ldrb	r2, [r3, #3]
 195 001c 584B     		ldr	r3, .L24+8
 196 001e DA70     		strb	r2, [r3, #3]
 175:.\Generated_Source\PSoC4/isr_blink.c ****         pwm_light[navigation] = pwm_light_adj[navigation];
 197              		.loc 1 175 0
 198 0020 564B     		ldr	r3, .L24+4
 199 0022 9A78     		ldrb	r2, [r3, #2]
 200 0024 564B     		ldr	r3, .L24+8
 201 0026 9A70     		strb	r2, [r3, #2]
 176:.\Generated_Source\PSoC4/isr_blink.c ****         
 177:.\Generated_Source\PSoC4/isr_blink.c ****         if (counter_blink == 0)
 202              		.loc 1 177 0
 203 0028 564B     		ldr	r3, .L24+12
 204 002a 1B88     		ldrh	r3, [r3]
 205 002c 002B     		cmp	r3, #0
 206 002e 05D1     		bne	.L10
 178:.\Generated_Source\PSoC4/isr_blink.c ****         {
 179:.\Generated_Source\PSoC4/isr_blink.c ****             pwm_light[collision] = 0x00;
 207              		.loc 1 179 0
 208 0030 534B     		ldr	r3, .L24+8
 209 0032 0022     		mov	r2, #0
 210 0034 5A70     		strb	r2, [r3, #1]
 180:.\Generated_Source\PSoC4/isr_blink.c ****             pwm_light[strobe] = 0x00;
 211              		.loc 1 180 0
 212 0036 524B     		ldr	r3, .L24+8
 213 0038 0022     		mov	r2, #0
 214 003a 1A70     		strb	r2, [r3]
 215              	.L10:
 181:.\Generated_Source\PSoC4/isr_blink.c ****         }
 182:.\Generated_Source\PSoC4/isr_blink.c ****         
 183:.\Generated_Source\PSoC4/isr_blink.c ****         if (counter_blink == 600)
 216              		.loc 1 183 0
ARM GAS  C:\Users\ole\AppData\Local\Temp\ccEH75ob.s 			page 8


 217 003c 514B     		ldr	r3, .L24+12
 218 003e 1A88     		ldrh	r2, [r3]
 219 0040 9623     		mov	r3, #150
 220 0042 9B00     		lsl	r3, r3, #2
 221 0044 9A42     		cmp	r2, r3
 222 0046 03D1     		bne	.L11
 184:.\Generated_Source\PSoC4/isr_blink.c ****         {
 185:.\Generated_Source\PSoC4/isr_blink.c ****             pwm_light[collision] = pwm_light_adj[collision];
 223              		.loc 1 185 0
 224 0048 4C4B     		ldr	r3, .L24+4
 225 004a 5A78     		ldrb	r2, [r3, #1]
 226 004c 4C4B     		ldr	r3, .L24+8
 227 004e 5A70     		strb	r2, [r3, #1]
 228              	.L11:
 186:.\Generated_Source\PSoC4/isr_blink.c ****         }
 187:.\Generated_Source\PSoC4/isr_blink.c ****         if (counter_blink == 600 + flashTime_CollisionLight)
 229              		.loc 1 187 0
 230 0050 4C4B     		ldr	r3, .L24+12
 231 0052 1B88     		ldrh	r3, [r3]
 232 0054 1A1C     		mov	r2, r3
 233 0056 4C4B     		ldr	r3, .L24+16
 234 0058 1B88     		ldrh	r3, [r3]
 235 005a 9620     		mov	r0, #150
 236 005c 8000     		lsl	r0, r0, #2
 237 005e 1B18     		add	r3, r3, r0
 238 0060 9A42     		cmp	r2, r3
 239 0062 02D1     		bne	.L12
 188:.\Generated_Source\PSoC4/isr_blink.c ****         {
 189:.\Generated_Source\PSoC4/isr_blink.c ****             pwm_light[collision] = 0x00;
 240              		.loc 1 189 0
 241 0064 464B     		ldr	r3, .L24+8
 242 0066 0022     		mov	r2, #0
 243 0068 5A70     		strb	r2, [r3, #1]
 244              	.L12:
 190:.\Generated_Source\PSoC4/isr_blink.c ****         }
 191:.\Generated_Source\PSoC4/isr_blink.c ****         
 192:.\Generated_Source\PSoC4/isr_blink.c ****         if (counter_blink == 1020)
 245              		.loc 1 192 0
 246 006a 464B     		ldr	r3, .L24+12
 247 006c 1A88     		ldrh	r2, [r3]
 248 006e FF23     		mov	r3, #255
 249 0070 9B00     		lsl	r3, r3, #2
 250 0072 9A42     		cmp	r2, r3
 251 0074 03D1     		bne	.L13
 193:.\Generated_Source\PSoC4/isr_blink.c ****         {
 194:.\Generated_Source\PSoC4/isr_blink.c ****              pwm_light[strobe] =  pwm_light_adj[strobe];
 252              		.loc 1 194 0
 253 0076 414B     		ldr	r3, .L24+4
 254 0078 1A78     		ldrb	r2, [r3]
 255 007a 414B     		ldr	r3, .L24+8
 256 007c 1A70     		strb	r2, [r3]
 257              	.L13:
 195:.\Generated_Source\PSoC4/isr_blink.c ****         }
 196:.\Generated_Source\PSoC4/isr_blink.c ****         if (counter_blink == 1020 + flashTime_StrobeLight)
 258              		.loc 1 196 0
 259 007e 414B     		ldr	r3, .L24+12
 260 0080 1B88     		ldrh	r3, [r3]
ARM GAS  C:\Users\ole\AppData\Local\Temp\ccEH75ob.s 			page 9


 261 0082 1A1C     		mov	r2, r3
 262 0084 414B     		ldr	r3, .L24+20
 263 0086 1B88     		ldrh	r3, [r3]
 264 0088 FF21     		mov	r1, #255
 265 008a 8900     		lsl	r1, r1, #2
 266 008c 5B18     		add	r3, r3, r1
 267 008e 9A42     		cmp	r2, r3
 268 0090 02D1     		bne	.L14
 197:.\Generated_Source\PSoC4/isr_blink.c ****         {
 198:.\Generated_Source\PSoC4/isr_blink.c ****              pwm_light[strobe] = 0x00;
 269              		.loc 1 198 0
 270 0092 3B4B     		ldr	r3, .L24+8
 271 0094 0022     		mov	r2, #0
 272 0096 1A70     		strb	r2, [r3]
 273              	.L14:
 199:.\Generated_Source\PSoC4/isr_blink.c ****         }
 200:.\Generated_Source\PSoC4/isr_blink.c ****         if (counter_blink == 1020 + flashTime_StrobeLight + 60)
 274              		.loc 1 200 0
 275 0098 3A4B     		ldr	r3, .L24+12
 276 009a 1B88     		ldrh	r3, [r3]
 277 009c 1A1C     		mov	r2, r3
 278 009e 3B4B     		ldr	r3, .L24+20
 279 00a0 1B88     		ldrh	r3, [r3]
 280 00a2 8720     		mov	r0, #135
 281 00a4 C000     		lsl	r0, r0, #3
 282 00a6 1B18     		add	r3, r3, r0
 283 00a8 9A42     		cmp	r2, r3
 284 00aa 03D1     		bne	.L15
 201:.\Generated_Source\PSoC4/isr_blink.c ****         {
 202:.\Generated_Source\PSoC4/isr_blink.c ****              pwm_light[strobe] =  pwm_light_adj[strobe];
 285              		.loc 1 202 0
 286 00ac 334B     		ldr	r3, .L24+4
 287 00ae 1A78     		ldrb	r2, [r3]
 288 00b0 334B     		ldr	r3, .L24+8
 289 00b2 1A70     		strb	r2, [r3]
 290              	.L15:
 203:.\Generated_Source\PSoC4/isr_blink.c ****         }
 204:.\Generated_Source\PSoC4/isr_blink.c ****         if (counter_blink == 1020 + flashTime_StrobeLight + pauseTime_StrobeLight + flashTime_Strob
 291              		.loc 1 204 0
 292 00b4 334B     		ldr	r3, .L24+12
 293 00b6 1B88     		ldrh	r3, [r3]
 294 00b8 1A1C     		mov	r2, r3
 295 00ba 344B     		ldr	r3, .L24+20
 296 00bc 1B88     		ldrh	r3, [r3]
 297 00be FF20     		mov	r0, #255
 298 00c0 8000     		lsl	r0, r0, #2
 299 00c2 1918     		add	r1, r3, r0
 300 00c4 324B     		ldr	r3, .L24+24
 301 00c6 1B88     		ldrh	r3, [r3]
 302 00c8 C918     		add	r1, r1, r3
 303 00ca 304B     		ldr	r3, .L24+20
 304 00cc 1B88     		ldrh	r3, [r3]
 305 00ce CB18     		add	r3, r1, r3
 306 00d0 9A42     		cmp	r2, r3
 307 00d2 0FD1     		bne	.L17
 205:.\Generated_Source\PSoC4/isr_blink.c ****         {
 206:.\Generated_Source\PSoC4/isr_blink.c ****              pwm_light[strobe] = 0x00;
ARM GAS  C:\Users\ole\AppData\Local\Temp\ccEH75ob.s 			page 10


 308              		.loc 1 206 0
 309 00d4 2A4B     		ldr	r3, .L24+8
 310 00d6 0022     		mov	r2, #0
 311 00d8 1A70     		strb	r2, [r3]
 207:.\Generated_Source\PSoC4/isr_blink.c ****             counter_blink = 0;
 312              		.loc 1 207 0
 313 00da 2A4B     		ldr	r3, .L24+12
 314 00dc 0022     		mov	r2, #0
 315 00de 1A80     		strh	r2, [r3]
 316 00e0 08E0     		b	.L17
 317              	.L9:
 208:.\Generated_Source\PSoC4/isr_blink.c ****         }
 209:.\Generated_Source\PSoC4/isr_blink.c ****     }else if (counter_blink == 1200)
 318              		.loc 1 209 0
 319 00e2 284B     		ldr	r3, .L24+12
 320 00e4 1A88     		ldrh	r2, [r3]
 321 00e6 9623     		mov	r3, #150
 322 00e8 DB00     		lsl	r3, r3, #3
 323 00ea 9A42     		cmp	r2, r3
 324 00ec 02D1     		bne	.L17
 210:.\Generated_Source\PSoC4/isr_blink.c ****         counter_blink = 0;
 325              		.loc 1 210 0
 326 00ee 254B     		ldr	r3, .L24+12
 327 00f0 0022     		mov	r2, #0
 328 00f2 1A80     		strh	r2, [r3]
 329              	.L17:
 211:.\Generated_Source\PSoC4/isr_blink.c ****     
 212:.\Generated_Source\PSoC4/isr_blink.c ****     if (channelValue[ch3] == 0 && channelValue[ch2] == 255) // left stick in lower right corner
 330              		.loc 1 212 0
 331 00f4 274B     		ldr	r3, .L24+28
 332 00f6 9B78     		ldrb	r3, [r3, #2]
 333 00f8 002B     		cmp	r3, #0
 334 00fa 0AD1     		bne	.L18
 335              		.loc 1 212 0 is_stmt 0 discriminator 1
 336 00fc 254B     		ldr	r3, .L24+28
 337 00fe 5B78     		ldrb	r3, [r3, #1]
 338 0100 FF2B     		cmp	r3, #255
 339 0102 06D1     		bne	.L18
 213:.\Generated_Source\PSoC4/isr_blink.c ****     {
 214:.\Generated_Source\PSoC4/isr_blink.c ****         counter_setup_adj_millis++;
 340              		.loc 1 214 0 is_stmt 1
 341 0104 244B     		ldr	r3, .L24+32
 342 0106 1B88     		ldrh	r3, [r3]
 343 0108 0133     		add	r3, r3, #1
 344 010a 9AB2     		uxth	r2, r3
 345 010c 224B     		ldr	r3, .L24+32
 346 010e 1A80     		strh	r2, [r3]
 347 0110 02E0     		b	.L19
 348              	.L18:
 215:.\Generated_Source\PSoC4/isr_blink.c ****     }
 216:.\Generated_Source\PSoC4/isr_blink.c ****     else
 217:.\Generated_Source\PSoC4/isr_blink.c ****     {
 218:.\Generated_Source\PSoC4/isr_blink.c ****         counter_setup_millis = 0;
 349              		.loc 1 218 0
 350 0112 224B     		ldr	r3, .L24+36
 351 0114 0022     		mov	r2, #0
 352 0116 1A80     		strh	r2, [r3]
ARM GAS  C:\Users\ole\AppData\Local\Temp\ccEH75ob.s 			page 11


 353              	.L19:
 219:.\Generated_Source\PSoC4/isr_blink.c ****     }
 220:.\Generated_Source\PSoC4/isr_blink.c ****     
 221:.\Generated_Source\PSoC4/isr_blink.c ****     if (channelValue[ch3] == 0 && channelValue[ch2] == 0) // left stick in lower right corner
 354              		.loc 1 221 0
 355 0118 1E4B     		ldr	r3, .L24+28
 356 011a 9B78     		ldrb	r3, [r3, #2]
 357 011c 002B     		cmp	r3, #0
 358 011e 0AD1     		bne	.L20
 359              		.loc 1 221 0 is_stmt 0 discriminator 1
 360 0120 1C4B     		ldr	r3, .L24+28
 361 0122 5B78     		ldrb	r3, [r3, #1]
 362 0124 002B     		cmp	r3, #0
 363 0126 06D1     		bne	.L20
 222:.\Generated_Source\PSoC4/isr_blink.c ****     {
 223:.\Generated_Source\PSoC4/isr_blink.c ****         counter_setup_millis++;
 364              		.loc 1 223 0 is_stmt 1
 365 0128 1C4B     		ldr	r3, .L24+36
 366 012a 1B88     		ldrh	r3, [r3]
 367 012c 0133     		add	r3, r3, #1
 368 012e 9AB2     		uxth	r2, r3
 369 0130 1A4B     		ldr	r3, .L24+36
 370 0132 1A80     		strh	r2, [r3]
 371 0134 02E0     		b	.L21
 372              	.L20:
 224:.\Generated_Source\PSoC4/isr_blink.c ****     }
 225:.\Generated_Source\PSoC4/isr_blink.c ****     else
 226:.\Generated_Source\PSoC4/isr_blink.c ****     {
 227:.\Generated_Source\PSoC4/isr_blink.c ****         counter_setup_millis = 0;
 373              		.loc 1 227 0
 374 0136 194B     		ldr	r3, .L24+36
 375 0138 0022     		mov	r2, #0
 376 013a 1A80     		strh	r2, [r3]
 377              	.L21:
 228:.\Generated_Source\PSoC4/isr_blink.c ****     }
 229:.\Generated_Source\PSoC4/isr_blink.c ****     
 230:.\Generated_Source\PSoC4/isr_blink.c ****     if (Button_Read() == 0) // Button Pressed
 378              		.loc 1 230 0
 379 013c FFF7FEFF 		bl	Button_Read
 380 0140 031C     		mov	r3, r0
 381 0142 002B     		cmp	r3, #0
 382 0144 06D1     		bne	.L22
 231:.\Generated_Source\PSoC4/isr_blink.c ****     {
 232:.\Generated_Source\PSoC4/isr_blink.c ****         counter_button_millis++;
 383              		.loc 1 232 0
 384 0146 164B     		ldr	r3, .L24+40
 385 0148 1B88     		ldrh	r3, [r3]
 386 014a 0133     		add	r3, r3, #1
 387 014c 9AB2     		uxth	r2, r3
 388 014e 144B     		ldr	r3, .L24+40
 389 0150 1A80     		strh	r2, [r3]
 390 0152 02E0     		b	.L23
 391              	.L22:
 233:.\Generated_Source\PSoC4/isr_blink.c ****     }
 234:.\Generated_Source\PSoC4/isr_blink.c ****     else
 235:.\Generated_Source\PSoC4/isr_blink.c ****     {
 236:.\Generated_Source\PSoC4/isr_blink.c ****         counter_button_millis = 0;
ARM GAS  C:\Users\ole\AppData\Local\Temp\ccEH75ob.s 			page 12


 392              		.loc 1 236 0
 393 0154 124B     		ldr	r3, .L24+40
 394 0156 0022     		mov	r2, #0
 395 0158 1A80     		strh	r2, [r3]
 396              	.L23:
 237:.\Generated_Source\PSoC4/isr_blink.c ****     }
 238:.\Generated_Source\PSoC4/isr_blink.c ****     counter_blink++;
 397              		.loc 1 238 0
 398 015a 0A4B     		ldr	r3, .L24+12
 399 015c 1B88     		ldrh	r3, [r3]
 400 015e 0133     		add	r3, r3, #1
 401 0160 9AB2     		uxth	r2, r3
 402 0162 084B     		ldr	r3, .L24+12
 403 0164 1A80     		strh	r2, [r3]
 239:.\Generated_Source\PSoC4/isr_blink.c ****     counter_off_millis++;
 404              		.loc 1 239 0
 405 0166 0F4B     		ldr	r3, .L24+44
 406 0168 1B88     		ldrh	r3, [r3]
 407 016a 0133     		add	r3, r3, #1
 408 016c 9AB2     		uxth	r2, r3
 409 016e 0D4B     		ldr	r3, .L24+44
 410 0170 1A80     		strh	r2, [r3]
 240:.\Generated_Source\PSoC4/isr_blink.c ****     /* `#END` */
 241:.\Generated_Source\PSoC4/isr_blink.c **** }
 411              		.loc 1 241 0
 412 0172 BD46     		mov	sp, r7
 413              		@ sp needed
 414 0174 80BD     		pop	{r7, pc}
 415              	.L25:
 416 0176 C046     		.align	2
 417              	.L24:
 418 0178 00000000 		.word	lightOff
 419 017c 00000000 		.word	pwm_light_adj
 420 0180 00000000 		.word	pwm_light
 421 0184 00000000 		.word	counter_blink
 422 0188 00000000 		.word	flashTime_CollisionLight
 423 018c 00000000 		.word	flashTime_StrobeLight
 424 0190 00000000 		.word	pauseTime_StrobeLight
 425 0194 00000000 		.word	channelValue
 426 0198 00000000 		.word	counter_setup_adj_millis
 427 019c 00000000 		.word	counter_setup_millis
 428 01a0 00000000 		.word	counter_button_millis
 429 01a4 00000000 		.word	counter_off_millis
 430              		.cfi_endproc
 431              	.LFE36:
 432              		.size	isr_blink_Interrupt, .-isr_blink_Interrupt
 433              		.section	.text.isr_blink_SetVector,"ax",%progbits
 434              		.align	2
 435              		.global	isr_blink_SetVector
 436              		.code	16
 437              		.thumb_func
 438              		.type	isr_blink_SetVector, %function
 439              	isr_blink_SetVector:
 440              	.LFB37:
 242:.\Generated_Source\PSoC4/isr_blink.c **** 
 243:.\Generated_Source\PSoC4/isr_blink.c **** 
 244:.\Generated_Source\PSoC4/isr_blink.c **** /*******************************************************************************
ARM GAS  C:\Users\ole\AppData\Local\Temp\ccEH75ob.s 			page 13


 245:.\Generated_Source\PSoC4/isr_blink.c **** * Function Name: isr_blink_SetVector
 246:.\Generated_Source\PSoC4/isr_blink.c **** ********************************************************************************
 247:.\Generated_Source\PSoC4/isr_blink.c **** *
 248:.\Generated_Source\PSoC4/isr_blink.c **** * Summary:
 249:.\Generated_Source\PSoC4/isr_blink.c **** *   Change the ISR vector for the Interrupt. Note calling isr_blink_Start
 250:.\Generated_Source\PSoC4/isr_blink.c **** *   will override any effect this method would have had. To set the vector 
 251:.\Generated_Source\PSoC4/isr_blink.c **** *   before the component has been started use isr_blink_StartEx instead.
 252:.\Generated_Source\PSoC4/isr_blink.c **** *
 253:.\Generated_Source\PSoC4/isr_blink.c **** * Parameters:
 254:.\Generated_Source\PSoC4/isr_blink.c **** *   address: Address of the ISR to set in the interrupt vector table.
 255:.\Generated_Source\PSoC4/isr_blink.c **** *
 256:.\Generated_Source\PSoC4/isr_blink.c **** * Return:
 257:.\Generated_Source\PSoC4/isr_blink.c **** *   None
 258:.\Generated_Source\PSoC4/isr_blink.c **** *
 259:.\Generated_Source\PSoC4/isr_blink.c **** *******************************************************************************/
 260:.\Generated_Source\PSoC4/isr_blink.c **** void isr_blink_SetVector(cyisraddress address)
 261:.\Generated_Source\PSoC4/isr_blink.c **** {
 441              		.loc 1 261 0
 442              		.cfi_startproc
 443 0000 80B5     		push	{r7, lr}
 444              		.cfi_def_cfa_offset 8
 445              		.cfi_offset 7, -8
 446              		.cfi_offset 14, -4
 447 0002 82B0     		sub	sp, sp, #8
 448              		.cfi_def_cfa_offset 16
 449 0004 00AF     		add	r7, sp, #0
 450              		.cfi_def_cfa_register 7
 451 0006 7860     		str	r0, [r7, #4]
 262:.\Generated_Source\PSoC4/isr_blink.c ****     CyRamVectors[CYINT_IRQ_BASE + isr_blink__INTC_NUMBER] = address;
 452              		.loc 1 262 0
 453 0008 034A     		ldr	r2, .L27
 454 000a 8423     		mov	r3, #132
 455 000c 7968     		ldr	r1, [r7, #4]
 456 000e D150     		str	r1, [r2, r3]
 263:.\Generated_Source\PSoC4/isr_blink.c **** }
 457              		.loc 1 263 0
 458 0010 BD46     		mov	sp, r7
 459 0012 02B0     		add	sp, sp, #8
 460              		@ sp needed
 461 0014 80BD     		pop	{r7, pc}
 462              	.L28:
 463 0016 C046     		.align	2
 464              	.L27:
 465 0018 00000000 		.word	CyRamVectors
 466              		.cfi_endproc
 467              	.LFE37:
 468              		.size	isr_blink_SetVector, .-isr_blink_SetVector
 469              		.section	.text.isr_blink_GetVector,"ax",%progbits
 470              		.align	2
 471              		.global	isr_blink_GetVector
 472              		.code	16
 473              		.thumb_func
 474              		.type	isr_blink_GetVector, %function
 475              	isr_blink_GetVector:
 476              	.LFB38:
 264:.\Generated_Source\PSoC4/isr_blink.c **** 
 265:.\Generated_Source\PSoC4/isr_blink.c **** 
ARM GAS  C:\Users\ole\AppData\Local\Temp\ccEH75ob.s 			page 14


 266:.\Generated_Source\PSoC4/isr_blink.c **** /*******************************************************************************
 267:.\Generated_Source\PSoC4/isr_blink.c **** * Function Name: isr_blink_GetVector
 268:.\Generated_Source\PSoC4/isr_blink.c **** ********************************************************************************
 269:.\Generated_Source\PSoC4/isr_blink.c **** *
 270:.\Generated_Source\PSoC4/isr_blink.c **** * Summary:
 271:.\Generated_Source\PSoC4/isr_blink.c **** *   Gets the "address" of the current ISR vector for the Interrupt.
 272:.\Generated_Source\PSoC4/isr_blink.c **** *
 273:.\Generated_Source\PSoC4/isr_blink.c **** * Parameters:
 274:.\Generated_Source\PSoC4/isr_blink.c **** *   None
 275:.\Generated_Source\PSoC4/isr_blink.c **** *
 276:.\Generated_Source\PSoC4/isr_blink.c **** * Return:
 277:.\Generated_Source\PSoC4/isr_blink.c **** *   Address of the ISR in the interrupt vector table.
 278:.\Generated_Source\PSoC4/isr_blink.c **** *
 279:.\Generated_Source\PSoC4/isr_blink.c **** *******************************************************************************/
 280:.\Generated_Source\PSoC4/isr_blink.c **** cyisraddress isr_blink_GetVector(void)
 281:.\Generated_Source\PSoC4/isr_blink.c **** {
 477              		.loc 1 281 0
 478              		.cfi_startproc
 479 0000 80B5     		push	{r7, lr}
 480              		.cfi_def_cfa_offset 8
 481              		.cfi_offset 7, -8
 482              		.cfi_offset 14, -4
 483 0002 00AF     		add	r7, sp, #0
 484              		.cfi_def_cfa_register 7
 282:.\Generated_Source\PSoC4/isr_blink.c ****     return CyRamVectors[CYINT_IRQ_BASE + isr_blink__INTC_NUMBER];
 485              		.loc 1 282 0
 486 0004 024A     		ldr	r2, .L31
 487 0006 8423     		mov	r3, #132
 488 0008 D358     		ldr	r3, [r2, r3]
 283:.\Generated_Source\PSoC4/isr_blink.c **** }
 489              		.loc 1 283 0
 490 000a 181C     		mov	r0, r3
 491 000c BD46     		mov	sp, r7
 492              		@ sp needed
 493 000e 80BD     		pop	{r7, pc}
 494              	.L32:
 495              		.align	2
 496              	.L31:
 497 0010 00000000 		.word	CyRamVectors
 498              		.cfi_endproc
 499              	.LFE38:
 500              		.size	isr_blink_GetVector, .-isr_blink_GetVector
 501              		.section	.text.isr_blink_SetPriority,"ax",%progbits
 502              		.align	2
 503              		.global	isr_blink_SetPriority
 504              		.code	16
 505              		.thumb_func
 506              		.type	isr_blink_SetPriority, %function
 507              	isr_blink_SetPriority:
 508              	.LFB39:
 284:.\Generated_Source\PSoC4/isr_blink.c **** 
 285:.\Generated_Source\PSoC4/isr_blink.c **** 
 286:.\Generated_Source\PSoC4/isr_blink.c **** /*******************************************************************************
 287:.\Generated_Source\PSoC4/isr_blink.c **** * Function Name: isr_blink_SetPriority
 288:.\Generated_Source\PSoC4/isr_blink.c **** ********************************************************************************
 289:.\Generated_Source\PSoC4/isr_blink.c **** *
 290:.\Generated_Source\PSoC4/isr_blink.c **** * Summary:
ARM GAS  C:\Users\ole\AppData\Local\Temp\ccEH75ob.s 			page 15


 291:.\Generated_Source\PSoC4/isr_blink.c **** *   Sets the Priority of the Interrupt. Note calling isr_blink_Start
 292:.\Generated_Source\PSoC4/isr_blink.c **** *   or isr_blink_StartEx will override any effect this method would 
 293:.\Generated_Source\PSoC4/isr_blink.c **** *   have had. This method should only be called after isr_blink_Start or 
 294:.\Generated_Source\PSoC4/isr_blink.c **** *   isr_blink_StartEx has been called. To set the initial
 295:.\Generated_Source\PSoC4/isr_blink.c **** *   priority for the component use the cydwr file in the tool.
 296:.\Generated_Source\PSoC4/isr_blink.c **** *
 297:.\Generated_Source\PSoC4/isr_blink.c **** * Parameters:
 298:.\Generated_Source\PSoC4/isr_blink.c **** *   priority: Priority of the interrupt. 0 - 3, 0 being the highest.
 299:.\Generated_Source\PSoC4/isr_blink.c **** *
 300:.\Generated_Source\PSoC4/isr_blink.c **** * Return:
 301:.\Generated_Source\PSoC4/isr_blink.c **** *   None
 302:.\Generated_Source\PSoC4/isr_blink.c **** *
 303:.\Generated_Source\PSoC4/isr_blink.c **** *******************************************************************************/
 304:.\Generated_Source\PSoC4/isr_blink.c **** void isr_blink_SetPriority(uint8 priority)
 305:.\Generated_Source\PSoC4/isr_blink.c **** {
 509              		.loc 1 305 0
 510              		.cfi_startproc
 511 0000 90B5     		push	{r4, r7, lr}
 512              		.cfi_def_cfa_offset 12
 513              		.cfi_offset 4, -12
 514              		.cfi_offset 7, -8
 515              		.cfi_offset 14, -4
 516 0002 85B0     		sub	sp, sp, #20
 517              		.cfi_def_cfa_offset 32
 518 0004 00AF     		add	r7, sp, #0
 519              		.cfi_def_cfa_register 7
 520 0006 021C     		mov	r2, r0
 521 0008 FB1D     		add	r3, r7, #7
 522 000a 1A70     		strb	r2, [r3]
 306:.\Generated_Source\PSoC4/isr_blink.c **** 	uint8 interruptState;
 307:.\Generated_Source\PSoC4/isr_blink.c ****     uint32 priorityOffset = ((isr_blink__INTC_NUMBER % 4u) * 8u) + 6u;
 523              		.loc 1 307 0
 524 000c 0E23     		mov	r3, #14
 525 000e FB60     		str	r3, [r7, #12]
 308:.\Generated_Source\PSoC4/isr_blink.c ****     
 309:.\Generated_Source\PSoC4/isr_blink.c **** 	interruptState = CyEnterCriticalSection();
 526              		.loc 1 309 0
 527 0010 3C1C     		mov	r4, r7
 528 0012 0B34     		add	r4, r4, #11
 529 0014 FFF7FEFF 		bl	CyEnterCriticalSection
 530 0018 031C     		mov	r3, r0
 531 001a 2370     		strb	r3, [r4]
 310:.\Generated_Source\PSoC4/isr_blink.c ****     *isr_blink_INTC_PRIOR = (*isr_blink_INTC_PRIOR & (uint32)(~isr_blink__INTC_PRIOR_MASK)) |
 532              		.loc 1 310 0
 533 001c 0A4B     		ldr	r3, .L34
 534 001e 0A4A     		ldr	r2, .L34
 535 0020 1168     		ldr	r1, [r2]
 536 0022 0A4A     		ldr	r2, .L34+4
 537 0024 1140     		and	r1, r2
 311:.\Generated_Source\PSoC4/isr_blink.c ****                                     ((uint32)priority << priorityOffset);
 538              		.loc 1 311 0
 539 0026 FA1D     		add	r2, r7, #7
 540 0028 1078     		ldrb	r0, [r2]
 541 002a FA68     		ldr	r2, [r7, #12]
 542 002c 041C     		mov	r4, r0
 543 002e 9440     		lsl	r4, r4, r2
 544 0030 221C     		mov	r2, r4
ARM GAS  C:\Users\ole\AppData\Local\Temp\ccEH75ob.s 			page 16


 310:.\Generated_Source\PSoC4/isr_blink.c ****     *isr_blink_INTC_PRIOR = (*isr_blink_INTC_PRIOR & (uint32)(~isr_blink__INTC_PRIOR_MASK)) |
 545              		.loc 1 310 0
 546 0032 0A43     		orr	r2, r1
 547 0034 1A60     		str	r2, [r3]
 312:.\Generated_Source\PSoC4/isr_blink.c **** 	CyExitCriticalSection(interruptState);
 548              		.loc 1 312 0
 549 0036 3B1C     		mov	r3, r7
 550 0038 0B33     		add	r3, r3, #11
 551 003a 1B78     		ldrb	r3, [r3]
 552 003c 181C     		mov	r0, r3
 553 003e FFF7FEFF 		bl	CyExitCriticalSection
 313:.\Generated_Source\PSoC4/isr_blink.c **** }
 554              		.loc 1 313 0
 555 0042 BD46     		mov	sp, r7
 556 0044 05B0     		add	sp, sp, #20
 557              		@ sp needed
 558 0046 90BD     		pop	{r4, r7, pc}
 559              	.L35:
 560              		.align	2
 561              	.L34:
 562 0048 10E400E0 		.word	-536812528
 563 004c FF3FFFFF 		.word	-49153
 564              		.cfi_endproc
 565              	.LFE39:
 566              		.size	isr_blink_SetPriority, .-isr_blink_SetPriority
 567              		.section	.text.isr_blink_GetPriority,"ax",%progbits
 568              		.align	2
 569              		.global	isr_blink_GetPriority
 570              		.code	16
 571              		.thumb_func
 572              		.type	isr_blink_GetPriority, %function
 573              	isr_blink_GetPriority:
 574              	.LFB40:
 314:.\Generated_Source\PSoC4/isr_blink.c **** 
 315:.\Generated_Source\PSoC4/isr_blink.c **** 
 316:.\Generated_Source\PSoC4/isr_blink.c **** /*******************************************************************************
 317:.\Generated_Source\PSoC4/isr_blink.c **** * Function Name: isr_blink_GetPriority
 318:.\Generated_Source\PSoC4/isr_blink.c **** ********************************************************************************
 319:.\Generated_Source\PSoC4/isr_blink.c **** *
 320:.\Generated_Source\PSoC4/isr_blink.c **** * Summary:
 321:.\Generated_Source\PSoC4/isr_blink.c **** *   Gets the Priority of the Interrupt.
 322:.\Generated_Source\PSoC4/isr_blink.c **** *
 323:.\Generated_Source\PSoC4/isr_blink.c **** * Parameters:
 324:.\Generated_Source\PSoC4/isr_blink.c **** *   None
 325:.\Generated_Source\PSoC4/isr_blink.c **** *
 326:.\Generated_Source\PSoC4/isr_blink.c **** * Return:
 327:.\Generated_Source\PSoC4/isr_blink.c **** *   Priority of the interrupt. 0 - 3, 0 being the highest.
 328:.\Generated_Source\PSoC4/isr_blink.c **** *
 329:.\Generated_Source\PSoC4/isr_blink.c **** *******************************************************************************/
 330:.\Generated_Source\PSoC4/isr_blink.c **** uint8 isr_blink_GetPriority(void)
 331:.\Generated_Source\PSoC4/isr_blink.c **** {
 575              		.loc 1 331 0
 576              		.cfi_startproc
 577 0000 80B5     		push	{r7, lr}
 578              		.cfi_def_cfa_offset 8
 579              		.cfi_offset 7, -8
 580              		.cfi_offset 14, -4
ARM GAS  C:\Users\ole\AppData\Local\Temp\ccEH75ob.s 			page 17


 581 0002 82B0     		sub	sp, sp, #8
 582              		.cfi_def_cfa_offset 16
 583 0004 00AF     		add	r7, sp, #0
 584              		.cfi_def_cfa_register 7
 332:.\Generated_Source\PSoC4/isr_blink.c ****     uint32 priority;
 333:.\Generated_Source\PSoC4/isr_blink.c **** 	uint32 priorityOffset = ((isr_blink__INTC_NUMBER % 4u) * 8u) + 6u;
 585              		.loc 1 333 0
 586 0006 0E23     		mov	r3, #14
 587 0008 7B60     		str	r3, [r7, #4]
 334:.\Generated_Source\PSoC4/isr_blink.c **** 
 335:.\Generated_Source\PSoC4/isr_blink.c ****     priority = (*isr_blink_INTC_PRIOR & isr_blink__INTC_PRIOR_MASK) >> priorityOffset;
 588              		.loc 1 335 0
 589 000a 084B     		ldr	r3, .L38
 590 000c 1A68     		ldr	r2, [r3]
 591 000e C023     		mov	r3, #192
 592 0010 1B02     		lsl	r3, r3, #8
 593 0012 1A40     		and	r2, r3
 594 0014 7B68     		ldr	r3, [r7, #4]
 595 0016 111C     		mov	r1, r2
 596 0018 D940     		lsr	r1, r1, r3
 597 001a 0B1C     		mov	r3, r1
 598 001c 3B60     		str	r3, [r7]
 336:.\Generated_Source\PSoC4/isr_blink.c **** 
 337:.\Generated_Source\PSoC4/isr_blink.c ****     return (uint8)priority;
 599              		.loc 1 337 0
 600 001e 3B68     		ldr	r3, [r7]
 601 0020 DBB2     		uxtb	r3, r3
 338:.\Generated_Source\PSoC4/isr_blink.c **** }
 602              		.loc 1 338 0
 603 0022 181C     		mov	r0, r3
 604 0024 BD46     		mov	sp, r7
 605 0026 02B0     		add	sp, sp, #8
 606              		@ sp needed
 607 0028 80BD     		pop	{r7, pc}
 608              	.L39:
 609 002a C046     		.align	2
 610              	.L38:
 611 002c 10E400E0 		.word	-536812528
 612              		.cfi_endproc
 613              	.LFE40:
 614              		.size	isr_blink_GetPriority, .-isr_blink_GetPriority
 615              		.section	.text.isr_blink_Enable,"ax",%progbits
 616              		.align	2
 617              		.global	isr_blink_Enable
 618              		.code	16
 619              		.thumb_func
 620              		.type	isr_blink_Enable, %function
 621              	isr_blink_Enable:
 622              	.LFB41:
 339:.\Generated_Source\PSoC4/isr_blink.c **** 
 340:.\Generated_Source\PSoC4/isr_blink.c **** 
 341:.\Generated_Source\PSoC4/isr_blink.c **** /*******************************************************************************
 342:.\Generated_Source\PSoC4/isr_blink.c **** * Function Name: isr_blink_Enable
 343:.\Generated_Source\PSoC4/isr_blink.c **** ********************************************************************************
 344:.\Generated_Source\PSoC4/isr_blink.c **** *
 345:.\Generated_Source\PSoC4/isr_blink.c **** * Summary:
 346:.\Generated_Source\PSoC4/isr_blink.c **** *   Enables the interrupt.
ARM GAS  C:\Users\ole\AppData\Local\Temp\ccEH75ob.s 			page 18


 347:.\Generated_Source\PSoC4/isr_blink.c **** *
 348:.\Generated_Source\PSoC4/isr_blink.c **** * Parameters:
 349:.\Generated_Source\PSoC4/isr_blink.c **** *   None
 350:.\Generated_Source\PSoC4/isr_blink.c **** *
 351:.\Generated_Source\PSoC4/isr_blink.c **** * Return:
 352:.\Generated_Source\PSoC4/isr_blink.c **** *   None
 353:.\Generated_Source\PSoC4/isr_blink.c **** *
 354:.\Generated_Source\PSoC4/isr_blink.c **** *******************************************************************************/
 355:.\Generated_Source\PSoC4/isr_blink.c **** void isr_blink_Enable(void)
 356:.\Generated_Source\PSoC4/isr_blink.c **** {
 623              		.loc 1 356 0
 624              		.cfi_startproc
 625 0000 80B5     		push	{r7, lr}
 626              		.cfi_def_cfa_offset 8
 627              		.cfi_offset 7, -8
 628              		.cfi_offset 14, -4
 629 0002 00AF     		add	r7, sp, #0
 630              		.cfi_def_cfa_register 7
 357:.\Generated_Source\PSoC4/isr_blink.c ****     /* Enable the general interrupt. */
 358:.\Generated_Source\PSoC4/isr_blink.c ****     *isr_blink_INTC_SET_EN = isr_blink__INTC_MASK;
 631              		.loc 1 358 0
 632 0004 024B     		ldr	r3, .L41
 633 0006 8022     		mov	r2, #128
 634 0008 9202     		lsl	r2, r2, #10
 635 000a 1A60     		str	r2, [r3]
 359:.\Generated_Source\PSoC4/isr_blink.c **** }
 636              		.loc 1 359 0
 637 000c BD46     		mov	sp, r7
 638              		@ sp needed
 639 000e 80BD     		pop	{r7, pc}
 640              	.L42:
 641              		.align	2
 642              	.L41:
 643 0010 00E100E0 		.word	-536813312
 644              		.cfi_endproc
 645              	.LFE41:
 646              		.size	isr_blink_Enable, .-isr_blink_Enable
 647              		.section	.text.isr_blink_GetState,"ax",%progbits
 648              		.align	2
 649              		.global	isr_blink_GetState
 650              		.code	16
 651              		.thumb_func
 652              		.type	isr_blink_GetState, %function
 653              	isr_blink_GetState:
 654              	.LFB42:
 360:.\Generated_Source\PSoC4/isr_blink.c **** 
 361:.\Generated_Source\PSoC4/isr_blink.c **** 
 362:.\Generated_Source\PSoC4/isr_blink.c **** /*******************************************************************************
 363:.\Generated_Source\PSoC4/isr_blink.c **** * Function Name: isr_blink_GetState
 364:.\Generated_Source\PSoC4/isr_blink.c **** ********************************************************************************
 365:.\Generated_Source\PSoC4/isr_blink.c **** *
 366:.\Generated_Source\PSoC4/isr_blink.c **** * Summary:
 367:.\Generated_Source\PSoC4/isr_blink.c **** *   Gets the state (enabled, disabled) of the Interrupt.
 368:.\Generated_Source\PSoC4/isr_blink.c **** *
 369:.\Generated_Source\PSoC4/isr_blink.c **** * Parameters:
 370:.\Generated_Source\PSoC4/isr_blink.c **** *   None
 371:.\Generated_Source\PSoC4/isr_blink.c **** *
ARM GAS  C:\Users\ole\AppData\Local\Temp\ccEH75ob.s 			page 19


 372:.\Generated_Source\PSoC4/isr_blink.c **** * Return:
 373:.\Generated_Source\PSoC4/isr_blink.c **** *   1 if enabled, 0 if disabled.
 374:.\Generated_Source\PSoC4/isr_blink.c **** *
 375:.\Generated_Source\PSoC4/isr_blink.c **** *******************************************************************************/
 376:.\Generated_Source\PSoC4/isr_blink.c **** uint8 isr_blink_GetState(void)
 377:.\Generated_Source\PSoC4/isr_blink.c **** {
 655              		.loc 1 377 0
 656              		.cfi_startproc
 657 0000 80B5     		push	{r7, lr}
 658              		.cfi_def_cfa_offset 8
 659              		.cfi_offset 7, -8
 660              		.cfi_offset 14, -4
 661 0002 00AF     		add	r7, sp, #0
 662              		.cfi_def_cfa_register 7
 378:.\Generated_Source\PSoC4/isr_blink.c ****     /* Get the state of the general interrupt. */
 379:.\Generated_Source\PSoC4/isr_blink.c ****     return ((*isr_blink_INTC_SET_EN & (uint32)isr_blink__INTC_MASK) != 0u) ? 1u:0u;
 663              		.loc 1 379 0
 664 0004 054B     		ldr	r3, .L47
 665 0006 1A68     		ldr	r2, [r3]
 666 0008 8023     		mov	r3, #128
 667 000a 9B02     		lsl	r3, r3, #10
 668 000c 1340     		and	r3, r2
 669 000e 01D0     		beq	.L44
 670              		.loc 1 379 0 is_stmt 0 discriminator 1
 671 0010 0123     		mov	r3, #1
 672 0012 00E0     		b	.L45
 673              	.L44:
 674              		.loc 1 379 0 discriminator 2
 675 0014 0023     		mov	r3, #0
 676              	.L45:
 380:.\Generated_Source\PSoC4/isr_blink.c **** }
 677              		.loc 1 380 0 is_stmt 1 discriminator 3
 678 0016 181C     		mov	r0, r3
 679 0018 BD46     		mov	sp, r7
 680              		@ sp needed
 681 001a 80BD     		pop	{r7, pc}
 682              	.L48:
 683              		.align	2
 684              	.L47:
 685 001c 00E100E0 		.word	-536813312
 686              		.cfi_endproc
 687              	.LFE42:
 688              		.size	isr_blink_GetState, .-isr_blink_GetState
 689              		.section	.text.isr_blink_Disable,"ax",%progbits
 690              		.align	2
 691              		.global	isr_blink_Disable
 692              		.code	16
 693              		.thumb_func
 694              		.type	isr_blink_Disable, %function
 695              	isr_blink_Disable:
 696              	.LFB43:
 381:.\Generated_Source\PSoC4/isr_blink.c **** 
 382:.\Generated_Source\PSoC4/isr_blink.c **** 
 383:.\Generated_Source\PSoC4/isr_blink.c **** /*******************************************************************************
 384:.\Generated_Source\PSoC4/isr_blink.c **** * Function Name: isr_blink_Disable
 385:.\Generated_Source\PSoC4/isr_blink.c **** ********************************************************************************
 386:.\Generated_Source\PSoC4/isr_blink.c **** *
ARM GAS  C:\Users\ole\AppData\Local\Temp\ccEH75ob.s 			page 20


 387:.\Generated_Source\PSoC4/isr_blink.c **** * Summary:
 388:.\Generated_Source\PSoC4/isr_blink.c **** *   Disables the Interrupt.
 389:.\Generated_Source\PSoC4/isr_blink.c **** *
 390:.\Generated_Source\PSoC4/isr_blink.c **** * Parameters:
 391:.\Generated_Source\PSoC4/isr_blink.c **** *   None
 392:.\Generated_Source\PSoC4/isr_blink.c **** *
 393:.\Generated_Source\PSoC4/isr_blink.c **** * Return:
 394:.\Generated_Source\PSoC4/isr_blink.c **** *   None
 395:.\Generated_Source\PSoC4/isr_blink.c **** *
 396:.\Generated_Source\PSoC4/isr_blink.c **** *******************************************************************************/
 397:.\Generated_Source\PSoC4/isr_blink.c **** void isr_blink_Disable(void)
 398:.\Generated_Source\PSoC4/isr_blink.c **** {
 697              		.loc 1 398 0
 698              		.cfi_startproc
 699 0000 80B5     		push	{r7, lr}
 700              		.cfi_def_cfa_offset 8
 701              		.cfi_offset 7, -8
 702              		.cfi_offset 14, -4
 703 0002 00AF     		add	r7, sp, #0
 704              		.cfi_def_cfa_register 7
 399:.\Generated_Source\PSoC4/isr_blink.c ****     /* Disable the general interrupt. */
 400:.\Generated_Source\PSoC4/isr_blink.c ****     *isr_blink_INTC_CLR_EN = isr_blink__INTC_MASK;
 705              		.loc 1 400 0
 706 0004 024B     		ldr	r3, .L50
 707 0006 8022     		mov	r2, #128
 708 0008 9202     		lsl	r2, r2, #10
 709 000a 1A60     		str	r2, [r3]
 401:.\Generated_Source\PSoC4/isr_blink.c **** }
 710              		.loc 1 401 0
 711 000c BD46     		mov	sp, r7
 712              		@ sp needed
 713 000e 80BD     		pop	{r7, pc}
 714              	.L51:
 715              		.align	2
 716              	.L50:
 717 0010 80E100E0 		.word	-536813184
 718              		.cfi_endproc
 719              	.LFE43:
 720              		.size	isr_blink_Disable, .-isr_blink_Disable
 721              		.section	.text.isr_blink_SetPending,"ax",%progbits
 722              		.align	2
 723              		.global	isr_blink_SetPending
 724              		.code	16
 725              		.thumb_func
 726              		.type	isr_blink_SetPending, %function
 727              	isr_blink_SetPending:
 728              	.LFB44:
 402:.\Generated_Source\PSoC4/isr_blink.c **** 
 403:.\Generated_Source\PSoC4/isr_blink.c **** 
 404:.\Generated_Source\PSoC4/isr_blink.c **** /*******************************************************************************
 405:.\Generated_Source\PSoC4/isr_blink.c **** * Function Name: isr_blink_SetPending
 406:.\Generated_Source\PSoC4/isr_blink.c **** ********************************************************************************
 407:.\Generated_Source\PSoC4/isr_blink.c **** *
 408:.\Generated_Source\PSoC4/isr_blink.c **** * Summary:
 409:.\Generated_Source\PSoC4/isr_blink.c **** *   Causes the Interrupt to enter the pending state, a software method of
 410:.\Generated_Source\PSoC4/isr_blink.c **** *   generating the interrupt.
 411:.\Generated_Source\PSoC4/isr_blink.c **** *
ARM GAS  C:\Users\ole\AppData\Local\Temp\ccEH75ob.s 			page 21


 412:.\Generated_Source\PSoC4/isr_blink.c **** * Parameters:
 413:.\Generated_Source\PSoC4/isr_blink.c **** *   None
 414:.\Generated_Source\PSoC4/isr_blink.c **** *
 415:.\Generated_Source\PSoC4/isr_blink.c **** * Return:
 416:.\Generated_Source\PSoC4/isr_blink.c **** *   None
 417:.\Generated_Source\PSoC4/isr_blink.c **** *
 418:.\Generated_Source\PSoC4/isr_blink.c **** *******************************************************************************/
 419:.\Generated_Source\PSoC4/isr_blink.c **** void isr_blink_SetPending(void)
 420:.\Generated_Source\PSoC4/isr_blink.c **** {
 729              		.loc 1 420 0
 730              		.cfi_startproc
 731 0000 80B5     		push	{r7, lr}
 732              		.cfi_def_cfa_offset 8
 733              		.cfi_offset 7, -8
 734              		.cfi_offset 14, -4
 735 0002 00AF     		add	r7, sp, #0
 736              		.cfi_def_cfa_register 7
 421:.\Generated_Source\PSoC4/isr_blink.c ****     *isr_blink_INTC_SET_PD = isr_blink__INTC_MASK;
 737              		.loc 1 421 0
 738 0004 024B     		ldr	r3, .L53
 739 0006 8022     		mov	r2, #128
 740 0008 9202     		lsl	r2, r2, #10
 741 000a 1A60     		str	r2, [r3]
 422:.\Generated_Source\PSoC4/isr_blink.c **** }
 742              		.loc 1 422 0
 743 000c BD46     		mov	sp, r7
 744              		@ sp needed
 745 000e 80BD     		pop	{r7, pc}
 746              	.L54:
 747              		.align	2
 748              	.L53:
 749 0010 00E200E0 		.word	-536813056
 750              		.cfi_endproc
 751              	.LFE44:
 752              		.size	isr_blink_SetPending, .-isr_blink_SetPending
 753              		.section	.text.isr_blink_ClearPending,"ax",%progbits
 754              		.align	2
 755              		.global	isr_blink_ClearPending
 756              		.code	16
 757              		.thumb_func
 758              		.type	isr_blink_ClearPending, %function
 759              	isr_blink_ClearPending:
 760              	.LFB45:
 423:.\Generated_Source\PSoC4/isr_blink.c **** 
 424:.\Generated_Source\PSoC4/isr_blink.c **** 
 425:.\Generated_Source\PSoC4/isr_blink.c **** /*******************************************************************************
 426:.\Generated_Source\PSoC4/isr_blink.c **** * Function Name: isr_blink_ClearPending
 427:.\Generated_Source\PSoC4/isr_blink.c **** ********************************************************************************
 428:.\Generated_Source\PSoC4/isr_blink.c **** *
 429:.\Generated_Source\PSoC4/isr_blink.c **** * Summary:
 430:.\Generated_Source\PSoC4/isr_blink.c **** *   Clears a pending interrupt.
 431:.\Generated_Source\PSoC4/isr_blink.c **** *
 432:.\Generated_Source\PSoC4/isr_blink.c **** * Parameters:
 433:.\Generated_Source\PSoC4/isr_blink.c **** *   None
 434:.\Generated_Source\PSoC4/isr_blink.c **** *
 435:.\Generated_Source\PSoC4/isr_blink.c **** * Return:
 436:.\Generated_Source\PSoC4/isr_blink.c **** *   None
ARM GAS  C:\Users\ole\AppData\Local\Temp\ccEH75ob.s 			page 22


 437:.\Generated_Source\PSoC4/isr_blink.c **** *
 438:.\Generated_Source\PSoC4/isr_blink.c **** *******************************************************************************/
 439:.\Generated_Source\PSoC4/isr_blink.c **** void isr_blink_ClearPending(void)
 440:.\Generated_Source\PSoC4/isr_blink.c **** {
 761              		.loc 1 440 0
 762              		.cfi_startproc
 763 0000 80B5     		push	{r7, lr}
 764              		.cfi_def_cfa_offset 8
 765              		.cfi_offset 7, -8
 766              		.cfi_offset 14, -4
 767 0002 00AF     		add	r7, sp, #0
 768              		.cfi_def_cfa_register 7
 441:.\Generated_Source\PSoC4/isr_blink.c ****     *isr_blink_INTC_CLR_PD = isr_blink__INTC_MASK;
 769              		.loc 1 441 0
 770 0004 024B     		ldr	r3, .L56
 771 0006 8022     		mov	r2, #128
 772 0008 9202     		lsl	r2, r2, #10
 773 000a 1A60     		str	r2, [r3]
 442:.\Generated_Source\PSoC4/isr_blink.c **** }
 774              		.loc 1 442 0
 775 000c BD46     		mov	sp, r7
 776              		@ sp needed
 777 000e 80BD     		pop	{r7, pc}
 778              	.L57:
 779              		.align	2
 780              	.L56:
 781 0010 80E200E0 		.word	-536812928
 782              		.cfi_endproc
 783              	.LFE45:
 784              		.size	isr_blink_ClearPending, .-isr_blink_ClearPending
 785              		.text
 786              	.Letext0:
 787              		.file 2 "c:\\program files (x86)\\cypress\\psoc creator\\3.1\\psoc creator\\import\\gnu_cs\\arm\\4
 788              		.file 3 "c:\\program files (x86)\\cypress\\psoc creator\\3.1\\psoc creator\\import\\gnu_cs\\arm\\4
 789              		.file 4 ".\\Generated_Source\\PSoC4/cytypes.h"
 790              		.section	.debug_info,"",%progbits
 791              	.Ldebug_info0:
 792 0000 BE030000 		.4byte	0x3be
 793 0004 0400     		.2byte	0x4
 794 0006 00000000 		.4byte	.Ldebug_abbrev0
 795 000a 04       		.byte	0x4
 796 000b 01       		.uleb128 0x1
 797 000c 1A020000 		.4byte	.LASF59
 798 0010 01       		.byte	0x1
 799 0011 BD030000 		.4byte	.LASF60
 800 0015 5A010000 		.4byte	.LASF61
 801 0019 00000000 		.4byte	.Ldebug_ranges0+0
 802 001d 00000000 		.4byte	0
 803 0021 00000000 		.4byte	.Ldebug_line0
 804 0025 02       		.uleb128 0x2
 805 0026 01       		.byte	0x1
 806 0027 06       		.byte	0x6
 807 0028 80000000 		.4byte	.LASF0
 808 002c 03       		.uleb128 0x3
 809 002d 2F000000 		.4byte	.LASF3
 810 0031 02       		.byte	0x2
 811 0032 1C       		.byte	0x1c
ARM GAS  C:\Users\ole\AppData\Local\Temp\ccEH75ob.s 			page 23


 812 0033 37000000 		.4byte	0x37
 813 0037 02       		.uleb128 0x2
 814 0038 01       		.byte	0x1
 815 0039 08       		.byte	0x8
 816 003a A9020000 		.4byte	.LASF1
 817 003e 02       		.uleb128 0x2
 818 003f 02       		.byte	0x2
 819 0040 05       		.byte	0x5
 820 0041 B7020000 		.4byte	.LASF2
 821 0045 03       		.uleb128 0x3
 822 0046 55030000 		.4byte	.LASF4
 823 004a 02       		.byte	0x2
 824 004b 26       		.byte	0x26
 825 004c 50000000 		.4byte	0x50
 826 0050 02       		.uleb128 0x2
 827 0051 02       		.byte	0x2
 828 0052 07       		.byte	0x7
 829 0053 80010000 		.4byte	.LASF5
 830 0057 02       		.uleb128 0x2
 831 0058 04       		.byte	0x4
 832 0059 05       		.byte	0x5
 833 005a B2000000 		.4byte	.LASF6
 834 005e 03       		.uleb128 0x3
 835 005f 12010000 		.4byte	.LASF7
 836 0063 02       		.byte	0x2
 837 0064 38       		.byte	0x38
 838 0065 69000000 		.4byte	0x69
 839 0069 02       		.uleb128 0x2
 840 006a 04       		.byte	0x4
 841 006b 07       		.byte	0x7
 842 006c 48010000 		.4byte	.LASF8
 843 0070 02       		.uleb128 0x2
 844 0071 08       		.byte	0x8
 845 0072 05       		.byte	0x5
 846 0073 72000000 		.4byte	.LASF9
 847 0077 02       		.uleb128 0x2
 848 0078 08       		.byte	0x8
 849 0079 07       		.byte	0x7
 850 007a 39000000 		.4byte	.LASF10
 851 007e 04       		.uleb128 0x4
 852 007f 04       		.byte	0x4
 853 0080 05       		.byte	0x5
 854 0081 696E7400 		.ascii	"int\000"
 855 0085 02       		.uleb128 0x2
 856 0086 04       		.byte	0x4
 857 0087 07       		.byte	0x7
 858 0088 31010000 		.4byte	.LASF11
 859 008c 03       		.uleb128 0x3
 860 008d E9030000 		.4byte	.LASF12
 861 0091 03       		.byte	0x3
 862 0092 2A       		.byte	0x2a
 863 0093 2C000000 		.4byte	0x2c
 864 0097 03       		.uleb128 0x3
 865 0098 D5000000 		.4byte	.LASF13
 866 009c 03       		.byte	0x3
 867 009d 36       		.byte	0x36
 868 009e 45000000 		.4byte	0x45
ARM GAS  C:\Users\ole\AppData\Local\Temp\ccEH75ob.s 			page 24


 869 00a2 03       		.uleb128 0x3
 870 00a3 25030000 		.4byte	.LASF14
 871 00a7 03       		.byte	0x3
 872 00a8 42       		.byte	0x42
 873 00a9 5E000000 		.4byte	0x5e
 874 00ad 03       		.uleb128 0x3
 875 00ae CF000000 		.4byte	.LASF15
 876 00b2 04       		.byte	0x4
 877 00b3 A1       		.byte	0xa1
 878 00b4 37000000 		.4byte	0x37
 879 00b8 03       		.uleb128 0x3
 880 00b9 ED000000 		.4byte	.LASF16
 881 00bd 04       		.byte	0x4
 882 00be A3       		.byte	0xa3
 883 00bf 69000000 		.4byte	0x69
 884 00c3 02       		.uleb128 0x2
 885 00c4 04       		.byte	0x4
 886 00c5 04       		.byte	0x4
 887 00c6 14020000 		.4byte	.LASF17
 888 00ca 02       		.uleb128 0x2
 889 00cb 08       		.byte	0x8
 890 00cc 04       		.byte	0x4
 891 00cd DE000000 		.4byte	.LASF18
 892 00d1 02       		.uleb128 0x2
 893 00d2 01       		.byte	0x1
 894 00d3 08       		.byte	0x8
 895 00d4 2E030000 		.4byte	.LASF19
 896 00d8 05       		.uleb128 0x5
 897 00d9 9C010000 		.4byte	.LASF20
 898 00dd 04       		.byte	0x4
 899 00de 4D01     		.2byte	0x14d
 900 00e0 E4000000 		.4byte	0xe4
 901 00e4 06       		.uleb128 0x6
 902 00e5 B8000000 		.4byte	0xb8
 903 00e9 05       		.uleb128 0x5
 904 00ea 48030000 		.4byte	.LASF21
 905 00ee 04       		.byte	0x4
 906 00ef 5D01     		.2byte	0x15d
 907 00f1 F5000000 		.4byte	0xf5
 908 00f5 07       		.uleb128 0x7
 909 00f6 04       		.byte	0x4
 910 00f7 FB000000 		.4byte	0xfb
 911 00fb 08       		.uleb128 0x8
 912 00fc 02       		.uleb128 0x2
 913 00fd 04       		.byte	0x4
 914 00fe 07       		.byte	0x7
 915 00ff A2010000 		.4byte	.LASF22
 916 0103 09       		.uleb128 0x9
 917 0104 E2030000 		.4byte	.LASF27
 918 0108 01       		.byte	0x1
 919 0109 01       		.byte	0x1
 920 010a 1F       		.byte	0x1f
 921 010b 28010000 		.4byte	0x128
 922 010f 0A       		.uleb128 0xa
 923 0110 79010000 		.4byte	.LASF23
 924 0114 00       		.sleb128 0
 925 0115 0A       		.uleb128 0xa
ARM GAS  C:\Users\ole\AppData\Local\Temp\ccEH75ob.s 			page 25


 926 0116 9D030000 		.4byte	.LASF24
 927 011a 01       		.sleb128 1
 928 011b 0A       		.uleb128 0xa
 929 011c 9E020000 		.4byte	.LASF25
 930 0120 02       		.sleb128 2
 931 0121 0A       		.uleb128 0xa
 932 0122 E5000000 		.4byte	.LASF26
 933 0126 03       		.sleb128 3
 934 0127 00       		.byte	0
 935 0128 09       		.uleb128 0x9
 936 0129 0A010000 		.4byte	.LASF28
 937 012d 01       		.byte	0x1
 938 012e 01       		.byte	0x1
 939 012f 20       		.byte	0x20
 940 0130 65010000 		.4byte	0x165
 941 0134 0B       		.uleb128 0xb
 942 0135 63683100 		.ascii	"ch1\000"
 943 0139 00       		.sleb128 0
 944 013a 0B       		.uleb128 0xb
 945 013b 63683200 		.ascii	"ch2\000"
 946 013f 01       		.sleb128 1
 947 0140 0B       		.uleb128 0xb
 948 0141 63683300 		.ascii	"ch3\000"
 949 0145 02       		.sleb128 2
 950 0146 0B       		.uleb128 0xb
 951 0147 63683400 		.ascii	"ch4\000"
 952 014b 03       		.sleb128 3
 953 014c 0B       		.uleb128 0xb
 954 014d 63683500 		.ascii	"ch5\000"
 955 0151 04       		.sleb128 4
 956 0152 0B       		.uleb128 0xb
 957 0153 63683600 		.ascii	"ch6\000"
 958 0157 05       		.sleb128 5
 959 0158 0B       		.uleb128 0xb
 960 0159 63683700 		.ascii	"ch7\000"
 961 015d 06       		.sleb128 6
 962 015e 0B       		.uleb128 0xb
 963 015f 63683800 		.ascii	"ch8\000"
 964 0163 07       		.sleb128 7
 965 0164 00       		.byte	0
 966 0165 0C       		.uleb128 0xc
 967 0166 04020000 		.4byte	.LASF29
 968 016a 01       		.byte	0x1
 969 016b 4C       		.byte	0x4c
 970 016c 00000000 		.4byte	.LFB33
 971 0170 24000000 		.4byte	.LFE33-.LFB33
 972 0174 01       		.uleb128 0x1
 973 0175 9C       		.byte	0x9c
 974 0176 0D       		.uleb128 0xd
 975 0177 C1020000 		.4byte	.LASF32
 976 017b 01       		.byte	0x1
 977 017c 6A       		.byte	0x6a
 978 017d 00000000 		.4byte	.LFB34
 979 0181 24000000 		.4byte	.LFE34-.LFB34
 980 0185 01       		.uleb128 0x1
 981 0186 9C       		.byte	0x9c
 982 0187 9A010000 		.4byte	0x19a
ARM GAS  C:\Users\ole\AppData\Local\Temp\ccEH75ob.s 			page 26


 983 018b 0E       		.uleb128 0xe
 984 018c BF010000 		.4byte	.LASF34
 985 0190 01       		.byte	0x1
 986 0191 6A       		.byte	0x6a
 987 0192 E9000000 		.4byte	0xe9
 988 0196 02       		.uleb128 0x2
 989 0197 91       		.byte	0x91
 990 0198 74       		.sleb128 -12
 991 0199 00       		.byte	0
 992 019a 0C       		.uleb128 0xc
 993 019b 08030000 		.4byte	.LASF30
 994 019f 01       		.byte	0x1
 995 01a0 87       		.byte	0x87
 996 01a1 00000000 		.4byte	.LFB35
 997 01a5 18000000 		.4byte	.LFE35-.LFB35
 998 01a9 01       		.uleb128 0x1
 999 01aa 9C       		.byte	0x9c
 1000 01ab 0C       		.uleb128 0xc
 1001 01ac BB000000 		.4byte	.LASF31
 1002 01b0 01       		.byte	0x1
 1003 01b1 A2       		.byte	0xa2
 1004 01b2 00000000 		.4byte	.LFB36
 1005 01b6 A8010000 		.4byte	.LFE36-.LFB36
 1006 01ba 01       		.uleb128 0x1
 1007 01bb 9C       		.byte	0x9c
 1008 01bc 0F       		.uleb128 0xf
 1009 01bd 1D010000 		.4byte	.LASF33
 1010 01c1 01       		.byte	0x1
 1011 01c2 0401     		.2byte	0x104
 1012 01c4 00000000 		.4byte	.LFB37
 1013 01c8 1C000000 		.4byte	.LFE37-.LFB37
 1014 01cc 01       		.uleb128 0x1
 1015 01cd 9C       		.byte	0x9c
 1016 01ce E2010000 		.4byte	0x1e2
 1017 01d2 10       		.uleb128 0x10
 1018 01d3 BF010000 		.4byte	.LASF34
 1019 01d7 01       		.byte	0x1
 1020 01d8 0401     		.2byte	0x104
 1021 01da E9000000 		.4byte	0xe9
 1022 01de 02       		.uleb128 0x2
 1023 01df 91       		.byte	0x91
 1024 01e0 74       		.sleb128 -12
 1025 01e1 00       		.byte	0
 1026 01e2 11       		.uleb128 0x11
 1027 01e3 AB010000 		.4byte	.LASF40
 1028 01e7 01       		.byte	0x1
 1029 01e8 1801     		.2byte	0x118
 1030 01ea E9000000 		.4byte	0xe9
 1031 01ee 00000000 		.4byte	.LFB38
 1032 01f2 14000000 		.4byte	.LFE38-.LFB38
 1033 01f6 01       		.uleb128 0x1
 1034 01f7 9C       		.byte	0x9c
 1035 01f8 12       		.uleb128 0x12
 1036 01f9 87030000 		.4byte	.LASF35
 1037 01fd 01       		.byte	0x1
 1038 01fe 3001     		.2byte	0x130
 1039 0200 00000000 		.4byte	.LFB39
ARM GAS  C:\Users\ole\AppData\Local\Temp\ccEH75ob.s 			page 27


 1040 0204 50000000 		.4byte	.LFE39-.LFB39
 1041 0208 01       		.uleb128 0x1
 1042 0209 9C       		.byte	0x9c
 1043 020a 3C020000 		.4byte	0x23c
 1044 020e 10       		.uleb128 0x10
 1045 020f 93010000 		.4byte	.LASF36
 1046 0213 01       		.byte	0x1
 1047 0214 3001     		.2byte	0x130
 1048 0216 AD000000 		.4byte	0xad
 1049 021a 02       		.uleb128 0x2
 1050 021b 91       		.byte	0x91
 1051 021c 67       		.sleb128 -25
 1052 021d 13       		.uleb128 0x13
 1053 021e A3000000 		.4byte	.LASF37
 1054 0222 01       		.byte	0x1
 1055 0223 3201     		.2byte	0x132
 1056 0225 AD000000 		.4byte	0xad
 1057 0229 02       		.uleb128 0x2
 1058 022a 91       		.byte	0x91
 1059 022b 6B       		.sleb128 -21
 1060 022c 13       		.uleb128 0x13
 1061 022d 50000000 		.4byte	.LASF38
 1062 0231 01       		.byte	0x1
 1063 0232 3301     		.2byte	0x133
 1064 0234 B8000000 		.4byte	0xb8
 1065 0238 02       		.uleb128 0x2
 1066 0239 91       		.byte	0x91
 1067 023a 6C       		.sleb128 -20
 1068 023b 00       		.byte	0
 1069 023c 14       		.uleb128 0x14
 1070 023d F4000000 		.4byte	.LASF62
 1071 0241 01       		.byte	0x1
 1072 0242 4A01     		.2byte	0x14a
 1073 0244 AD000000 		.4byte	0xad
 1074 0248 00000000 		.4byte	.LFB40
 1075 024c 30000000 		.4byte	.LFE40-.LFB40
 1076 0250 01       		.uleb128 0x1
 1077 0251 9C       		.byte	0x9c
 1078 0252 75020000 		.4byte	0x275
 1079 0256 13       		.uleb128 0x13
 1080 0257 93010000 		.4byte	.LASF36
 1081 025b 01       		.byte	0x1
 1082 025c 4C01     		.2byte	0x14c
 1083 025e B8000000 		.4byte	0xb8
 1084 0262 02       		.uleb128 0x2
 1085 0263 91       		.byte	0x91
 1086 0264 70       		.sleb128 -16
 1087 0265 13       		.uleb128 0x13
 1088 0266 50000000 		.4byte	.LASF38
 1089 026a 01       		.byte	0x1
 1090 026b 4D01     		.2byte	0x14d
 1091 026d B8000000 		.4byte	0xb8
 1092 0271 02       		.uleb128 0x2
 1093 0272 91       		.byte	0x91
 1094 0273 74       		.sleb128 -12
 1095 0274 00       		.byte	0
 1096 0275 15       		.uleb128 0x15
ARM GAS  C:\Users\ole\AppData\Local\Temp\ccEH75ob.s 			page 28


 1097 0276 F3010000 		.4byte	.LASF39
 1098 027a 01       		.byte	0x1
 1099 027b 6301     		.2byte	0x163
 1100 027d 00000000 		.4byte	.LFB41
 1101 0281 14000000 		.4byte	.LFE41-.LFB41
 1102 0285 01       		.uleb128 0x1
 1103 0286 9C       		.byte	0x9c
 1104 0287 11       		.uleb128 0x11
 1105 0288 E0020000 		.4byte	.LASF41
 1106 028c 01       		.byte	0x1
 1107 028d 7801     		.2byte	0x178
 1108 028f AD000000 		.4byte	0xad
 1109 0293 00000000 		.4byte	.LFB42
 1110 0297 20000000 		.4byte	.LFE42-.LFB42
 1111 029b 01       		.uleb128 0x1
 1112 029c 9C       		.byte	0x9c
 1113 029d 15       		.uleb128 0x15
 1114 029e F1030000 		.4byte	.LASF42
 1115 02a2 01       		.byte	0x1
 1116 02a3 8D01     		.2byte	0x18d
 1117 02a5 00000000 		.4byte	.LFB43
 1118 02a9 14000000 		.4byte	.LFE43-.LFB43
 1119 02ad 01       		.uleb128 0x1
 1120 02ae 9C       		.byte	0x9c
 1121 02af 15       		.uleb128 0x15
 1122 02b0 33030000 		.4byte	.LASF43
 1123 02b4 01       		.byte	0x1
 1124 02b5 A301     		.2byte	0x1a3
 1125 02b7 00000000 		.4byte	.LFB44
 1126 02bb 14000000 		.4byte	.LFE44-.LFB44
 1127 02bf 01       		.uleb128 0x1
 1128 02c0 9C       		.byte	0x9c
 1129 02c1 15       		.uleb128 0x15
 1130 02c2 8C000000 		.4byte	.LASF44
 1131 02c6 01       		.byte	0x1
 1132 02c7 B701     		.2byte	0x1b7
 1133 02c9 00000000 		.4byte	.LFB45
 1134 02cd 14000000 		.4byte	.LFE45-.LFB45
 1135 02d1 01       		.uleb128 0x1
 1136 02d2 9C       		.byte	0x9c
 1137 02d3 16       		.uleb128 0x16
 1138 02d4 8C000000 		.4byte	0x8c
 1139 02d8 E3020000 		.4byte	0x2e3
 1140 02dc 17       		.uleb128 0x17
 1141 02dd FC000000 		.4byte	0xfc
 1142 02e1 03       		.byte	0x3
 1143 02e2 00       		.byte	0
 1144 02e3 18       		.uleb128 0x18
 1145 02e4 3E010000 		.4byte	.LASF45
 1146 02e8 01       		.byte	0x1
 1147 02e9 22       		.byte	0x22
 1148 02ea D3020000 		.4byte	0x2d3
 1149 02ee 18       		.uleb128 0x18
 1150 02ef 17030000 		.4byte	.LASF46
 1151 02f3 01       		.byte	0x1
 1152 02f4 23       		.byte	0x23
 1153 02f5 D3020000 		.4byte	0x2d3
ARM GAS  C:\Users\ole\AppData\Local\Temp\ccEH75ob.s 			page 29


 1154 02f9 16       		.uleb128 0x16
 1155 02fa 8C000000 		.4byte	0x8c
 1156 02fe 09030000 		.4byte	0x309
 1157 0302 17       		.uleb128 0x17
 1158 0303 FC000000 		.4byte	0xfc
 1159 0307 07       		.byte	0x7
 1160 0308 00       		.byte	0
 1161 0309 18       		.uleb128 0x18
 1162 030a 22000000 		.4byte	.LASF47
 1163 030e 01       		.byte	0x1
 1164 030f 24       		.byte	0x24
 1165 0310 F9020000 		.4byte	0x2f9
 1166 0314 18       		.uleb128 0x18
 1167 0315 00000000 		.4byte	.LASF48
 1168 0319 01       		.byte	0x1
 1169 031a 26       		.byte	0x26
 1170 031b 8C000000 		.4byte	0x8c
 1171 031f 19       		.uleb128 0x19
 1172 0320 96020000 		.4byte	.LASF49
 1173 0324 01       		.byte	0x1
 1174 0325 28       		.byte	0x28
 1175 0326 A2000000 		.4byte	0xa2
 1176 032a 05       		.uleb128 0x5
 1177 032b 03       		.byte	0x3
 1178 032c 00000000 		.4byte	seconds
 1179 0330 18       		.uleb128 0x18
 1180 0331 DD010000 		.4byte	.LASF50
 1181 0335 01       		.byte	0x1
 1182 0336 2A       		.byte	0x2a
 1183 0337 97000000 		.4byte	0x97
 1184 033b 18       		.uleb128 0x18
 1185 033c C7010000 		.4byte	.LASF51
 1186 0340 01       		.byte	0x1
 1187 0341 2B       		.byte	0x2b
 1188 0342 97000000 		.4byte	0x97
 1189 0346 18       		.uleb128 0x18
 1190 0347 09000000 		.4byte	.LASF52
 1191 034b 01       		.byte	0x1
 1192 034c 2C       		.byte	0x2c
 1193 034d 97000000 		.4byte	0x97
 1194 0351 19       		.uleb128 0x19
 1195 0352 79030000 		.4byte	.LASF53
 1196 0356 01       		.byte	0x1
 1197 0357 30       		.byte	0x30
 1198 0358 97000000 		.4byte	0x97
 1199 035c 05       		.uleb128 0x5
 1200 035d 03       		.byte	0x3
 1201 035e 00000000 		.4byte	counter_blink
 1202 0362 19       		.uleb128 0x19
 1203 0363 5F000000 		.4byte	.LASF54
 1204 0367 01       		.byte	0x1
 1205 0368 31       		.byte	0x31
 1206 0369 97000000 		.4byte	0x97
 1207 036d 05       		.uleb128 0x5
 1208 036e 03       		.byte	0x3
 1209 036f 00000000 		.4byte	counter_off_millis
 1210 0373 19       		.uleb128 0x19
ARM GAS  C:\Users\ole\AppData\Local\Temp\ccEH75ob.s 			page 30


 1211 0374 F3020000 		.4byte	.LASF55
 1212 0378 01       		.byte	0x1
 1213 0379 32       		.byte	0x32
 1214 037a 97000000 		.4byte	0x97
 1215 037e 05       		.uleb128 0x5
 1216 037f 03       		.byte	0x3
 1217 0380 00000000 		.4byte	counter_setup_millis
 1218 0384 19       		.uleb128 0x19
 1219 0385 60030000 		.4byte	.LASF56
 1220 0389 01       		.byte	0x1
 1221 038a 33       		.byte	0x33
 1222 038b 97000000 		.4byte	0x97
 1223 038f 05       		.uleb128 0x5
 1224 0390 03       		.byte	0x3
 1225 0391 00000000 		.4byte	counter_setup_adj_millis
 1226 0395 19       		.uleb128 0x19
 1227 0396 A7030000 		.4byte	.LASF57
 1228 039a 01       		.byte	0x1
 1229 039b 34       		.byte	0x34
 1230 039c 97000000 		.4byte	0x97
 1231 03a0 05       		.uleb128 0x5
 1232 03a1 03       		.byte	0x3
 1233 03a2 00000000 		.4byte	counter_button_millis
 1234 03a6 16       		.uleb128 0x16
 1235 03a7 E9000000 		.4byte	0xe9
 1236 03ab B6030000 		.4byte	0x3b6
 1237 03af 17       		.uleb128 0x17
 1238 03b0 FC000000 		.4byte	0xfc
 1239 03b4 2F       		.byte	0x2f
 1240 03b5 00       		.byte	0
 1241 03b6 18       		.uleb128 0x18
 1242 03b7 D3020000 		.4byte	.LASF58
 1243 03bb 01       		.byte	0x1
 1244 03bc 38       		.byte	0x38
 1245 03bd A6030000 		.4byte	0x3a6
 1246 03c1 00       		.byte	0
 1247              		.section	.debug_abbrev,"",%progbits
 1248              	.Ldebug_abbrev0:
 1249 0000 01       		.uleb128 0x1
 1250 0001 11       		.uleb128 0x11
 1251 0002 01       		.byte	0x1
 1252 0003 25       		.uleb128 0x25
 1253 0004 0E       		.uleb128 0xe
 1254 0005 13       		.uleb128 0x13
 1255 0006 0B       		.uleb128 0xb
 1256 0007 03       		.uleb128 0x3
 1257 0008 0E       		.uleb128 0xe
 1258 0009 1B       		.uleb128 0x1b
 1259 000a 0E       		.uleb128 0xe
 1260 000b 55       		.uleb128 0x55
 1261 000c 17       		.uleb128 0x17
 1262 000d 11       		.uleb128 0x11
 1263 000e 01       		.uleb128 0x1
 1264 000f 10       		.uleb128 0x10
 1265 0010 17       		.uleb128 0x17
 1266 0011 00       		.byte	0
 1267 0012 00       		.byte	0
ARM GAS  C:\Users\ole\AppData\Local\Temp\ccEH75ob.s 			page 31


 1268 0013 02       		.uleb128 0x2
 1269 0014 24       		.uleb128 0x24
 1270 0015 00       		.byte	0
 1271 0016 0B       		.uleb128 0xb
 1272 0017 0B       		.uleb128 0xb
 1273 0018 3E       		.uleb128 0x3e
 1274 0019 0B       		.uleb128 0xb
 1275 001a 03       		.uleb128 0x3
 1276 001b 0E       		.uleb128 0xe
 1277 001c 00       		.byte	0
 1278 001d 00       		.byte	0
 1279 001e 03       		.uleb128 0x3
 1280 001f 16       		.uleb128 0x16
 1281 0020 00       		.byte	0
 1282 0021 03       		.uleb128 0x3
 1283 0022 0E       		.uleb128 0xe
 1284 0023 3A       		.uleb128 0x3a
 1285 0024 0B       		.uleb128 0xb
 1286 0025 3B       		.uleb128 0x3b
 1287 0026 0B       		.uleb128 0xb
 1288 0027 49       		.uleb128 0x49
 1289 0028 13       		.uleb128 0x13
 1290 0029 00       		.byte	0
 1291 002a 00       		.byte	0
 1292 002b 04       		.uleb128 0x4
 1293 002c 24       		.uleb128 0x24
 1294 002d 00       		.byte	0
 1295 002e 0B       		.uleb128 0xb
 1296 002f 0B       		.uleb128 0xb
 1297 0030 3E       		.uleb128 0x3e
 1298 0031 0B       		.uleb128 0xb
 1299 0032 03       		.uleb128 0x3
 1300 0033 08       		.uleb128 0x8
 1301 0034 00       		.byte	0
 1302 0035 00       		.byte	0
 1303 0036 05       		.uleb128 0x5
 1304 0037 16       		.uleb128 0x16
 1305 0038 00       		.byte	0
 1306 0039 03       		.uleb128 0x3
 1307 003a 0E       		.uleb128 0xe
 1308 003b 3A       		.uleb128 0x3a
 1309 003c 0B       		.uleb128 0xb
 1310 003d 3B       		.uleb128 0x3b
 1311 003e 05       		.uleb128 0x5
 1312 003f 49       		.uleb128 0x49
 1313 0040 13       		.uleb128 0x13
 1314 0041 00       		.byte	0
 1315 0042 00       		.byte	0
 1316 0043 06       		.uleb128 0x6
 1317 0044 35       		.uleb128 0x35
 1318 0045 00       		.byte	0
 1319 0046 49       		.uleb128 0x49
 1320 0047 13       		.uleb128 0x13
 1321 0048 00       		.byte	0
 1322 0049 00       		.byte	0
 1323 004a 07       		.uleb128 0x7
 1324 004b 0F       		.uleb128 0xf
ARM GAS  C:\Users\ole\AppData\Local\Temp\ccEH75ob.s 			page 32


 1325 004c 00       		.byte	0
 1326 004d 0B       		.uleb128 0xb
 1327 004e 0B       		.uleb128 0xb
 1328 004f 49       		.uleb128 0x49
 1329 0050 13       		.uleb128 0x13
 1330 0051 00       		.byte	0
 1331 0052 00       		.byte	0
 1332 0053 08       		.uleb128 0x8
 1333 0054 15       		.uleb128 0x15
 1334 0055 00       		.byte	0
 1335 0056 27       		.uleb128 0x27
 1336 0057 19       		.uleb128 0x19
 1337 0058 00       		.byte	0
 1338 0059 00       		.byte	0
 1339 005a 09       		.uleb128 0x9
 1340 005b 04       		.uleb128 0x4
 1341 005c 01       		.byte	0x1
 1342 005d 03       		.uleb128 0x3
 1343 005e 0E       		.uleb128 0xe
 1344 005f 0B       		.uleb128 0xb
 1345 0060 0B       		.uleb128 0xb
 1346 0061 3A       		.uleb128 0x3a
 1347 0062 0B       		.uleb128 0xb
 1348 0063 3B       		.uleb128 0x3b
 1349 0064 0B       		.uleb128 0xb
 1350 0065 01       		.uleb128 0x1
 1351 0066 13       		.uleb128 0x13
 1352 0067 00       		.byte	0
 1353 0068 00       		.byte	0
 1354 0069 0A       		.uleb128 0xa
 1355 006a 28       		.uleb128 0x28
 1356 006b 00       		.byte	0
 1357 006c 03       		.uleb128 0x3
 1358 006d 0E       		.uleb128 0xe
 1359 006e 1C       		.uleb128 0x1c
 1360 006f 0D       		.uleb128 0xd
 1361 0070 00       		.byte	0
 1362 0071 00       		.byte	0
 1363 0072 0B       		.uleb128 0xb
 1364 0073 28       		.uleb128 0x28
 1365 0074 00       		.byte	0
 1366 0075 03       		.uleb128 0x3
 1367 0076 08       		.uleb128 0x8
 1368 0077 1C       		.uleb128 0x1c
 1369 0078 0D       		.uleb128 0xd
 1370 0079 00       		.byte	0
 1371 007a 00       		.byte	0
 1372 007b 0C       		.uleb128 0xc
 1373 007c 2E       		.uleb128 0x2e
 1374 007d 00       		.byte	0
 1375 007e 3F       		.uleb128 0x3f
 1376 007f 19       		.uleb128 0x19
 1377 0080 03       		.uleb128 0x3
 1378 0081 0E       		.uleb128 0xe
 1379 0082 3A       		.uleb128 0x3a
 1380 0083 0B       		.uleb128 0xb
 1381 0084 3B       		.uleb128 0x3b
ARM GAS  C:\Users\ole\AppData\Local\Temp\ccEH75ob.s 			page 33


 1382 0085 0B       		.uleb128 0xb
 1383 0086 27       		.uleb128 0x27
 1384 0087 19       		.uleb128 0x19
 1385 0088 11       		.uleb128 0x11
 1386 0089 01       		.uleb128 0x1
 1387 008a 12       		.uleb128 0x12
 1388 008b 06       		.uleb128 0x6
 1389 008c 40       		.uleb128 0x40
 1390 008d 18       		.uleb128 0x18
 1391 008e 9642     		.uleb128 0x2116
 1392 0090 19       		.uleb128 0x19
 1393 0091 00       		.byte	0
 1394 0092 00       		.byte	0
 1395 0093 0D       		.uleb128 0xd
 1396 0094 2E       		.uleb128 0x2e
 1397 0095 01       		.byte	0x1
 1398 0096 3F       		.uleb128 0x3f
 1399 0097 19       		.uleb128 0x19
 1400 0098 03       		.uleb128 0x3
 1401 0099 0E       		.uleb128 0xe
 1402 009a 3A       		.uleb128 0x3a
 1403 009b 0B       		.uleb128 0xb
 1404 009c 3B       		.uleb128 0x3b
 1405 009d 0B       		.uleb128 0xb
 1406 009e 27       		.uleb128 0x27
 1407 009f 19       		.uleb128 0x19
 1408 00a0 11       		.uleb128 0x11
 1409 00a1 01       		.uleb128 0x1
 1410 00a2 12       		.uleb128 0x12
 1411 00a3 06       		.uleb128 0x6
 1412 00a4 40       		.uleb128 0x40
 1413 00a5 18       		.uleb128 0x18
 1414 00a6 9642     		.uleb128 0x2116
 1415 00a8 19       		.uleb128 0x19
 1416 00a9 01       		.uleb128 0x1
 1417 00aa 13       		.uleb128 0x13
 1418 00ab 00       		.byte	0
 1419 00ac 00       		.byte	0
 1420 00ad 0E       		.uleb128 0xe
 1421 00ae 05       		.uleb128 0x5
 1422 00af 00       		.byte	0
 1423 00b0 03       		.uleb128 0x3
 1424 00b1 0E       		.uleb128 0xe
 1425 00b2 3A       		.uleb128 0x3a
 1426 00b3 0B       		.uleb128 0xb
 1427 00b4 3B       		.uleb128 0x3b
 1428 00b5 0B       		.uleb128 0xb
 1429 00b6 49       		.uleb128 0x49
 1430 00b7 13       		.uleb128 0x13
 1431 00b8 02       		.uleb128 0x2
 1432 00b9 18       		.uleb128 0x18
 1433 00ba 00       		.byte	0
 1434 00bb 00       		.byte	0
 1435 00bc 0F       		.uleb128 0xf
 1436 00bd 2E       		.uleb128 0x2e
 1437 00be 01       		.byte	0x1
 1438 00bf 3F       		.uleb128 0x3f
ARM GAS  C:\Users\ole\AppData\Local\Temp\ccEH75ob.s 			page 34


 1439 00c0 19       		.uleb128 0x19
 1440 00c1 03       		.uleb128 0x3
 1441 00c2 0E       		.uleb128 0xe
 1442 00c3 3A       		.uleb128 0x3a
 1443 00c4 0B       		.uleb128 0xb
 1444 00c5 3B       		.uleb128 0x3b
 1445 00c6 05       		.uleb128 0x5
 1446 00c7 27       		.uleb128 0x27
 1447 00c8 19       		.uleb128 0x19
 1448 00c9 11       		.uleb128 0x11
 1449 00ca 01       		.uleb128 0x1
 1450 00cb 12       		.uleb128 0x12
 1451 00cc 06       		.uleb128 0x6
 1452 00cd 40       		.uleb128 0x40
 1453 00ce 18       		.uleb128 0x18
 1454 00cf 9742     		.uleb128 0x2117
 1455 00d1 19       		.uleb128 0x19
 1456 00d2 01       		.uleb128 0x1
 1457 00d3 13       		.uleb128 0x13
 1458 00d4 00       		.byte	0
 1459 00d5 00       		.byte	0
 1460 00d6 10       		.uleb128 0x10
 1461 00d7 05       		.uleb128 0x5
 1462 00d8 00       		.byte	0
 1463 00d9 03       		.uleb128 0x3
 1464 00da 0E       		.uleb128 0xe
 1465 00db 3A       		.uleb128 0x3a
 1466 00dc 0B       		.uleb128 0xb
 1467 00dd 3B       		.uleb128 0x3b
 1468 00de 05       		.uleb128 0x5
 1469 00df 49       		.uleb128 0x49
 1470 00e0 13       		.uleb128 0x13
 1471 00e1 02       		.uleb128 0x2
 1472 00e2 18       		.uleb128 0x18
 1473 00e3 00       		.byte	0
 1474 00e4 00       		.byte	0
 1475 00e5 11       		.uleb128 0x11
 1476 00e6 2E       		.uleb128 0x2e
 1477 00e7 00       		.byte	0
 1478 00e8 3F       		.uleb128 0x3f
 1479 00e9 19       		.uleb128 0x19
 1480 00ea 03       		.uleb128 0x3
 1481 00eb 0E       		.uleb128 0xe
 1482 00ec 3A       		.uleb128 0x3a
 1483 00ed 0B       		.uleb128 0xb
 1484 00ee 3B       		.uleb128 0x3b
 1485 00ef 05       		.uleb128 0x5
 1486 00f0 27       		.uleb128 0x27
 1487 00f1 19       		.uleb128 0x19
 1488 00f2 49       		.uleb128 0x49
 1489 00f3 13       		.uleb128 0x13
 1490 00f4 11       		.uleb128 0x11
 1491 00f5 01       		.uleb128 0x1
 1492 00f6 12       		.uleb128 0x12
 1493 00f7 06       		.uleb128 0x6
 1494 00f8 40       		.uleb128 0x40
 1495 00f9 18       		.uleb128 0x18
ARM GAS  C:\Users\ole\AppData\Local\Temp\ccEH75ob.s 			page 35


 1496 00fa 9742     		.uleb128 0x2117
 1497 00fc 19       		.uleb128 0x19
 1498 00fd 00       		.byte	0
 1499 00fe 00       		.byte	0
 1500 00ff 12       		.uleb128 0x12
 1501 0100 2E       		.uleb128 0x2e
 1502 0101 01       		.byte	0x1
 1503 0102 3F       		.uleb128 0x3f
 1504 0103 19       		.uleb128 0x19
 1505 0104 03       		.uleb128 0x3
 1506 0105 0E       		.uleb128 0xe
 1507 0106 3A       		.uleb128 0x3a
 1508 0107 0B       		.uleb128 0xb
 1509 0108 3B       		.uleb128 0x3b
 1510 0109 05       		.uleb128 0x5
 1511 010a 27       		.uleb128 0x27
 1512 010b 19       		.uleb128 0x19
 1513 010c 11       		.uleb128 0x11
 1514 010d 01       		.uleb128 0x1
 1515 010e 12       		.uleb128 0x12
 1516 010f 06       		.uleb128 0x6
 1517 0110 40       		.uleb128 0x40
 1518 0111 18       		.uleb128 0x18
 1519 0112 9642     		.uleb128 0x2116
 1520 0114 19       		.uleb128 0x19
 1521 0115 01       		.uleb128 0x1
 1522 0116 13       		.uleb128 0x13
 1523 0117 00       		.byte	0
 1524 0118 00       		.byte	0
 1525 0119 13       		.uleb128 0x13
 1526 011a 34       		.uleb128 0x34
 1527 011b 00       		.byte	0
 1528 011c 03       		.uleb128 0x3
 1529 011d 0E       		.uleb128 0xe
 1530 011e 3A       		.uleb128 0x3a
 1531 011f 0B       		.uleb128 0xb
 1532 0120 3B       		.uleb128 0x3b
 1533 0121 05       		.uleb128 0x5
 1534 0122 49       		.uleb128 0x49
 1535 0123 13       		.uleb128 0x13
 1536 0124 02       		.uleb128 0x2
 1537 0125 18       		.uleb128 0x18
 1538 0126 00       		.byte	0
 1539 0127 00       		.byte	0
 1540 0128 14       		.uleb128 0x14
 1541 0129 2E       		.uleb128 0x2e
 1542 012a 01       		.byte	0x1
 1543 012b 3F       		.uleb128 0x3f
 1544 012c 19       		.uleb128 0x19
 1545 012d 03       		.uleb128 0x3
 1546 012e 0E       		.uleb128 0xe
 1547 012f 3A       		.uleb128 0x3a
 1548 0130 0B       		.uleb128 0xb
 1549 0131 3B       		.uleb128 0x3b
 1550 0132 05       		.uleb128 0x5
 1551 0133 27       		.uleb128 0x27
 1552 0134 19       		.uleb128 0x19
ARM GAS  C:\Users\ole\AppData\Local\Temp\ccEH75ob.s 			page 36


 1553 0135 49       		.uleb128 0x49
 1554 0136 13       		.uleb128 0x13
 1555 0137 11       		.uleb128 0x11
 1556 0138 01       		.uleb128 0x1
 1557 0139 12       		.uleb128 0x12
 1558 013a 06       		.uleb128 0x6
 1559 013b 40       		.uleb128 0x40
 1560 013c 18       		.uleb128 0x18
 1561 013d 9742     		.uleb128 0x2117
 1562 013f 19       		.uleb128 0x19
 1563 0140 01       		.uleb128 0x1
 1564 0141 13       		.uleb128 0x13
 1565 0142 00       		.byte	0
 1566 0143 00       		.byte	0
 1567 0144 15       		.uleb128 0x15
 1568 0145 2E       		.uleb128 0x2e
 1569 0146 00       		.byte	0
 1570 0147 3F       		.uleb128 0x3f
 1571 0148 19       		.uleb128 0x19
 1572 0149 03       		.uleb128 0x3
 1573 014a 0E       		.uleb128 0xe
 1574 014b 3A       		.uleb128 0x3a
 1575 014c 0B       		.uleb128 0xb
 1576 014d 3B       		.uleb128 0x3b
 1577 014e 05       		.uleb128 0x5
 1578 014f 27       		.uleb128 0x27
 1579 0150 19       		.uleb128 0x19
 1580 0151 11       		.uleb128 0x11
 1581 0152 01       		.uleb128 0x1
 1582 0153 12       		.uleb128 0x12
 1583 0154 06       		.uleb128 0x6
 1584 0155 40       		.uleb128 0x40
 1585 0156 18       		.uleb128 0x18
 1586 0157 9742     		.uleb128 0x2117
 1587 0159 19       		.uleb128 0x19
 1588 015a 00       		.byte	0
 1589 015b 00       		.byte	0
 1590 015c 16       		.uleb128 0x16
 1591 015d 01       		.uleb128 0x1
 1592 015e 01       		.byte	0x1
 1593 015f 49       		.uleb128 0x49
 1594 0160 13       		.uleb128 0x13
 1595 0161 01       		.uleb128 0x1
 1596 0162 13       		.uleb128 0x13
 1597 0163 00       		.byte	0
 1598 0164 00       		.byte	0
 1599 0165 17       		.uleb128 0x17
 1600 0166 21       		.uleb128 0x21
 1601 0167 00       		.byte	0
 1602 0168 49       		.uleb128 0x49
 1603 0169 13       		.uleb128 0x13
 1604 016a 2F       		.uleb128 0x2f
 1605 016b 0B       		.uleb128 0xb
 1606 016c 00       		.byte	0
 1607 016d 00       		.byte	0
 1608 016e 18       		.uleb128 0x18
 1609 016f 34       		.uleb128 0x34
ARM GAS  C:\Users\ole\AppData\Local\Temp\ccEH75ob.s 			page 37


 1610 0170 00       		.byte	0
 1611 0171 03       		.uleb128 0x3
 1612 0172 0E       		.uleb128 0xe
 1613 0173 3A       		.uleb128 0x3a
 1614 0174 0B       		.uleb128 0xb
 1615 0175 3B       		.uleb128 0x3b
 1616 0176 0B       		.uleb128 0xb
 1617 0177 49       		.uleb128 0x49
 1618 0178 13       		.uleb128 0x13
 1619 0179 3F       		.uleb128 0x3f
 1620 017a 19       		.uleb128 0x19
 1621 017b 3C       		.uleb128 0x3c
 1622 017c 19       		.uleb128 0x19
 1623 017d 00       		.byte	0
 1624 017e 00       		.byte	0
 1625 017f 19       		.uleb128 0x19
 1626 0180 34       		.uleb128 0x34
 1627 0181 00       		.byte	0
 1628 0182 03       		.uleb128 0x3
 1629 0183 0E       		.uleb128 0xe
 1630 0184 3A       		.uleb128 0x3a
 1631 0185 0B       		.uleb128 0xb
 1632 0186 3B       		.uleb128 0x3b
 1633 0187 0B       		.uleb128 0xb
 1634 0188 49       		.uleb128 0x49
 1635 0189 13       		.uleb128 0x13
 1636 018a 3F       		.uleb128 0x3f
 1637 018b 19       		.uleb128 0x19
 1638 018c 02       		.uleb128 0x2
 1639 018d 18       		.uleb128 0x18
 1640 018e 00       		.byte	0
 1641 018f 00       		.byte	0
 1642 0190 00       		.byte	0
 1643              		.section	.debug_aranges,"",%progbits
 1644 0000 7C000000 		.4byte	0x7c
 1645 0004 0200     		.2byte	0x2
 1646 0006 00000000 		.4byte	.Ldebug_info0
 1647 000a 04       		.byte	0x4
 1648 000b 00       		.byte	0
 1649 000c 0000     		.2byte	0
 1650 000e 0000     		.2byte	0
 1651 0010 00000000 		.4byte	.LFB33
 1652 0014 24000000 		.4byte	.LFE33-.LFB33
 1653 0018 00000000 		.4byte	.LFB34
 1654 001c 24000000 		.4byte	.LFE34-.LFB34
 1655 0020 00000000 		.4byte	.LFB35
 1656 0024 18000000 		.4byte	.LFE35-.LFB35
 1657 0028 00000000 		.4byte	.LFB36
 1658 002c A8010000 		.4byte	.LFE36-.LFB36
 1659 0030 00000000 		.4byte	.LFB37
 1660 0034 1C000000 		.4byte	.LFE37-.LFB37
 1661 0038 00000000 		.4byte	.LFB38
 1662 003c 14000000 		.4byte	.LFE38-.LFB38
 1663 0040 00000000 		.4byte	.LFB39
 1664 0044 50000000 		.4byte	.LFE39-.LFB39
 1665 0048 00000000 		.4byte	.LFB40
 1666 004c 30000000 		.4byte	.LFE40-.LFB40
ARM GAS  C:\Users\ole\AppData\Local\Temp\ccEH75ob.s 			page 38


 1667 0050 00000000 		.4byte	.LFB41
 1668 0054 14000000 		.4byte	.LFE41-.LFB41
 1669 0058 00000000 		.4byte	.LFB42
 1670 005c 20000000 		.4byte	.LFE42-.LFB42
 1671 0060 00000000 		.4byte	.LFB43
 1672 0064 14000000 		.4byte	.LFE43-.LFB43
 1673 0068 00000000 		.4byte	.LFB44
 1674 006c 14000000 		.4byte	.LFE44-.LFB44
 1675 0070 00000000 		.4byte	.LFB45
 1676 0074 14000000 		.4byte	.LFE45-.LFB45
 1677 0078 00000000 		.4byte	0
 1678 007c 00000000 		.4byte	0
 1679              		.section	.debug_ranges,"",%progbits
 1680              	.Ldebug_ranges0:
 1681 0000 00000000 		.4byte	.LFB33
 1682 0004 24000000 		.4byte	.LFE33
 1683 0008 00000000 		.4byte	.LFB34
 1684 000c 24000000 		.4byte	.LFE34
 1685 0010 00000000 		.4byte	.LFB35
 1686 0014 18000000 		.4byte	.LFE35
 1687 0018 00000000 		.4byte	.LFB36
 1688 001c A8010000 		.4byte	.LFE36
 1689 0020 00000000 		.4byte	.LFB37
 1690 0024 1C000000 		.4byte	.LFE37
 1691 0028 00000000 		.4byte	.LFB38
 1692 002c 14000000 		.4byte	.LFE38
 1693 0030 00000000 		.4byte	.LFB39
 1694 0034 50000000 		.4byte	.LFE39
 1695 0038 00000000 		.4byte	.LFB40
 1696 003c 30000000 		.4byte	.LFE40
 1697 0040 00000000 		.4byte	.LFB41
 1698 0044 14000000 		.4byte	.LFE41
 1699 0048 00000000 		.4byte	.LFB42
 1700 004c 20000000 		.4byte	.LFE42
 1701 0050 00000000 		.4byte	.LFB43
 1702 0054 14000000 		.4byte	.LFE43
 1703 0058 00000000 		.4byte	.LFB44
 1704 005c 14000000 		.4byte	.LFE44
 1705 0060 00000000 		.4byte	.LFB45
 1706 0064 14000000 		.4byte	.LFE45
 1707 0068 00000000 		.4byte	0
 1708 006c 00000000 		.4byte	0
 1709              		.section	.debug_line,"",%progbits
 1710              	.Ldebug_line0:
 1711 0000 83020000 		.section	.debug_str,"MS",%progbits,1
 1711      02004601 
 1711      00000201 
 1711      FB0E0D00 
 1711      01010101 
 1712              	.LASF48:
 1713 0000 6C696768 		.ascii	"lightOff\000"
 1713      744F6666 
 1713      00
 1714              	.LASF52:
 1715 0009 666C6173 		.ascii	"flashTime_CollisionLight\000"
 1715      6854696D 
 1715      655F436F 
ARM GAS  C:\Users\ole\AppData\Local\Temp\ccEH75ob.s 			page 39


 1715      6C6C6973 
 1715      696F6E4C 
 1716              	.LASF47:
 1717 0022 6368616E 		.ascii	"channelValue\000"
 1717      6E656C56 
 1717      616C7565 
 1717      00
 1718              	.LASF3:
 1719 002f 5F5F7569 		.ascii	"__uint8_t\000"
 1719      6E74385F 
 1719      7400
 1720              	.LASF10:
 1721 0039 6C6F6E67 		.ascii	"long long unsigned int\000"
 1721      206C6F6E 
 1721      6720756E 
 1721      7369676E 
 1721      65642069 
 1722              	.LASF38:
 1723 0050 7072696F 		.ascii	"priorityOffset\000"
 1723      72697479 
 1723      4F666673 
 1723      657400
 1724              	.LASF54:
 1725 005f 636F756E 		.ascii	"counter_off_millis\000"
 1725      7465725F 
 1725      6F66665F 
 1725      6D696C6C 
 1725      697300
 1726              	.LASF9:
 1727 0072 6C6F6E67 		.ascii	"long long int\000"
 1727      206C6F6E 
 1727      6720696E 
 1727      7400
 1728              	.LASF0:
 1729 0080 7369676E 		.ascii	"signed char\000"
 1729      65642063 
 1729      68617200 
 1730              	.LASF44:
 1731 008c 6973725F 		.ascii	"isr_blink_ClearPending\000"
 1731      626C696E 
 1731      6B5F436C 
 1731      65617250 
 1731      656E6469 
 1732              	.LASF37:
 1733 00a3 696E7465 		.ascii	"interruptState\000"
 1733      72727570 
 1733      74537461 
 1733      746500
 1734              	.LASF6:
 1735 00b2 6C6F6E67 		.ascii	"long int\000"
 1735      20696E74 
 1735      00
 1736              	.LASF31:
 1737 00bb 6973725F 		.ascii	"isr_blink_Interrupt\000"
 1737      626C696E 
 1737      6B5F496E 
 1737      74657272 
ARM GAS  C:\Users\ole\AppData\Local\Temp\ccEH75ob.s 			page 40


 1737      75707400 
 1738              	.LASF15:
 1739 00cf 75696E74 		.ascii	"uint8\000"
 1739      3800
 1740              	.LASF13:
 1741 00d5 75696E74 		.ascii	"uint16_t\000"
 1741      31365F74 
 1741      00
 1742              	.LASF18:
 1743 00de 646F7562 		.ascii	"double\000"
 1743      6C6500
 1744              	.LASF26:
 1745 00e5 6C616E64 		.ascii	"landing\000"
 1745      696E6700 
 1746              	.LASF16:
 1747 00ed 75696E74 		.ascii	"uint32\000"
 1747      333200
 1748              	.LASF62:
 1749 00f4 6973725F 		.ascii	"isr_blink_GetPriority\000"
 1749      626C696E 
 1749      6B5F4765 
 1749      74507269 
 1749      6F726974 
 1750              	.LASF28:
 1751 010a 6368616E 		.ascii	"chanels\000"
 1751      656C7300 
 1752              	.LASF7:
 1753 0112 5F5F7569 		.ascii	"__uint32_t\000"
 1753      6E743332 
 1753      5F7400
 1754              	.LASF33:
 1755 011d 6973725F 		.ascii	"isr_blink_SetVector\000"
 1755      626C696E 
 1755      6B5F5365 
 1755      74566563 
 1755      746F7200 
 1756              	.LASF11:
 1757 0131 756E7369 		.ascii	"unsigned int\000"
 1757      676E6564 
 1757      20696E74 
 1757      00
 1758              	.LASF45:
 1759 013e 70776D5F 		.ascii	"pwm_light\000"
 1759      6C696768 
 1759      7400
 1760              	.LASF8:
 1761 0148 6C6F6E67 		.ascii	"long unsigned int\000"
 1761      20756E73 
 1761      69676E65 
 1761      6420696E 
 1761      7400
 1762              	.LASF61:
 1763 015a 583A5C44 		.ascii	"X:\\Dokumente\\Ole\\FLC\\FLC.cydsn\000"
 1763      6F6B756D 
 1763      656E7465 
 1763      5C4F6C65 
 1763      5C464C43 
ARM GAS  C:\Users\ole\AppData\Local\Temp\ccEH75ob.s 			page 41


 1764              	.LASF23:
 1765 0179 7374726F 		.ascii	"strobe\000"
 1765      626500
 1766              	.LASF5:
 1767 0180 73686F72 		.ascii	"short unsigned int\000"
 1767      7420756E 
 1767      7369676E 
 1767      65642069 
 1767      6E7400
 1768              	.LASF36:
 1769 0193 7072696F 		.ascii	"priority\000"
 1769      72697479 
 1769      00
 1770              	.LASF20:
 1771 019c 72656733 		.ascii	"reg32\000"
 1771      3200
 1772              	.LASF22:
 1773 01a2 73697A65 		.ascii	"sizetype\000"
 1773      74797065 
 1773      00
 1774              	.LASF40:
 1775 01ab 6973725F 		.ascii	"isr_blink_GetVector\000"
 1775      626C696E 
 1775      6B5F4765 
 1775      74566563 
 1775      746F7200 
 1776              	.LASF34:
 1777 01bf 61646472 		.ascii	"address\000"
 1777      65737300 
 1778              	.LASF51:
 1779 01c7 70617573 		.ascii	"pauseTime_StrobeLight\000"
 1779      6554696D 
 1779      655F5374 
 1779      726F6265 
 1779      4C696768 
 1780              	.LASF50:
 1781 01dd 666C6173 		.ascii	"flashTime_StrobeLight\000"
 1781      6854696D 
 1781      655F5374 
 1781      726F6265 
 1781      4C696768 
 1782              	.LASF39:
 1783 01f3 6973725F 		.ascii	"isr_blink_Enable\000"
 1783      626C696E 
 1783      6B5F456E 
 1783      61626C65 
 1783      00
 1784              	.LASF29:
 1785 0204 6973725F 		.ascii	"isr_blink_Start\000"
 1785      626C696E 
 1785      6B5F5374 
 1785      61727400 
 1786              	.LASF17:
 1787 0214 666C6F61 		.ascii	"float\000"
 1787      7400
 1788              	.LASF59:
 1789 021a 474E5520 		.ascii	"GNU C 4.8.4 20140526 (release) [ARM/embedded-4_8-br"
ARM GAS  C:\Users\ole\AppData\Local\Temp\ccEH75ob.s 			page 42


 1789      4320342E 
 1789      382E3420 
 1789      32303134 
 1789      30353236 
 1790 024d 616E6368 		.ascii	"anch revision 211358] -mcpu=cortex-m0 -mthumb -g -O"
 1790      20726576 
 1790      6973696F 
 1790      6E203231 
 1790      31333538 
 1791 0280 30202D66 		.ascii	"0 -ffunction-sections\000"
 1791      66756E63 
 1791      74696F6E 
 1791      2D736563 
 1791      74696F6E 
 1792              	.LASF49:
 1793 0296 7365636F 		.ascii	"seconds\000"
 1793      6E647300 
 1794              	.LASF25:
 1795 029e 6E617669 		.ascii	"navigation\000"
 1795      67617469 
 1795      6F6E00
 1796              	.LASF1:
 1797 02a9 756E7369 		.ascii	"unsigned char\000"
 1797      676E6564 
 1797      20636861 
 1797      7200
 1798              	.LASF2:
 1799 02b7 73686F72 		.ascii	"short int\000"
 1799      7420696E 
 1799      7400
 1800              	.LASF32:
 1801 02c1 6973725F 		.ascii	"isr_blink_StartEx\000"
 1801      626C696E 
 1801      6B5F5374 
 1801      61727445 
 1801      7800
 1802              	.LASF58:
 1803 02d3 43795261 		.ascii	"CyRamVectors\000"
 1803      6D566563 
 1803      746F7273 
 1803      00
 1804              	.LASF41:
 1805 02e0 6973725F 		.ascii	"isr_blink_GetState\000"
 1805      626C696E 
 1805      6B5F4765 
 1805      74537461 
 1805      746500
 1806              	.LASF55:
 1807 02f3 636F756E 		.ascii	"counter_setup_millis\000"
 1807      7465725F 
 1807      73657475 
 1807      705F6D69 
 1807      6C6C6973 
 1808              	.LASF30:
 1809 0308 6973725F 		.ascii	"isr_blink_Stop\000"
 1809      626C696E 
 1809      6B5F5374 
ARM GAS  C:\Users\ole\AppData\Local\Temp\ccEH75ob.s 			page 43


 1809      6F7000
 1810              	.LASF46:
 1811 0317 70776D5F 		.ascii	"pwm_light_adj\000"
 1811      6C696768 
 1811      745F6164 
 1811      6A00
 1812              	.LASF14:
 1813 0325 75696E74 		.ascii	"uint32_t\000"
 1813      33325F74 
 1813      00
 1814              	.LASF19:
 1815 032e 63686172 		.ascii	"char\000"
 1815      00
 1816              	.LASF43:
 1817 0333 6973725F 		.ascii	"isr_blink_SetPending\000"
 1817      626C696E 
 1817      6B5F5365 
 1817      7450656E 
 1817      64696E67 
 1818              	.LASF21:
 1819 0348 63796973 		.ascii	"cyisraddress\000"
 1819      72616464 
 1819      72657373 
 1819      00
 1820              	.LASF4:
 1821 0355 5F5F7569 		.ascii	"__uint16_t\000"
 1821      6E743136 
 1821      5F7400
 1822              	.LASF56:
 1823 0360 636F756E 		.ascii	"counter_setup_adj_millis\000"
 1823      7465725F 
 1823      73657475 
 1823      705F6164 
 1823      6A5F6D69 
 1824              	.LASF53:
 1825 0379 636F756E 		.ascii	"counter_blink\000"
 1825      7465725F 
 1825      626C696E 
 1825      6B00
 1826              	.LASF35:
 1827 0387 6973725F 		.ascii	"isr_blink_SetPriority\000"
 1827      626C696E 
 1827      6B5F5365 
 1827      74507269 
 1827      6F726974 
 1828              	.LASF24:
 1829 039d 636F6C6C 		.ascii	"collision\000"
 1829      6973696F 
 1829      6E00
 1830              	.LASF57:
 1831 03a7 636F756E 		.ascii	"counter_button_millis\000"
 1831      7465725F 
 1831      62757474 
 1831      6F6E5F6D 
 1831      696C6C69 
 1832              	.LASF60:
 1833 03bd 2E5C4765 		.ascii	".\\Generated_Source\\PSoC4\\isr_blink.c\000"
ARM GAS  C:\Users\ole\AppData\Local\Temp\ccEH75ob.s 			page 44


 1833      6E657261 
 1833      7465645F 
 1833      536F7572 
 1833      63655C50 
 1834              	.LASF27:
 1835 03e2 6C696768 		.ascii	"lights\000"
 1835      747300
 1836              	.LASF12:
 1837 03e9 75696E74 		.ascii	"uint8_t\000"
 1837      385F7400 
 1838              	.LASF42:
 1839 03f1 6973725F 		.ascii	"isr_blink_Disable\000"
 1839      626C696E 
 1839      6B5F4469 
 1839      7361626C 
 1839      6500
 1840              		.ident	"GCC: (GNU Tools for ARM Embedded Processors) 4.8.4 20140526 (release) [ARM/embedded-4_8-br
