ARM GAS  C:\Users\ole\AppData\Local\Temp\ccL3idsy.s 			page 1


   1              		.cpu cortex-m0
   2              		.fpu softvfp
   3              		.eabi_attribute 20, 1
   4              		.eabi_attribute 21, 1
   5              		.eabi_attribute 23, 3
   6              		.eabi_attribute 24, 1
   7              		.eabi_attribute 25, 1
   8              		.eabi_attribute 26, 1
   9              		.eabi_attribute 30, 6
  10              		.eabi_attribute 34, 0
  11              		.eabi_attribute 18, 4
  12              		.code	16
  13              		.file	"main.c"
  14              		.text
  15              	.Ltext0:
  16              		.cfi_sections	.debug_frame
  17              		.global	pwm_light
  18              		.data
  19              		.align	2
  20              		.type	pwm_light, %object
  21              		.size	pwm_light, 4
  22              	pwm_light:
  23 0000 10       		.byte	16
  24 0001 10       		.byte	16
  25 0002 10       		.byte	16
  26 0003 10       		.byte	16
  27              		.global	lightOff
  28              		.bss
  29              		.type	lightOff, %object
  30              		.size	lightOff, 1
  31              	lightOff:
  32 0000 00       		.space	1
  33              		.global	pwm_light_adj
  34              		.data
  35              		.align	2
  36              		.type	pwm_light_adj, %object
  37              		.size	pwm_light_adj, 4
  38              	pwm_light_adj:
  39 0004 10       		.byte	16
  40 0005 10       		.byte	16
  41 0006 10       		.byte	16
  42 0007 10       		.byte	16
  43              		.section	.rodata
  44              		.align	2
  45              		.type	pwm_light_init, %object
  46              		.size	pwm_light_init, 4
  47              	pwm_light_init:
  48 0000 10       		.byte	16
  49 0001 10       		.byte	16
  50 0002 10       		.byte	16
  51 0003 10       		.byte	16
  52              		.global	channelValue
  53              		.bss
  54 0001 000000   		.align	2
  55              		.type	channelValue, %object
  56              		.size	channelValue, 8
  57              	channelValue:
ARM GAS  C:\Users\ole\AppData\Local\Temp\ccL3idsy.s 			page 2


  58 0004 00000000 		.space	8
  58      00000000 
  59              		.global	flashTime_StrobeLight
  60              		.data
  61              		.align	1
  62              		.type	flashTime_StrobeLight, %object
  63              		.size	flashTime_StrobeLight, 2
  64              	flashTime_StrobeLight:
  65 0008 3C00     		.short	60
  66              		.global	pauseTime_StrobeLight
  67              		.align	1
  68              		.type	pauseTime_StrobeLight, %object
  69              		.size	pauseTime_StrobeLight, 2
  70              	pauseTime_StrobeLight:
  71 000a 3C00     		.short	60
  72              		.global	flashTime_CollisionLight
  73              		.align	1
  74              		.type	flashTime_CollisionLight, %object
  75              		.size	flashTime_CollisionLight, 2
  76              	flashTime_CollisionLight:
  77 000c 3C00     		.short	60
  78              		.global	__aeabi_idiv
  79 000e 0000     		.section	.text.main,"ax",%progbits
  80              		.align	2
  81              		.global	main
  82              		.code	16
  83              		.thumb_func
  84              		.type	main, %function
  85              	main:
  86              	.LFB33:
  87              		.file 1 ".\\main.c"
   1:.\main.c      **** /* ========================================
   2:.\main.c      ****  *
   3:.\main.c      ****  * Copyright YOUR COMPANY, THE YEAR
   4:.\main.c      ****  * All Rights Reserved
   5:.\main.c      ****  * UNPUBLISHED, LICENSED SOFTWARE.
   6:.\main.c      ****  *
   7:.\main.c      ****  * CONFIDENTIAL AND PROPRIETARY INFORMATION
   8:.\main.c      ****  * WHICH IS THE PROPERTY OF your company.
   9:.\main.c      ****  *
  10:.\main.c      ****  * ========================================
  11:.\main.c      **** */
  12:.\main.c      **** #include <project.h>
  13:.\main.c      **** enum lights {strobe = 0, collision, navigation, landing};
  14:.\main.c      **** enum chanels {ch1 = 0, ch2, ch3, ch4, ch5, ch6, ch7, ch8};
  15:.\main.c      **** 
  16:.\main.c      **** uint8_t pwm_light[4] = {0x10, 0x10, 0x10, 0x10};
  17:.\main.c      **** 
  18:.\main.c      ****     uint8_t lightOff = 0;
  19:.\main.c      **** uint8_t pwm_light_adj[4] = {0x10, 0x10, 0x10, 0x10};
  20:.\main.c      **** static const uint8 CYCODE pwm_light_init[4] = {0x10, 0x10, 0x10, 0x10};
  21:.\main.c      **** 
  22:.\main.c      **** uint8_t channelValue[8] = {0, 0, 0, 0, 0, 0, 0, 0};
  23:.\main.c      **** 
  24:.\main.c      **** extern int16_t channelTime[8];
  25:.\main.c      **** 
  26:.\main.c      **** extern uint32_t seconds;
ARM GAS  C:\Users\ole\AppData\Local\Temp\ccL3idsy.s 			page 3


  27:.\main.c      **** extern uint16_t counter_off_millis;
  28:.\main.c      **** extern uint16_t counter_setup_millis;
  29:.\main.c      **** extern uint16_t counter_button_millis;
  30:.\main.c      **** 
  31:.\main.c      **** uint16_t flashTime_StrobeLight = 60;
  32:.\main.c      **** uint16_t pauseTime_StrobeLight = 60;
  33:.\main.c      **** uint16_t flashTime_CollisionLight = 60;
  34:.\main.c      **** 
  35:.\main.c      **** int main()
  36:.\main.c      **** {
  88              		.loc 1 36 0
  89              		.cfi_startproc
  90 0000 90B5     		push	{r4, r7, lr}
  91              		.cfi_def_cfa_offset 12
  92              		.cfi_offset 4, -12
  93              		.cfi_offset 7, -8
  94              		.cfi_offset 14, -4
  95 0002 83B0     		sub	sp, sp, #12
  96              		.cfi_def_cfa_offset 24
  97 0004 00AF     		add	r7, sp, #0
  98              		.cfi_def_cfa_register 7
  37:.\main.c      ****     uint8_t i;
  38:.\main.c      ****     uint8_t uartByte;
  39:.\main.c      ****     uint8_t lightAdj = 0;
  99              		.loc 1 39 0
 100 0006 BB1D     		add	r3, r7, #6
 101 0008 0022     		mov	r2, #0
 102 000a 1A70     		strb	r2, [r3]
  40:.\main.c      **** 
  41:.\main.c      ****     /* Place your initialization/startup code here (e.g. MyInst_Start()) */
  42:.\main.c      ****     CyGlobalIntEnable;
 103              		.loc 1 42 0
 104              	@ 42 ".\main.c" 1
 105 000c 62B6     		CPSIE   i
 106              	@ 0 "" 2
  43:.\main.c      ****     PWM_Timer_Start();
 107              		.loc 1 43 0
 108              		.code	16
 109 000e FFF7FEFF 		bl	PWM_Timer_Start
  44:.\main.c      ****     Blink_Timer_Start();
 110              		.loc 1 44 0
 111 0012 FFF7FEFF 		bl	Blink_Timer_Start
  45:.\main.c      ****     RC_Timer_Start();
 112              		.loc 1 45 0
 113 0016 FFF7FEFF 		bl	RC_Timer_Start
  46:.\main.c      ****     UART_1_Start();
 114              		.loc 1 46 0
 115 001a FFF7FEFF 		bl	UART_1_Start
  47:.\main.c      ****     UART_2_Start();
 116              		.loc 1 47 0
 117 001e FFF7FEFF 		bl	UART_2_Start
  48:.\main.c      ****     isr_uart_Start();
 118              		.loc 1 48 0
 119 0022 FFF7FEFF 		bl	isr_uart_Start
  49:.\main.c      ****     isr_pwm_Start();
 120              		.loc 1 49 0
 121 0026 FFF7FEFF 		bl	isr_pwm_Start
ARM GAS  C:\Users\ole\AppData\Local\Temp\ccL3idsy.s 			page 4


  50:.\main.c      ****     isr_RC_Start();
 122              		.loc 1 50 0
 123 002a FFF7FEFF 		bl	isr_RC_Start
  51:.\main.c      ****     isr_blink_Start();
 124              		.loc 1 51 0
 125 002e FFF7FEFF 		bl	isr_blink_Start
  52:.\main.c      ****     
  53:.\main.c      ****     for (i=0;i<4;i++)
 126              		.loc 1 53 0
 127 0032 FB1D     		add	r3, r7, #7
 128 0034 0022     		mov	r2, #0
 129 0036 1A70     		strb	r2, [r3]
 130 0038 0CE0     		b	.L2
 131              	.L3:
  54:.\main.c      ****         pwm_light_adj[i] = pwm_light_init[i];
 132              		.loc 1 54 0 discriminator 2
 133 003a FB1D     		add	r3, r7, #7
 134 003c 1B78     		ldrb	r3, [r3]
 135 003e FA1D     		add	r2, r7, #7
 136 0040 1278     		ldrb	r2, [r2]
 137 0042 6749     		ldr	r1, .L20
 138 0044 895C     		ldrb	r1, [r1, r2]
 139 0046 674A     		ldr	r2, .L20+4
 140 0048 D154     		strb	r1, [r2, r3]
  53:.\main.c      ****     for (i=0;i<4;i++)
 141              		.loc 1 53 0 discriminator 2
 142 004a FB1D     		add	r3, r7, #7
 143 004c 1A78     		ldrb	r2, [r3]
 144 004e FB1D     		add	r3, r7, #7
 145 0050 0132     		add	r2, r2, #1
 146 0052 1A70     		strb	r2, [r3]
 147              	.L2:
  53:.\main.c      ****     for (i=0;i<4;i++)
 148              		.loc 1 53 0 is_stmt 0 discriminator 1
 149 0054 FB1D     		add	r3, r7, #7
 150 0056 1B78     		ldrb	r3, [r3]
 151 0058 032B     		cmp	r3, #3
 152 005a EED9     		bls	.L3
 153              	.L19:
  55:.\main.c      ****  
  56:.\main.c      ****     
  57:.\main.c      ****     for(;;)
  58:.\main.c      ****     {
  59:.\main.c      ****         if (counter_button_millis > 2000)
 154              		.loc 1 59 0 is_stmt 1
 155 005c 624B     		ldr	r3, .L20+8
 156 005e 1A88     		ldrh	r2, [r3]
 157 0060 FA23     		mov	r3, #250
 158 0062 DB00     		lsl	r3, r3, #3
 159 0064 9A42     		cmp	r2, r3
 160 0066 01D9     		bls	.L4
  60:.\main.c      ****         {
  61:.\main.c      ****             Bootloadable_1_Load();
 161              		.loc 1 61 0
 162 0068 FFF7FEFF 		bl	Bootloadable_1_Load
 163              	.L4:
  62:.\main.c      ****         }
ARM GAS  C:\Users\ole\AppData\Local\Temp\ccL3idsy.s 			page 5


  63:.\main.c      ****         
  64:.\main.c      ****         uartByte = UART_2_UartGetChar();
 164              		.loc 1 64 0
 165 006c FFF7FEFF 		bl	UART_2_UartGetChar
 166 0070 021C     		mov	r2, r0
 167 0072 7B1D     		add	r3, r7, #5
 168 0074 1A70     		strb	r2, [r3]
  65:.\main.c      ****         if (uartByte != 0)
 169              		.loc 1 65 0
 170 0076 7B1D     		add	r3, r7, #5
 171 0078 1B78     		ldrb	r3, [r3]
 172 007a 002B     		cmp	r3, #0
 173 007c 1AD0     		beq	.L5
  66:.\main.c      ****         {
  67:.\main.c      ****             for (i=0;i<4;i++)
 174              		.loc 1 67 0
 175 007e FB1D     		add	r3, r7, #7
 176 0080 0022     		mov	r2, #0
 177 0082 1A70     		strb	r2, [r3]
 178 0084 0AE0     		b	.L6
 179              	.L7:
  68:.\main.c      ****                 pwm_light_adj[i] = uartByte;
 180              		.loc 1 68 0 discriminator 2
 181 0086 FB1D     		add	r3, r7, #7
 182 0088 1B78     		ldrb	r3, [r3]
 183 008a 564A     		ldr	r2, .L20+4
 184 008c 791D     		add	r1, r7, #5
 185 008e 0978     		ldrb	r1, [r1]
 186 0090 D154     		strb	r1, [r2, r3]
  67:.\main.c      ****             for (i=0;i<4;i++)
 187              		.loc 1 67 0 discriminator 2
 188 0092 FB1D     		add	r3, r7, #7
 189 0094 1A78     		ldrb	r2, [r3]
 190 0096 FB1D     		add	r3, r7, #7
 191 0098 0132     		add	r2, r2, #1
 192 009a 1A70     		strb	r2, [r3]
 193              	.L6:
  67:.\main.c      ****             for (i=0;i<4;i++)
 194              		.loc 1 67 0 is_stmt 0 discriminator 1
 195 009c FB1D     		add	r3, r7, #7
 196 009e 1B78     		ldrb	r3, [r3]
 197 00a0 032B     		cmp	r3, #3
 198 00a2 F0D9     		bls	.L7
  69:.\main.c      ****                 
  70:.\main.c      ****             Em_EEPROM_1_Write(pwm_light_adj,pwm_light_init,4);
 199              		.loc 1 70 0 is_stmt 1
 200 00a4 4F4A     		ldr	r2, .L20+4
 201 00a6 4E4B     		ldr	r3, .L20
 202 00a8 101C     		mov	r0, r2
 203 00aa 191C     		mov	r1, r3
 204 00ac 0422     		mov	r2, #4
 205 00ae FFF7FEFF 		bl	Em_EEPROM_1_Write
  71:.\main.c      ****         }else
  72:.\main.c      ****         {
  73:.\main.c      ****             for (i=0;i<8;i++)
  74:.\main.c      ****             {
  75:.\main.c      ****                 if (channelTime[i] < 1000)
ARM GAS  C:\Users\ole\AppData\Local\Temp\ccL3idsy.s 			page 6


  76:.\main.c      ****                 {
  77:.\main.c      ****                     channelValue[i] = 0;
  78:.\main.c      ****                 }else if (channelTime[i] > 2000)
  79:.\main.c      ****                 {
  80:.\main.c      ****                     channelValue[i] = 255;
  81:.\main.c      ****                 }else
  82:.\main.c      ****                 {
  83:.\main.c      ****                     channelValue[i] = (uint8_t) (((channelTime[i] - 1000) * 255) / 1000);
  84:.\main.c      ****                 }  
  85:.\main.c      ****             }
  86:.\main.c      ****             
  87:.\main.c      ****             if (counter_setup_millis > 1000)
  88:.\main.c      ****             {
  89:.\main.c      ****                 Em_EEPROM_1_Write(pwm_light_adj,pwm_light_init,4);
  90:.\main.c      ****                 lightAdj = (lightAdj + 1) % 4;
  91:.\main.c      ****                 for (i=0;i<4;i++)       //Turn all lights off on after 2s of stick in right-low cor
  92:.\main.c      ****                 {
  93:.\main.c      ****                     pwm_light[i] = 0;
  94:.\main.c      ****                 }
  95:.\main.c      ****                 lightOff = 1;
  96:.\main.c      ****                 pwm_light[lightAdj] = pwm_light_adj[lightAdj];
  97:.\main.c      ****                 counter_off_millis = 0;
  98:.\main.c      ****                 counter_setup_millis = 0;
  99:.\main.c      ****             }
 100:.\main.c      ****                 
 101:.\main.c      ****             if (counter_off_millis == 1500 && lightOff == 1) //Turn all lights back on after 1s
 102:.\main.c      ****             {
 103:.\main.c      ****                 lightOff = 0;
 104:.\main.c      ****                 counter_off_millis = 0;
 105:.\main.c      ****             }
 106:.\main.c      ****             
 107:.\main.c      ****             pwm_light_adj[lightAdj] = channelValue[ch1];
 108:.\main.c      ****         }
 109:.\main.c      ****         /* Place your application code here. */
 110:.\main.c      ****     }
 206              		.loc 1 110 0
 207 00b2 D3E7     		b	.L19
 208              	.L5:
  73:.\main.c      ****             for (i=0;i<8;i++)
 209              		.loc 1 73 0
 210 00b4 FB1D     		add	r3, r7, #7
 211 00b6 0022     		mov	r2, #0
 212 00b8 1A70     		strb	r2, [r3]
 213 00ba 39E0     		b	.L9
 214              	.L13:
  75:.\main.c      ****                 if (channelTime[i] < 1000)
 215              		.loc 1 75 0
 216 00bc FB1D     		add	r3, r7, #7
 217 00be 1A78     		ldrb	r2, [r3]
 218 00c0 4A4B     		ldr	r3, .L20+12
 219 00c2 5200     		lsl	r2, r2, #1
 220 00c4 D35A     		ldrh	r3, [r2, r3]
 221 00c6 1AB2     		sxth	r2, r3
 222 00c8 494B     		ldr	r3, .L20+16
 223 00ca 9A42     		cmp	r2, r3
 224 00cc 05DC     		bgt	.L10
  77:.\main.c      ****                     channelValue[i] = 0;
ARM GAS  C:\Users\ole\AppData\Local\Temp\ccL3idsy.s 			page 7


 225              		.loc 1 77 0
 226 00ce FB1D     		add	r3, r7, #7
 227 00d0 1B78     		ldrb	r3, [r3]
 228 00d2 484A     		ldr	r2, .L20+20
 229 00d4 0021     		mov	r1, #0
 230 00d6 D154     		strb	r1, [r2, r3]
 231 00d8 25E0     		b	.L11
 232              	.L10:
  78:.\main.c      ****                 }else if (channelTime[i] > 2000)
 233              		.loc 1 78 0
 234 00da FB1D     		add	r3, r7, #7
 235 00dc 1A78     		ldrb	r2, [r3]
 236 00de 434B     		ldr	r3, .L20+12
 237 00e0 5200     		lsl	r2, r2, #1
 238 00e2 D35A     		ldrh	r3, [r2, r3]
 239 00e4 1AB2     		sxth	r2, r3
 240 00e6 FA23     		mov	r3, #250
 241 00e8 DB00     		lsl	r3, r3, #3
 242 00ea 9A42     		cmp	r2, r3
 243 00ec 05DD     		ble	.L12
  80:.\main.c      ****                     channelValue[i] = 255;
 244              		.loc 1 80 0
 245 00ee FB1D     		add	r3, r7, #7
 246 00f0 1B78     		ldrb	r3, [r3]
 247 00f2 404A     		ldr	r2, .L20+20
 248 00f4 FF21     		mov	r1, #255
 249 00f6 D154     		strb	r1, [r2, r3]
 250 00f8 15E0     		b	.L11
 251              	.L12:
  83:.\main.c      ****                     channelValue[i] = (uint8_t) (((channelTime[i] - 1000) * 255) / 1000);
 252              		.loc 1 83 0
 253 00fa FB1D     		add	r3, r7, #7
 254 00fc 1C78     		ldrb	r4, [r3]
 255 00fe FB1D     		add	r3, r7, #7
 256 0100 1A78     		ldrb	r2, [r3]
 257 0102 3A4B     		ldr	r3, .L20+12
 258 0104 5200     		lsl	r2, r2, #1
 259 0106 D35A     		ldrh	r3, [r2, r3]
 260 0108 1BB2     		sxth	r3, r3
 261 010a 3B49     		ldr	r1, .L20+24
 262 010c 5A18     		add	r2, r3, r1
 263 010e 131C     		mov	r3, r2
 264 0110 1B02     		lsl	r3, r3, #8
 265 0112 9B1A     		sub	r3, r3, r2
 266 0114 181C     		mov	r0, r3
 267 0116 FA23     		mov	r3, #250
 268 0118 9900     		lsl	r1, r3, #2
 269 011a FFF7FEFF 		bl	__aeabi_idiv
 270 011e 031C     		mov	r3, r0
 271 0120 DAB2     		uxtb	r2, r3
 272 0122 344B     		ldr	r3, .L20+20
 273 0124 1A55     		strb	r2, [r3, r4]
 274              	.L11:
  73:.\main.c      ****             for (i=0;i<8;i++)
 275              		.loc 1 73 0
 276 0126 FB1D     		add	r3, r7, #7
 277 0128 1A78     		ldrb	r2, [r3]
ARM GAS  C:\Users\ole\AppData\Local\Temp\ccL3idsy.s 			page 8


 278 012a FB1D     		add	r3, r7, #7
 279 012c 0132     		add	r2, r2, #1
 280 012e 1A70     		strb	r2, [r3]
 281              	.L9:
  73:.\main.c      ****             for (i=0;i<8;i++)
 282              		.loc 1 73 0 is_stmt 0 discriminator 1
 283 0130 FB1D     		add	r3, r7, #7
 284 0132 1B78     		ldrb	r3, [r3]
 285 0134 072B     		cmp	r3, #7
 286 0136 C1D9     		bls	.L13
  87:.\main.c      ****             if (counter_setup_millis > 1000)
 287              		.loc 1 87 0 is_stmt 1
 288 0138 304B     		ldr	r3, .L20+28
 289 013a 1A88     		ldrh	r2, [r3]
 290 013c FA23     		mov	r3, #250
 291 013e 9B00     		lsl	r3, r3, #2
 292 0140 9A42     		cmp	r2, r3
 293 0142 37D9     		bls	.L14
  89:.\main.c      ****                 Em_EEPROM_1_Write(pwm_light_adj,pwm_light_init,4);
 294              		.loc 1 89 0
 295 0144 274A     		ldr	r2, .L20+4
 296 0146 264B     		ldr	r3, .L20
 297 0148 101C     		mov	r0, r2
 298 014a 191C     		mov	r1, r3
 299 014c 0422     		mov	r2, #4
 300 014e FFF7FEFF 		bl	Em_EEPROM_1_Write
  90:.\main.c      ****                 lightAdj = (lightAdj + 1) % 4;
 301              		.loc 1 90 0
 302 0152 BB1D     		add	r3, r7, #6
 303 0154 1B78     		ldrb	r3, [r3]
 304 0156 5A1C     		add	r2, r3, #1
 305 0158 294B     		ldr	r3, .L20+32
 306 015a 1340     		and	r3, r2
 307 015c 04D5     		bpl	.L15
 308 015e 013B     		sub	r3, r3, #1
 309 0160 0422     		mov	r2, #4
 310 0162 5242     		neg	r2, r2
 311 0164 1343     		orr	r3, r2
 312 0166 0133     		add	r3, r3, #1
 313              	.L15:
 314 0168 1A1C     		mov	r2, r3
 315 016a BB1D     		add	r3, r7, #6
 316 016c 1A70     		strb	r2, [r3]
  91:.\main.c      ****                 for (i=0;i<4;i++)       //Turn all lights off on after 2s of stick in right-low cor
 317              		.loc 1 91 0
 318 016e FB1D     		add	r3, r7, #7
 319 0170 0022     		mov	r2, #0
 320 0172 1A70     		strb	r2, [r3]
 321 0174 09E0     		b	.L16
 322              	.L17:
  93:.\main.c      ****                     pwm_light[i] = 0;
 323              		.loc 1 93 0 discriminator 2
 324 0176 FB1D     		add	r3, r7, #7
 325 0178 1B78     		ldrb	r3, [r3]
 326 017a 224A     		ldr	r2, .L20+36
 327 017c 0021     		mov	r1, #0
 328 017e D154     		strb	r1, [r2, r3]
ARM GAS  C:\Users\ole\AppData\Local\Temp\ccL3idsy.s 			page 9


  91:.\main.c      ****                 for (i=0;i<4;i++)       //Turn all lights off on after 2s of stick in right-low cor
 329              		.loc 1 91 0 discriminator 2
 330 0180 FB1D     		add	r3, r7, #7
 331 0182 1A78     		ldrb	r2, [r3]
 332 0184 FB1D     		add	r3, r7, #7
 333 0186 0132     		add	r2, r2, #1
 334 0188 1A70     		strb	r2, [r3]
 335              	.L16:
  91:.\main.c      ****                 for (i=0;i<4;i++)       //Turn all lights off on after 2s of stick in right-low cor
 336              		.loc 1 91 0 is_stmt 0 discriminator 1
 337 018a FB1D     		add	r3, r7, #7
 338 018c 1B78     		ldrb	r3, [r3]
 339 018e 032B     		cmp	r3, #3
 340 0190 F1D9     		bls	.L17
  95:.\main.c      ****                 lightOff = 1;
 341              		.loc 1 95 0 is_stmt 1
 342 0192 1D4B     		ldr	r3, .L20+40
 343 0194 0122     		mov	r2, #1
 344 0196 1A70     		strb	r2, [r3]
  96:.\main.c      ****                 pwm_light[lightAdj] = pwm_light_adj[lightAdj];
 345              		.loc 1 96 0
 346 0198 BB1D     		add	r3, r7, #6
 347 019a 1B78     		ldrb	r3, [r3]
 348 019c BA1D     		add	r2, r7, #6
 349 019e 1278     		ldrb	r2, [r2]
 350 01a0 1049     		ldr	r1, .L20+4
 351 01a2 895C     		ldrb	r1, [r1, r2]
 352 01a4 174A     		ldr	r2, .L20+36
 353 01a6 D154     		strb	r1, [r2, r3]
  97:.\main.c      ****                 counter_off_millis = 0;
 354              		.loc 1 97 0
 355 01a8 184B     		ldr	r3, .L20+44
 356 01aa 0022     		mov	r2, #0
 357 01ac 1A80     		strh	r2, [r3]
  98:.\main.c      ****                 counter_setup_millis = 0;
 358              		.loc 1 98 0
 359 01ae 134B     		ldr	r3, .L20+28
 360 01b0 0022     		mov	r2, #0
 361 01b2 1A80     		strh	r2, [r3]
 362              	.L14:
 101:.\main.c      ****             if (counter_off_millis == 1500 && lightOff == 1) //Turn all lights back on after 1s
 363              		.loc 1 101 0
 364 01b4 154B     		ldr	r3, .L20+44
 365 01b6 1A88     		ldrh	r2, [r3]
 366 01b8 154B     		ldr	r3, .L20+48
 367 01ba 9A42     		cmp	r2, r3
 368 01bc 09D1     		bne	.L18
 101:.\main.c      ****             if (counter_off_millis == 1500 && lightOff == 1) //Turn all lights back on after 1s
 369              		.loc 1 101 0 is_stmt 0 discriminator 1
 370 01be 124B     		ldr	r3, .L20+40
 371 01c0 1B78     		ldrb	r3, [r3]
 372 01c2 012B     		cmp	r3, #1
 373 01c4 05D1     		bne	.L18
 103:.\main.c      ****                 lightOff = 0;
 374              		.loc 1 103 0 is_stmt 1
 375 01c6 104B     		ldr	r3, .L20+40
 376 01c8 0022     		mov	r2, #0
ARM GAS  C:\Users\ole\AppData\Local\Temp\ccL3idsy.s 			page 10


 377 01ca 1A70     		strb	r2, [r3]
 104:.\main.c      ****                 counter_off_millis = 0;
 378              		.loc 1 104 0
 379 01cc 0F4B     		ldr	r3, .L20+44
 380 01ce 0022     		mov	r2, #0
 381 01d0 1A80     		strh	r2, [r3]
 382              	.L18:
 107:.\main.c      ****             pwm_light_adj[lightAdj] = channelValue[ch1];
 383              		.loc 1 107 0
 384 01d2 BB1D     		add	r3, r7, #6
 385 01d4 1B78     		ldrb	r3, [r3]
 386 01d6 074A     		ldr	r2, .L20+20
 387 01d8 1178     		ldrb	r1, [r2]
 388 01da 024A     		ldr	r2, .L20+4
 389 01dc D154     		strb	r1, [r2, r3]
 390              		.loc 1 110 0
 391 01de 3DE7     		b	.L19
 392              	.L21:
 393              		.align	2
 394              	.L20:
 395 01e0 00000000 		.word	pwm_light_init
 396 01e4 00000000 		.word	pwm_light_adj
 397 01e8 00000000 		.word	counter_button_millis
 398 01ec 00000000 		.word	channelTime
 399 01f0 E7030000 		.word	999
 400 01f4 00000000 		.word	channelValue
 401 01f8 18FCFFFF 		.word	-1000
 402 01fc 00000000 		.word	counter_setup_millis
 403 0200 03000080 		.word	-2147483645
 404 0204 00000000 		.word	pwm_light
 405 0208 00000000 		.word	lightOff
 406 020c 00000000 		.word	counter_off_millis
 407 0210 DC050000 		.word	1500
 408              		.cfi_endproc
 409              	.LFE33:
 410              		.size	main, .-main
 411              		.text
 412              	.Letext0:
 413              		.file 2 "c:\\program files (x86)\\cypress\\psoc creator\\3.1\\psoc creator\\import\\gnu_cs\\arm\\4
 414              		.file 3 "c:\\program files (x86)\\cypress\\psoc creator\\3.1\\psoc creator\\import\\gnu_cs\\arm\\4
 415              		.file 4 ".\\Generated_Source\\PSoC4/cytypes.h"
 416              		.section	.debug_info,"",%progbits
 417              	.Ldebug_info0:
 418 0000 49020000 		.4byte	0x249
 419 0004 0400     		.2byte	0x4
 420 0006 00000000 		.4byte	.Ldebug_abbrev0
 421 000a 04       		.byte	0x4
 422 000b 01       		.uleb128 0x1
 423 000c 2D010000 		.4byte	.LASF34
 424 0010 01       		.byte	0x1
 425 0011 E7000000 		.4byte	.LASF35
 426 0015 DF010000 		.4byte	.LASF36
 427 0019 00000000 		.4byte	.Ldebug_ranges0+0
 428 001d 00000000 		.4byte	0
 429 0021 00000000 		.4byte	.Ldebug_line0
 430 0025 02       		.uleb128 0x2
 431 0026 01       		.byte	0x1
ARM GAS  C:\Users\ole\AppData\Local\Temp\ccL3idsy.s 			page 11


 432 0027 06       		.byte	0x6
 433 0028 34020000 		.4byte	.LASF0
 434 002c 03       		.uleb128 0x3
 435 002d 16000000 		.4byte	.LASF2
 436 0031 02       		.byte	0x2
 437 0032 1C       		.byte	0x1c
 438 0033 37000000 		.4byte	0x37
 439 0037 02       		.uleb128 0x2
 440 0038 01       		.byte	0x1
 441 0039 08       		.byte	0x8
 442 003a 79000000 		.4byte	.LASF1
 443 003e 03       		.uleb128 0x3
 444 003f 20000000 		.4byte	.LASF3
 445 0043 02       		.byte	0x2
 446 0044 25       		.byte	0x25
 447 0045 49000000 		.4byte	0x49
 448 0049 02       		.uleb128 0x2
 449 004a 02       		.byte	0x2
 450 004b 05       		.byte	0x5
 451 004c 03020000 		.4byte	.LASF4
 452 0050 03       		.uleb128 0x3
 453 0051 CB000000 		.4byte	.LASF5
 454 0055 02       		.byte	0x2
 455 0056 26       		.byte	0x26
 456 0057 5B000000 		.4byte	0x5b
 457 005b 02       		.uleb128 0x2
 458 005c 02       		.byte	0x2
 459 005d 07       		.byte	0x7
 460 005e 41000000 		.4byte	.LASF6
 461 0062 02       		.uleb128 0x2
 462 0063 04       		.byte	0x4
 463 0064 05       		.byte	0x5
 464 0065 2B020000 		.4byte	.LASF7
 465 0069 02       		.uleb128 0x2
 466 006a 04       		.byte	0x4
 467 006b 07       		.byte	0x7
 468 006c A0000000 		.4byte	.LASF8
 469 0070 02       		.uleb128 0x2
 470 0071 08       		.byte	0x8
 471 0072 05       		.byte	0x5
 472 0073 D1010000 		.4byte	.LASF9
 473 0077 02       		.uleb128 0x2
 474 0078 08       		.byte	0x8
 475 0079 07       		.byte	0x7
 476 007a 0E010000 		.4byte	.LASF10
 477 007e 04       		.uleb128 0x4
 478 007f 04       		.byte	0x4
 479 0080 05       		.byte	0x5
 480 0081 696E7400 		.ascii	"int\000"
 481 0085 02       		.uleb128 0x2
 482 0086 04       		.byte	0x4
 483 0087 07       		.byte	0x7
 484 0088 01010000 		.4byte	.LASF11
 485 008c 03       		.uleb128 0x3
 486 008d 25010000 		.4byte	.LASF12
 487 0091 03       		.byte	0x3
 488 0092 2A       		.byte	0x2a
ARM GAS  C:\Users\ole\AppData\Local\Temp\ccL3idsy.s 			page 12


 489 0093 2C000000 		.4byte	0x2c
 490 0097 03       		.uleb128 0x3
 491 0098 B8010000 		.4byte	.LASF13
 492 009c 03       		.byte	0x3
 493 009d 35       		.byte	0x35
 494 009e 3E000000 		.4byte	0x3e
 495 00a2 03       		.uleb128 0x3
 496 00a3 0D020000 		.4byte	.LASF14
 497 00a7 03       		.byte	0x3
 498 00a8 36       		.byte	0x36
 499 00a9 50000000 		.4byte	0x50
 500 00ad 03       		.uleb128 0x3
 501 00ae B2000000 		.4byte	.LASF15
 502 00b2 04       		.byte	0x4
 503 00b3 A1       		.byte	0xa1
 504 00b4 37000000 		.4byte	0x37
 505 00b8 02       		.uleb128 0x2
 506 00b9 04       		.byte	0x4
 507 00ba 04       		.byte	0x4
 508 00bb 6A000000 		.4byte	.LASF16
 509 00bf 02       		.uleb128 0x2
 510 00c0 08       		.byte	0x8
 511 00c1 04       		.byte	0x4
 512 00c2 D6000000 		.4byte	.LASF17
 513 00c6 02       		.uleb128 0x2
 514 00c7 01       		.byte	0x1
 515 00c8 08       		.byte	0x8
 516 00c9 FE010000 		.4byte	.LASF18
 517 00cd 02       		.uleb128 0x2
 518 00ce 04       		.byte	0x4
 519 00cf 07       		.byte	0x7
 520 00d0 C8010000 		.4byte	.LASF19
 521 00d4 05       		.uleb128 0x5
 522 00d5 C0010000 		.4byte	.LASF37
 523 00d9 01       		.byte	0x1
 524 00da 01       		.byte	0x1
 525 00db 0E       		.byte	0xe
 526 00dc 11010000 		.4byte	0x111
 527 00e0 06       		.uleb128 0x6
 528 00e1 63683100 		.ascii	"ch1\000"
 529 00e5 00       		.sleb128 0
 530 00e6 06       		.uleb128 0x6
 531 00e7 63683200 		.ascii	"ch2\000"
 532 00eb 01       		.sleb128 1
 533 00ec 06       		.uleb128 0x6
 534 00ed 63683300 		.ascii	"ch3\000"
 535 00f1 02       		.sleb128 2
 536 00f2 06       		.uleb128 0x6
 537 00f3 63683400 		.ascii	"ch4\000"
 538 00f7 03       		.sleb128 3
 539 00f8 06       		.uleb128 0x6
 540 00f9 63683500 		.ascii	"ch5\000"
 541 00fd 04       		.sleb128 4
 542 00fe 06       		.uleb128 0x6
 543 00ff 63683600 		.ascii	"ch6\000"
 544 0103 05       		.sleb128 5
 545 0104 06       		.uleb128 0x6
ARM GAS  C:\Users\ole\AppData\Local\Temp\ccL3idsy.s 			page 13


 546 0105 63683700 		.ascii	"ch7\000"
 547 0109 06       		.sleb128 6
 548 010a 06       		.uleb128 0x6
 549 010b 63683800 		.ascii	"ch8\000"
 550 010f 07       		.sleb128 7
 551 0110 00       		.byte	0
 552 0111 07       		.uleb128 0x7
 553 0112 F0000000 		.4byte	.LASF38
 554 0116 01       		.byte	0x1
 555 0117 23       		.byte	0x23
 556 0118 7E000000 		.4byte	0x7e
 557 011c 00000000 		.4byte	.LFB33
 558 0120 14020000 		.4byte	.LFE33-.LFB33
 559 0124 01       		.uleb128 0x1
 560 0125 9C       		.byte	0x9c
 561 0126 53010000 		.4byte	0x153
 562 012a 08       		.uleb128 0x8
 563 012b 6900     		.ascii	"i\000"
 564 012d 01       		.byte	0x1
 565 012e 25       		.byte	0x25
 566 012f 8C000000 		.4byte	0x8c
 567 0133 02       		.uleb128 0x2
 568 0134 91       		.byte	0x91
 569 0135 6F       		.sleb128 -17
 570 0136 09       		.uleb128 0x9
 571 0137 70000000 		.4byte	.LASF20
 572 013b 01       		.byte	0x1
 573 013c 26       		.byte	0x26
 574 013d 8C000000 		.4byte	0x8c
 575 0141 02       		.uleb128 0x2
 576 0142 91       		.byte	0x91
 577 0143 6D       		.sleb128 -19
 578 0144 09       		.uleb128 0x9
 579 0145 2A000000 		.4byte	.LASF21
 580 0149 01       		.byte	0x1
 581 014a 27       		.byte	0x27
 582 014b 8C000000 		.4byte	0x8c
 583 014f 02       		.uleb128 0x2
 584 0150 91       		.byte	0x91
 585 0151 6E       		.sleb128 -18
 586 0152 00       		.byte	0
 587 0153 0A       		.uleb128 0xa
 588 0154 AD000000 		.4byte	0xad
 589 0158 63010000 		.4byte	0x163
 590 015c 0B       		.uleb128 0xb
 591 015d CD000000 		.4byte	0xcd
 592 0161 03       		.byte	0x3
 593 0162 00       		.byte	0
 594 0163 09       		.uleb128 0x9
 595 0164 A9010000 		.4byte	.LASF22
 596 0168 01       		.byte	0x1
 597 0169 14       		.byte	0x14
 598 016a 74010000 		.4byte	0x174
 599 016e 05       		.uleb128 0x5
 600 016f 03       		.byte	0x3
 601 0170 00000000 		.4byte	pwm_light_init
 602 0174 0C       		.uleb128 0xc
ARM GAS  C:\Users\ole\AppData\Local\Temp\ccL3idsy.s 			page 14


 603 0175 53010000 		.4byte	0x153
 604 0179 0A       		.uleb128 0xa
 605 017a 8C000000 		.4byte	0x8c
 606 017e 89010000 		.4byte	0x189
 607 0182 0B       		.uleb128 0xb
 608 0183 CD000000 		.4byte	0xcd
 609 0187 03       		.byte	0x3
 610 0188 00       		.byte	0
 611 0189 0D       		.uleb128 0xd
 612 018a DD000000 		.4byte	.LASF23
 613 018e 01       		.byte	0x1
 614 018f 10       		.byte	0x10
 615 0190 79010000 		.4byte	0x179
 616 0194 05       		.uleb128 0x5
 617 0195 03       		.byte	0x3
 618 0196 00000000 		.4byte	pwm_light
 619 019a 0D       		.uleb128 0xd
 620 019b 63020000 		.4byte	.LASF24
 621 019f 01       		.byte	0x1
 622 01a0 12       		.byte	0x12
 623 01a1 8C000000 		.4byte	0x8c
 624 01a5 05       		.uleb128 0x5
 625 01a6 03       		.byte	0x3
 626 01a7 00000000 		.4byte	lightOff
 627 01ab 0D       		.uleb128 0xd
 628 01ac 33000000 		.4byte	.LASF25
 629 01b0 01       		.byte	0x1
 630 01b1 13       		.byte	0x13
 631 01b2 79010000 		.4byte	0x179
 632 01b6 05       		.uleb128 0x5
 633 01b7 03       		.byte	0x3
 634 01b8 00000000 		.4byte	pwm_light_adj
 635 01bc 0A       		.uleb128 0xa
 636 01bd 8C000000 		.4byte	0x8c
 637 01c1 CC010000 		.4byte	0x1cc
 638 01c5 0B       		.uleb128 0xb
 639 01c6 CD000000 		.4byte	0xcd
 640 01ca 07       		.byte	0x7
 641 01cb 00       		.byte	0
 642 01cc 0D       		.uleb128 0xd
 643 01cd 56020000 		.4byte	.LASF26
 644 01d1 01       		.byte	0x1
 645 01d2 16       		.byte	0x16
 646 01d3 BC010000 		.4byte	0x1bc
 647 01d7 05       		.uleb128 0x5
 648 01d8 03       		.byte	0x3
 649 01d9 00000000 		.4byte	channelValue
 650 01dd 0A       		.uleb128 0xa
 651 01de 97000000 		.4byte	0x97
 652 01e2 ED010000 		.4byte	0x1ed
 653 01e6 0B       		.uleb128 0xb
 654 01e7 CD000000 		.4byte	0xcd
 655 01eb 07       		.byte	0x7
 656 01ec 00       		.byte	0
 657 01ed 0E       		.uleb128 0xe
 658 01ee F5000000 		.4byte	.LASF27
 659 01f2 01       		.byte	0x1
ARM GAS  C:\Users\ole\AppData\Local\Temp\ccL3idsy.s 			page 15


 660 01f3 18       		.byte	0x18
 661 01f4 DD010000 		.4byte	0x1dd
 662 01f8 0E       		.uleb128 0xe
 663 01f9 B8000000 		.4byte	.LASF28
 664 01fd 01       		.byte	0x1
 665 01fe 1B       		.byte	0x1b
 666 01ff A2000000 		.4byte	0xa2
 667 0203 0E       		.uleb128 0xe
 668 0204 16020000 		.4byte	.LASF29
 669 0208 01       		.byte	0x1
 670 0209 1C       		.byte	0x1c
 671 020a A2000000 		.4byte	0xa2
 672 020e 0E       		.uleb128 0xe
 673 020f 40020000 		.4byte	.LASF30
 674 0213 01       		.byte	0x1
 675 0214 1D       		.byte	0x1d
 676 0215 A2000000 		.4byte	0xa2
 677 0219 0D       		.uleb128 0xd
 678 021a 54000000 		.4byte	.LASF31
 679 021e 01       		.byte	0x1
 680 021f 1F       		.byte	0x1f
 681 0220 A2000000 		.4byte	0xa2
 682 0224 05       		.uleb128 0x5
 683 0225 03       		.byte	0x3
 684 0226 00000000 		.4byte	flashTime_StrobeLight
 685 022a 0D       		.uleb128 0xd
 686 022b 00000000 		.4byte	.LASF32
 687 022f 01       		.byte	0x1
 688 0230 20       		.byte	0x20
 689 0231 A2000000 		.4byte	0xa2
 690 0235 05       		.uleb128 0x5
 691 0236 03       		.byte	0x3
 692 0237 00000000 		.4byte	pauseTime_StrobeLight
 693 023b 0D       		.uleb128 0xd
 694 023c 87000000 		.4byte	.LASF33
 695 0240 01       		.byte	0x1
 696 0241 21       		.byte	0x21
 697 0242 A2000000 		.4byte	0xa2
 698 0246 05       		.uleb128 0x5
 699 0247 03       		.byte	0x3
 700 0248 00000000 		.4byte	flashTime_CollisionLight
 701 024c 00       		.byte	0
 702              		.section	.debug_abbrev,"",%progbits
 703              	.Ldebug_abbrev0:
 704 0000 01       		.uleb128 0x1
 705 0001 11       		.uleb128 0x11
 706 0002 01       		.byte	0x1
 707 0003 25       		.uleb128 0x25
 708 0004 0E       		.uleb128 0xe
 709 0005 13       		.uleb128 0x13
 710 0006 0B       		.uleb128 0xb
 711 0007 03       		.uleb128 0x3
 712 0008 0E       		.uleb128 0xe
 713 0009 1B       		.uleb128 0x1b
 714 000a 0E       		.uleb128 0xe
 715 000b 55       		.uleb128 0x55
 716 000c 17       		.uleb128 0x17
ARM GAS  C:\Users\ole\AppData\Local\Temp\ccL3idsy.s 			page 16


 717 000d 11       		.uleb128 0x11
 718 000e 01       		.uleb128 0x1
 719 000f 10       		.uleb128 0x10
 720 0010 17       		.uleb128 0x17
 721 0011 00       		.byte	0
 722 0012 00       		.byte	0
 723 0013 02       		.uleb128 0x2
 724 0014 24       		.uleb128 0x24
 725 0015 00       		.byte	0
 726 0016 0B       		.uleb128 0xb
 727 0017 0B       		.uleb128 0xb
 728 0018 3E       		.uleb128 0x3e
 729 0019 0B       		.uleb128 0xb
 730 001a 03       		.uleb128 0x3
 731 001b 0E       		.uleb128 0xe
 732 001c 00       		.byte	0
 733 001d 00       		.byte	0
 734 001e 03       		.uleb128 0x3
 735 001f 16       		.uleb128 0x16
 736 0020 00       		.byte	0
 737 0021 03       		.uleb128 0x3
 738 0022 0E       		.uleb128 0xe
 739 0023 3A       		.uleb128 0x3a
 740 0024 0B       		.uleb128 0xb
 741 0025 3B       		.uleb128 0x3b
 742 0026 0B       		.uleb128 0xb
 743 0027 49       		.uleb128 0x49
 744 0028 13       		.uleb128 0x13
 745 0029 00       		.byte	0
 746 002a 00       		.byte	0
 747 002b 04       		.uleb128 0x4
 748 002c 24       		.uleb128 0x24
 749 002d 00       		.byte	0
 750 002e 0B       		.uleb128 0xb
 751 002f 0B       		.uleb128 0xb
 752 0030 3E       		.uleb128 0x3e
 753 0031 0B       		.uleb128 0xb
 754 0032 03       		.uleb128 0x3
 755 0033 08       		.uleb128 0x8
 756 0034 00       		.byte	0
 757 0035 00       		.byte	0
 758 0036 05       		.uleb128 0x5
 759 0037 04       		.uleb128 0x4
 760 0038 01       		.byte	0x1
 761 0039 03       		.uleb128 0x3
 762 003a 0E       		.uleb128 0xe
 763 003b 0B       		.uleb128 0xb
 764 003c 0B       		.uleb128 0xb
 765 003d 3A       		.uleb128 0x3a
 766 003e 0B       		.uleb128 0xb
 767 003f 3B       		.uleb128 0x3b
 768 0040 0B       		.uleb128 0xb
 769 0041 01       		.uleb128 0x1
 770 0042 13       		.uleb128 0x13
 771 0043 00       		.byte	0
 772 0044 00       		.byte	0
 773 0045 06       		.uleb128 0x6
ARM GAS  C:\Users\ole\AppData\Local\Temp\ccL3idsy.s 			page 17


 774 0046 28       		.uleb128 0x28
 775 0047 00       		.byte	0
 776 0048 03       		.uleb128 0x3
 777 0049 08       		.uleb128 0x8
 778 004a 1C       		.uleb128 0x1c
 779 004b 0D       		.uleb128 0xd
 780 004c 00       		.byte	0
 781 004d 00       		.byte	0
 782 004e 07       		.uleb128 0x7
 783 004f 2E       		.uleb128 0x2e
 784 0050 01       		.byte	0x1
 785 0051 3F       		.uleb128 0x3f
 786 0052 19       		.uleb128 0x19
 787 0053 03       		.uleb128 0x3
 788 0054 0E       		.uleb128 0xe
 789 0055 3A       		.uleb128 0x3a
 790 0056 0B       		.uleb128 0xb
 791 0057 3B       		.uleb128 0x3b
 792 0058 0B       		.uleb128 0xb
 793 0059 49       		.uleb128 0x49
 794 005a 13       		.uleb128 0x13
 795 005b 11       		.uleb128 0x11
 796 005c 01       		.uleb128 0x1
 797 005d 12       		.uleb128 0x12
 798 005e 06       		.uleb128 0x6
 799 005f 40       		.uleb128 0x40
 800 0060 18       		.uleb128 0x18
 801 0061 9642     		.uleb128 0x2116
 802 0063 19       		.uleb128 0x19
 803 0064 01       		.uleb128 0x1
 804 0065 13       		.uleb128 0x13
 805 0066 00       		.byte	0
 806 0067 00       		.byte	0
 807 0068 08       		.uleb128 0x8
 808 0069 34       		.uleb128 0x34
 809 006a 00       		.byte	0
 810 006b 03       		.uleb128 0x3
 811 006c 08       		.uleb128 0x8
 812 006d 3A       		.uleb128 0x3a
 813 006e 0B       		.uleb128 0xb
 814 006f 3B       		.uleb128 0x3b
 815 0070 0B       		.uleb128 0xb
 816 0071 49       		.uleb128 0x49
 817 0072 13       		.uleb128 0x13
 818 0073 02       		.uleb128 0x2
 819 0074 18       		.uleb128 0x18
 820 0075 00       		.byte	0
 821 0076 00       		.byte	0
 822 0077 09       		.uleb128 0x9
 823 0078 34       		.uleb128 0x34
 824 0079 00       		.byte	0
 825 007a 03       		.uleb128 0x3
 826 007b 0E       		.uleb128 0xe
 827 007c 3A       		.uleb128 0x3a
 828 007d 0B       		.uleb128 0xb
 829 007e 3B       		.uleb128 0x3b
 830 007f 0B       		.uleb128 0xb
ARM GAS  C:\Users\ole\AppData\Local\Temp\ccL3idsy.s 			page 18


 831 0080 49       		.uleb128 0x49
 832 0081 13       		.uleb128 0x13
 833 0082 02       		.uleb128 0x2
 834 0083 18       		.uleb128 0x18
 835 0084 00       		.byte	0
 836 0085 00       		.byte	0
 837 0086 0A       		.uleb128 0xa
 838 0087 01       		.uleb128 0x1
 839 0088 01       		.byte	0x1
 840 0089 49       		.uleb128 0x49
 841 008a 13       		.uleb128 0x13
 842 008b 01       		.uleb128 0x1
 843 008c 13       		.uleb128 0x13
 844 008d 00       		.byte	0
 845 008e 00       		.byte	0
 846 008f 0B       		.uleb128 0xb
 847 0090 21       		.uleb128 0x21
 848 0091 00       		.byte	0
 849 0092 49       		.uleb128 0x49
 850 0093 13       		.uleb128 0x13
 851 0094 2F       		.uleb128 0x2f
 852 0095 0B       		.uleb128 0xb
 853 0096 00       		.byte	0
 854 0097 00       		.byte	0
 855 0098 0C       		.uleb128 0xc
 856 0099 26       		.uleb128 0x26
 857 009a 00       		.byte	0
 858 009b 49       		.uleb128 0x49
 859 009c 13       		.uleb128 0x13
 860 009d 00       		.byte	0
 861 009e 00       		.byte	0
 862 009f 0D       		.uleb128 0xd
 863 00a0 34       		.uleb128 0x34
 864 00a1 00       		.byte	0
 865 00a2 03       		.uleb128 0x3
 866 00a3 0E       		.uleb128 0xe
 867 00a4 3A       		.uleb128 0x3a
 868 00a5 0B       		.uleb128 0xb
 869 00a6 3B       		.uleb128 0x3b
 870 00a7 0B       		.uleb128 0xb
 871 00a8 49       		.uleb128 0x49
 872 00a9 13       		.uleb128 0x13
 873 00aa 3F       		.uleb128 0x3f
 874 00ab 19       		.uleb128 0x19
 875 00ac 02       		.uleb128 0x2
 876 00ad 18       		.uleb128 0x18
 877 00ae 00       		.byte	0
 878 00af 00       		.byte	0
 879 00b0 0E       		.uleb128 0xe
 880 00b1 34       		.uleb128 0x34
 881 00b2 00       		.byte	0
 882 00b3 03       		.uleb128 0x3
 883 00b4 0E       		.uleb128 0xe
 884 00b5 3A       		.uleb128 0x3a
 885 00b6 0B       		.uleb128 0xb
 886 00b7 3B       		.uleb128 0x3b
 887 00b8 0B       		.uleb128 0xb
ARM GAS  C:\Users\ole\AppData\Local\Temp\ccL3idsy.s 			page 19


 888 00b9 49       		.uleb128 0x49
 889 00ba 13       		.uleb128 0x13
 890 00bb 3F       		.uleb128 0x3f
 891 00bc 19       		.uleb128 0x19
 892 00bd 3C       		.uleb128 0x3c
 893 00be 19       		.uleb128 0x19
 894 00bf 00       		.byte	0
 895 00c0 00       		.byte	0
 896 00c1 00       		.byte	0
 897              		.section	.debug_aranges,"",%progbits
 898 0000 1C000000 		.4byte	0x1c
 899 0004 0200     		.2byte	0x2
 900 0006 00000000 		.4byte	.Ldebug_info0
 901 000a 04       		.byte	0x4
 902 000b 00       		.byte	0
 903 000c 0000     		.2byte	0
 904 000e 0000     		.2byte	0
 905 0010 00000000 		.4byte	.LFB33
 906 0014 14020000 		.4byte	.LFE33-.LFB33
 907 0018 00000000 		.4byte	0
 908 001c 00000000 		.4byte	0
 909              		.section	.debug_ranges,"",%progbits
 910              	.Ldebug_ranges0:
 911 0000 00000000 		.4byte	.LFB33
 912 0004 14020000 		.4byte	.LFE33
 913 0008 00000000 		.4byte	0
 914 000c 00000000 		.4byte	0
 915              		.section	.debug_line,"",%progbits
 916              	.Ldebug_line0:
 917 0000 C9010000 		.section	.debug_str,"MS",%progbits,1
 917      02004301 
 917      00000201 
 917      FB0E0D00 
 917      01010101 
 918              	.LASF32:
 919 0000 70617573 		.ascii	"pauseTime_StrobeLight\000"
 919      6554696D 
 919      655F5374 
 919      726F6265 
 919      4C696768 
 920              	.LASF2:
 921 0016 5F5F7569 		.ascii	"__uint8_t\000"
 921      6E74385F 
 921      7400
 922              	.LASF3:
 923 0020 5F5F696E 		.ascii	"__int16_t\000"
 923      7431365F 
 923      7400
 924              	.LASF21:
 925 002a 6C696768 		.ascii	"lightAdj\000"
 925      7441646A 
 925      00
 926              	.LASF25:
 927 0033 70776D5F 		.ascii	"pwm_light_adj\000"
 927      6C696768 
 927      745F6164 
 927      6A00
ARM GAS  C:\Users\ole\AppData\Local\Temp\ccL3idsy.s 			page 20


 928              	.LASF6:
 929 0041 73686F72 		.ascii	"short unsigned int\000"
 929      7420756E 
 929      7369676E 
 929      65642069 
 929      6E7400
 930              	.LASF31:
 931 0054 666C6173 		.ascii	"flashTime_StrobeLight\000"
 931      6854696D 
 931      655F5374 
 931      726F6265 
 931      4C696768 
 932              	.LASF16:
 933 006a 666C6F61 		.ascii	"float\000"
 933      7400
 934              	.LASF20:
 935 0070 75617274 		.ascii	"uartByte\000"
 935      42797465 
 935      00
 936              	.LASF1:
 937 0079 756E7369 		.ascii	"unsigned char\000"
 937      676E6564 
 937      20636861 
 937      7200
 938              	.LASF33:
 939 0087 666C6173 		.ascii	"flashTime_CollisionLight\000"
 939      6854696D 
 939      655F436F 
 939      6C6C6973 
 939      696F6E4C 
 940              	.LASF8:
 941 00a0 6C6F6E67 		.ascii	"long unsigned int\000"
 941      20756E73 
 941      69676E65 
 941      6420696E 
 941      7400
 942              	.LASF15:
 943 00b2 75696E74 		.ascii	"uint8\000"
 943      3800
 944              	.LASF28:
 945 00b8 636F756E 		.ascii	"counter_off_millis\000"
 945      7465725F 
 945      6F66665F 
 945      6D696C6C 
 945      697300
 946              	.LASF5:
 947 00cb 5F5F7569 		.ascii	"__uint16_t\000"
 947      6E743136 
 947      5F7400
 948              	.LASF17:
 949 00d6 646F7562 		.ascii	"double\000"
 949      6C6500
 950              	.LASF23:
 951 00dd 70776D5F 		.ascii	"pwm_light\000"
 951      6C696768 
 951      7400
 952              	.LASF35:
ARM GAS  C:\Users\ole\AppData\Local\Temp\ccL3idsy.s 			page 21


 953 00e7 2E5C6D61 		.ascii	".\\main.c\000"
 953      696E2E63 
 953      00
 954              	.LASF38:
 955 00f0 6D61696E 		.ascii	"main\000"
 955      00
 956              	.LASF27:
 957 00f5 6368616E 		.ascii	"channelTime\000"
 957      6E656C54 
 957      696D6500 
 958              	.LASF11:
 959 0101 756E7369 		.ascii	"unsigned int\000"
 959      676E6564 
 959      20696E74 
 959      00
 960              	.LASF10:
 961 010e 6C6F6E67 		.ascii	"long long unsigned int\000"
 961      206C6F6E 
 961      6720756E 
 961      7369676E 
 961      65642069 
 962              	.LASF12:
 963 0125 75696E74 		.ascii	"uint8_t\000"
 963      385F7400 
 964              	.LASF34:
 965 012d 474E5520 		.ascii	"GNU C 4.8.4 20140526 (release) [ARM/embedded-4_8-br"
 965      4320342E 
 965      382E3420 
 965      32303134 
 965      30353236 
 966 0160 616E6368 		.ascii	"anch revision 211358] -mcpu=cortex-m0 -mthumb -g -O"
 966      20726576 
 966      6973696F 
 966      6E203231 
 966      31333538 
 967 0193 30202D66 		.ascii	"0 -ffunction-sections\000"
 967      66756E63 
 967      74696F6E 
 967      2D736563 
 967      74696F6E 
 968              	.LASF22:
 969 01a9 70776D5F 		.ascii	"pwm_light_init\000"
 969      6C696768 
 969      745F696E 
 969      697400
 970              	.LASF13:
 971 01b8 696E7431 		.ascii	"int16_t\000"
 971      365F7400 
 972              	.LASF37:
 973 01c0 6368616E 		.ascii	"chanels\000"
 973      656C7300 
 974              	.LASF19:
 975 01c8 73697A65 		.ascii	"sizetype\000"
 975      74797065 
 975      00
 976              	.LASF9:
 977 01d1 6C6F6E67 		.ascii	"long long int\000"
ARM GAS  C:\Users\ole\AppData\Local\Temp\ccL3idsy.s 			page 22


 977      206C6F6E 
 977      6720696E 
 977      7400
 978              	.LASF36:
 979 01df 583A5C44 		.ascii	"X:\\Dokumente\\Ole\\FLC\\FLC.cydsn\000"
 979      6F6B756D 
 979      656E7465 
 979      5C4F6C65 
 979      5C464C43 
 980              	.LASF18:
 981 01fe 63686172 		.ascii	"char\000"
 981      00
 982              	.LASF4:
 983 0203 73686F72 		.ascii	"short int\000"
 983      7420696E 
 983      7400
 984              	.LASF14:
 985 020d 75696E74 		.ascii	"uint16_t\000"
 985      31365F74 
 985      00
 986              	.LASF29:
 987 0216 636F756E 		.ascii	"counter_setup_millis\000"
 987      7465725F 
 987      73657475 
 987      705F6D69 
 987      6C6C6973 
 988              	.LASF7:
 989 022b 6C6F6E67 		.ascii	"long int\000"
 989      20696E74 
 989      00
 990              	.LASF0:
 991 0234 7369676E 		.ascii	"signed char\000"
 991      65642063 
 991      68617200 
 992              	.LASF30:
 993 0240 636F756E 		.ascii	"counter_button_millis\000"
 993      7465725F 
 993      62757474 
 993      6F6E5F6D 
 993      696C6C69 
 994              	.LASF26:
 995 0256 6368616E 		.ascii	"channelValue\000"
 995      6E656C56 
 995      616C7565 
 995      00
 996              	.LASF24:
 997 0263 6C696768 		.ascii	"lightOff\000"
 997      744F6666 
 997      00
 998              		.ident	"GCC: (GNU Tools for ARM Embedded Processors) 4.8.4 20140526 (release) [ARM/embedded-4_8-br
