ARM GAS  C:\Users\ole\AppData\Local\Temp\cc8CkS3M.s 			page 1


   1              		.cpu cortex-m0
   2              		.fpu softvfp
   3              		.eabi_attribute 20, 1
   4              		.eabi_attribute 21, 1
   5              		.eabi_attribute 23, 3
   6              		.eabi_attribute 24, 1
   7              		.eabi_attribute 25, 1
   8              		.eabi_attribute 26, 1
   9              		.eabi_attribute 30, 6
  10              		.eabi_attribute 34, 0
  11              		.eabi_attribute 18, 4
  12              		.code	16
  13              		.file	"main.c"
  14              		.text
  15              	.Ltext0:
  16              		.cfi_sections	.debug_frame
  17              		.global	pwm_light
  18              		.data
  19              		.align	2
  20              		.type	pwm_light, %object
  21              		.size	pwm_light, 4
  22              	pwm_light:
  23 0000 10       		.byte	16
  24 0001 10       		.byte	16
  25 0002 10       		.byte	16
  26 0003 10       		.byte	16
  27              		.global	pwm_light_adj
  28              		.align	2
  29              		.type	pwm_light_adj, %object
  30              		.size	pwm_light_adj, 4
  31              	pwm_light_adj:
  32 0004 10       		.byte	16
  33 0005 10       		.byte	16
  34 0006 10       		.byte	16
  35 0007 10       		.byte	16
  36              		.global	channelValue
  37              		.bss
  38              		.align	2
  39              		.type	channelValue, %object
  40              		.size	channelValue, 8
  41              	channelValue:
  42 0000 00000000 		.space	8
  42      00000000 
  43              		.global	flashTime_StrobeLight
  44              		.data
  45              		.align	1
  46              		.type	flashTime_StrobeLight, %object
  47              		.size	flashTime_StrobeLight, 2
  48              	flashTime_StrobeLight:
  49 0008 3C00     		.short	60
  50              		.global	pauseTime_StrobeLight
  51              		.align	1
  52              		.type	pauseTime_StrobeLight, %object
  53              		.size	pauseTime_StrobeLight, 2
  54              	pauseTime_StrobeLight:
  55 000a 3C00     		.short	60
  56              		.global	flashTime_CollisionLight
ARM GAS  C:\Users\ole\AppData\Local\Temp\cc8CkS3M.s 			page 2


  57              		.align	1
  58              		.type	flashTime_CollisionLight, %object
  59              		.size	flashTime_CollisionLight, 2
  60              	flashTime_CollisionLight:
  61 000c 3C00     		.short	60
  62              		.global	__aeabi_idiv
  63 000e 0000     		.section	.text.main,"ax",%progbits
  64              		.align	2
  65              		.global	main
  66              		.code	16
  67              		.thumb_func
  68              		.type	main, %function
  69              	main:
  70              	.LFB33:
  71              		.file 1 ".\\main.c"
   1:.\main.c      **** /* ========================================
   2:.\main.c      ****  *
   3:.\main.c      ****  * Copyright YOUR COMPANY, THE YEAR
   4:.\main.c      ****  * All Rights Reserved
   5:.\main.c      ****  * UNPUBLISHED, LICENSED SOFTWARE.
   6:.\main.c      ****  *
   7:.\main.c      ****  * CONFIDENTIAL AND PROPRIETARY INFORMATION
   8:.\main.c      ****  * WHICH IS THE PROPERTY OF your company.
   9:.\main.c      ****  *
  10:.\main.c      ****  * ========================================
  11:.\main.c      **** */
  12:.\main.c      **** #include <project.h>
  13:.\main.c      **** enum lights {strobe = 0, collision, navigation, landing};
  14:.\main.c      **** enum chanels {ch1 = 0, ch2, ch3, ch4, ch5, ch6, ch7, ch8};
  15:.\main.c      **** 
  16:.\main.c      **** uint8_t pwm_light[4] = {0x10, 0x10, 0x10, 0x10};
  17:.\main.c      **** 
  18:.\main.c      **** 
  19:.\main.c      **** uint8_t pwm_light_adj[4] = {0x10, 0x10, 0x10, 0x10};
  20:.\main.c      **** 
  21:.\main.c      **** uint8_t channelValue[8] = {0, 0, 0, 0, 0, 0, 0, 0};
  22:.\main.c      **** 
  23:.\main.c      **** extern int16_t channelTime[8];
  24:.\main.c      **** 
  25:.\main.c      **** uint16_t flashTime_StrobeLight = 60;
  26:.\main.c      **** uint16_t pauseTime_StrobeLight = 60;
  27:.\main.c      **** uint16_t flashTime_CollisionLight = 60;
  28:.\main.c      **** 
  29:.\main.c      **** int main()
  30:.\main.c      **** {
  72              		.loc 1 30 0
  73              		.cfi_startproc
  74 0000 90B5     		push	{r4, r7, lr}
  75              		.cfi_def_cfa_offset 12
  76              		.cfi_offset 4, -12
  77              		.cfi_offset 7, -8
  78              		.cfi_offset 14, -4
  79 0002 83B0     		sub	sp, sp, #12
  80              		.cfi_def_cfa_offset 24
  81 0004 00AF     		add	r7, sp, #0
  82              		.cfi_def_cfa_register 7
  31:.\main.c      ****     uint8_t i;
ARM GAS  C:\Users\ole\AppData\Local\Temp\cc8CkS3M.s 			page 3


  32:.\main.c      ****     uint8_t uartByte;
  33:.\main.c      ****     /* Place your initialization/startup code here (e.g. MyInst_Start()) */
  34:.\main.c      ****     CyGlobalIntEnable;
  83              		.loc 1 34 0
  84              	@ 34 ".\main.c" 1
  85 0006 62B6     		CPSIE   i
  86              	@ 0 "" 2
  35:.\main.c      ****     PWM_Timer_Start();
  87              		.loc 1 35 0
  88              		.code	16
  89 0008 FFF7FEFF 		bl	PWM_Timer_Start
  36:.\main.c      ****     Blink_Timer_Start();
  90              		.loc 1 36 0
  91 000c FFF7FEFF 		bl	Blink_Timer_Start
  37:.\main.c      ****     RC_Timer_Start();
  92              		.loc 1 37 0
  93 0010 FFF7FEFF 		bl	RC_Timer_Start
  38:.\main.c      ****     UART_1_Start();
  94              		.loc 1 38 0
  95 0014 FFF7FEFF 		bl	UART_1_Start
  39:.\main.c      ****     UART_2_Start();
  96              		.loc 1 39 0
  97 0018 FFF7FEFF 		bl	UART_2_Start
  40:.\main.c      ****     isr_uart_Start();
  98              		.loc 1 40 0
  99 001c FFF7FEFF 		bl	isr_uart_Start
  41:.\main.c      ****     isr_pwm_Start();
 100              		.loc 1 41 0
 101 0020 FFF7FEFF 		bl	isr_pwm_Start
  42:.\main.c      ****     isr_RC_Start();
 102              		.loc 1 42 0
 103 0024 FFF7FEFF 		bl	isr_RC_Start
  43:.\main.c      ****     isr_blink_Start();
 104              		.loc 1 43 0
 105 0028 FFF7FEFF 		bl	isr_blink_Start
 106              	.L13:
  44:.\main.c      ****  
  45:.\main.c      ****     
  46:.\main.c      ****     for(;;)
  47:.\main.c      ****     {
  48:.\main.c      ****         uartByte = UART_2_UartGetChar();
 107              		.loc 1 48 0
 108 002c FFF7FEFF 		bl	UART_2_UartGetChar
 109 0030 021C     		mov	r2, r0
 110 0032 BB1D     		add	r3, r7, #6
 111 0034 1A70     		strb	r2, [r3]
  49:.\main.c      ****         if (uartByte != 0)
 112              		.loc 1 49 0
 113 0036 BB1D     		add	r3, r7, #6
 114 0038 1B78     		ldrb	r3, [r3]
 115 003a 002B     		cmp	r3, #0
 116 003c 13D0     		beq	.L2
  50:.\main.c      ****         {
  51:.\main.c      ****             for (i=0;i<4;i++)
 117              		.loc 1 51 0
 118 003e FB1D     		add	r3, r7, #7
 119 0040 0022     		mov	r2, #0
ARM GAS  C:\Users\ole\AppData\Local\Temp\cc8CkS3M.s 			page 4


 120 0042 1A70     		strb	r2, [r3]
 121 0044 0AE0     		b	.L3
 122              	.L4:
  52:.\main.c      ****              pwm_light_adj[i] = uartByte;
 123              		.loc 1 52 0 discriminator 2
 124 0046 FB1D     		add	r3, r7, #7
 125 0048 1B78     		ldrb	r3, [r3]
 126 004a 324A     		ldr	r2, .L14
 127 004c B91D     		add	r1, r7, #6
 128 004e 0978     		ldrb	r1, [r1]
 129 0050 D154     		strb	r1, [r2, r3]
  51:.\main.c      ****             for (i=0;i<4;i++)
 130              		.loc 1 51 0 discriminator 2
 131 0052 FB1D     		add	r3, r7, #7
 132 0054 1A78     		ldrb	r2, [r3]
 133 0056 FB1D     		add	r3, r7, #7
 134 0058 0132     		add	r2, r2, #1
 135 005a 1A70     		strb	r2, [r3]
 136              	.L3:
  51:.\main.c      ****             for (i=0;i<4;i++)
 137              		.loc 1 51 0 is_stmt 0 discriminator 1
 138 005c FB1D     		add	r3, r7, #7
 139 005e 1B78     		ldrb	r3, [r3]
 140 0060 032B     		cmp	r3, #3
 141 0062 F0D9     		bls	.L4
  53:.\main.c      ****         }else
  54:.\main.c      ****         {
  55:.\main.c      ****             for (i=0;i<8;i++)
  56:.\main.c      ****             {
  57:.\main.c      ****                 if (channelTime[i] < 1000)
  58:.\main.c      ****                 {
  59:.\main.c      ****                     channelValue[i] = 0;
  60:.\main.c      ****                 }else if (channelTime[i] > 2000)
  61:.\main.c      ****                 {
  62:.\main.c      ****                     channelValue[i] = 255;
  63:.\main.c      ****                 }else
  64:.\main.c      ****                 {
  65:.\main.c      ****                     channelValue[i] = (uint8_t) (((channelTime[i] - 1000) * 255) / 1000);
  66:.\main.c      ****                 }  
  67:.\main.c      ****             }
  68:.\main.c      ****             
  69:.\main.c      ****             
  70:.\main.c      ****             for (i=0;i<4;i++)
  71:.\main.c      ****              pwm_light_adj[i] = channelValue[ch6];
  72:.\main.c      ****         }
  73:.\main.c      ****         /* Place your application code here. */
  74:.\main.c      ****     }
 142              		.loc 1 74 0 is_stmt 1
 143 0064 E2E7     		b	.L13
 144              	.L2:
  55:.\main.c      ****             for (i=0;i<8;i++)
 145              		.loc 1 55 0
 146 0066 FB1D     		add	r3, r7, #7
 147 0068 0022     		mov	r2, #0
 148 006a 1A70     		strb	r2, [r3]
 149 006c 39E0     		b	.L6
 150              	.L10:
ARM GAS  C:\Users\ole\AppData\Local\Temp\cc8CkS3M.s 			page 5


  57:.\main.c      ****                 if (channelTime[i] < 1000)
 151              		.loc 1 57 0
 152 006e FB1D     		add	r3, r7, #7
 153 0070 1A78     		ldrb	r2, [r3]
 154 0072 294B     		ldr	r3, .L14+4
 155 0074 5200     		lsl	r2, r2, #1
 156 0076 D35A     		ldrh	r3, [r2, r3]
 157 0078 1AB2     		sxth	r2, r3
 158 007a 284B     		ldr	r3, .L14+8
 159 007c 9A42     		cmp	r2, r3
 160 007e 05DC     		bgt	.L7
  59:.\main.c      ****                     channelValue[i] = 0;
 161              		.loc 1 59 0
 162 0080 FB1D     		add	r3, r7, #7
 163 0082 1B78     		ldrb	r3, [r3]
 164 0084 264A     		ldr	r2, .L14+12
 165 0086 0021     		mov	r1, #0
 166 0088 D154     		strb	r1, [r2, r3]
 167 008a 25E0     		b	.L8
 168              	.L7:
  60:.\main.c      ****                 }else if (channelTime[i] > 2000)
 169              		.loc 1 60 0
 170 008c FB1D     		add	r3, r7, #7
 171 008e 1A78     		ldrb	r2, [r3]
 172 0090 214B     		ldr	r3, .L14+4
 173 0092 5200     		lsl	r2, r2, #1
 174 0094 D35A     		ldrh	r3, [r2, r3]
 175 0096 1AB2     		sxth	r2, r3
 176 0098 FA23     		mov	r3, #250
 177 009a DB00     		lsl	r3, r3, #3
 178 009c 9A42     		cmp	r2, r3
 179 009e 05DD     		ble	.L9
  62:.\main.c      ****                     channelValue[i] = 255;
 180              		.loc 1 62 0
 181 00a0 FB1D     		add	r3, r7, #7
 182 00a2 1B78     		ldrb	r3, [r3]
 183 00a4 1E4A     		ldr	r2, .L14+12
 184 00a6 FF21     		mov	r1, #255
 185 00a8 D154     		strb	r1, [r2, r3]
 186 00aa 15E0     		b	.L8
 187              	.L9:
  65:.\main.c      ****                     channelValue[i] = (uint8_t) (((channelTime[i] - 1000) * 255) / 1000);
 188              		.loc 1 65 0
 189 00ac FB1D     		add	r3, r7, #7
 190 00ae 1C78     		ldrb	r4, [r3]
 191 00b0 FB1D     		add	r3, r7, #7
 192 00b2 1A78     		ldrb	r2, [r3]
 193 00b4 184B     		ldr	r3, .L14+4
 194 00b6 5200     		lsl	r2, r2, #1
 195 00b8 D35A     		ldrh	r3, [r2, r3]
 196 00ba 1BB2     		sxth	r3, r3
 197 00bc 1949     		ldr	r1, .L14+16
 198 00be 5A18     		add	r2, r3, r1
 199 00c0 131C     		mov	r3, r2
 200 00c2 1B02     		lsl	r3, r3, #8
 201 00c4 9B1A     		sub	r3, r3, r2
 202 00c6 181C     		mov	r0, r3
ARM GAS  C:\Users\ole\AppData\Local\Temp\cc8CkS3M.s 			page 6


 203 00c8 FA23     		mov	r3, #250
 204 00ca 9900     		lsl	r1, r3, #2
 205 00cc FFF7FEFF 		bl	__aeabi_idiv
 206 00d0 031C     		mov	r3, r0
 207 00d2 DAB2     		uxtb	r2, r3
 208 00d4 124B     		ldr	r3, .L14+12
 209 00d6 1A55     		strb	r2, [r3, r4]
 210              	.L8:
  55:.\main.c      ****             for (i=0;i<8;i++)
 211              		.loc 1 55 0
 212 00d8 FB1D     		add	r3, r7, #7
 213 00da 1A78     		ldrb	r2, [r3]
 214 00dc FB1D     		add	r3, r7, #7
 215 00de 0132     		add	r2, r2, #1
 216 00e0 1A70     		strb	r2, [r3]
 217              	.L6:
  55:.\main.c      ****             for (i=0;i<8;i++)
 218              		.loc 1 55 0 is_stmt 0 discriminator 1
 219 00e2 FB1D     		add	r3, r7, #7
 220 00e4 1B78     		ldrb	r3, [r3]
 221 00e6 072B     		cmp	r3, #7
 222 00e8 C1D9     		bls	.L10
  70:.\main.c      ****             for (i=0;i<4;i++)
 223              		.loc 1 70 0 is_stmt 1
 224 00ea FB1D     		add	r3, r7, #7
 225 00ec 0022     		mov	r2, #0
 226 00ee 1A70     		strb	r2, [r3]
 227 00f0 0AE0     		b	.L11
 228              	.L12:
  71:.\main.c      ****              pwm_light_adj[i] = channelValue[ch6];
 229              		.loc 1 71 0 discriminator 2
 230 00f2 FB1D     		add	r3, r7, #7
 231 00f4 1B78     		ldrb	r3, [r3]
 232 00f6 0A4A     		ldr	r2, .L14+12
 233 00f8 5179     		ldrb	r1, [r2, #5]
 234 00fa 064A     		ldr	r2, .L14
 235 00fc D154     		strb	r1, [r2, r3]
  70:.\main.c      ****             for (i=0;i<4;i++)
 236              		.loc 1 70 0 discriminator 2
 237 00fe FB1D     		add	r3, r7, #7
 238 0100 1A78     		ldrb	r2, [r3]
 239 0102 FB1D     		add	r3, r7, #7
 240 0104 0132     		add	r2, r2, #1
 241 0106 1A70     		strb	r2, [r3]
 242              	.L11:
  70:.\main.c      ****             for (i=0;i<4;i++)
 243              		.loc 1 70 0 is_stmt 0 discriminator 1
 244 0108 FB1D     		add	r3, r7, #7
 245 010a 1B78     		ldrb	r3, [r3]
 246 010c 032B     		cmp	r3, #3
 247 010e F0D9     		bls	.L12
 248              		.loc 1 74 0 is_stmt 1
 249 0110 8CE7     		b	.L13
 250              	.L15:
 251 0112 C046     		.align	2
 252              	.L14:
 253 0114 00000000 		.word	pwm_light_adj
ARM GAS  C:\Users\ole\AppData\Local\Temp\cc8CkS3M.s 			page 7


 254 0118 00000000 		.word	channelTime
 255 011c E7030000 		.word	999
 256 0120 00000000 		.word	channelValue
 257 0124 18FCFFFF 		.word	-1000
 258              		.cfi_endproc
 259              	.LFE33:
 260              		.size	main, .-main
 261              		.text
 262              	.Letext0:
 263              		.file 2 "c:\\program files (x86)\\cypress\\psoc creator\\3.1\\psoc creator\\import\\gnu_cs\\arm\\4
 264              		.file 3 "c:\\program files (x86)\\cypress\\psoc creator\\3.1\\psoc creator\\import\\gnu_cs\\arm\\4