ARM GAS  C:\Users\ole\AppData\Local\Temp\ccQ5hhXN.s 			page 1


   1              		.cpu cortex-m0
   2              		.fpu softvfp
   3              		.eabi_attribute 20, 1
   4              		.eabi_attribute 21, 1
   5              		.eabi_attribute 23, 3
   6              		.eabi_attribute 24, 1
   7              		.eabi_attribute 25, 1
   8              		.eabi_attribute 26, 1
   9              		.eabi_attribute 30, 6
  10              		.eabi_attribute 34, 0
  11              		.eabi_attribute 18, 4
  12              		.code	16
  13              		.file	"main.c"
  14              		.text
  15              	.Ltext0:
  16              		.cfi_sections	.debug_frame
  17              		.global	pwm_light
  18              		.data
  19              		.align	2
  20              		.type	pwm_light, %object
  21              		.size	pwm_light, 4
  22              	pwm_light:
  23 0000 10       		.byte	16
  24 0001 10       		.byte	16
  25 0002 10       		.byte	16
  26 0003 10       		.byte	16
  27              		.global	lightOff
  28              		.bss
  29              		.type	lightOff, %object
  30              		.size	lightOff, 1
  31              	lightOff:
  32 0000 00       		.space	1
  33              		.global	mode
  34              		.type	mode, %object
  35              		.size	mode, 1
  36              	mode:
  37 0001 00       		.space	1
  38              		.global	pwm_light_adj
  39              		.data
  40              		.align	2
  41              		.type	pwm_light_adj, %object
  42              		.size	pwm_light_adj, 4
  43              	pwm_light_adj:
  44 0004 10       		.byte	16
  45 0005 10       		.byte	16
  46 0006 10       		.byte	16
  47 0007 10       		.byte	16
  48              		.section	.rodata
  49              		.align	2
  50              		.type	pwm_light_init, %object
  51              		.size	pwm_light_init, 4
  52              	pwm_light_init:
  53 0000 10       		.byte	16
  54 0001 10       		.byte	16
  55 0002 10       		.byte	16
  56 0003 10       		.byte	16
  57              		.global	channelValue
ARM GAS  C:\Users\ole\AppData\Local\Temp\ccQ5hhXN.s 			page 2


  58              		.bss
  59 0002 0000     		.align	2
  60              		.type	channelValue, %object
  61              		.size	channelValue, 8
  62              	channelValue:
  63 0004 00000000 		.space	8
  63      00000000 
  64              		.global	flashTime_StrobeLight
  65              		.data
  66              		.align	1
  67              		.type	flashTime_StrobeLight, %object
  68              		.size	flashTime_StrobeLight, 2
  69              	flashTime_StrobeLight:
  70 0008 3C00     		.short	60
  71              		.global	pauseTime_StrobeLight
  72              		.align	1
  73              		.type	pauseTime_StrobeLight, %object
  74              		.size	pauseTime_StrobeLight, 2
  75              	pauseTime_StrobeLight:
  76 000a 3C00     		.short	60
  77              		.global	flashTime_CollisionLight
  78              		.align	1
  79              		.type	flashTime_CollisionLight, %object
  80              		.size	flashTime_CollisionLight, 2
  81              	flashTime_CollisionLight:
  82 000c 3C00     		.short	60
  83              		.global	__aeabi_idiv
  84 000e 0000     		.section	.text.main,"ax",%progbits
  85              		.align	2
  86              		.global	main
  87              		.code	16
  88              		.thumb_func
  89              		.type	main, %function
  90              	main:
  91              	.LFB33:
  92              		.file 1 ".\\main.c"
   1:.\main.c      **** /* ========================================
   2:.\main.c      ****  *
   3:.\main.c      ****  * Copyright YOUR COMPANY, THE YEAR
   4:.\main.c      ****  * All Rights Reserved
   5:.\main.c      ****  * UNPUBLISHED, LICENSED SOFTWARE.
   6:.\main.c      ****  *
   7:.\main.c      ****  * CONFIDENTIAL AND PROPRIETARY INFORMATION
   8:.\main.c      ****  * WHICH IS THE PROPERTY OF your company.
   9:.\main.c      ****  *
  10:.\main.c      ****  * ========================================
  11:.\main.c      **** */
  12:.\main.c      **** #include <project.h>
  13:.\main.c      **** enum lights {strobe = 0, collision, navigation, landing};
  14:.\main.c      **** enum chanels {ch1 = 0, ch2, ch3, ch4, ch5, ch6, ch7, ch8};
  15:.\main.c      **** enum modes {flight = 0, ground, setup};
  16:.\main.c      **** 
  17:.\main.c      **** uint8_t pwm_light[4] = {0x10, 0x10, 0x10, 0x10};
  18:.\main.c      **** 
  19:.\main.c      **** uint8_t lightOff = flight;
  20:.\main.c      **** uint8_t mode = 0;
  21:.\main.c      **** uint8_t pwm_light_adj[4] = {0x10, 0x10, 0x10, 0x10};
ARM GAS  C:\Users\ole\AppData\Local\Temp\ccQ5hhXN.s 			page 3


  22:.\main.c      **** static const uint8 CYCODE pwm_light_init[4] = {0x10, 0x10, 0x10, 0x10};
  23:.\main.c      **** 
  24:.\main.c      **** uint8_t channelValue[8] = {0, 0, 0, 0, 0, 0, 0, 0};
  25:.\main.c      **** 
  26:.\main.c      **** extern int16_t channelTime[8];
  27:.\main.c      **** 
  28:.\main.c      **** extern uint8_t cppm_sync;
  29:.\main.c      **** 
  30:.\main.c      **** extern uint32_t seconds;
  31:.\main.c      **** extern uint16_t counter_off_millis;
  32:.\main.c      **** extern uint16_t counter_setup_millis;
  33:.\main.c      **** extern uint16_t counter_setup_adj_millis;
  34:.\main.c      **** extern uint16_t counter_button_millis;
  35:.\main.c      **** 
  36:.\main.c      **** uint16_t flashTime_StrobeLight = 60;
  37:.\main.c      **** uint16_t pauseTime_StrobeLight = 60;
  38:.\main.c      **** uint16_t flashTime_CollisionLight = 60;
  39:.\main.c      **** 
  40:.\main.c      **** int main()
  41:.\main.c      **** {
  93              		.loc 1 41 0
  94              		.cfi_startproc
  95 0000 90B5     		push	{r4, r7, lr}
  96              		.cfi_def_cfa_offset 12
  97              		.cfi_offset 4, -12
  98              		.cfi_offset 7, -8
  99              		.cfi_offset 14, -4
 100 0002 83B0     		sub	sp, sp, #12
 101              		.cfi_def_cfa_offset 24
 102 0004 00AF     		add	r7, sp, #0
 103              		.cfi_def_cfa_register 7
  42:.\main.c      ****     uint8_t i;
  43:.\main.c      ****     uint8_t uartByte;
  44:.\main.c      ****     uint8_t lightAdj = 0;
 104              		.loc 1 44 0
 105 0006 BB1D     		add	r3, r7, #6
 106 0008 0022     		mov	r2, #0
 107 000a 1A70     		strb	r2, [r3]
  45:.\main.c      **** 
  46:.\main.c      ****     /* Place your initialization/startup code here (e.g. MyInst_Start()) */
  47:.\main.c      ****     CyGlobalIntEnable;
 108              		.loc 1 47 0
 109              	@ 47 ".\main.c" 1
 110 000c 62B6     		CPSIE   i
 111              	@ 0 "" 2
  48:.\main.c      ****     PWM_Timer_Start();
 112              		.loc 1 48 0
 113              		.code	16
 114 000e FFF7FEFF 		bl	PWM_Timer_Start
  49:.\main.c      ****     Blink_Timer_Start();
 115              		.loc 1 49 0
 116 0012 FFF7FEFF 		bl	Blink_Timer_Start
  50:.\main.c      ****     RC_Timer_Start();
 117              		.loc 1 50 0
 118 0016 FFF7FEFF 		bl	RC_Timer_Start
  51:.\main.c      ****     UART_1_Start();
 119              		.loc 1 51 0
ARM GAS  C:\Users\ole\AppData\Local\Temp\ccQ5hhXN.s 			page 4


 120 001a FFF7FEFF 		bl	UART_1_Start
  52:.\main.c      ****     UART_2_Start();
 121              		.loc 1 52 0
 122 001e FFF7FEFF 		bl	UART_2_Start
  53:.\main.c      ****     isr_uart_Start();
 123              		.loc 1 53 0
 124 0022 FFF7FEFF 		bl	isr_uart_Start
  54:.\main.c      ****     isr_pwm_Start();
 125              		.loc 1 54 0
 126 0026 FFF7FEFF 		bl	isr_pwm_Start
  55:.\main.c      ****     isr_RC_Start();
 127              		.loc 1 55 0
 128 002a FFF7FEFF 		bl	isr_RC_Start
  56:.\main.c      ****     isr_blink_Start();
 129              		.loc 1 56 0
 130 002e FFF7FEFF 		bl	isr_blink_Start
  57:.\main.c      ****     
  58:.\main.c      ****     for (i=0;i<4;i++)
 131              		.loc 1 58 0
 132 0032 FB1D     		add	r3, r7, #7
 133 0034 0022     		mov	r2, #0
 134 0036 1A70     		strb	r2, [r3]
 135 0038 14E0     		b	.L2
 136              	.L3:
  59:.\main.c      ****     {
  60:.\main.c      ****         pwm_light_adj[i] = pwm_light_init[i];
 137              		.loc 1 60 0 discriminator 2
 138 003a FB1D     		add	r3, r7, #7
 139 003c 1B78     		ldrb	r3, [r3]
 140 003e FA1D     		add	r2, r7, #7
 141 0040 1278     		ldrb	r2, [r2]
 142 0042 8249     		ldr	r1, .L28
 143 0044 895C     		ldrb	r1, [r1, r2]
 144 0046 824A     		ldr	r2, .L28+4
 145 0048 D154     		strb	r1, [r2, r3]
  61:.\main.c      ****         channelValue[i] = pwm_light_init[i];
 146              		.loc 1 61 0 discriminator 2
 147 004a FB1D     		add	r3, r7, #7
 148 004c 1B78     		ldrb	r3, [r3]
 149 004e FA1D     		add	r2, r7, #7
 150 0050 1278     		ldrb	r2, [r2]
 151 0052 7E49     		ldr	r1, .L28
 152 0054 895C     		ldrb	r1, [r1, r2]
 153 0056 7F4A     		ldr	r2, .L28+8
 154 0058 D154     		strb	r1, [r2, r3]
  58:.\main.c      ****     for (i=0;i<4;i++)
 155              		.loc 1 58 0 discriminator 2
 156 005a FB1D     		add	r3, r7, #7
 157 005c 1A78     		ldrb	r2, [r3]
 158 005e FB1D     		add	r3, r7, #7
 159 0060 0132     		add	r2, r2, #1
 160 0062 1A70     		strb	r2, [r3]
 161              	.L2:
  58:.\main.c      ****     for (i=0;i<4;i++)
 162              		.loc 1 58 0 is_stmt 0 discriminator 1
 163 0064 FB1D     		add	r3, r7, #7
 164 0066 1B78     		ldrb	r3, [r3]
ARM GAS  C:\Users\ole\AppData\Local\Temp\ccQ5hhXN.s 			page 5


 165 0068 032B     		cmp	r3, #3
 166 006a E6D9     		bls	.L3
 167              	.L25:
  62:.\main.c      ****     }
  63:.\main.c      ****     
  64:.\main.c      ****     for(;;)
  65:.\main.c      ****     {
  66:.\main.c      ****         if (counter_button_millis > 1000)
 168              		.loc 1 66 0 is_stmt 1
 169 006c 7A4B     		ldr	r3, .L28+12
 170 006e 1A88     		ldrh	r2, [r3]
 171 0070 FA23     		mov	r3, #250
 172 0072 9B00     		lsl	r3, r3, #2
 173 0074 9A42     		cmp	r2, r3
 174 0076 01D9     		bls	.L4
  67:.\main.c      ****         {
  68:.\main.c      ****             Bootloadable_1_Load();
 175              		.loc 1 68 0
 176 0078 FFF7FEFF 		bl	Bootloadable_1_Load
 177              	.L4:
  69:.\main.c      ****         }
  70:.\main.c      ****         
  71:.\main.c      ****         if (counter_setup_adj_millis > 1000 && mode == setup)
 178              		.loc 1 71 0
 179 007c 774B     		ldr	r3, .L28+16
 180 007e 1A88     		ldrh	r2, [r3]
 181 0080 FA23     		mov	r3, #250
 182 0082 9B00     		lsl	r3, r3, #2
 183 0084 9A42     		cmp	r2, r3
 184 0086 07D9     		bls	.L5
 185              		.loc 1 71 0 is_stmt 0 discriminator 1
 186 0088 754B     		ldr	r3, .L28+20
 187 008a 1B78     		ldrb	r3, [r3]
 188 008c 022B     		cmp	r3, #2
 189 008e 03D1     		bne	.L5
  72:.\main.c      ****         {
  73:.\main.c      ****             mode = flight;
 190              		.loc 1 73 0 is_stmt 1
 191 0090 734B     		ldr	r3, .L28+20
 192 0092 0022     		mov	r2, #0
 193 0094 1A70     		strb	r2, [r3]
 194 0096 0CE0     		b	.L6
 195              	.L5:
  74:.\main.c      ****         }
  75:.\main.c      ****         else if (counter_setup_adj_millis > 1000 && mode != setup)
 196              		.loc 1 75 0
 197 0098 704B     		ldr	r3, .L28+16
 198 009a 1A88     		ldrh	r2, [r3]
 199 009c FA23     		mov	r3, #250
 200 009e 9B00     		lsl	r3, r3, #2
 201 00a0 9A42     		cmp	r2, r3
 202 00a2 06D9     		bls	.L6
 203              		.loc 1 75 0 is_stmt 0 discriminator 1
 204 00a4 6E4B     		ldr	r3, .L28+20
 205 00a6 1B78     		ldrb	r3, [r3]
 206 00a8 022B     		cmp	r3, #2
 207 00aa 02D0     		beq	.L6
ARM GAS  C:\Users\ole\AppData\Local\Temp\ccQ5hhXN.s 			page 6


  76:.\main.c      ****         {
  77:.\main.c      ****             mode = setup;
 208              		.loc 1 77 0 is_stmt 1
 209 00ac 6C4B     		ldr	r3, .L28+20
 210 00ae 0222     		mov	r2, #2
 211 00b0 1A70     		strb	r2, [r3]
 212              	.L6:
  78:.\main.c      ****         }
  79:.\main.c      ****         
  80:.\main.c      ****         
  81:.\main.c      ****         switch (mode)
 213              		.loc 1 81 0
 214 00b2 6B4B     		ldr	r3, .L28+20
 215 00b4 1B78     		ldrb	r3, [r3]
 216 00b6 012B     		cmp	r3, #1
 217 00b8 00D1     		bne	.LCB105
 218 00ba 9EE0     		b	.L26	@long jump
 219              	.LCB105:
 220 00bc 022B     		cmp	r3, #2
 221 00be 00D0     		beq	.LCB107
 222 00c0 9DE0     		b	.L27	@long jump
 223              	.LCB107:
  82:.\main.c      ****         {
  83:.\main.c      ****             case flight:
  84:.\main.c      ****                 
  85:.\main.c      ****             break;
  86:.\main.c      ****             
  87:.\main.c      ****             case ground:
  88:.\main.c      ****                 
  89:.\main.c      ****             break;
  90:.\main.c      ****             
  91:.\main.c      ****             case setup:
  92:.\main.c      ****             
  93:.\main.c      ****                 if (cppm_sync == 1)
 224              		.loc 1 93 0
 225 00c2 684B     		ldr	r3, .L28+24
 226 00c4 1B78     		ldrb	r3, [r3]
 227 00c6 012B     		cmp	r3, #1
 228 00c8 00D0     		beq	.LCB111
 229 00ca 95E0     		b	.L11	@long jump
 230              	.LCB111:
  94:.\main.c      ****                 {
  95:.\main.c      ****                     for (i=0;i<8;i++)
 231              		.loc 1 95 0
 232 00cc FB1D     		add	r3, r7, #7
 233 00ce 0022     		mov	r2, #0
 234 00d0 1A70     		strb	r2, [r3]
 235 00d2 39E0     		b	.L12
 236              	.L16:
  96:.\main.c      ****                     {
  97:.\main.c      ****                         if (channelTime[i] < 1000)
 237              		.loc 1 97 0
 238 00d4 FB1D     		add	r3, r7, #7
 239 00d6 1A78     		ldrb	r2, [r3]
 240 00d8 634B     		ldr	r3, .L28+28
 241 00da 5200     		lsl	r2, r2, #1
 242 00dc D35A     		ldrh	r3, [r2, r3]
ARM GAS  C:\Users\ole\AppData\Local\Temp\ccQ5hhXN.s 			page 7


 243 00de 1AB2     		sxth	r2, r3
 244 00e0 624B     		ldr	r3, .L28+32
 245 00e2 9A42     		cmp	r2, r3
 246 00e4 05DC     		bgt	.L13
  98:.\main.c      ****                         {
  99:.\main.c      ****                             channelValue[i] = 0;
 247              		.loc 1 99 0
 248 00e6 FB1D     		add	r3, r7, #7
 249 00e8 1B78     		ldrb	r3, [r3]
 250 00ea 5A4A     		ldr	r2, .L28+8
 251 00ec 0021     		mov	r1, #0
 252 00ee D154     		strb	r1, [r2, r3]
 253 00f0 25E0     		b	.L14
 254              	.L13:
 100:.\main.c      ****                         }else if (channelTime[i] > 2000)
 255              		.loc 1 100 0
 256 00f2 FB1D     		add	r3, r7, #7
 257 00f4 1A78     		ldrb	r2, [r3]
 258 00f6 5C4B     		ldr	r3, .L28+28
 259 00f8 5200     		lsl	r2, r2, #1
 260 00fa D35A     		ldrh	r3, [r2, r3]
 261 00fc 1AB2     		sxth	r2, r3
 262 00fe FA23     		mov	r3, #250
 263 0100 DB00     		lsl	r3, r3, #3
 264 0102 9A42     		cmp	r2, r3
 265 0104 05DD     		ble	.L15
 101:.\main.c      ****                         {
 102:.\main.c      ****                             channelValue[i] = 255;
 266              		.loc 1 102 0
 267 0106 FB1D     		add	r3, r7, #7
 268 0108 1B78     		ldrb	r3, [r3]
 269 010a 524A     		ldr	r2, .L28+8
 270 010c FF21     		mov	r1, #255
 271 010e D154     		strb	r1, [r2, r3]
 272 0110 15E0     		b	.L14
 273              	.L15:
 103:.\main.c      ****                         }else
 104:.\main.c      ****                         {
 105:.\main.c      ****                             channelValue[i] = (uint8_t) (((channelTime[i] - 1000) * 255) / 1000);
 274              		.loc 1 105 0
 275 0112 FB1D     		add	r3, r7, #7
 276 0114 1C78     		ldrb	r4, [r3]
 277 0116 FB1D     		add	r3, r7, #7
 278 0118 1A78     		ldrb	r2, [r3]
 279 011a 534B     		ldr	r3, .L28+28
 280 011c 5200     		lsl	r2, r2, #1
 281 011e D35A     		ldrh	r3, [r2, r3]
 282 0120 1BB2     		sxth	r3, r3
 283 0122 5349     		ldr	r1, .L28+36
 284 0124 5A18     		add	r2, r3, r1
 285 0126 131C     		mov	r3, r2
 286 0128 1B02     		lsl	r3, r3, #8
 287 012a 9B1A     		sub	r3, r3, r2
 288 012c 181C     		mov	r0, r3
 289 012e FA23     		mov	r3, #250
 290 0130 9900     		lsl	r1, r3, #2
 291 0132 FFF7FEFF 		bl	__aeabi_idiv
ARM GAS  C:\Users\ole\AppData\Local\Temp\ccQ5hhXN.s 			page 8


 292 0136 031C     		mov	r3, r0
 293 0138 DAB2     		uxtb	r2, r3
 294 013a 464B     		ldr	r3, .L28+8
 295 013c 1A55     		strb	r2, [r3, r4]
 296              	.L14:
  95:.\main.c      ****                     for (i=0;i<8;i++)
 297              		.loc 1 95 0
 298 013e FB1D     		add	r3, r7, #7
 299 0140 1A78     		ldrb	r2, [r3]
 300 0142 FB1D     		add	r3, r7, #7
 301 0144 0132     		add	r2, r2, #1
 302 0146 1A70     		strb	r2, [r3]
 303              	.L12:
  95:.\main.c      ****                     for (i=0;i<8;i++)
 304              		.loc 1 95 0 is_stmt 0 discriminator 1
 305 0148 FB1D     		add	r3, r7, #7
 306 014a 1B78     		ldrb	r3, [r3]
 307 014c 072B     		cmp	r3, #7
 308 014e C1D9     		bls	.L16
 106:.\main.c      ****                         }  
 107:.\main.c      ****                     }
 108:.\main.c      ****                     
 109:.\main.c      ****                     if (counter_setup_millis > 1000)
 309              		.loc 1 109 0 is_stmt 1
 310 0150 484B     		ldr	r3, .L28+40
 311 0152 1A88     		ldrh	r2, [r3]
 312 0154 FA23     		mov	r3, #250
 313 0156 9B00     		lsl	r3, r3, #2
 314 0158 9A42     		cmp	r2, r3
 315 015a 37D9     		bls	.L17
 110:.\main.c      ****                     {
 111:.\main.c      ****                         Em_EEPROM_1_Write(pwm_light_adj,pwm_light_init,4);
 316              		.loc 1 111 0
 317 015c 3C4A     		ldr	r2, .L28+4
 318 015e 3B4B     		ldr	r3, .L28
 319 0160 101C     		mov	r0, r2
 320 0162 191C     		mov	r1, r3
 321 0164 0422     		mov	r2, #4
 322 0166 FFF7FEFF 		bl	Em_EEPROM_1_Write
 112:.\main.c      ****                         lightAdj = (lightAdj + 1) % 4;
 323              		.loc 1 112 0
 324 016a BB1D     		add	r3, r7, #6
 325 016c 1B78     		ldrb	r3, [r3]
 326 016e 5A1C     		add	r2, r3, #1
 327 0170 414B     		ldr	r3, .L28+44
 328 0172 1340     		and	r3, r2
 329 0174 04D5     		bpl	.L18
 330 0176 013B     		sub	r3, r3, #1
 331 0178 0422     		mov	r2, #4
 332 017a 5242     		neg	r2, r2
 333 017c 1343     		orr	r3, r2
 334 017e 0133     		add	r3, r3, #1
 335              	.L18:
 336 0180 1A1C     		mov	r2, r3
 337 0182 BB1D     		add	r3, r7, #6
 338 0184 1A70     		strb	r2, [r3]
 113:.\main.c      ****                         for (i=0;i<4;i++)       //Turn all lights off on after 2s of stick in right
ARM GAS  C:\Users\ole\AppData\Local\Temp\ccQ5hhXN.s 			page 9


 339              		.loc 1 113 0
 340 0186 FB1D     		add	r3, r7, #7
 341 0188 0022     		mov	r2, #0
 342 018a 1A70     		strb	r2, [r3]
 343 018c 09E0     		b	.L19
 344              	.L20:
 114:.\main.c      ****                         {
 115:.\main.c      ****                             pwm_light[i] = 0;
 345              		.loc 1 115 0 discriminator 2
 346 018e FB1D     		add	r3, r7, #7
 347 0190 1B78     		ldrb	r3, [r3]
 348 0192 3A4A     		ldr	r2, .L28+48
 349 0194 0021     		mov	r1, #0
 350 0196 D154     		strb	r1, [r2, r3]
 113:.\main.c      ****                         for (i=0;i<4;i++)       //Turn all lights off on after 2s of stick in right
 351              		.loc 1 113 0 discriminator 2
 352 0198 FB1D     		add	r3, r7, #7
 353 019a 1A78     		ldrb	r2, [r3]
 354 019c FB1D     		add	r3, r7, #7
 355 019e 0132     		add	r2, r2, #1
 356 01a0 1A70     		strb	r2, [r3]
 357              	.L19:
 113:.\main.c      ****                         for (i=0;i<4;i++)       //Turn all lights off on after 2s of stick in right
 358              		.loc 1 113 0 is_stmt 0 discriminator 1
 359 01a2 FB1D     		add	r3, r7, #7
 360 01a4 1B78     		ldrb	r3, [r3]
 361 01a6 032B     		cmp	r3, #3
 362 01a8 F1D9     		bls	.L20
 116:.\main.c      ****                         }
 117:.\main.c      ****                         lightOff = 1;
 363              		.loc 1 117 0 is_stmt 1
 364 01aa 354B     		ldr	r3, .L28+52
 365 01ac 0122     		mov	r2, #1
 366 01ae 1A70     		strb	r2, [r3]
 118:.\main.c      ****                         pwm_light[lightAdj] = pwm_light_adj[lightAdj];
 367              		.loc 1 118 0
 368 01b0 BB1D     		add	r3, r7, #6
 369 01b2 1B78     		ldrb	r3, [r3]
 370 01b4 BA1D     		add	r2, r7, #6
 371 01b6 1278     		ldrb	r2, [r2]
 372 01b8 2549     		ldr	r1, .L28+4
 373 01ba 895C     		ldrb	r1, [r1, r2]
 374 01bc 2F4A     		ldr	r2, .L28+48
 375 01be D154     		strb	r1, [r2, r3]
 119:.\main.c      ****                         counter_off_millis = 0;
 376              		.loc 1 119 0
 377 01c0 304B     		ldr	r3, .L28+56
 378 01c2 0022     		mov	r2, #0
 379 01c4 1A80     		strh	r2, [r3]
 120:.\main.c      ****                         counter_setup_millis = 0;
 380              		.loc 1 120 0
 381 01c6 2B4B     		ldr	r3, .L28+40
 382 01c8 0022     		mov	r2, #0
 383 01ca 1A80     		strh	r2, [r3]
 384              	.L17:
 121:.\main.c      ****                     }
 122:.\main.c      ****                         
ARM GAS  C:\Users\ole\AppData\Local\Temp\ccQ5hhXN.s 			page 10


 123:.\main.c      ****                     if (counter_off_millis == 1500 && lightOff == 1) //Turn all lights back on afte
 385              		.loc 1 123 0
 386 01cc 2D4B     		ldr	r3, .L28+56
 387 01ce 1A88     		ldrh	r2, [r3]
 388 01d0 2D4B     		ldr	r3, .L28+60
 389 01d2 9A42     		cmp	r2, r3
 390 01d4 09D1     		bne	.L21
 391              		.loc 1 123 0 is_stmt 0 discriminator 1
 392 01d6 2A4B     		ldr	r3, .L28+52
 393 01d8 1B78     		ldrb	r3, [r3]
 394 01da 012B     		cmp	r3, #1
 395 01dc 05D1     		bne	.L21
 124:.\main.c      ****                     {
 125:.\main.c      ****                         lightOff = 0;
 396              		.loc 1 125 0 is_stmt 1
 397 01de 284B     		ldr	r3, .L28+52
 398 01e0 0022     		mov	r2, #0
 399 01e2 1A70     		strb	r2, [r3]
 126:.\main.c      ****                         counter_off_millis = 0;
 400              		.loc 1 126 0
 401 01e4 274B     		ldr	r3, .L28+56
 402 01e6 0022     		mov	r2, #0
 403 01e8 1A80     		strh	r2, [r3]
 404              	.L21:
 127:.\main.c      ****                     }
 128:.\main.c      ****                        
 129:.\main.c      ****                     pwm_light_adj[lightAdj] = channelValue[ch1];
 405              		.loc 1 129 0
 406 01ea BB1D     		add	r3, r7, #6
 407 01ec 1B78     		ldrb	r3, [r3]
 408 01ee 194A     		ldr	r2, .L28+8
 409 01f0 1178     		ldrb	r1, [r2]
 410 01f2 174A     		ldr	r2, .L28+4
 411 01f4 D154     		strb	r1, [r2, r3]
 130:.\main.c      ****                 }
 131:.\main.c      ****                 
 132:.\main.c      ****             break;
 412              		.loc 1 132 0
 413 01f6 03E0     		b	.L7
 414              	.L11:
 415 01f8 02E0     		b	.L7
 416              	.L26:
  89:.\main.c      ****             break;
 417              		.loc 1 89 0
 418 01fa C046     		mov	r8, r8
 419 01fc 00E0     		b	.L7
 420              	.L27:
  85:.\main.c      ****             break;
 421              		.loc 1 85 0
 422 01fe C046     		mov	r8, r8
 423              	.L7:
 133:.\main.c      ****         }
 134:.\main.c      ****         
 135:.\main.c      ****         #ifdef DEBUG
 136:.\main.c      ****             uartByte = UART_2_UartGetChar();
 424              		.loc 1 136 0
 425 0200 FFF7FEFF 		bl	UART_2_UartGetChar
ARM GAS  C:\Users\ole\AppData\Local\Temp\ccQ5hhXN.s 			page 11


 426 0204 021C     		mov	r2, r0
 427 0206 7B1D     		add	r3, r7, #5
 428 0208 1A70     		strb	r2, [r3]
 137:.\main.c      ****             if (uartByte != 0)
 429              		.loc 1 137 0
 430 020a 7B1D     		add	r3, r7, #5
 431 020c 1B78     		ldrb	r3, [r3]
 432 020e 002B     		cmp	r3, #0
 433 0210 1AD0     		beq	.L22
 138:.\main.c      ****             {
 139:.\main.c      ****                 for (i=0;i<4;i++)
 434              		.loc 1 139 0
 435 0212 FB1D     		add	r3, r7, #7
 436 0214 0022     		mov	r2, #0
 437 0216 1A70     		strb	r2, [r3]
 438 0218 0AE0     		b	.L23
 439              	.L24:
 140:.\main.c      ****                     pwm_light_adj[i] = uartByte;
 440              		.loc 1 140 0 discriminator 2
 441 021a FB1D     		add	r3, r7, #7
 442 021c 1B78     		ldrb	r3, [r3]
 443 021e 0C4A     		ldr	r2, .L28+4
 444 0220 791D     		add	r1, r7, #5
 445 0222 0978     		ldrb	r1, [r1]
 446 0224 D154     		strb	r1, [r2, r3]
 139:.\main.c      ****                 for (i=0;i<4;i++)
 447              		.loc 1 139 0 discriminator 2
 448 0226 FB1D     		add	r3, r7, #7
 449 0228 1A78     		ldrb	r2, [r3]
 450 022a FB1D     		add	r3, r7, #7
 451 022c 0132     		add	r2, r2, #1
 452 022e 1A70     		strb	r2, [r3]
 453              	.L23:
 139:.\main.c      ****                 for (i=0;i<4;i++)
 454              		.loc 1 139 0 is_stmt 0 discriminator 1
 455 0230 FB1D     		add	r3, r7, #7
 456 0232 1B78     		ldrb	r3, [r3]
 457 0234 032B     		cmp	r3, #3
 458 0236 F0D9     		bls	.L24
 141:.\main.c      ****                     
 142:.\main.c      ****                 Em_EEPROM_1_Write(pwm_light_adj,pwm_light_init,4);
 459              		.loc 1 142 0 is_stmt 1
 460 0238 054A     		ldr	r2, .L28+4
 461 023a 044B     		ldr	r3, .L28
 462 023c 101C     		mov	r0, r2
 463 023e 191C     		mov	r1, r3
 464 0240 0422     		mov	r2, #4
 465 0242 FFF7FEFF 		bl	Em_EEPROM_1_Write
 143:.\main.c      ****             }
 144:.\main.c      ****         #endif
 145:.\main.c      ****         /* Place your application code here. */
 146:.\main.c      ****     }
 466              		.loc 1 146 0
 467 0246 11E7     		b	.L25
 468              	.L22:
 469 0248 10E7     		b	.L25
 470              	.L29:
ARM GAS  C:\Users\ole\AppData\Local\Temp\ccQ5hhXN.s 			page 12


 471 024a C046     		.align	2
 472              	.L28:
 473 024c 00000000 		.word	pwm_light_init
 474 0250 00000000 		.word	pwm_light_adj
 475 0254 00000000 		.word	channelValue
 476 0258 00000000 		.word	counter_button_millis
 477 025c 00000000 		.word	counter_setup_adj_millis
 478 0260 00000000 		.word	mode
 479 0264 00000000 		.word	cppm_sync
 480 0268 00000000 		.word	channelTime
 481 026c E7030000 		.word	999
 482 0270 18FCFFFF 		.word	-1000
 483 0274 00000000 		.word	counter_setup_millis
 484 0278 03000080 		.word	-2147483645
 485 027c 00000000 		.word	pwm_light
 486 0280 00000000 		.word	lightOff
 487 0284 00000000 		.word	counter_off_millis
 488 0288 DC050000 		.word	1500
 489              		.cfi_endproc
 490              	.LFE33:
 491              		.size	main, .-main
 492              		.text
 493              	.Letext0:
 494              		.file 2 "c:\\program files (x86)\\cypress\\psoc creator\\3.1\\psoc creator\\import\\gnu_cs\\arm\\4
 495              		.file 3 "c:\\program files (x86)\\cypress\\psoc creator\\3.1\\psoc creator\\import\\gnu_cs\\arm\\4
 496              		.file 4 ".\\Generated_Source\\PSoC4/cytypes.h"
 497              		.section	.debug_info,"",%progbits
 498              	.Ldebug_info0:
 499 0000 8F020000 		.4byte	0x28f
 500 0004 0400     		.2byte	0x4
 501 0006 00000000 		.4byte	.Ldebug_abbrev0
 502 000a 04       		.byte	0x4
 503 000b 01       		.uleb128 0x1
 504 000c 4B010000 		.4byte	.LASF42
 505 0010 01       		.byte	0x1
 506 0011 F4000000 		.4byte	.LASF43
 507 0015 02020000 		.4byte	.LASF44
 508 0019 00000000 		.4byte	.Ldebug_ranges0+0
 509 001d 00000000 		.4byte	0
 510 0021 00000000 		.4byte	.Ldebug_line0
 511 0025 02       		.uleb128 0x2
 512 0026 01       		.byte	0x1
 513 0027 06       		.byte	0x6
 514 0028 76020000 		.4byte	.LASF0
 515 002c 03       		.uleb128 0x3
 516 002d 16000000 		.4byte	.LASF2
 517 0031 02       		.byte	0x2
 518 0032 1C       		.byte	0x1c
 519 0033 37000000 		.4byte	0x37
 520 0037 02       		.uleb128 0x2
 521 0038 01       		.byte	0x1
 522 0039 08       		.byte	0x8
 523 003a 7F000000 		.4byte	.LASF1
 524 003e 03       		.uleb128 0x3
 525 003f 20000000 		.4byte	.LASF3
 526 0043 02       		.byte	0x2
 527 0044 25       		.byte	0x25
ARM GAS  C:\Users\ole\AppData\Local\Temp\ccQ5hhXN.s 			page 13


 528 0045 49000000 		.4byte	0x49
 529 0049 02       		.uleb128 0x2
 530 004a 02       		.byte	0x2
 531 004b 05       		.byte	0x5
 532 004c 26020000 		.4byte	.LASF4
 533 0050 03       		.uleb128 0x3
 534 0051 D1000000 		.4byte	.LASF5
 535 0055 02       		.byte	0x2
 536 0056 26       		.byte	0x26
 537 0057 5B000000 		.4byte	0x5b
 538 005b 02       		.uleb128 0x2
 539 005c 02       		.byte	0x2
 540 005d 07       		.byte	0x7
 541 005e 47000000 		.4byte	.LASF6
 542 0062 02       		.uleb128 0x2
 543 0063 04       		.byte	0x4
 544 0064 05       		.byte	0x5
 545 0065 67020000 		.4byte	.LASF7
 546 0069 02       		.uleb128 0x2
 547 006a 04       		.byte	0x4
 548 006b 07       		.byte	0x7
 549 006c A6000000 		.4byte	.LASF8
 550 0070 02       		.uleb128 0x2
 551 0071 08       		.byte	0x8
 552 0072 05       		.byte	0x5
 553 0073 F4010000 		.4byte	.LASF9
 554 0077 02       		.uleb128 0x2
 555 0078 08       		.byte	0x8
 556 0079 07       		.byte	0x7
 557 007a 22010000 		.4byte	.LASF10
 558 007e 04       		.uleb128 0x4
 559 007f 04       		.byte	0x4
 560 0080 05       		.byte	0x5
 561 0081 696E7400 		.ascii	"int\000"
 562 0085 02       		.uleb128 0x2
 563 0086 04       		.byte	0x4
 564 0087 07       		.byte	0x7
 565 0088 15010000 		.4byte	.LASF11
 566 008c 03       		.uleb128 0x3
 567 008d 39010000 		.4byte	.LASF12
 568 0091 03       		.byte	0x3
 569 0092 2A       		.byte	0x2a
 570 0093 2C000000 		.4byte	0x2c
 571 0097 03       		.uleb128 0x3
 572 0098 D6010000 		.4byte	.LASF13
 573 009c 03       		.byte	0x3
 574 009d 35       		.byte	0x35
 575 009e 3E000000 		.4byte	0x3e
 576 00a2 03       		.uleb128 0x3
 577 00a3 30020000 		.4byte	.LASF14
 578 00a7 03       		.byte	0x3
 579 00a8 36       		.byte	0x36
 580 00a9 50000000 		.4byte	0x50
 581 00ad 03       		.uleb128 0x3
 582 00ae B8000000 		.4byte	.LASF15
 583 00b2 04       		.byte	0x4
 584 00b3 A1       		.byte	0xa1
ARM GAS  C:\Users\ole\AppData\Local\Temp\ccQ5hhXN.s 			page 14


 585 00b4 37000000 		.4byte	0x37
 586 00b8 02       		.uleb128 0x2
 587 00b9 04       		.byte	0x4
 588 00ba 04       		.byte	0x4
 589 00bb 70000000 		.4byte	.LASF16
 590 00bf 02       		.uleb128 0x2
 591 00c0 08       		.byte	0x8
 592 00c1 04       		.byte	0x4
 593 00c2 DC000000 		.4byte	.LASF17
 594 00c6 02       		.uleb128 0x2
 595 00c7 01       		.byte	0x1
 596 00c8 08       		.byte	0x8
 597 00c9 21020000 		.4byte	.LASF18
 598 00cd 02       		.uleb128 0x2
 599 00ce 04       		.byte	0x4
 600 00cf 07       		.byte	0x7
 601 00d0 E6010000 		.4byte	.LASF19
 602 00d4 05       		.uleb128 0x5
 603 00d5 DE010000 		.4byte	.LASF20
 604 00d9 01       		.byte	0x1
 605 00da 01       		.byte	0x1
 606 00db 0E       		.byte	0xe
 607 00dc 11010000 		.4byte	0x111
 608 00e0 06       		.uleb128 0x6
 609 00e1 63683100 		.ascii	"ch1\000"
 610 00e5 00       		.sleb128 0
 611 00e6 06       		.uleb128 0x6
 612 00e7 63683200 		.ascii	"ch2\000"
 613 00eb 01       		.sleb128 1
 614 00ec 06       		.uleb128 0x6
 615 00ed 63683300 		.ascii	"ch3\000"
 616 00f1 02       		.sleb128 2
 617 00f2 06       		.uleb128 0x6
 618 00f3 63683400 		.ascii	"ch4\000"
 619 00f7 03       		.sleb128 3
 620 00f8 06       		.uleb128 0x6
 621 00f9 63683500 		.ascii	"ch5\000"
 622 00fd 04       		.sleb128 4
 623 00fe 06       		.uleb128 0x6
 624 00ff 63683600 		.ascii	"ch6\000"
 625 0103 05       		.sleb128 5
 626 0104 06       		.uleb128 0x6
 627 0105 63683700 		.ascii	"ch7\000"
 628 0109 06       		.sleb128 6
 629 010a 06       		.uleb128 0x6
 630 010b 63683800 		.ascii	"ch8\000"
 631 010f 07       		.sleb128 7
 632 0110 00       		.byte	0
 633 0111 05       		.uleb128 0x5
 634 0112 70020000 		.4byte	.LASF21
 635 0116 01       		.byte	0x1
 636 0117 01       		.byte	0x1
 637 0118 0F       		.byte	0xf
 638 0119 30010000 		.4byte	0x130
 639 011d 07       		.uleb128 0x7
 640 011e FD000000 		.4byte	.LASF22
 641 0122 00       		.sleb128 0
ARM GAS  C:\Users\ole\AppData\Local\Temp\ccQ5hhXN.s 			page 15


 642 0123 07       		.uleb128 0x7
 643 0124 ED000000 		.4byte	.LASF23
 644 0128 01       		.sleb128 1
 645 0129 07       		.uleb128 0x7
 646 012a 2A000000 		.4byte	.LASF24
 647 012e 02       		.sleb128 2
 648 012f 00       		.byte	0
 649 0130 08       		.uleb128 0x8
 650 0131 04010000 		.4byte	.LASF45
 651 0135 01       		.byte	0x1
 652 0136 28       		.byte	0x28
 653 0137 7E000000 		.4byte	0x7e
 654 013b 00000000 		.4byte	.LFB33
 655 013f 8C020000 		.4byte	.LFE33-.LFB33
 656 0143 01       		.uleb128 0x1
 657 0144 9C       		.byte	0x9c
 658 0145 72010000 		.4byte	0x172
 659 0149 09       		.uleb128 0x9
 660 014a 6900     		.ascii	"i\000"
 661 014c 01       		.byte	0x1
 662 014d 2A       		.byte	0x2a
 663 014e 8C000000 		.4byte	0x8c
 664 0152 02       		.uleb128 0x2
 665 0153 91       		.byte	0x91
 666 0154 6F       		.sleb128 -17
 667 0155 0A       		.uleb128 0xa
 668 0156 76000000 		.4byte	.LASF25
 669 015a 01       		.byte	0x1
 670 015b 2B       		.byte	0x2b
 671 015c 8C000000 		.4byte	0x8c
 672 0160 02       		.uleb128 0x2
 673 0161 91       		.byte	0x91
 674 0162 6D       		.sleb128 -19
 675 0163 0A       		.uleb128 0xa
 676 0164 30000000 		.4byte	.LASF26
 677 0168 01       		.byte	0x1
 678 0169 2C       		.byte	0x2c
 679 016a 8C000000 		.4byte	0x8c
 680 016e 02       		.uleb128 0x2
 681 016f 91       		.byte	0x91
 682 0170 6E       		.sleb128 -18
 683 0171 00       		.byte	0
 684 0172 0B       		.uleb128 0xb
 685 0173 AD000000 		.4byte	0xad
 686 0177 82010000 		.4byte	0x182
 687 017b 0C       		.uleb128 0xc
 688 017c CD000000 		.4byte	0xcd
 689 0180 03       		.byte	0x3
 690 0181 00       		.byte	0
 691 0182 0A       		.uleb128 0xa
 692 0183 C7010000 		.4byte	.LASF27
 693 0187 01       		.byte	0x1
 694 0188 16       		.byte	0x16
 695 0189 93010000 		.4byte	0x193
 696 018d 05       		.uleb128 0x5
 697 018e 03       		.byte	0x3
 698 018f 00000000 		.4byte	pwm_light_init
ARM GAS  C:\Users\ole\AppData\Local\Temp\ccQ5hhXN.s 			page 16


 699 0193 0D       		.uleb128 0xd
 700 0194 72010000 		.4byte	0x172
 701 0198 0B       		.uleb128 0xb
 702 0199 8C000000 		.4byte	0x8c
 703 019d A8010000 		.4byte	0x1a8
 704 01a1 0C       		.uleb128 0xc
 705 01a2 CD000000 		.4byte	0xcd
 706 01a6 03       		.byte	0x3
 707 01a7 00       		.byte	0
 708 01a8 0E       		.uleb128 0xe
 709 01a9 E3000000 		.4byte	.LASF28
 710 01ad 01       		.byte	0x1
 711 01ae 11       		.byte	0x11
 712 01af 98010000 		.4byte	0x198
 713 01b3 05       		.uleb128 0x5
 714 01b4 03       		.byte	0x3
 715 01b5 00000000 		.4byte	pwm_light
 716 01b9 0E       		.uleb128 0xe
 717 01ba A5020000 		.4byte	.LASF29
 718 01be 01       		.byte	0x1
 719 01bf 13       		.byte	0x13
 720 01c0 8C000000 		.4byte	0x8c
 721 01c4 05       		.uleb128 0x5
 722 01c5 03       		.byte	0x3
 723 01c6 00000000 		.4byte	lightOff
 724 01ca 0E       		.uleb128 0xe
 725 01cb EF010000 		.4byte	.LASF30
 726 01cf 01       		.byte	0x1
 727 01d0 14       		.byte	0x14
 728 01d1 8C000000 		.4byte	0x8c
 729 01d5 05       		.uleb128 0x5
 730 01d6 03       		.byte	0x3
 731 01d7 00000000 		.4byte	mode
 732 01db 0E       		.uleb128 0xe
 733 01dc 39000000 		.4byte	.LASF31
 734 01e0 01       		.byte	0x1
 735 01e1 15       		.byte	0x15
 736 01e2 98010000 		.4byte	0x198
 737 01e6 05       		.uleb128 0x5
 738 01e7 03       		.byte	0x3
 739 01e8 00000000 		.4byte	pwm_light_adj
 740 01ec 0B       		.uleb128 0xb
 741 01ed 8C000000 		.4byte	0x8c
 742 01f1 FC010000 		.4byte	0x1fc
 743 01f5 0C       		.uleb128 0xc
 744 01f6 CD000000 		.4byte	0xcd
 745 01fa 07       		.byte	0x7
 746 01fb 00       		.byte	0
 747 01fc 0E       		.uleb128 0xe
 748 01fd 98020000 		.4byte	.LASF32
 749 0201 01       		.byte	0x1
 750 0202 18       		.byte	0x18
 751 0203 EC010000 		.4byte	0x1ec
 752 0207 05       		.uleb128 0x5
 753 0208 03       		.byte	0x3
 754 0209 00000000 		.4byte	channelValue
 755 020d 0B       		.uleb128 0xb
ARM GAS  C:\Users\ole\AppData\Local\Temp\ccQ5hhXN.s 			page 17


 756 020e 97000000 		.4byte	0x97
 757 0212 1D020000 		.4byte	0x21d
 758 0216 0C       		.uleb128 0xc
 759 0217 CD000000 		.4byte	0xcd
 760 021b 07       		.byte	0x7
 761 021c 00       		.byte	0
 762 021d 0F       		.uleb128 0xf
 763 021e 09010000 		.4byte	.LASF33
 764 0222 01       		.byte	0x1
 765 0223 1A       		.byte	0x1a
 766 0224 0D020000 		.4byte	0x20d
 767 0228 0F       		.uleb128 0xf
 768 0229 41010000 		.4byte	.LASF34
 769 022d 01       		.byte	0x1
 770 022e 1C       		.byte	0x1c
 771 022f 8C000000 		.4byte	0x8c
 772 0233 0F       		.uleb128 0xf
 773 0234 BE000000 		.4byte	.LASF35
 774 0238 01       		.byte	0x1
 775 0239 1F       		.byte	0x1f
 776 023a A2000000 		.4byte	0xa2
 777 023e 0F       		.uleb128 0xf
 778 023f 39020000 		.4byte	.LASF36
 779 0243 01       		.byte	0x1
 780 0244 20       		.byte	0x20
 781 0245 A2000000 		.4byte	0xa2
 782 0249 0F       		.uleb128 0xf
 783 024a 4E020000 		.4byte	.LASF37
 784 024e 01       		.byte	0x1
 785 024f 21       		.byte	0x21
 786 0250 A2000000 		.4byte	0xa2
 787 0254 0F       		.uleb128 0xf
 788 0255 82020000 		.4byte	.LASF38
 789 0259 01       		.byte	0x1
 790 025a 22       		.byte	0x22
 791 025b A2000000 		.4byte	0xa2
 792 025f 0E       		.uleb128 0xe
 793 0260 5A000000 		.4byte	.LASF39
 794 0264 01       		.byte	0x1
 795 0265 24       		.byte	0x24
 796 0266 A2000000 		.4byte	0xa2
 797 026a 05       		.uleb128 0x5
 798 026b 03       		.byte	0x3
 799 026c 00000000 		.4byte	flashTime_StrobeLight
 800 0270 0E       		.uleb128 0xe
 801 0271 00000000 		.4byte	.LASF40
 802 0275 01       		.byte	0x1
 803 0276 25       		.byte	0x25
 804 0277 A2000000 		.4byte	0xa2
 805 027b 05       		.uleb128 0x5
 806 027c 03       		.byte	0x3
 807 027d 00000000 		.4byte	pauseTime_StrobeLight
 808 0281 0E       		.uleb128 0xe
 809 0282 8D000000 		.4byte	.LASF41
 810 0286 01       		.byte	0x1
 811 0287 26       		.byte	0x26
 812 0288 A2000000 		.4byte	0xa2
ARM GAS  C:\Users\ole\AppData\Local\Temp\ccQ5hhXN.s 			page 18


 813 028c 05       		.uleb128 0x5
 814 028d 03       		.byte	0x3
 815 028e 00000000 		.4byte	flashTime_CollisionLight
 816 0292 00       		.byte	0
 817              		.section	.debug_abbrev,"",%progbits
 818              	.Ldebug_abbrev0:
 819 0000 01       		.uleb128 0x1
 820 0001 11       		.uleb128 0x11
 821 0002 01       		.byte	0x1
 822 0003 25       		.uleb128 0x25
 823 0004 0E       		.uleb128 0xe
 824 0005 13       		.uleb128 0x13
 825 0006 0B       		.uleb128 0xb
 826 0007 03       		.uleb128 0x3
 827 0008 0E       		.uleb128 0xe
 828 0009 1B       		.uleb128 0x1b
 829 000a 0E       		.uleb128 0xe
 830 000b 55       		.uleb128 0x55
 831 000c 17       		.uleb128 0x17
 832 000d 11       		.uleb128 0x11
 833 000e 01       		.uleb128 0x1
 834 000f 10       		.uleb128 0x10
 835 0010 17       		.uleb128 0x17
 836 0011 00       		.byte	0
 837 0012 00       		.byte	0
 838 0013 02       		.uleb128 0x2
 839 0014 24       		.uleb128 0x24
 840 0015 00       		.byte	0
 841 0016 0B       		.uleb128 0xb
 842 0017 0B       		.uleb128 0xb
 843 0018 3E       		.uleb128 0x3e
 844 0019 0B       		.uleb128 0xb
 845 001a 03       		.uleb128 0x3
 846 001b 0E       		.uleb128 0xe
 847 001c 00       		.byte	0
 848 001d 00       		.byte	0
 849 001e 03       		.uleb128 0x3
 850 001f 16       		.uleb128 0x16
 851 0020 00       		.byte	0
 852 0021 03       		.uleb128 0x3
 853 0022 0E       		.uleb128 0xe
 854 0023 3A       		.uleb128 0x3a
 855 0024 0B       		.uleb128 0xb
 856 0025 3B       		.uleb128 0x3b
 857 0026 0B       		.uleb128 0xb
 858 0027 49       		.uleb128 0x49
 859 0028 13       		.uleb128 0x13
 860 0029 00       		.byte	0
 861 002a 00       		.byte	0
 862 002b 04       		.uleb128 0x4
 863 002c 24       		.uleb128 0x24
 864 002d 00       		.byte	0
 865 002e 0B       		.uleb128 0xb
 866 002f 0B       		.uleb128 0xb
 867 0030 3E       		.uleb128 0x3e
 868 0031 0B       		.uleb128 0xb
 869 0032 03       		.uleb128 0x3
ARM GAS  C:\Users\ole\AppData\Local\Temp\ccQ5hhXN.s 			page 19


 870 0033 08       		.uleb128 0x8
 871 0034 00       		.byte	0
 872 0035 00       		.byte	0
 873 0036 05       		.uleb128 0x5
 874 0037 04       		.uleb128 0x4
 875 0038 01       		.byte	0x1
 876 0039 03       		.uleb128 0x3
 877 003a 0E       		.uleb128 0xe
 878 003b 0B       		.uleb128 0xb
 879 003c 0B       		.uleb128 0xb
 880 003d 3A       		.uleb128 0x3a
 881 003e 0B       		.uleb128 0xb
 882 003f 3B       		.uleb128 0x3b
 883 0040 0B       		.uleb128 0xb
 884 0041 01       		.uleb128 0x1
 885 0042 13       		.uleb128 0x13
 886 0043 00       		.byte	0
 887 0044 00       		.byte	0
 888 0045 06       		.uleb128 0x6
 889 0046 28       		.uleb128 0x28
 890 0047 00       		.byte	0
 891 0048 03       		.uleb128 0x3
 892 0049 08       		.uleb128 0x8
 893 004a 1C       		.uleb128 0x1c
 894 004b 0D       		.uleb128 0xd
 895 004c 00       		.byte	0
 896 004d 00       		.byte	0
 897 004e 07       		.uleb128 0x7
 898 004f 28       		.uleb128 0x28
 899 0050 00       		.byte	0
 900 0051 03       		.uleb128 0x3
 901 0052 0E       		.uleb128 0xe
 902 0053 1C       		.uleb128 0x1c
 903 0054 0D       		.uleb128 0xd
 904 0055 00       		.byte	0
 905 0056 00       		.byte	0
 906 0057 08       		.uleb128 0x8
 907 0058 2E       		.uleb128 0x2e
 908 0059 01       		.byte	0x1
 909 005a 3F       		.uleb128 0x3f
 910 005b 19       		.uleb128 0x19
 911 005c 03       		.uleb128 0x3
 912 005d 0E       		.uleb128 0xe
 913 005e 3A       		.uleb128 0x3a
 914 005f 0B       		.uleb128 0xb
 915 0060 3B       		.uleb128 0x3b
 916 0061 0B       		.uleb128 0xb
 917 0062 49       		.uleb128 0x49
 918 0063 13       		.uleb128 0x13
 919 0064 11       		.uleb128 0x11
 920 0065 01       		.uleb128 0x1
 921 0066 12       		.uleb128 0x12
 922 0067 06       		.uleb128 0x6
 923 0068 40       		.uleb128 0x40
 924 0069 18       		.uleb128 0x18
 925 006a 9642     		.uleb128 0x2116
 926 006c 19       		.uleb128 0x19
ARM GAS  C:\Users\ole\AppData\Local\Temp\ccQ5hhXN.s 			page 20


 927 006d 01       		.uleb128 0x1
 928 006e 13       		.uleb128 0x13
 929 006f 00       		.byte	0
 930 0070 00       		.byte	0
 931 0071 09       		.uleb128 0x9
 932 0072 34       		.uleb128 0x34
 933 0073 00       		.byte	0
 934 0074 03       		.uleb128 0x3
 935 0075 08       		.uleb128 0x8
 936 0076 3A       		.uleb128 0x3a
 937 0077 0B       		.uleb128 0xb
 938 0078 3B       		.uleb128 0x3b
 939 0079 0B       		.uleb128 0xb
 940 007a 49       		.uleb128 0x49
 941 007b 13       		.uleb128 0x13
 942 007c 02       		.uleb128 0x2
 943 007d 18       		.uleb128 0x18
 944 007e 00       		.byte	0
 945 007f 00       		.byte	0
 946 0080 0A       		.uleb128 0xa
 947 0081 34       		.uleb128 0x34
 948 0082 00       		.byte	0
 949 0083 03       		.uleb128 0x3
 950 0084 0E       		.uleb128 0xe
 951 0085 3A       		.uleb128 0x3a
 952 0086 0B       		.uleb128 0xb
 953 0087 3B       		.uleb128 0x3b
 954 0088 0B       		.uleb128 0xb
 955 0089 49       		.uleb128 0x49
 956 008a 13       		.uleb128 0x13
 957 008b 02       		.uleb128 0x2
 958 008c 18       		.uleb128 0x18
 959 008d 00       		.byte	0
 960 008e 00       		.byte	0
 961 008f 0B       		.uleb128 0xb
 962 0090 01       		.uleb128 0x1
 963 0091 01       		.byte	0x1
 964 0092 49       		.uleb128 0x49
 965 0093 13       		.uleb128 0x13
 966 0094 01       		.uleb128 0x1
 967 0095 13       		.uleb128 0x13
 968 0096 00       		.byte	0
 969 0097 00       		.byte	0
 970 0098 0C       		.uleb128 0xc
 971 0099 21       		.uleb128 0x21
 972 009a 00       		.byte	0
 973 009b 49       		.uleb128 0x49
 974 009c 13       		.uleb128 0x13
 975 009d 2F       		.uleb128 0x2f
 976 009e 0B       		.uleb128 0xb
 977 009f 00       		.byte	0
 978 00a0 00       		.byte	0
 979 00a1 0D       		.uleb128 0xd
 980 00a2 26       		.uleb128 0x26
 981 00a3 00       		.byte	0
 982 00a4 49       		.uleb128 0x49
 983 00a5 13       		.uleb128 0x13
ARM GAS  C:\Users\ole\AppData\Local\Temp\ccQ5hhXN.s 			page 21


 984 00a6 00       		.byte	0
 985 00a7 00       		.byte	0
 986 00a8 0E       		.uleb128 0xe
 987 00a9 34       		.uleb128 0x34
 988 00aa 00       		.byte	0
 989 00ab 03       		.uleb128 0x3
 990 00ac 0E       		.uleb128 0xe
 991 00ad 3A       		.uleb128 0x3a
 992 00ae 0B       		.uleb128 0xb
 993 00af 3B       		.uleb128 0x3b
 994 00b0 0B       		.uleb128 0xb
 995 00b1 49       		.uleb128 0x49
 996 00b2 13       		.uleb128 0x13
 997 00b3 3F       		.uleb128 0x3f
 998 00b4 19       		.uleb128 0x19
 999 00b5 02       		.uleb128 0x2
 1000 00b6 18       		.uleb128 0x18
 1001 00b7 00       		.byte	0
 1002 00b8 00       		.byte	0
 1003 00b9 0F       		.uleb128 0xf
 1004 00ba 34       		.uleb128 0x34
 1005 00bb 00       		.byte	0
 1006 00bc 03       		.uleb128 0x3
 1007 00bd 0E       		.uleb128 0xe
 1008 00be 3A       		.uleb128 0x3a
 1009 00bf 0B       		.uleb128 0xb
 1010 00c0 3B       		.uleb128 0x3b
 1011 00c1 0B       		.uleb128 0xb
 1012 00c2 49       		.uleb128 0x49
 1013 00c3 13       		.uleb128 0x13
 1014 00c4 3F       		.uleb128 0x3f
 1015 00c5 19       		.uleb128 0x19
 1016 00c6 3C       		.uleb128 0x3c
 1017 00c7 19       		.uleb128 0x19
 1018 00c8 00       		.byte	0
 1019 00c9 00       		.byte	0
 1020 00ca 00       		.byte	0
 1021              		.section	.debug_aranges,"",%progbits
 1022 0000 1C000000 		.4byte	0x1c
 1023 0004 0200     		.2byte	0x2
 1024 0006 00000000 		.4byte	.Ldebug_info0
 1025 000a 04       		.byte	0x4
 1026 000b 00       		.byte	0
 1027 000c 0000     		.2byte	0
 1028 000e 0000     		.2byte	0
 1029 0010 00000000 		.4byte	.LFB33
 1030 0014 8C020000 		.4byte	.LFE33-.LFB33
 1031 0018 00000000 		.4byte	0
 1032 001c 00000000 		.4byte	0
 1033              		.section	.debug_ranges,"",%progbits
 1034              	.Ldebug_ranges0:
 1035 0000 00000000 		.4byte	.LFB33
 1036 0004 8C020000 		.4byte	.LFE33
 1037 0008 00000000 		.4byte	0
 1038 000c 00000000 		.4byte	0
 1039              		.section	.debug_line,"",%progbits
 1040              	.Ldebug_line0:
ARM GAS  C:\Users\ole\AppData\Local\Temp\ccQ5hhXN.s 			page 22


 1041 0000 E6010000 		.section	.debug_str,"MS",%progbits,1
 1041      02004301 
 1041      00000201 
 1041      FB0E0D00 
 1041      01010101 
 1042              	.LASF40:
 1043 0000 70617573 		.ascii	"pauseTime_StrobeLight\000"
 1043      6554696D 
 1043      655F5374 
 1043      726F6265 
 1043      4C696768 
 1044              	.LASF2:
 1045 0016 5F5F7569 		.ascii	"__uint8_t\000"
 1045      6E74385F 
 1045      7400
 1046              	.LASF3:
 1047 0020 5F5F696E 		.ascii	"__int16_t\000"
 1047      7431365F 
 1047      7400
 1048              	.LASF24:
 1049 002a 73657475 		.ascii	"setup\000"
 1049      7000
 1050              	.LASF26:
 1051 0030 6C696768 		.ascii	"lightAdj\000"
 1051      7441646A 
 1051      00
 1052              	.LASF31:
 1053 0039 70776D5F 		.ascii	"pwm_light_adj\000"
 1053      6C696768 
 1053      745F6164 
 1053      6A00
 1054              	.LASF6:
 1055 0047 73686F72 		.ascii	"short unsigned int\000"
 1055      7420756E 
 1055      7369676E 
 1055      65642069 
 1055      6E7400
 1056              	.LASF39:
 1057 005a 666C6173 		.ascii	"flashTime_StrobeLight\000"
 1057      6854696D 
 1057      655F5374 
 1057      726F6265 
 1057      4C696768 
 1058              	.LASF16:
 1059 0070 666C6F61 		.ascii	"float\000"
 1059      7400
 1060              	.LASF25:
 1061 0076 75617274 		.ascii	"uartByte\000"
 1061      42797465 
 1061      00
 1062              	.LASF1:
 1063 007f 756E7369 		.ascii	"unsigned char\000"
 1063      676E6564 
 1063      20636861 
 1063      7200
 1064              	.LASF41:
 1065 008d 666C6173 		.ascii	"flashTime_CollisionLight\000"
ARM GAS  C:\Users\ole\AppData\Local\Temp\ccQ5hhXN.s 			page 23


 1065      6854696D 
 1065      655F436F 
 1065      6C6C6973 
 1065      696F6E4C 
 1066              	.LASF8:
 1067 00a6 6C6F6E67 		.ascii	"long unsigned int\000"
 1067      20756E73 
 1067      69676E65 
 1067      6420696E 
 1067      7400
 1068              	.LASF15:
 1069 00b8 75696E74 		.ascii	"uint8\000"
 1069      3800
 1070              	.LASF35:
 1071 00be 636F756E 		.ascii	"counter_off_millis\000"
 1071      7465725F 
 1071      6F66665F 
 1071      6D696C6C 
 1071      697300
 1072              	.LASF5:
 1073 00d1 5F5F7569 		.ascii	"__uint16_t\000"
 1073      6E743136 
 1073      5F7400
 1074              	.LASF17:
 1075 00dc 646F7562 		.ascii	"double\000"
 1075      6C6500
 1076              	.LASF28:
 1077 00e3 70776D5F 		.ascii	"pwm_light\000"
 1077      6C696768 
 1077      7400
 1078              	.LASF23:
 1079 00ed 67726F75 		.ascii	"ground\000"
 1079      6E6400
 1080              	.LASF43:
 1081 00f4 2E5C6D61 		.ascii	".\\main.c\000"
 1081      696E2E63 
 1081      00
 1082              	.LASF22:
 1083 00fd 666C6967 		.ascii	"flight\000"
 1083      687400
 1084              	.LASF45:
 1085 0104 6D61696E 		.ascii	"main\000"
 1085      00
 1086              	.LASF33:
 1087 0109 6368616E 		.ascii	"channelTime\000"
 1087      6E656C54 
 1087      696D6500 
 1088              	.LASF11:
 1089 0115 756E7369 		.ascii	"unsigned int\000"
 1089      676E6564 
 1089      20696E74 
 1089      00
 1090              	.LASF10:
 1091 0122 6C6F6E67 		.ascii	"long long unsigned int\000"
 1091      206C6F6E 
 1091      6720756E 
 1091      7369676E 
ARM GAS  C:\Users\ole\AppData\Local\Temp\ccQ5hhXN.s 			page 24


 1091      65642069 
 1092              	.LASF12:
 1093 0139 75696E74 		.ascii	"uint8_t\000"
 1093      385F7400 
 1094              	.LASF34:
 1095 0141 6370706D 		.ascii	"cppm_sync\000"
 1095      5F73796E 
 1095      6300
 1096              	.LASF42:
 1097 014b 474E5520 		.ascii	"GNU C 4.8.4 20140526 (release) [ARM/embedded-4_8-br"
 1097      4320342E 
 1097      382E3420 
 1097      32303134 
 1097      30353236 
 1098 017e 616E6368 		.ascii	"anch revision 211358] -mcpu=cortex-m0 -mthumb -g -O"
 1098      20726576 
 1098      6973696F 
 1098      6E203231 
 1098      31333538 
 1099 01b1 30202D66 		.ascii	"0 -ffunction-sections\000"
 1099      66756E63 
 1099      74696F6E 
 1099      2D736563 
 1099      74696F6E 
 1100              	.LASF27:
 1101 01c7 70776D5F 		.ascii	"pwm_light_init\000"
 1101      6C696768 
 1101      745F696E 
 1101      697400
 1102              	.LASF13:
 1103 01d6 696E7431 		.ascii	"int16_t\000"
 1103      365F7400 
 1104              	.LASF20:
 1105 01de 6368616E 		.ascii	"chanels\000"
 1105      656C7300 
 1106              	.LASF19:
 1107 01e6 73697A65 		.ascii	"sizetype\000"
 1107      74797065 
 1107      00
 1108              	.LASF30:
 1109 01ef 6D6F6465 		.ascii	"mode\000"
 1109      00
 1110              	.LASF9:
 1111 01f4 6C6F6E67 		.ascii	"long long int\000"
 1111      206C6F6E 
 1111      6720696E 
 1111      7400
 1112              	.LASF44:
 1113 0202 583A5C44 		.ascii	"X:\\Dokumente\\Ole\\FLC\\FLC.cydsn\000"
 1113      6F6B756D 
 1113      656E7465 
 1113      5C4F6C65 
 1113      5C464C43 
 1114              	.LASF18:
 1115 0221 63686172 		.ascii	"char\000"
 1115      00
 1116              	.LASF4:
ARM GAS  C:\Users\ole\AppData\Local\Temp\ccQ5hhXN.s 			page 25


 1117 0226 73686F72 		.ascii	"short int\000"
 1117      7420696E 
 1117      7400
 1118              	.LASF14:
 1119 0230 75696E74 		.ascii	"uint16_t\000"
 1119      31365F74 
 1119      00
 1120              	.LASF36:
 1121 0239 636F756E 		.ascii	"counter_setup_millis\000"
 1121      7465725F 
 1121      73657475 
 1121      705F6D69 
 1121      6C6C6973 
 1122              	.LASF37:
 1123 024e 636F756E 		.ascii	"counter_setup_adj_millis\000"
 1123      7465725F 
 1123      73657475 
 1123      705F6164 
 1123      6A5F6D69 
 1124              	.LASF7:
 1125 0267 6C6F6E67 		.ascii	"long int\000"
 1125      20696E74 
 1125      00
 1126              	.LASF21:
 1127 0270 6D6F6465 		.ascii	"modes\000"
 1127      7300
 1128              	.LASF0:
 1129 0276 7369676E 		.ascii	"signed char\000"
 1129      65642063 
 1129      68617200 
 1130              	.LASF38:
 1131 0282 636F756E 		.ascii	"counter_button_millis\000"
 1131      7465725F 
 1131      62757474 
 1131      6F6E5F6D 
 1131      696C6C69 
 1132              	.LASF32:
 1133 0298 6368616E 		.ascii	"channelValue\000"
 1133      6E656C56 
 1133      616C7565 
 1133      00
 1134              	.LASF29:
 1135 02a5 6C696768 		.ascii	"lightOff\000"
 1135      744F6666 
 1135      00
 1136              		.ident	"GCC: (GNU Tools for ARM Embedded Processors) 4.8.4 20140526 (release) [ARM/embedded-4_8-br
